

Microchip MPLAB XC8 Assembler V2.50 build 20240725155939 
                                                                                               Mon Sep 30 20:52:41 2024

Microchip MPLAB XC8 C Compiler v2.50 (Free license) build 20240725155939 Og1 
     1                           	processor	18F57Q43
     2                           	fnconf	rparam,??,?,0
     3                           	pagewidth 120
     4                           	opt	flic
     5                           	psect	idataCOMRAM,global,class=CODE,space=0,delta=1,noexec
     6                           	psect	idataBANK5,global,class=CODE,space=0,delta=1,noexec
     7                           	psect	cinit,global,reloc=2,class=CODE,space=0,delta=1
     8                           	psect	dataCOMRAM,global,class=COMRAM,space=1,delta=1,lowdata,noexec
     9                           	psect	dataBANK5,global,class=BANK5,space=1,delta=1,lowdata,noexec
    10                           	psect	cstackCOMRAM,global,class=COMRAM,space=1,delta=1,lowdata,noexec
    11                           	psect	text0,global,reloc=2,class=CODE,space=0,delta=1
    12                           	psect	text1,global,reloc=2,class=CODE,space=0,delta=1
    13                           	psect	text2,global,reloc=2,class=CODE,space=0,delta=1
    14                           	psect	text3,global,reloc=2,class=CODE,space=0,delta=1
    15                           	psect	text4,global,reloc=2,class=CODE,space=0,delta=1
    16                           	psect	text5,global,reloc=2,class=CODE,space=0,delta=1
    17                           	psect	smallconst,global,reloc=2,class=SMALLCONST,space=0,delta=1,noexec
    18                           	psect	intsave_regs,global,class=BIGRAM,space=1,delta=1,noexec
    19                           	psect	rparam,global,class=COMRAM,space=1,delta=1,noexec
    20                           	psect	config,global,abs,ovrld,class=CONFIG,space=4,delta=1,noexec
    21   000000                     
    22                           ; Generated 23/02/2024 GMT
    23                           ; 
    24                           ; Copyright © 2024, Microchip Technology Inc. and its subsidiaries ("Microchip")
    25                           ; All rights reserved.
    26                           ; 
    27                           ; This software is developed by Microchip Technology Inc. and its subsidiaries ("Microch
      +                          ip").
    28                           ; 
    29                           ; Redistribution and use in source and binary forms, with or without modification, are
    30                           ; permitted provided that the following conditions are met:
    31                           ; 
    32                           ;     1. Redistributions of source code must retain the above copyright notice, this lis
      +                          t of
    33                           ;        conditions and the following disclaimer.
    34                           ; 
    35                           ;     2. Redistributions in binary form must reproduce the above copyright notice, this 
      +                          list
    36                           ;        of conditions and the following disclaimer in the documentation and/or other
    37                           ;        materials provided with the distribution. Publication is not required when
    38                           ;        this file is used in an embedded application.
    39                           ; 
    40                           ;     3. Microchip's name may not be used to endorse or promote products derived from th
      +                          is
    41                           ;        software without specific prior written permission.
    42                           ; 
    43                           ; THIS SOFTWARE IS PROVIDED BY MICROCHIP "AS IS" AND ANY EXPRESS OR IMPLIED WARRANTIES,
    44                           ; INCLUDING, BUT NOT LIMITED TO, THE IMPLIED WARRANTIES OF MERCHANTABILITY AND FITNESS F
      +                          OR
    45                           ; PURPOSE ARE DISCLAIMED.  IN NO EVENT SHALL MICROCHIP BE LIABLE FOR ANY DIRECT, INDIREC
      +                          T,
    46                           ; INCIDENTAL, SPECIAL, EXEMPLARY, OR CONSEQUENTIAL DAMAGES (INCLUDING BUT NOT LIMITED TO
    47                           ; PROCUREMENT OF SUBSTITUTE GOODS OR SERVICES; LOSS OF USE, DATA OR PROFITS; OR BUSINESS
    48                           ; INTERRUPTION) HOWSOEVER CAUSED AND ON ANY THEORY OF LIABILITY, WHETHER IN CONTRACT, ST
      +                          RICT
    49                           ; LIABILITY, OR TORT (INCLUDING NEGLIGENCE OR OTHERWISE) ARISING IN ANY WAY OUT OF THE U
      +                          SE OF
    50                           ; THIS SOFTWARE, EVEN IF ADVISED OF THE POSSIBILITY OF SUCH DAMAGE.
    51                           ; 
    52                           ; 
    53                           ; Code-generator required, PIC18F57Q43 Definitions
    54                           ; 
    55                           ; SFR Addresses
    56   0004E0                     bsr             equ	1248
    57   0004E9                     fsr0            equ	1257
    58   0004EA                     fsr0h           equ	1258
    59   0004E9                     fsr0l           equ	1257
    60   0004E1                     fsr1            equ	1249
    61   0004E2                     fsr1h           equ	1250
    62   0004E1                     fsr1l           equ	1249
    63   0004D9                     fsr2            equ	1241
    64   0004DA                     fsr2h           equ	1242
    65   0004D9                     fsr2l           equ	1241
    66   0004EF                     indf0           equ	1263
    67   0004E7                     indf1           equ	1255
    68   0004DF                     indf2           equ	1247
    69   0004D6                     intcon          equ	1238
    70   000041                     nvmcon          equ	65
    71   0004F9                     pcl             equ	1273
    72   0004FA                     pclath          equ	1274
    73   0004FB                     pclatu          equ	1275
    74   0004EB                     plusw0          equ	1259
    75   0004E3                     plusw1          equ	1251
    76   0004DB                     plusw2          equ	1243
    77   0004ED                     postdec0        equ	1261
    78   0004E5                     postdec1        equ	1253
    79   0004DD                     postdec2        equ	1245
    80   0004EE                     postinc0        equ	1262
    81   0004E6                     postinc1        equ	1254
    82   0004DE                     postinc2        equ	1246
    83   0004EC                     preinc0         equ	1260
    84   0004E4                     preinc1         equ	1252
    85   0004DC                     preinc2         equ	1244
    86   0004F3                     prod            equ	1267
    87   0004F4                     prodh           equ	1268
    88   0004F3                     prodl           equ	1267
    89   0004D8                     status          equ	1240
    90   0004F5                     tablat          equ	1269
    91   0004F6                     tblptr          equ	1270
    92   0004F7                     tblptrh         equ	1271
    93   0004F6                     tblptrl         equ	1270
    94   0004F8                     tblptru         equ	1272
    95   0004FD                     tosl            equ	1277
    96   0004E8                     wreg            equ	1256
    97   000039                     CLKRCON         equ	57	;# 
    98   00003A                     CLKRCLK         equ	58	;# 
    99   000040                     NVMCON0         equ	64	;# 
   100   000041                     NVMCON1         equ	65	;# 
   101   000042                     NVMLOCK         equ	66	;# 
   102   000043                     NVMADR          equ	67	;# 
   103   000043                     NVMADRL         equ	67	;# 
   104   000044                     NVMADRH         equ	68	;# 
   105   000045                     NVMADRU         equ	69	;# 
   106   000046                     NVMDAT          equ	70	;# 
   107   000046                     NVMDATL         equ	70	;# 
   108   000047                     NVMDATH         equ	71	;# 
   109   000048                     VREGCON         equ	72	;# 
   110   000049                     BORCON          equ	73	;# 
   111   00004A                     HLVDCON0        equ	74	;# 
   112   00004B                     HLVDCON1        equ	75	;# 
   113   00004C                     ZCDCON          equ	76	;# 
   114   000060                     PMD0            equ	96	;# 
   115   000061                     PMD1            equ	97	;# 
   116   000063                     PMD3            equ	99	;# 
   117   000064                     PMD4            equ	100	;# 
   118   000065                     PMD5            equ	101	;# 
   119   000066                     PMD6            equ	102	;# 
   120   000067                     PMD7            equ	103	;# 
   121   000068                     PMD8            equ	104	;# 
   122   00006A                     MD1CON0         equ	106	;# 
   123   00006B                     MD1CON1         equ	107	;# 
   124   00006C                     MD1SRC          equ	108	;# 
   125   00006D                     MD1CARL         equ	109	;# 
   126   00006E                     MD1CARH         equ	110	;# 
   127   00006F                     CMOUT           equ	111	;# 
   128   000070                     CM1CON0         equ	112	;# 
   129   000071                     CM1CON1         equ	113	;# 
   130   000072                     CM1NCH          equ	114	;# 
   131   000073                     CM1PCH          equ	115	;# 
   132   000074                     CM2CON0         equ	116	;# 
   133   000075                     CM2CON1         equ	117	;# 
   134   000076                     CM2NCH          equ	118	;# 
   135   000077                     CM2PCH          equ	119	;# 
   136   000078                     WDTCON0         equ	120	;# 
   137   000079                     WDTCON1         equ	121	;# 
   138   00007A                     WDTPS           equ	122	;# 
   139   00007A                     WDTPSL          equ	122	;# 
   140   00007B                     WDTPSH          equ	123	;# 
   141   00007C                     WDTTMR          equ	124	;# 
   142   00007D                     DAC1DAT         equ	125	;# 
   143   00007D                     DAC1DATL        equ	125	;# 
   144   00007F                     DAC1CON         equ	127	;# 
   145   000080                     SPI1RXB         equ	128	;# 
   146   000081                     SPI1TXB         equ	129	;# 
   147   000082                     SPI1TCNT        equ	130	;# 
   148   000082                     SPI1TCNTL       equ	130	;# 
   149   000083                     SPI1TCNTH       equ	131	;# 
   150   000084                     SPI1CON0        equ	132	;# 
   151   000085                     SPI1CON1        equ	133	;# 
   152   000086                     SPI1CON2        equ	134	;# 
   153   000087                     SPI1STATUS      equ	135	;# 
   154   000088                     SPI1TWIDTH      equ	136	;# 
   155   000089                     SPI1BAUD        equ	137	;# 
   156   00008A                     SPI1INTF        equ	138	;# 
   157   00008B                     SPI1INTE        equ	139	;# 
   158   00008C                     SPI1CLK         equ	140	;# 
   159   00008D                     SPI2RXB         equ	141	;# 
   160   00008E                     SPI2TXB         equ	142	;# 
   161   00008F                     SPI2TCNT        equ	143	;# 
   162   00008F                     SPI2TCNTL       equ	143	;# 
   163   000090                     SPI2TCNTH       equ	144	;# 
   164   000091                     SPI2CON0        equ	145	;# 
   165   000092                     SPI2CON1        equ	146	;# 
   166   000093                     SPI2CON2        equ	147	;# 
   167   000094                     SPI2STATUS      equ	148	;# 
   168   000095                     SPI2TWIDTH      equ	149	;# 
   169   000096                     SPI2BAUD        equ	150	;# 
   170   000097                     SPI2INTF        equ	151	;# 
   171   000098                     SPI2INTE        equ	152	;# 
   172   000099                     SPI2CLK         equ	153	;# 
   173   0000AC                     ACTCON          equ	172	;# 
   174   0000AD                     OSCCON1         equ	173	;# 
   175   0000AE                     OSCCON2         equ	174	;# 
   176   0000AF                     OSCCON3         equ	175	;# 
   177   0000B0                     OSCTUNE         equ	176	;# 
   178   0000B1                     OSCFRQ          equ	177	;# 
   179   0000B1                     OSCFREQ         equ	177	;# 
   180   0000B2                     OSCSTAT         equ	178	;# 
   181   0000B2                     OSCSTAT1        equ	178	;# 
   182   0000B3                     OSCEN           equ	179	;# 
   183   0000B4                     PRLOCK          equ	180	;# 
   184   0000B5                     SCANPR          equ	181	;# 
   185   0000B6                     DMA1PR          equ	182	;# 
   186   0000B7                     DMA2PR          equ	183	;# 
   187   0000B8                     DMA3PR          equ	184	;# 
   188   0000B9                     DMA4PR          equ	185	;# 
   189   0000BA                     DMA5PR          equ	186	;# 
   190   0000BB                     DMA6PR          equ	187	;# 
   191   0000BE                     MAINPR          equ	190	;# 
   192   0000BF                     ISRPR           equ	191	;# 
   193   0000D4                     CLCDATA         equ	212	;# 
   194   0000D5                     CLCSELECT       equ	213	;# 
   195   0000D6                     CLCnCON         equ	214	;# 
   196   0000D7                     CLCnPOL         equ	215	;# 
   197   0000D8                     CLCnSEL0        equ	216	;# 
   198   0000D9                     CLCnSEL1        equ	217	;# 
   199   0000DA                     CLCnSEL2        equ	218	;# 
   200   0000DB                     CLCnSEL3        equ	219	;# 
   201   0000DC                     CLCnGLS0        equ	220	;# 
   202   0000DD                     CLCnGLS1        equ	221	;# 
   203   0000DE                     CLCnGLS2        equ	222	;# 
   204   0000DF                     CLCnGLS3        equ	223	;# 
   205   0000E8                     DMASELECT       equ	232	;# 
   206   0000E9                     DMAnBUF         equ	233	;# 
   207   0000EA                     DMAnDCNT        equ	234	;# 
   208   0000EA                     DMAnDCNTL       equ	234	;# 
   209   0000EB                     DMAnDCNTH       equ	235	;# 
   210   0000EC                     DMAnDPTR        equ	236	;# 
   211   0000EC                     DMAnDPTRL       equ	236	;# 
   212   0000ED                     DMAnDPTRH       equ	237	;# 
   213   0000EE                     DMAnDSZ         equ	238	;# 
   214   0000EE                     DMAnDSZL        equ	238	;# 
   215   0000EF                     DMAnDSZH        equ	239	;# 
   216   0000F0                     DMAnDSA         equ	240	;# 
   217   0000F0                     DMAnDSAL        equ	240	;# 
   218   0000F1                     DMAnDSAH        equ	241	;# 
   219   0000F2                     DMAnSCNT        equ	242	;# 
   220   0000F2                     DMAnSCNTL       equ	242	;# 
   221   0000F3                     DMAnSCNTH       equ	243	;# 
   222   0000F4                     DMAnSPTR        equ	244	;# 
   223   0000F4                     DMAnSPTRL       equ	244	;# 
   224   0000F5                     DMAnSPTRH       equ	245	;# 
   225   0000F6                     DMAnSPTRU       equ	246	;# 
   226   0000F7                     DMAnSSZ         equ	247	;# 
   227   0000F7                     DMAnSSZL        equ	247	;# 
   228   0000F8                     DMAnSSZH        equ	248	;# 
   229   0000F9                     DMAnSSA         equ	249	;# 
   230   0000F9                     DMAnSSAL        equ	249	;# 
   231   0000FA                     DMAnSSAH        equ	250	;# 
   232   0000FB                     DMAnSSAU        equ	251	;# 
   233   0000FC                     DMAnCON0        equ	252	;# 
   234   0000FD                     DMAnCON1        equ	253	;# 
   235   0000FE                     DMAnAIRQ        equ	254	;# 
   236   0000FF                     DMAnSIRQ        equ	255	;# 
   237   000200                     PPSLOCK         equ	512	;# 
   238   000201                     RA0PPS          equ	513	;# 
   239   000202                     RA1PPS          equ	514	;# 
   240   000203                     RA2PPS          equ	515	;# 
   241   000204                     RA3PPS          equ	516	;# 
   242   000205                     RA4PPS          equ	517	;# 
   243   000206                     RA5PPS          equ	518	;# 
   244   000207                     RA6PPS          equ	519	;# 
   245   000208                     RA7PPS          equ	520	;# 
   246   000209                     RB0PPS          equ	521	;# 
   247   00020A                     RB1PPS          equ	522	;# 
   248   00020B                     RB2PPS          equ	523	;# 
   249   00020C                     RB3PPS          equ	524	;# 
   250   00020D                     RB4PPS          equ	525	;# 
   251   00020E                     RB5PPS          equ	526	;# 
   252   00020F                     RB6PPS          equ	527	;# 
   253   000210                     RB7PPS          equ	528	;# 
   254   000211                     RC0PPS          equ	529	;# 
   255   000212                     RC1PPS          equ	530	;# 
   256   000213                     RC2PPS          equ	531	;# 
   257   000214                     RC3PPS          equ	532	;# 
   258   000215                     RC4PPS          equ	533	;# 
   259   000216                     RC5PPS          equ	534	;# 
   260   000217                     RC6PPS          equ	535	;# 
   261   000218                     RC7PPS          equ	536	;# 
   262   000219                     RD0PPS          equ	537	;# 
   263   00021A                     RD1PPS          equ	538	;# 
   264   00021B                     RD2PPS          equ	539	;# 
   265   00021C                     RD3PPS          equ	540	;# 
   266   00021D                     RD4PPS          equ	541	;# 
   267   00021E                     RD5PPS          equ	542	;# 
   268   00021F                     RD6PPS          equ	543	;# 
   269   000220                     RD7PPS          equ	544	;# 
   270   000221                     RE0PPS          equ	545	;# 
   271   000222                     RE1PPS          equ	546	;# 
   272   000223                     RE2PPS          equ	547	;# 
   273   000229                     RF0PPS          equ	553	;# 
   274   00022A                     RF1PPS          equ	554	;# 
   275   00022B                     RF2PPS          equ	555	;# 
   276   00022C                     RF3PPS          equ	556	;# 
   277   00022D                     RF4PPS          equ	557	;# 
   278   00022E                     RF5PPS          equ	558	;# 
   279   00022F                     RF6PPS          equ	559	;# 
   280   000230                     RF7PPS          equ	560	;# 
   281   00023E                     INT0PPS         equ	574	;# 
   282   00023F                     INT1PPS         equ	575	;# 
   283   000240                     INT2PPS         equ	576	;# 
   284   000241                     T0CKIPPS        equ	577	;# 
   285   000242                     T1CKIPPS        equ	578	;# 
   286   000243                     T1GPPS          equ	579	;# 
   287   000244                     T3CKIPPS        equ	580	;# 
   288   000245                     T3GPPS          equ	581	;# 
   289   000246                     T5CKIPPS        equ	582	;# 
   290   000247                     T5GPPS          equ	583	;# 
   291   000248                     T2INPPS         equ	584	;# 
   292   000249                     T4INPPS         equ	585	;# 
   293   00024A                     T6INPPS         equ	586	;# 
   294   00024F                     CCP1PPS         equ	591	;# 
   295   000250                     CCP2PPS         equ	592	;# 
   296   000251                     CCP3PPS         equ	593	;# 
   297   000253                     PWM1ERSPPS      equ	595	;# 
   298   000254                     PWM2ERSPPS      equ	596	;# 
   299   000255                     PWM3ERSPPS      equ	597	;# 
   300   000257                     PWMIN0PPS       equ	599	;# 
   301   000258                     PWMIN1PPS       equ	600	;# 
   302   000259                     SMT1WINPPS      equ	601	;# 
   303   00025A                     SMT1SIGPPS      equ	602	;# 
   304   00025B                     CWG1PPS         equ	603	;# 
   305   00025B                     CWG1INPPS       equ	603	;# 
   306   00025C                     CWG2PPS         equ	604	;# 
   307   00025C                     CWG2INPPS       equ	604	;# 
   308   00025D                     CWG3PPS         equ	605	;# 
   309   00025D                     CWG3INPPS       equ	605	;# 
   310   00025E                     MD1CARLPPS      equ	606	;# 
   311   00025E                     MDCARLPPS       equ	606	;# 
   312   00025F                     MD1CARHPPS      equ	607	;# 
   313   00025F                     MDCARHPPS       equ	607	;# 
   314   000260                     MD1SRCPPS       equ	608	;# 
   315   000260                     MDSRCPPS        equ	608	;# 
   316   000261                     CLCIN0PPS       equ	609	;# 
   317   000262                     CLCIN1PPS       equ	610	;# 
   318   000263                     CLCIN2PPS       equ	611	;# 
   319   000264                     CLCIN3PPS       equ	612	;# 
   320   000265                     CLCIN4PPS       equ	613	;# 
   321   000266                     CLCIN5PPS       equ	614	;# 
   322   000267                     CLCIN6PPS       equ	615	;# 
   323   000268                     CLCIN7PPS       equ	616	;# 
   324   000269                     ADACTPPS        equ	617	;# 
   325   00026A                     SPI1SCKPPS      equ	618	;# 
   326   00026B                     SPI1SDIPPS      equ	619	;# 
   327   00026C                     SPI1SSPPS       equ	620	;# 
   328   00026D                     SPI2SCKPPS      equ	621	;# 
   329   00026E                     SPI2SDIPPS      equ	622	;# 
   330   00026F                     SPI2SSPPS       equ	623	;# 
   331   000270                     I2C1SDAPPS      equ	624	;# 
   332   000271                     I2C1SCLPPS      equ	625	;# 
   333   000272                     U1RXPPS         equ	626	;# 
   334   000273                     U1CTSPPS        equ	627	;# 
   335   000274                     U2RXPPS         equ	628	;# 
   336   000275                     U2CTSPPS        equ	629	;# 
   337   000276                     U3RXPPS         equ	630	;# 
   338   000277                     U3CTSPPS        equ	631	;# 
   339   000278                     U4RXPPS         equ	632	;# 
   340   000279                     U4CTSPPS        equ	633	;# 
   341   00027A                     U5RXPPS         equ	634	;# 
   342   00027B                     U5CTSPPS        equ	635	;# 
   343   000286                     RC4I2C          equ	646	;# 
   344   000287                     RC3I2C          equ	647	;# 
   345   000288                     RB2I2C          equ	648	;# 
   346   000289                     RB1I2C          equ	649	;# 
   347   00028B                     I2C1RXB         equ	651	;# 
   348   00028C                     I2C1TXB         equ	652	;# 
   349   00028D                     I2C1CNT         equ	653	;# 
   350   00028E                     I2C1ADB0        equ	654	;# 
   351   00028F                     I2C1ADB1        equ	655	;# 
   352   000290                     I2C1ADR0        equ	656	;# 
   353   000291                     I2C1ADR1        equ	657	;# 
   354   000292                     I2C1ADR2        equ	658	;# 
   355   000293                     I2C1ADR3        equ	659	;# 
   356   000294                     I2C1CON0        equ	660	;# 
   357   000295                     I2C1CON1        equ	661	;# 
   358   000296                     I2C1CON2        equ	662	;# 
   359   000297                     I2C1ERR         equ	663	;# 
   360   000298                     I2C1STAT0       equ	664	;# 
   361   000299                     I2C1STAT1       equ	665	;# 
   362   00029A                     I2C1PIR         equ	666	;# 
   363   00029B                     I2C1PIE         equ	667	;# 
   364   00029C                     I2C1CLK         equ	668	;# 
   365   00029D                     I2C1BTO         equ	669	;# 
   366   0002A1                     U1RXB           equ	673	;# 
   367   0002A1                     U1RXBL          equ	673	;# 
   368   0002A2                     U1RXCHK         equ	674	;# 
   369   0002A3                     U1TXB           equ	675	;# 
   370   0002A3                     U1TXBL          equ	675	;# 
   371   0002A4                     U1TXCHK         equ	676	;# 
   372   0002A5                     U1P1            equ	677	;# 
   373   0002A5                     U1P1L           equ	677	;# 
   374   0002A6                     U1P1H           equ	678	;# 
   375   0002A7                     U1P2            equ	679	;# 
   376   0002A7                     U1P2L           equ	679	;# 
   377   0002A8                     U1P2H           equ	680	;# 
   378   0002A9                     U1P3            equ	681	;# 
   379   0002A9                     U1P3L           equ	681	;# 
   380   0002AA                     U1P3H           equ	682	;# 
   381   0002AB                     U1CON0          equ	683	;# 
   382   0002AC                     U1CON1          equ	684	;# 
   383   0002AD                     U1CON2          equ	685	;# 
   384   0002AE                     U1BRG           equ	686	;# 
   385   0002AE                     U1BRGL          equ	686	;# 
   386   0002AF                     U1BRGH          equ	687	;# 
   387   0002B0                     U1FIFO          equ	688	;# 
   388   0002B1                     U1UIR           equ	689	;# 
   389   0002B2                     U1ERRIR         equ	690	;# 
   390   0002B3                     U1ERRIE         equ	691	;# 
   391   0002B4                     U2RXB           equ	692	;# 
   392   0002B4                     U2RXBL          equ	692	;# 
   393   0002B6                     U2TXB           equ	694	;# 
   394   0002B6                     U2TXBL          equ	694	;# 
   395   0002B8                     U2P1            equ	696	;# 
   396   0002B8                     U2P1L           equ	696	;# 
   397   0002BA                     U2P2            equ	698	;# 
   398   0002BA                     U2P2L           equ	698	;# 
   399   0002BC                     U2P3            equ	700	;# 
   400   0002BC                     U2P3L           equ	700	;# 
   401   0002BE                     U2CON0          equ	702	;# 
   402   0002BF                     U2CON1          equ	703	;# 
   403   0002C0                     U2CON2          equ	704	;# 
   404   0002C1                     U2BRG           equ	705	;# 
   405   0002C1                     U2BRGL          equ	705	;# 
   406   0002C2                     U2BRGH          equ	706	;# 
   407   0002C3                     U2FIFO          equ	707	;# 
   408   0002C4                     U2UIR           equ	708	;# 
   409   0002C5                     U2ERRIR         equ	709	;# 
   410   0002C6                     U2ERRIE         equ	710	;# 
   411   0002C7                     U3RXB           equ	711	;# 
   412   0002C7                     U3RXBL          equ	711	;# 
   413   0002C9                     U3TXB           equ	713	;# 
   414   0002C9                     U3TXBL          equ	713	;# 
   415   0002CB                     U3P1            equ	715	;# 
   416   0002CB                     U3P1L           equ	715	;# 
   417   0002CD                     U3P2            equ	717	;# 
   418   0002CD                     U3P2L           equ	717	;# 
   419   0002CF                     U3P3            equ	719	;# 
   420   0002CF                     U3P3L           equ	719	;# 
   421   0002D1                     U3CON0          equ	721	;# 
   422   0002D2                     U3CON1          equ	722	;# 
   423   0002D3                     U3CON2          equ	723	;# 
   424   0002D4                     U3BRG           equ	724	;# 
   425   0002D4                     U3BRGL          equ	724	;# 
   426   0002D5                     U3BRGH          equ	725	;# 
   427   0002D6                     U3FIFO          equ	726	;# 
   428   0002D7                     U3UIR           equ	727	;# 
   429   0002D8                     U3ERRIR         equ	728	;# 
   430   0002D9                     U3ERRIE         equ	729	;# 
   431   0002DA                     U4RXB           equ	730	;# 
   432   0002DA                     U4RXBL          equ	730	;# 
   433   0002DC                     U4TXB           equ	732	;# 
   434   0002DC                     U4TXBL          equ	732	;# 
   435   0002DE                     U4P1            equ	734	;# 
   436   0002DE                     U4P1L           equ	734	;# 
   437   0002E0                     U4P2            equ	736	;# 
   438   0002E0                     U4P2L           equ	736	;# 
   439   0002E2                     U4P3            equ	738	;# 
   440   0002E2                     U4P3L           equ	738	;# 
   441   0002E4                     U4CON0          equ	740	;# 
   442   0002E5                     U4CON1          equ	741	;# 
   443   0002E6                     U4CON2          equ	742	;# 
   444   0002E7                     U4BRG           equ	743	;# 
   445   0002E7                     U4BRGL          equ	743	;# 
   446   0002E8                     U4BRGH          equ	744	;# 
   447   0002E9                     U4FIFO          equ	745	;# 
   448   0002EA                     U4UIR           equ	746	;# 
   449   0002EB                     U4ERRIR         equ	747	;# 
   450   0002EC                     U4ERRIE         equ	748	;# 
   451   0002ED                     U5RXB           equ	749	;# 
   452   0002ED                     U5RXBL          equ	749	;# 
   453   0002EF                     U5TXB           equ	751	;# 
   454   0002EF                     U5TXBL          equ	751	;# 
   455   0002F1                     U5P1            equ	753	;# 
   456   0002F1                     U5P1L           equ	753	;# 
   457   0002F3                     U5P2            equ	755	;# 
   458   0002F3                     U5P2L           equ	755	;# 
   459   0002F5                     U5P3            equ	757	;# 
   460   0002F5                     U5P3L           equ	757	;# 
   461   0002F7                     U5CON0          equ	759	;# 
   462   0002F8                     U5CON1          equ	760	;# 
   463   0002F9                     U5CON2          equ	761	;# 
   464   0002FA                     U5BRG           equ	762	;# 
   465   0002FA                     U5BRGL          equ	762	;# 
   466   0002FB                     U5BRGH          equ	763	;# 
   467   0002FC                     U5FIFO          equ	764	;# 
   468   0002FD                     U5UIR           equ	765	;# 
   469   0002FE                     U5ERRIR         equ	766	;# 
   470   0002FF                     U5ERRIE         equ	767	;# 
   471   000300                     SMT1TMR         equ	768	;# 
   472   000300                     SMT1TMRL        equ	768	;# 
   473   000301                     SMT1TMRH        equ	769	;# 
   474   000302                     SMT1TMRU        equ	770	;# 
   475   000303                     SMT1CPR         equ	771	;# 
   476   000303                     SMT1CPRL        equ	771	;# 
   477   000304                     SMT1CPRH        equ	772	;# 
   478   000305                     SMT1CPRU        equ	773	;# 
   479   000306                     SMT1CPW         equ	774	;# 
   480   000306                     SMT1CPWL        equ	774	;# 
   481   000307                     SMT1CPWH        equ	775	;# 
   482   000308                     SMT1CPWU        equ	776	;# 
   483   000309                     SMT1PR          equ	777	;# 
   484   000309                     SMT1PRL         equ	777	;# 
   485   00030A                     SMT1PRH         equ	778	;# 
   486   00030B                     SMT1PRU         equ	779	;# 
   487   00030C                     SMT1CON0        equ	780	;# 
   488   00030D                     SMT1CON1        equ	781	;# 
   489   00030E                     SMT1STAT        equ	782	;# 
   490   00030F                     SMT1CLK         equ	783	;# 
   491   000310                     SMT1SIG         equ	784	;# 
   492   000311                     SMT1WIN         equ	785	;# 
   493   000318                     TMR0L           equ	792	;# 
   494   000318                     TMR0            equ	792	;# 
   495   000319                     TMR0H           equ	793	;# 
   496   000319                     PR0             equ	793	;# 
   497   00031A                     T0CON0          equ	794	;# 
   498   00031B                     T0CON1          equ	795	;# 
   499   00031C                     TMR1            equ	796	;# 
   500   00031C                     TMR1L           equ	796	;# 
   501   00031D                     TMR1H           equ	797	;# 
   502   00031E                     T1CON           equ	798	;# 
   503   00031E                     TMR1CON         equ	798	;# 
   504   00031F                     T1GCON          equ	799	;# 
   505   00031F                     TMR1GCON        equ	799	;# 
   506   000320                     T1GATE          equ	800	;# 
   507   000320                     TMR1GATE        equ	800	;# 
   508   000321                     T1CLK           equ	801	;# 
   509   000321                     TMR1CLK         equ	801	;# 
   510   000321                     PR1             equ	801	;# 
   511   000322                     T2TMR           equ	802	;# 
   512   000322                     TMR2            equ	802	;# 
   513   000323                     T2PR            equ	803	;# 
   514   000323                     PR2             equ	803	;# 
   515   000324                     T2CON           equ	804	;# 
   516   000325                     T2HLT           equ	805	;# 
   517   000326                     T2CLKCON        equ	806	;# 
   518   000326                     T2CLK           equ	806	;# 
   519   000327                     T2RST           equ	807	;# 
   520   000328                     TMR3            equ	808	;# 
   521   000328                     TMR3L           equ	808	;# 
   522   000329                     TMR3H           equ	809	;# 
   523   00032A                     T3CON           equ	810	;# 
   524   00032A                     TMR3CON         equ	810	;# 
   525   00032B                     T3GCON          equ	811	;# 
   526   00032B                     TMR3GCON        equ	811	;# 
   527   00032C                     T3GATE          equ	812	;# 
   528   00032C                     TMR3GATE        equ	812	;# 
   529   00032D                     T3CLK           equ	813	;# 
   530   00032D                     TMR3CLK         equ	813	;# 
   531   00032D                     PR3             equ	813	;# 
   532   00032E                     T4TMR           equ	814	;# 
   533   00032E                     TMR4            equ	814	;# 
   534   00032F                     T4PR            equ	815	;# 
   535   00032F                     PR4             equ	815	;# 
   536   000330                     T4CON           equ	816	;# 
   537   000331                     T4HLT           equ	817	;# 
   538   000332                     T4CLKCON        equ	818	;# 
   539   000332                     T4CLK           equ	818	;# 
   540   000333                     T4RST           equ	819	;# 
   541   000334                     TMR5            equ	820	;# 
   542   000334                     TMR5L           equ	820	;# 
   543   000335                     TMR5H           equ	821	;# 
   544   000336                     T5CON           equ	822	;# 
   545   000336                     TMR5CON         equ	822	;# 
   546   000337                     T5GCON          equ	823	;# 
   547   000337                     TMR5GCON        equ	823	;# 
   548   000338                     T5GATE          equ	824	;# 
   549   000338                     TMR5GATE        equ	824	;# 
   550   000339                     T5CLK           equ	825	;# 
   551   000339                     TMR5CLK         equ	825	;# 
   552   000339                     PR5             equ	825	;# 
   553   00033A                     T6TMR           equ	826	;# 
   554   00033A                     TMR6            equ	826	;# 
   555   00033B                     T6PR            equ	827	;# 
   556   00033B                     PR6             equ	827	;# 
   557   00033C                     T6CON           equ	828	;# 
   558   00033D                     T6HLT           equ	829	;# 
   559   00033E                     T6CLKCON        equ	830	;# 
   560   00033E                     T6CLK           equ	830	;# 
   561   00033F                     T6RST           equ	831	;# 
   562   000340                     CCPR1           equ	832	;# 
   563   000340                     CCPR1L          equ	832	;# 
   564   000341                     CCPR1H          equ	833	;# 
   565   000342                     CCP1CON         equ	834	;# 
   566   000343                     CCP1CAP         equ	835	;# 
   567   000344                     CCPR2           equ	836	;# 
   568   000344                     CCPR2L          equ	836	;# 
   569   000345                     CCPR2H          equ	837	;# 
   570   000346                     CCP2CON         equ	838	;# 
   571   000347                     CCP2CAP         equ	839	;# 
   572   000348                     CCPR3           equ	840	;# 
   573   000348                     CCPR3L          equ	840	;# 
   574   000349                     CCPR3H          equ	841	;# 
   575   00034A                     CCP3CON         equ	842	;# 
   576   00034B                     CCP3CAP         equ	843	;# 
   577   00034C                     CCPTMRS0        equ	844	;# 
   578   00034F                     CRCDATA         equ	847	;# 
   579   00034F                     CRCDATL         equ	847	;# 
   580   000350                     CRCDATH         equ	848	;# 
   581   000351                     CRCACC          equ	849	;# 
   582   000351                     CRCACCL         equ	849	;# 
   583   000352                     CRCACCH         equ	850	;# 
   584   000353                     CRCSHFT         equ	851	;# 
   585   000353                     CRCSHIFTL       equ	851	;# 
   586   000354                     CRCSHIFTH       equ	852	;# 
   587   000355                     CRCXOR          equ	853	;# 
   588   000355                     CRCXORL         equ	853	;# 
   589   000356                     CRCXORH         equ	854	;# 
   590   000357                     CRCCON0         equ	855	;# 
   591   000358                     CRCCON1         equ	856	;# 
   592   00035A                     SCANLADR        equ	858	;# 
   593   00035A                     SCANLADRL       equ	858	;# 
   594   00035B                     SCANLADRH       equ	859	;# 
   595   00035C                     SCANLADRU       equ	860	;# 
   596   00035D                     SCANHADR        equ	861	;# 
   597   00035D                     SCANHADRL       equ	861	;# 
   598   00035E                     SCANHADRH       equ	862	;# 
   599   00035F                     SCANHADRU       equ	863	;# 
   600   000360                     SCANCON0        equ	864	;# 
   601   000361                     SCANTRIG        equ	865	;# 
   602   000362                     IPR0            equ	866	;# 
   603   000363                     IPR1            equ	867	;# 
   604   000364                     IPR2            equ	868	;# 
   605   000365                     IPR3            equ	869	;# 
   606   000366                     IPR4            equ	870	;# 
   607   000367                     IPR5            equ	871	;# 
   608   000368                     IPR6            equ	872	;# 
   609   000369                     IPR7            equ	873	;# 
   610   00036A                     IPR8            equ	874	;# 
   611   00036B                     IPR9            equ	875	;# 
   612   00036C                     IPR10           equ	876	;# 
   613   00036D                     IPR11           equ	877	;# 
   614   00036E                     IPR12           equ	878	;# 
   615   00036F                     IPR13           equ	879	;# 
   616   000370                     IPR14           equ	880	;# 
   617   000371                     IPR15           equ	881	;# 
   618   000373                     STATUS_CSHAD    equ	883	;# 
   619   000374                     WREG_CSHAD      equ	884	;# 
   620   000375                     BSR_CSHAD       equ	885	;# 
   621   000376                     SHADCON         equ	886	;# 
   622   000377                     STATUS_SHAD     equ	887	;# 
   623   000378                     WREG_SHAD       equ	888	;# 
   624   000379                     BSR_SHAD        equ	889	;# 
   625   00037A                     PCLATH_SHAD     equ	890	;# 
   626   00037B                     PCLATU_SHAD     equ	891	;# 
   627   00037C                     FSR0SH          equ	892	;# 
   628   00037C                     FSR0L_SHAD      equ	892	;# 
   629   00037D                     FSR0H_SHAD      equ	893	;# 
   630   00037E                     FSR1SH          equ	894	;# 
   631   00037E                     FSR1L_SHAD      equ	894	;# 
   632   00037F                     FSR1H_SHAD      equ	895	;# 
   633   000380                     FSR2SH          equ	896	;# 
   634   000380                     FSR2L_SHAD      equ	896	;# 
   635   000381                     FSR2H_SHAD      equ	897	;# 
   636   000382                     PRODSH          equ	898	;# 
   637   000382                     PRODL_SHAD      equ	898	;# 
   638   000383                     PRODH_SHAD      equ	899	;# 
   639   0003BC                     CWG1CLK         equ	956	;# 
   640   0003BC                     CWG1CLKCON      equ	956	;# 
   641   0003BD                     CWG1ISM         equ	957	;# 
   642   0003BD                     CWG1DAT         equ	957	;# 
   643   0003BE                     CWG1DBR         equ	958	;# 
   644   0003BF                     CWG1DBF         equ	959	;# 
   645   0003C0                     CWG1CON0        equ	960	;# 
   646   0003C1                     CWG1CON1        equ	961	;# 
   647   0003C2                     CWG1AS0         equ	962	;# 
   648   0003C3                     CWG1AS1         equ	963	;# 
   649   0003C4                     CWG1STR         equ	964	;# 
   650   0003C5                     CWG2CLK         equ	965	;# 
   651   0003C5                     CWG2CLKCON      equ	965	;# 
   652   0003C6                     CWG2ISM         equ	966	;# 
   653   0003C6                     CWG2DAT         equ	966	;# 
   654   0003C7                     CWG2DBR         equ	967	;# 
   655   0003C8                     CWG2DBF         equ	968	;# 
   656   0003C9                     CWG2CON0        equ	969	;# 
   657   0003CA                     CWG2CON1        equ	970	;# 
   658   0003CB                     CWG2AS0         equ	971	;# 
   659   0003CC                     CWG2AS1         equ	972	;# 
   660   0003CD                     CWG2STR         equ	973	;# 
   661   0003CE                     CWG3CLK         equ	974	;# 
   662   0003CE                     CWG3CLKCON      equ	974	;# 
   663   0003CF                     CWG3ISM         equ	975	;# 
   664   0003CF                     CWG3DAT         equ	975	;# 
   665   0003D0                     CWG3DBR         equ	976	;# 
   666   0003D1                     CWG3DBF         equ	977	;# 
   667   0003D2                     CWG3CON0        equ	978	;# 
   668   0003D3                     CWG3CON1        equ	979	;# 
   669   0003D4                     CWG3AS0         equ	980	;# 
   670   0003D5                     CWG3AS1         equ	981	;# 
   671   0003D6                     CWG3STR         equ	982	;# 
   672   0003D7                     FVRCON          equ	983	;# 
   673   0003D8                     ADCPCON         equ	984	;# 
   674   0003D8                     ADCP            equ	984	;# 
   675   0003D9                     ADLTH           equ	985	;# 
   676   0003D9                     ADLTHL          equ	985	;# 
   677   0003DA                     ADLTHH          equ	986	;# 
   678   0003DB                     ADUTH           equ	987	;# 
   679   0003DB                     ADUTHL          equ	987	;# 
   680   0003DC                     ADUTHH          equ	988	;# 
   681   0003DD                     ADERR           equ	989	;# 
   682   0003DD                     ADERRL          equ	989	;# 
   683   0003DE                     ADERRH          equ	990	;# 
   684   0003DF                     ADSTPT          equ	991	;# 
   685   0003DF                     ADSTPTL         equ	991	;# 
   686   0003E0                     ADSTPTH         equ	992	;# 
   687   0003E1                     ADFLTR          equ	993	;# 
   688   0003E1                     ADFLTRL         equ	993	;# 
   689   0003E2                     ADFLTRH         equ	994	;# 
   690   0003E3                     ADACC           equ	995	;# 
   691   0003E3                     ADACCL          equ	995	;# 
   692   0003E4                     ADACCH          equ	996	;# 
   693   0003E5                     ADACCU          equ	997	;# 
   694   0003E6                     ADCNT           equ	998	;# 
   695   0003E7                     ADRPT           equ	999	;# 
   696   0003E8                     ADPREV          equ	1000	;# 
   697   0003E8                     ADPREVL         equ	1000	;# 
   698   0003E9                     ADPREVH         equ	1001	;# 
   699   0003EA                     ADRES           equ	1002	;# 
   700   0003EA                     ADRESL          equ	1002	;# 
   701   0003EB                     ADRESH          equ	1003	;# 
   702   0003EC                     ADPCH           equ	1004	;# 
   703   0003EE                     ADACQ           equ	1006	;# 
   704   0003EE                     ADACQL          equ	1006	;# 
   705   0003EF                     ADACQH          equ	1007	;# 
   706   0003F0                     ADCAP           equ	1008	;# 
   707   0003F1                     ADPRE           equ	1009	;# 
   708   0003F1                     ADPREL          equ	1009	;# 
   709   0003F2                     ADPREH          equ	1010	;# 
   710   0003F3                     ADCON0          equ	1011	;# 
   711   0003F4                     ADCON1          equ	1012	;# 
   712   0003F5                     ADCON2          equ	1013	;# 
   713   0003F6                     ADCON3          equ	1014	;# 
   714   0003F7                     ADSTAT          equ	1015	;# 
   715   0003F8                     ADREF           equ	1016	;# 
   716   0003F9                     ADACT           equ	1017	;# 
   717   0003FA                     ADCLK           equ	1018	;# 
   718   000400                     ANSELA          equ	1024	;# 
   719   000401                     WPUA            equ	1025	;# 
   720   000402                     ODCONA          equ	1026	;# 
   721   000403                     SLRCONA         equ	1027	;# 
   722   000404                     INLVLA          equ	1028	;# 
   723   000405                     IOCAP           equ	1029	;# 
   724   000406                     IOCAN           equ	1030	;# 
   725   000407                     IOCAF           equ	1031	;# 
   726   000408                     ANSELB          equ	1032	;# 
   727   000409                     WPUB            equ	1033	;# 
   728   00040A                     ODCONB          equ	1034	;# 
   729   00040B                     SLRCONB         equ	1035	;# 
   730   00040C                     INLVLB          equ	1036	;# 
   731   00040D                     IOCBP           equ	1037	;# 
   732   00040E                     IOCBN           equ	1038	;# 
   733   00040F                     IOCBF           equ	1039	;# 
   734   000410                     ANSELC          equ	1040	;# 
   735   000411                     WPUC            equ	1041	;# 
   736   000412                     ODCONC          equ	1042	;# 
   737   000413                     SLRCONC         equ	1043	;# 
   738   000414                     INLVLC          equ	1044	;# 
   739   000415                     IOCCP           equ	1045	;# 
   740   000416                     IOCCN           equ	1046	;# 
   741   000417                     IOCCF           equ	1047	;# 
   742   000418                     ANSELD          equ	1048	;# 
   743   000419                     WPUD            equ	1049	;# 
   744   00041A                     ODCOND          equ	1050	;# 
   745   00041B                     SLRCOND         equ	1051	;# 
   746   00041C                     INLVLD          equ	1052	;# 
   747   000420                     ANSELE          equ	1056	;# 
   748   000421                     WPUE            equ	1057	;# 
   749   000422                     ODCONE          equ	1058	;# 
   750   000423                     SLRCONE         equ	1059	;# 
   751   000424                     INLVLE          equ	1060	;# 
   752   000425                     IOCEP           equ	1061	;# 
   753   000426                     IOCEN           equ	1062	;# 
   754   000427                     IOCEF           equ	1063	;# 
   755   000428                     ANSELF          equ	1064	;# 
   756   000429                     WPUF            equ	1065	;# 
   757   00042A                     ODCONF          equ	1066	;# 
   758   00042B                     SLRCONF         equ	1067	;# 
   759   00042C                     INLVLF          equ	1068	;# 
   760   000440                     NCO1ACC         equ	1088	;# 
   761   000440                     NCO1ACCL        equ	1088	;# 
   762   000441                     NCO1ACCH        equ	1089	;# 
   763   000442                     NCO1ACCU        equ	1090	;# 
   764   000443                     NCO1INC         equ	1091	;# 
   765   000443                     NCO1INCL        equ	1091	;# 
   766   000444                     NCO1INCH        equ	1092	;# 
   767   000445                     NCO1INCU        equ	1093	;# 
   768   000446                     NCO1CON         equ	1094	;# 
   769   000447                     NCO1CLK         equ	1095	;# 
   770   000448                     NCO2ACC         equ	1096	;# 
   771   000448                     NCO2ACCL        equ	1096	;# 
   772   000449                     NCO2ACCH        equ	1097	;# 
   773   00044A                     NCO2ACCU        equ	1098	;# 
   774   00044B                     NCO2INC         equ	1099	;# 
   775   00044B                     NCO2INCL        equ	1099	;# 
   776   00044C                     NCO2INCH        equ	1100	;# 
   777   00044D                     NCO2INCU        equ	1101	;# 
   778   00044E                     NCO2CON         equ	1102	;# 
   779   00044F                     NCO2CLK         equ	1103	;# 
   780   000450                     NCO3ACC         equ	1104	;# 
   781   000450                     NCO3ACCL        equ	1104	;# 
   782   000451                     NCO3ACCH        equ	1105	;# 
   783   000452                     NCO3ACCU        equ	1106	;# 
   784   000453                     NCO3INC         equ	1107	;# 
   785   000453                     NCO3INCL        equ	1107	;# 
   786   000454                     NCO3INCH        equ	1108	;# 
   787   000455                     NCO3INCU        equ	1109	;# 
   788   000456                     NCO3CON         equ	1110	;# 
   789   000457                     NCO3CLK         equ	1111	;# 
   790   000459                     IVTLOCK         equ	1113	;# 
   791   00045A                     IVTAD           equ	1114	;# 
   792   00045A                     IVTADL          equ	1114	;# 
   793   00045B                     IVTADH          equ	1115	;# 
   794   00045C                     IVTADU          equ	1116	;# 
   795   00045D                     IVTBASE         equ	1117	;# 
   796   00045D                     IVTBASEL        equ	1117	;# 
   797   00045E                     IVTBASEH        equ	1118	;# 
   798   00045F                     IVTBASEU        equ	1119	;# 
   799   000460                     PWM1ERS         equ	1120	;# 
   800   000461                     PWM1CLK         equ	1121	;# 
   801   000462                     PWM1LDS         equ	1122	;# 
   802   000463                     PWM1PR          equ	1123	;# 
   803   000463                     PWM1PRL         equ	1123	;# 
   804   000464                     PWM1PRH         equ	1124	;# 
   805   000465                     PWM1CPRE        equ	1125	;# 
   806   000466                     PWM1PIPOS       equ	1126	;# 
   807   000467                     PWM1GIR         equ	1127	;# 
   808   000468                     PWM1GIE         equ	1128	;# 
   809   000469                     PWM1CON         equ	1129	;# 
   810   00046A                     PWM1S1CFG       equ	1130	;# 
   811   00046B                     PWM1S1P1        equ	1131	;# 
   812   00046B                     PWM1S1P1L       equ	1131	;# 
   813   00046C                     PWM1S1P1H       equ	1132	;# 
   814   00046D                     PWM1S1P2        equ	1133	;# 
   815   00046D                     PWM1S1P2L       equ	1133	;# 
   816   00046E                     PWM1S1P2H       equ	1134	;# 
   817   00046F                     PWM2ERS         equ	1135	;# 
   818   000470                     PWM2CLK         equ	1136	;# 
   819   000471                     PWM2LDS         equ	1137	;# 
   820   000472                     PWM2PR          equ	1138	;# 
   821   000472                     PWM2PRL         equ	1138	;# 
   822   000473                     PWM2PRH         equ	1139	;# 
   823   000474                     PWM2CPRE        equ	1140	;# 
   824   000475                     PWM2PIPOS       equ	1141	;# 
   825   000476                     PWM2GIR         equ	1142	;# 
   826   000477                     PWM2GIE         equ	1143	;# 
   827   000478                     PWM2CON         equ	1144	;# 
   828   000479                     PWM2S1CFG       equ	1145	;# 
   829   00047A                     PWM2S1P1        equ	1146	;# 
   830   00047A                     PWM2S1P1L       equ	1146	;# 
   831   00047B                     PWM2S1P1H       equ	1147	;# 
   832   00047C                     PWM2S1P2        equ	1148	;# 
   833   00047C                     PWM2S1P2L       equ	1148	;# 
   834   00047D                     PWM2S1P2H       equ	1149	;# 
   835   00047E                     PWM3ERS         equ	1150	;# 
   836   00047F                     PWM3CLK         equ	1151	;# 
   837   000480                     PWM3LDS         equ	1152	;# 
   838   000481                     PWM3PR          equ	1153	;# 
   839   000481                     PWM3PRL         equ	1153	;# 
   840   000482                     PWM3PRH         equ	1154	;# 
   841   000483                     PWM3CPRE        equ	1155	;# 
   842   000484                     PWM3PIPOS       equ	1156	;# 
   843   000485                     PWM3GIR         equ	1157	;# 
   844   000486                     PWM3GIE         equ	1158	;# 
   845   000487                     PWM3CON         equ	1159	;# 
   846   000488                     PWM3S1CFG       equ	1160	;# 
   847   000489                     PWM3S1P1        equ	1161	;# 
   848   000489                     PWM3S1P1L       equ	1161	;# 
   849   00048A                     PWM3S1P1H       equ	1162	;# 
   850   00048B                     PWM3S1P2        equ	1163	;# 
   851   00048B                     PWM3S1P2L       equ	1163	;# 
   852   00048C                     PWM3S1P2H       equ	1164	;# 
   853   00049C                     PWMLOAD         equ	1180	;# 
   854   00049D                     PWMEN           equ	1181	;# 
   855   00049E                     PIE0            equ	1182	;# 
   856   00049F                     PIE1            equ	1183	;# 
   857   0004A0                     PIE2            equ	1184	;# 
   858   0004A1                     PIE3            equ	1185	;# 
   859   0004A2                     PIE4            equ	1186	;# 
   860   0004A3                     PIE5            equ	1187	;# 
   861   0004A4                     PIE6            equ	1188	;# 
   862   0004A5                     PIE7            equ	1189	;# 
   863   0004A6                     PIE8            equ	1190	;# 
   864   0004A7                     PIE9            equ	1191	;# 
   865   0004A8                     PIE10           equ	1192	;# 
   866   0004A9                     PIE11           equ	1193	;# 
   867   0004AA                     PIE12           equ	1194	;# 
   868   0004AB                     PIE13           equ	1195	;# 
   869   0004AC                     PIE14           equ	1196	;# 
   870   0004AD                     PIE15           equ	1197	;# 
   871   0004AE                     PIR0            equ	1198	;# 
   872   0004AF                     PIR1            equ	1199	;# 
   873   0004B0                     PIR2            equ	1200	;# 
   874   0004B1                     PIR3            equ	1201	;# 
   875   0004B2                     PIR4            equ	1202	;# 
   876   0004B3                     PIR5            equ	1203	;# 
   877   0004B4                     PIR6            equ	1204	;# 
   878   0004B5                     PIR7            equ	1205	;# 
   879   0004B6                     PIR8            equ	1206	;# 
   880   0004B7                     PIR9            equ	1207	;# 
   881   0004B8                     PIR10           equ	1208	;# 
   882   0004B9                     PIR11           equ	1209	;# 
   883   0004BA                     PIR12           equ	1210	;# 
   884   0004BB                     PIR13           equ	1211	;# 
   885   0004BC                     PIR14           equ	1212	;# 
   886   0004BD                     PIR15           equ	1213	;# 
   887   0004BE                     LATA            equ	1214	;# 
   888   0004BF                     LATB            equ	1215	;# 
   889   0004C0                     LATC            equ	1216	;# 
   890   0004C1                     LATD            equ	1217	;# 
   891   0004C2                     LATE            equ	1218	;# 
   892   0004C3                     LATF            equ	1219	;# 
   893   0004C6                     TRISA           equ	1222	;# 
   894   0004C7                     TRISB           equ	1223	;# 
   895   0004C8                     TRISC           equ	1224	;# 
   896   0004C9                     TRISD           equ	1225	;# 
   897   0004CA                     TRISE           equ	1226	;# 
   898   0004CB                     TRISF           equ	1227	;# 
   899   0004CE                     PORTA           equ	1230	;# 
   900   0004CF                     PORTB           equ	1231	;# 
   901   0004D0                     PORTC           equ	1232	;# 
   902   0004D1                     PORTD           equ	1233	;# 
   903   0004D2                     PORTE           equ	1234	;# 
   904   0004D3                     PORTF           equ	1235	;# 
   905   0004D6                     INTCON0         equ	1238	;# 
   906   0004D7                     INTCON1         equ	1239	;# 
   907   0004D8                     STATUS          equ	1240	;# 
   908   0004D9                     FSR2            equ	1241	;# 
   909   0004D9                     FSR2L           equ	1241	;# 
   910   0004DA                     FSR2H           equ	1242	;# 
   911   0004DB                     PLUSW2          equ	1243	;# 
   912   0004DC                     PREINC2         equ	1244	;# 
   913   0004DD                     POSTDEC2        equ	1245	;# 
   914   0004DE                     POSTINC2        equ	1246	;# 
   915   0004DF                     INDF2           equ	1247	;# 
   916   0004E0                     BSR             equ	1248	;# 
   917   0004E1                     FSR1            equ	1249	;# 
   918   0004E1                     FSR1L           equ	1249	;# 
   919   0004E2                     FSR1H           equ	1250	;# 
   920   0004E3                     PLUSW1          equ	1251	;# 
   921   0004E4                     PREINC1         equ	1252	;# 
   922   0004E5                     POSTDEC1        equ	1253	;# 
   923   0004E6                     POSTINC1        equ	1254	;# 
   924   0004E7                     INDF1           equ	1255	;# 
   925   0004E8                     WREG            equ	1256	;# 
   926   0004E9                     FSR0            equ	1257	;# 
   927   0004E9                     FSR0L           equ	1257	;# 
   928   0004EA                     FSR0H           equ	1258	;# 
   929   0004EB                     PLUSW0          equ	1259	;# 
   930   0004EC                     PREINC0         equ	1260	;# 
   931   0004ED                     POSTDEC0        equ	1261	;# 
   932   0004EE                     POSTINC0        equ	1262	;# 
   933   0004EF                     INDF0           equ	1263	;# 
   934   0004F0                     PCON0           equ	1264	;# 
   935   0004F1                     PCON1           equ	1265	;# 
   936   0004F2                     CPUDOZE         equ	1266	;# 
   937   0004F3                     PROD            equ	1267	;# 
   938   0004F3                     PRODL           equ	1267	;# 
   939   0004F4                     PRODH           equ	1268	;# 
   940   0004F5                     TABLAT          equ	1269	;# 
   941   0004F6                     TBLPTR          equ	1270	;# 
   942   0004F6                     TBLPTRL         equ	1270	;# 
   943   0004F7                     TBLPTRH         equ	1271	;# 
   944   0004F8                     TBLPTRU         equ	1272	;# 
   945   0004F9                     PCLAT           equ	1273	;# 
   946   0004F9                     PCL             equ	1273	;# 
   947   0004FA                     PCLATH          equ	1274	;# 
   948   0004FB                     PCLATU          equ	1275	;# 
   949   0004FC                     STKPTR          equ	1276	;# 
   950   0004FD                     TOS             equ	1277	;# 
   951   0004FD                     TOSL            equ	1277	;# 
   952   0004FE                     TOSH            equ	1278	;# 
   953   0004FF                     TOSU            equ	1279	;# 
   954                           
   955                           	psect	idataCOMRAM
   956   002F8E                     __pidataCOMRAM:
   957                           	callstack 0
   958                           
   959                           ;initializer for _led_nueve
   960   002F8E  00                 	db	0
   961   002F8F  FF                 	db	255
   962   002F90  00                 	db	0
   963   002F91  00                 	db	0
   964   002F92  00                 	db	0
   965   002F93  00                 	db	0
   966   002F94  00                 	db	0
   967   002F95  00                 	db	0
   968   002F96  00                 	db	0
   969   002F97  00                 	db	0
   970                           
   971                           ;initializer for _led_ocho
   972   002F98  00                 	db	0
   973   002F99  00                 	db	0
   974   002F9A  FF                 	db	255
   975   002F9B  00                 	db	0
   976   002F9C  00                 	db	0
   977   002F9D  00                 	db	0
   978   002F9E  00                 	db	0
   979   002F9F  00                 	db	0
   980   002FA0  00                 	db	0
   981   002FA1  00                 	db	0
   982                           
   983                           ;initializer for _led_siete
   984   002FA2  00                 	db	0
   985   002FA3  00                 	db	0
   986   002FA4  00                 	db	0
   987   002FA5  FF                 	db	255
   988   002FA6  00                 	db	0
   989   002FA7  00                 	db	0
   990   002FA8  00                 	db	0
   991   002FA9  00                 	db	0
   992   002FAA  00                 	db	0
   993   002FAB  00                 	db	0
   994                           
   995                           ;initializer for _led_seis
   996   002FAC  00                 	db	0
   997   002FAD  00                 	db	0
   998   002FAE  00                 	db	0
   999   002FAF  00                 	db	0
  1000   002FB0  FF                 	db	255
  1001   002FB1  00                 	db	0
  1002   002FB2  00                 	db	0
  1003   002FB3  00                 	db	0
  1004   002FB4  00                 	db	0
  1005   002FB5  00                 	db	0
  1006                           
  1007                           ;initializer for _led_cinco
  1008   002FB6  00                 	db	0
  1009   002FB7  00                 	db	0
  1010   002FB8  00                 	db	0
  1011   002FB9  00                 	db	0
  1012   002FBA  00                 	db	0
  1013   002FBB  FF                 	db	255
  1014   002FBC  00                 	db	0
  1015   002FBD  00                 	db	0
  1016   002FBE  00                 	db	0
  1017   002FBF  00                 	db	0
  1018                           
  1019                           ;initializer for _led_cuatro
  1020   002FC0  00                 	db	0
  1021   002FC1  00                 	db	0
  1022   002FC2  00                 	db	0
  1023   002FC3  00                 	db	0
  1024   002FC4  00                 	db	0
  1025   002FC5  00                 	db	0
  1026   002FC6  FF                 	db	255
  1027   002FC7  00                 	db	0
  1028   002FC8  00                 	db	0
  1029   002FC9  00                 	db	0
  1030                           
  1031                           ;initializer for _led_tres
  1032   002FCA  00                 	db	0
  1033   002FCB  00                 	db	0
  1034   002FCC  00                 	db	0
  1035   002FCD  00                 	db	0
  1036   002FCE  00                 	db	0
  1037   002FCF  00                 	db	0
  1038   002FD0  00                 	db	0
  1039   002FD1  FF                 	db	255
  1040   002FD2  00                 	db	0
  1041   002FD3  00                 	db	0
  1042                           
  1043                           ;initializer for _led_dos
  1044   002FD4  00                 	db	0
  1045   002FD5  00                 	db	0
  1046   002FD6  00                 	db	0
  1047   002FD7  00                 	db	0
  1048   002FD8  00                 	db	0
  1049   002FD9  00                 	db	0
  1050   002FDA  00                 	db	0
  1051   002FDB  00                 	db	0
  1052   002FDC  FF                 	db	255
  1053   002FDD  00                 	db	0
  1054                           
  1055                           	psect	idataBANK5
  1056   003060                     __pidataBANK5:
  1057                           	callstack 0
  1058                           
  1059                           ;initializer for _led_diez
  1060   003060  FF                 	db	255
  1061   003061  00                 	db	0
  1062   003062  00                 	db	0
  1063   003063  00                 	db	0
  1064   003064  00                 	db	0
  1065   003065  00                 	db	0
  1066   003066  00                 	db	0
  1067   003067  00                 	db	0
  1068   003068  00                 	db	0
  1069   003069  00                 	db	0
  1070                           
  1071                           ;initializer for _led_uno
  1072   00306A  00                 	db	0
  1073   00306B  00                 	db	0
  1074   00306C  00                 	db	0
  1075   00306D  00                 	db	0
  1076   00306E  00                 	db	0
  1077   00306F  00                 	db	0
  1078   003070  00                 	db	0
  1079   003071  00                 	db	0
  1080   003072  00                 	db	0
  1081   003073  FF                 	db	255
  1082   000087                     _SPI1STATUSbits set	135
  1083   000081                     _SPI1TXB        set	129
  1084   0000D6                     _CLCnCON        set	214
  1085   0000D7                     _CLCnPOL        set	215
  1086   0000DF                     _CLCnGLS3       set	223
  1087   0000DE                     _CLCnGLS2       set	222
  1088   0000DD                     _CLCnGLS1       set	221
  1089   0000DC                     _CLCnGLS0       set	220
  1090   0000DA                     _CLCnSEL2       set	218
  1091   0000D9                     _CLCnSEL1       set	217
  1092   0000D8                     _CLCnSEL0       set	216
  1093   0000D5                     _CLCSELECT      set	213
  1094   00008C                     _SPI1CLK        set	140
  1095   000086                     _SPI1CON2       set	134
  1096   000085                     _SPI1CON1       set	133
  1097   000084                     _SPI1CON0       set	132
  1098   0000B3                     _OSCEN          set	179
  1099   0000B1                     _OSCFRQ         set	177
  1100   0000AD                     _OSCCON1        set	173
  1101   000229                     _RF0PPS         set	553
  1102   000340                     _CCPR1L         set	832
  1103   000341                     _CCPR1H         set	833
  1104   000342                     _CCP1CON        set	834
  1105   000323                     _T2PR           set	803
  1106   000326                     _T2CLKCON       set	806
  1107   000324                     _T2CON          set	804
  1108   000428                     _ANSELFbits     set	1064
  1109   0004CB                     _TRISFbits      set	1227
  1110                           
  1111                           ; #config settings
  1112                           
  1113                           	psect	cinit
  1114   002FDE                     __pcinit:
  1115                           	callstack 0
  1116   002FDE                     start_initialization:
  1117                           	callstack 0
  1118   002FDE                     __initialization:
  1119                           	callstack 0
  1120                           
  1121                           ; Initialize objects allocated to BANK5 (20 bytes)
  1122                           ; load TBLPTR registers with __pidataBANK5
  1123   002FDE  0E60               	movlw	low __pidataBANK5
  1124   002FE0  6EF6               	movwf	tblptrl,c
  1125   002FE2  0E30               	movlw	high __pidataBANK5
  1126   002FE4  6EF7               	movwf	tblptrh,c
  1127   002FE6  0E00               	movlw	low (__pidataBANK5 shr (0+16))
  1128   002FE8  6EF8               	movwf	tblptru,c
  1129   002FEA  EE01  F160         	lfsr	0,__pdataBANK5
  1130   002FEE  EE10 F014          	lfsr	1,20
  1131   002FF2                     copy_data0:
  1132   002FF2  0009               	tblrd		*+
  1133   002FF4  C4F5 F4EE          	movff	tablat,postinc0
  1134   002FF8  50E5               	movf	postdec1,w,c
  1135   002FFA  50E1               	movf	fsr1l,w,c
  1136   002FFC  E1FA               	bnz	copy_data0
  1137                           
  1138                           ; Initialize objects allocated to COMRAM (80 bytes)
  1139                           ; load TBLPTR registers with __pidataCOMRAM
  1140   002FFE  0E8E               	movlw	low __pidataCOMRAM
  1141   003000  6EF6               	movwf	tblptrl,c
  1142   003002  0E2F               	movlw	high __pidataCOMRAM
  1143   003004  6EF7               	movwf	tblptrh,c
  1144   003006  0E00               	movlw	low (__pidataCOMRAM shr (0+16))
  1145   003008  6EF8               	movwf	tblptru,c
  1146   00300A  EE01  F101         	lfsr	0,__pdataCOMRAM
  1147   00300E  EE10 F050          	lfsr	1,80
  1148   003012                     copy_data1:
  1149   003012  0009               	tblrd		*+
  1150   003014  C4F5 F4EE          	movff	tablat,postinc0
  1151   003018  50E5               	movf	postdec1,w,c
  1152   00301A  50E1               	movf	fsr1l,w,c
  1153   00301C  E1FA               	bnz	copy_data1
  1154   00301E                     end_of_initialization:
  1155                           	callstack 0
  1156   00301E                     __end_of__initialization:
  1157                           	callstack 0
  1158   00301E  0100               	movlb	0
  1159   003020  EF01  F013         	goto	_main	;jump to C main() function
  1160                           
  1161                           	psect	dataCOMRAM
  1162   000501                     __pdataCOMRAM:
  1163                           	callstack 0
  1164   000501                     _led_nueve:
  1165                           	callstack 0
  1166   000501                     	ds	10
  1167   00050B                     _led_ocho:
  1168                           	callstack 0
  1169   00050B                     	ds	10
  1170   000515                     _led_siete:
  1171                           	callstack 0
  1172   000515                     	ds	10
  1173   00051F                     _led_seis:
  1174                           	callstack 0
  1175   00051F                     	ds	10
  1176   000529                     _led_cinco:
  1177                           	callstack 0
  1178   000529                     	ds	10
  1179   000533                     _led_cuatro:
  1180                           	callstack 0
  1181   000533                     	ds	10
  1182   00053D                     _led_tres:
  1183                           	callstack 0
  1184   00053D                     	ds	10
  1185   000547                     _led_dos:
  1186                           	callstack 0
  1187   000547                     	ds	10
  1188                           
  1189                           	psect	dataBANK5
  1190   000560                     __pdataBANK5:
  1191                           	callstack 0
  1192   000560                     _led_diez:
  1193                           	callstack 0
  1194   000560                     	ds	10
  1195   00056A                     _led_uno:
  1196                           	callstack 0
  1197   00056A                     	ds	10
  1198                           
  1199                           	psect	cstackCOMRAM
  1200   000551                     __pcstackCOMRAM:
  1201                           	callstack 0
  1202   000551                     neopixel@g:
  1203                           	callstack 0
  1204   000551                     
  1205                           ; 1 bytes @ 0x0
  1206   000551                     	ds	1
  1207   000552                     neopixel@b:
  1208                           	callstack 0
  1209                           
  1210                           ; 1 bytes @ 0x1
  1211   000552                     	ds	1
  1212   000553                     neopixel@r:
  1213                           	callstack 0
  1214   000553                     
  1215                           ; 1 bytes @ 0x2
  1216   000553                     	ds	1
  1217   000554                     tira_neopixel@led:
  1218                           	callstack 0
  1219   000554                     tira_neopixel2@led:
  1220                           	callstack 0
  1221   000554                     tira_neopixel3@led:
  1222                           	callstack 0
  1223                           
  1224                           ; 2 bytes @ 0x3
  1225   000554                     	ds	2
  1226   000556                     ??_main:
  1227                           
  1228                           ; 1 bytes @ 0x5
  1229   000556                     	ds	1
  1230                           
  1231 ;;
  1232 ;;Main: autosize = 0, tempsize = 1, incstack = 0, save=0
  1233 ;;
  1234 ;; *************** function _main *****************
  1235 ;; Defined at:
  1236 ;;		line 123 in file "maincode03.c"
  1237 ;; Parameters:    Size  Location     Type
  1238 ;;		None
  1239 ;; Auto vars:     Size  Location     Type
  1240 ;;		None
  1241 ;; Return value:  Size  Location     Type
  1242 ;;                  1    wreg      void 
  1243 ;; Registers used:
  1244 ;;		wreg, fsr2l, fsr2h, status,2, status,0, cstack
  1245 ;; Tracked objects:
  1246 ;;		On entry : 0/0
  1247 ;;		On exit  : 0/0
  1248 ;;		Unchanged: 0/0
  1249 ;; Data sizes:     COMRAM   BANK5   BANK6   BANK7   BANK8   BANK9  BANK10  BANK11  BANK12  BANK13  BANK14  BANK15  BANK1
      +6  BANK17  BANK18  BANK19  BANK20  BANK21  BANK22  BANK23  BANK24  BANK25  BANK26  BANK27  BANK28  BANK29  BANK30  BANK3
      +1  BANK32  BANK33  BANK34  BANK35  BANK36
  1250 ;;      Params:         0       0       0       0       0       0       0       0       0       0       0       0       
      +0       0       0       0       0       0       0       0       0       0       0       0       0       0       0       
      +0       0       0       0       0       0
  1251 ;;      Locals:         0       0       0       0       0       0       0       0       0       0       0       0       
      +0       0       0       0       0       0       0       0       0       0       0       0       0       0       0       
      +0       0       0       0       0       0
  1252 ;;      Temps:          1       0       0       0       0       0       0       0       0       0       0       0       
      +0       0       0       0       0       0       0       0       0       0       0       0       0       0       0       
      +0       0       0       0       0       0
  1253 ;;      Totals:         1       0       0       0       0       0       0       0       0       0       0       0       
      +0       0       0       0       0       0       0       0       0       0       0       0       0       0       0       
      +0       0       0       0       0       0
  1254 ;;Total ram usage:        1 bytes
  1255 ;; Hardware stack levels required when called: 2
  1256 ;; This function calls:
  1257 ;;		_configuro
  1258 ;;		_neopixel
  1259 ;;		_tira_neopixel
  1260 ;;		_tira_neopixel2
  1261 ;;		_tira_neopixel3
  1262 ;; This function is called by:
  1263 ;;		Startup code after reset
  1264 ;; This function uses a non-reentrant model
  1265 ;;
  1266                           
  1267                           	psect	text0
  1268   002602                     __ptext0:
  1269                           	callstack 0
  1270   002602                     _main:
  1271                           	callstack 125
  1272   002602                     
  1273                           ;maincode03.c: 124:     configuro();
  1274   002602  EC8D  F017         	call	_configuro	;wreg free
  1275                           
  1276                           ;maincode03.c: 125:     neopixel(0,0,0);
  1277   002606  0E00               	movlw	0
  1278   002608  6E51               	movwf	neopixel@g^(0+1280),c
  1279   00260A  0E00               	movlw	0
  1280   00260C  6E52               	movwf	neopixel@b^(0+1280),c
  1281   00260E  0E00               	movlw	0
  1282   002610  EC12  F018         	call	_neopixel
  1283   002614                     
  1284                           ;maincode03.c: 126:     _delay((unsigned long)((1)*(32000000UL/4000.0)));
  1285   002614  0E0B               	movlw	11
  1286   002616  6E56               	movwf	??_main^(0+1280),c
  1287   002618  0E62               	movlw	98
  1288   00261A                     u77:
  1289   00261A  2EE8               	decfsz	wreg,f,c
  1290   00261C  D7FE               	bra	u77
  1291   00261E  2E56               	decfsz	??_main^(0+1280),f,c
  1292   002620  D7FC               	bra	u77
  1293   002622  D000               	nop2	
  1294   002624                     l1162:
  1295                           
  1296                           ;maincode03.c: 128:         tira_neopixel(led_uno);
  1297   002624  0E6A               	movlw	low _led_uno
  1298   002626  6E54               	movwf	tira_neopixel@led^(0+1280),c
  1299   002628  0E05               	movlw	high _led_uno
  1300   00262A  6E55               	movwf	(tira_neopixel@led+1)^(0+1280),c
  1301   00262C  EC0C  F017         	call	_tira_neopixel	;wreg free
  1302   002630                     
  1303                           ;maincode03.c: 129:         _delay((unsigned long)((15)*(32000000UL/4000.0)));
  1304   002630  0E9C               	movlw	156
  1305   002632  6E56               	movwf	??_main^(0+1280),c
  1306   002634  0ED7               	movlw	215
  1307   002636                     u87:
  1308   002636  2EE8               	decfsz	wreg,f,c
  1309   002638  D7FE               	bra	u87
  1310   00263A  2E56               	decfsz	??_main^(0+1280),f,c
  1311   00263C  D7FC               	bra	u87
  1312   00263E  0000               	nop	
  1313   002640                     
  1314                           ;maincode03.c: 130:         tira_neopixel(led_dos);
  1315   002640  0E47               	movlw	low _led_dos
  1316   002642  6E54               	movwf	tira_neopixel@led^(0+1280),c
  1317   002644  0E05               	movlw	high _led_dos
  1318   002646  6E55               	movwf	(tira_neopixel@led+1)^(0+1280),c
  1319   002648  EC0C  F017         	call	_tira_neopixel	;wreg free
  1320   00264C                     
  1321                           ;maincode03.c: 131:         _delay((unsigned long)((15)*(32000000UL/4000.0)));
  1322   00264C  0E9C               	movlw	156
  1323   00264E  6E56               	movwf	??_main^(0+1280),c
  1324   002650  0ED7               	movlw	215
  1325   002652                     u97:
  1326   002652  2EE8               	decfsz	wreg,f,c
  1327   002654  D7FE               	bra	u97
  1328   002656  2E56               	decfsz	??_main^(0+1280),f,c
  1329   002658  D7FC               	bra	u97
  1330   00265A  0000               	nop	
  1331   00265C                     
  1332                           ;maincode03.c: 132:         tira_neopixel(led_tres);
  1333   00265C  0E3D               	movlw	low _led_tres
  1334   00265E  6E54               	movwf	tira_neopixel@led^(0+1280),c
  1335   002660  0E05               	movlw	high _led_tres
  1336   002662  6E55               	movwf	(tira_neopixel@led+1)^(0+1280),c
  1337   002664  EC0C  F017         	call	_tira_neopixel	;wreg free
  1338   002668                     
  1339                           ;maincode03.c: 133:         _delay((unsigned long)((15)*(32000000UL/4000.0)));
  1340   002668  0E9C               	movlw	156
  1341   00266A  6E56               	movwf	??_main^(0+1280),c
  1342   00266C  0ED7               	movlw	215
  1343   00266E                     u107:
  1344   00266E  2EE8               	decfsz	wreg,f,c
  1345   002670  D7FE               	bra	u107
  1346   002672  2E56               	decfsz	??_main^(0+1280),f,c
  1347   002674  D7FC               	bra	u107
  1348   002676  0000               	nop	
  1349   002678                     
  1350                           ;maincode03.c: 134:         tira_neopixel(led_cuatro);
  1351   002678  0E33               	movlw	low _led_cuatro
  1352   00267A  6E54               	movwf	tira_neopixel@led^(0+1280),c
  1353   00267C  0E05               	movlw	high _led_cuatro
  1354   00267E  6E55               	movwf	(tira_neopixel@led+1)^(0+1280),c
  1355   002680  EC0C  F017         	call	_tira_neopixel	;wreg free
  1356   002684                     
  1357                           ;maincode03.c: 135:         _delay((unsigned long)((15)*(32000000UL/4000.0)));
  1358   002684  0E9C               	movlw	156
  1359   002686  6E56               	movwf	??_main^(0+1280),c
  1360   002688  0ED7               	movlw	215
  1361   00268A                     u117:
  1362   00268A  2EE8               	decfsz	wreg,f,c
  1363   00268C  D7FE               	bra	u117
  1364   00268E  2E56               	decfsz	??_main^(0+1280),f,c
  1365   002690  D7FC               	bra	u117
  1366   002692  0000               	nop	
  1367   002694                     
  1368                           ;maincode03.c: 136:         tira_neopixel(led_cinco);
  1369   002694  0E29               	movlw	low _led_cinco
  1370   002696  6E54               	movwf	tira_neopixel@led^(0+1280),c
  1371   002698  0E05               	movlw	high _led_cinco
  1372   00269A  6E55               	movwf	(tira_neopixel@led+1)^(0+1280),c
  1373   00269C  EC0C  F017         	call	_tira_neopixel	;wreg free
  1374   0026A0                     
  1375                           ;maincode03.c: 137:         _delay((unsigned long)((15)*(32000000UL/4000.0)));
  1376   0026A0  0E9C               	movlw	156
  1377   0026A2  6E56               	movwf	??_main^(0+1280),c
  1378   0026A4  0ED7               	movlw	215
  1379   0026A6                     u127:
  1380   0026A6  2EE8               	decfsz	wreg,f,c
  1381   0026A8  D7FE               	bra	u127
  1382   0026AA  2E56               	decfsz	??_main^(0+1280),f,c
  1383   0026AC  D7FC               	bra	u127
  1384   0026AE  0000               	nop	
  1385   0026B0                     
  1386                           ;maincode03.c: 138:         tira_neopixel(led_seis);
  1387   0026B0  0E1F               	movlw	low _led_seis
  1388   0026B2  6E54               	movwf	tira_neopixel@led^(0+1280),c
  1389   0026B4  0E05               	movlw	high _led_seis
  1390   0026B6  6E55               	movwf	(tira_neopixel@led+1)^(0+1280),c
  1391   0026B8  EC0C  F017         	call	_tira_neopixel	;wreg free
  1392   0026BC                     
  1393                           ;maincode03.c: 139:         _delay((unsigned long)((15)*(32000000UL/4000.0)));
  1394   0026BC  0E9C               	movlw	156
  1395   0026BE  6E56               	movwf	??_main^(0+1280),c
  1396   0026C0  0ED7               	movlw	215
  1397   0026C2                     u137:
  1398   0026C2  2EE8               	decfsz	wreg,f,c
  1399   0026C4  D7FE               	bra	u137
  1400   0026C6  2E56               	decfsz	??_main^(0+1280),f,c
  1401   0026C8  D7FC               	bra	u137
  1402   0026CA  0000               	nop	
  1403   0026CC                     
  1404                           ;maincode03.c: 140:         tira_neopixel(led_siete);
  1405   0026CC  0E15               	movlw	low _led_siete
  1406   0026CE  6E54               	movwf	tira_neopixel@led^(0+1280),c
  1407   0026D0  0E05               	movlw	high _led_siete
  1408   0026D2  6E55               	movwf	(tira_neopixel@led+1)^(0+1280),c
  1409   0026D4  EC0C  F017         	call	_tira_neopixel	;wreg free
  1410   0026D8                     
  1411                           ;maincode03.c: 141:         _delay((unsigned long)((15)*(32000000UL/4000.0)));
  1412   0026D8  0E9C               	movlw	156
  1413   0026DA  6E56               	movwf	??_main^(0+1280),c
  1414   0026DC  0ED7               	movlw	215
  1415   0026DE                     u147:
  1416   0026DE  2EE8               	decfsz	wreg,f,c
  1417   0026E0  D7FE               	bra	u147
  1418   0026E2  2E56               	decfsz	??_main^(0+1280),f,c
  1419   0026E4  D7FC               	bra	u147
  1420   0026E6  0000               	nop	
  1421   0026E8                     
  1422                           ;maincode03.c: 142:         tira_neopixel(led_ocho);
  1423   0026E8  0E0B               	movlw	low _led_ocho
  1424   0026EA  6E54               	movwf	tira_neopixel@led^(0+1280),c
  1425   0026EC  0E05               	movlw	high _led_ocho
  1426   0026EE  6E55               	movwf	(tira_neopixel@led+1)^(0+1280),c
  1427   0026F0  EC0C  F017         	call	_tira_neopixel	;wreg free
  1428   0026F4                     
  1429                           ;maincode03.c: 143:         _delay((unsigned long)((15)*(32000000UL/4000.0)));
  1430   0026F4  0E9C               	movlw	156
  1431   0026F6  6E56               	movwf	??_main^(0+1280),c
  1432   0026F8  0ED7               	movlw	215
  1433   0026FA                     u157:
  1434   0026FA  2EE8               	decfsz	wreg,f,c
  1435   0026FC  D7FE               	bra	u157
  1436   0026FE  2E56               	decfsz	??_main^(0+1280),f,c
  1437   002700  D7FC               	bra	u157
  1438   002702  0000               	nop	
  1439   002704                     
  1440                           ;maincode03.c: 144:         tira_neopixel(led_nueve);
  1441   002704  0E01               	movlw	low _led_nueve
  1442   002706  6E54               	movwf	tira_neopixel@led^(0+1280),c
  1443   002708  0E05               	movlw	high _led_nueve
  1444   00270A  6E55               	movwf	(tira_neopixel@led+1)^(0+1280),c
  1445   00270C  EC0C  F017         	call	_tira_neopixel	;wreg free
  1446   002710                     
  1447                           ;maincode03.c: 145:         _delay((unsigned long)((15)*(32000000UL/4000.0)));
  1448   002710  0E9C               	movlw	156
  1449   002712  6E56               	movwf	??_main^(0+1280),c
  1450   002714  0ED7               	movlw	215
  1451   002716                     u167:
  1452   002716  2EE8               	decfsz	wreg,f,c
  1453   002718  D7FE               	bra	u167
  1454   00271A  2E56               	decfsz	??_main^(0+1280),f,c
  1455   00271C  D7FC               	bra	u167
  1456   00271E  0000               	nop	
  1457   002720                     
  1458                           ;maincode03.c: 146:         tira_neopixel(led_diez);
  1459   002720  0E60               	movlw	low _led_diez
  1460   002722  6E54               	movwf	tira_neopixel@led^(0+1280),c
  1461   002724  0E05               	movlw	high _led_diez
  1462   002726  6E55               	movwf	(tira_neopixel@led+1)^(0+1280),c
  1463   002728  EC0C  F017         	call	_tira_neopixel	;wreg free
  1464   00272C                     
  1465                           ;maincode03.c: 147:         _delay((unsigned long)((15)*(32000000UL/4000.0)));
  1466   00272C  0E9C               	movlw	156
  1467   00272E  6E56               	movwf	??_main^(0+1280),c
  1468   002730  0ED7               	movlw	215
  1469   002732                     u177:
  1470   002732  2EE8               	decfsz	wreg,f,c
  1471   002734  D7FE               	bra	u177
  1472   002736  2E56               	decfsz	??_main^(0+1280),f,c
  1473   002738  D7FC               	bra	u177
  1474   00273A  0000               	nop	
  1475   00273C                     
  1476                           ;maincode03.c: 148:         tira_neopixel(led_nueve);
  1477   00273C  0E01               	movlw	low _led_nueve
  1478   00273E  6E54               	movwf	tira_neopixel@led^(0+1280),c
  1479   002740  0E05               	movlw	high _led_nueve
  1480   002742  6E55               	movwf	(tira_neopixel@led+1)^(0+1280),c
  1481   002744  EC0C  F017         	call	_tira_neopixel	;wreg free
  1482   002748                     
  1483                           ;maincode03.c: 149:         _delay((unsigned long)((15)*(32000000UL/4000.0)));
  1484   002748  0E9C               	movlw	156
  1485   00274A  6E56               	movwf	??_main^(0+1280),c
  1486   00274C  0ED7               	movlw	215
  1487   00274E                     u187:
  1488   00274E  2EE8               	decfsz	wreg,f,c
  1489   002750  D7FE               	bra	u187
  1490   002752  2E56               	decfsz	??_main^(0+1280),f,c
  1491   002754  D7FC               	bra	u187
  1492   002756  0000               	nop	
  1493   002758                     
  1494                           ;maincode03.c: 150:         tira_neopixel(led_ocho);
  1495   002758  0E0B               	movlw	low _led_ocho
  1496   00275A  6E54               	movwf	tira_neopixel@led^(0+1280),c
  1497   00275C  0E05               	movlw	high _led_ocho
  1498   00275E  6E55               	movwf	(tira_neopixel@led+1)^(0+1280),c
  1499   002760  EC0C  F017         	call	_tira_neopixel	;wreg free
  1500   002764                     
  1501                           ;maincode03.c: 151:         _delay((unsigned long)((15)*(32000000UL/4000.0)));
  1502   002764  0E9C               	movlw	156
  1503   002766  6E56               	movwf	??_main^(0+1280),c
  1504   002768  0ED7               	movlw	215
  1505   00276A                     u197:
  1506   00276A  2EE8               	decfsz	wreg,f,c
  1507   00276C  D7FE               	bra	u197
  1508   00276E  2E56               	decfsz	??_main^(0+1280),f,c
  1509   002770  D7FC               	bra	u197
  1510   002772  0000               	nop	
  1511   002774                     
  1512                           ;maincode03.c: 152:         tira_neopixel(led_siete);
  1513   002774  0E15               	movlw	low _led_siete
  1514   002776  6E54               	movwf	tira_neopixel@led^(0+1280),c
  1515   002778  0E05               	movlw	high _led_siete
  1516   00277A  6E55               	movwf	(tira_neopixel@led+1)^(0+1280),c
  1517   00277C  EC0C  F017         	call	_tira_neopixel	;wreg free
  1518   002780                     
  1519                           ;maincode03.c: 153:         _delay((unsigned long)((15)*(32000000UL/4000.0)));
  1520   002780  0E9C               	movlw	156
  1521   002782  6E56               	movwf	??_main^(0+1280),c
  1522   002784  0ED7               	movlw	215
  1523   002786                     u207:
  1524   002786  2EE8               	decfsz	wreg,f,c
  1525   002788  D7FE               	bra	u207
  1526   00278A  2E56               	decfsz	??_main^(0+1280),f,c
  1527   00278C  D7FC               	bra	u207
  1528   00278E  0000               	nop	
  1529   002790                     
  1530                           ;maincode03.c: 154:         tira_neopixel(led_seis);
  1531   002790  0E1F               	movlw	low _led_seis
  1532   002792  6E54               	movwf	tira_neopixel@led^(0+1280),c
  1533   002794  0E05               	movlw	high _led_seis
  1534   002796  6E55               	movwf	(tira_neopixel@led+1)^(0+1280),c
  1535   002798  EC0C  F017         	call	_tira_neopixel	;wreg free
  1536   00279C                     
  1537                           ;maincode03.c: 155:         _delay((unsigned long)((15)*(32000000UL/4000.0)));
  1538   00279C  0E9C               	movlw	156
  1539   00279E  6E56               	movwf	??_main^(0+1280),c
  1540   0027A0  0ED7               	movlw	215
  1541   0027A2                     u217:
  1542   0027A2  2EE8               	decfsz	wreg,f,c
  1543   0027A4  D7FE               	bra	u217
  1544   0027A6  2E56               	decfsz	??_main^(0+1280),f,c
  1545   0027A8  D7FC               	bra	u217
  1546   0027AA  0000               	nop	
  1547   0027AC                     
  1548                           ;maincode03.c: 156:         tira_neopixel(led_cinco);
  1549   0027AC  0E29               	movlw	low _led_cinco
  1550   0027AE  6E54               	movwf	tira_neopixel@led^(0+1280),c
  1551   0027B0  0E05               	movlw	high _led_cinco
  1552   0027B2  6E55               	movwf	(tira_neopixel@led+1)^(0+1280),c
  1553   0027B4  EC0C  F017         	call	_tira_neopixel	;wreg free
  1554   0027B8                     
  1555                           ;maincode03.c: 157:         _delay((unsigned long)((15)*(32000000UL/4000.0)));
  1556   0027B8  0E9C               	movlw	156
  1557   0027BA  6E56               	movwf	??_main^(0+1280),c
  1558   0027BC  0ED7               	movlw	215
  1559   0027BE                     u227:
  1560   0027BE  2EE8               	decfsz	wreg,f,c
  1561   0027C0  D7FE               	bra	u227
  1562   0027C2  2E56               	decfsz	??_main^(0+1280),f,c
  1563   0027C4  D7FC               	bra	u227
  1564   0027C6  0000               	nop	
  1565   0027C8                     
  1566                           ;maincode03.c: 158:         tira_neopixel(led_cuatro);
  1567   0027C8  0E33               	movlw	low _led_cuatro
  1568   0027CA  6E54               	movwf	tira_neopixel@led^(0+1280),c
  1569   0027CC  0E05               	movlw	high _led_cuatro
  1570   0027CE  6E55               	movwf	(tira_neopixel@led+1)^(0+1280),c
  1571   0027D0  EC0C  F017         	call	_tira_neopixel	;wreg free
  1572   0027D4                     
  1573                           ;maincode03.c: 159:         _delay((unsigned long)((15)*(32000000UL/4000.0)));
  1574   0027D4  0E9C               	movlw	156
  1575   0027D6  6E56               	movwf	??_main^(0+1280),c
  1576   0027D8  0ED7               	movlw	215
  1577   0027DA                     u237:
  1578   0027DA  2EE8               	decfsz	wreg,f,c
  1579   0027DC  D7FE               	bra	u237
  1580   0027DE  2E56               	decfsz	??_main^(0+1280),f,c
  1581   0027E0  D7FC               	bra	u237
  1582   0027E2  0000               	nop	
  1583   0027E4                     
  1584                           ;maincode03.c: 160:         tira_neopixel(led_tres);
  1585   0027E4  0E3D               	movlw	low _led_tres
  1586   0027E6  6E54               	movwf	tira_neopixel@led^(0+1280),c
  1587   0027E8  0E05               	movlw	high _led_tres
  1588   0027EA  6E55               	movwf	(tira_neopixel@led+1)^(0+1280),c
  1589   0027EC  EC0C  F017         	call	_tira_neopixel	;wreg free
  1590   0027F0                     
  1591                           ;maincode03.c: 161:         _delay((unsigned long)((15)*(32000000UL/4000.0)));
  1592   0027F0  0E9C               	movlw	156
  1593   0027F2  6E56               	movwf	??_main^(0+1280),c
  1594   0027F4  0ED7               	movlw	215
  1595   0027F6                     u247:
  1596   0027F6  2EE8               	decfsz	wreg,f,c
  1597   0027F8  D7FE               	bra	u247
  1598   0027FA  2E56               	decfsz	??_main^(0+1280),f,c
  1599   0027FC  D7FC               	bra	u247
  1600   0027FE  0000               	nop	
  1601   002800                     
  1602                           ;maincode03.c: 162:         tira_neopixel(led_dos);
  1603   002800  0E47               	movlw	low _led_dos
  1604   002802  6E54               	movwf	tira_neopixel@led^(0+1280),c
  1605   002804  0E05               	movlw	high _led_dos
  1606   002806  6E55               	movwf	(tira_neopixel@led+1)^(0+1280),c
  1607   002808  EC0C  F017         	call	_tira_neopixel	;wreg free
  1608   00280C                     
  1609                           ;maincode03.c: 163:         _delay((unsigned long)((15)*(32000000UL/4000.0)));
  1610   00280C  0E9C               	movlw	156
  1611   00280E  6E56               	movwf	??_main^(0+1280),c
  1612   002810  0ED7               	movlw	215
  1613   002812                     u257:
  1614   002812  2EE8               	decfsz	wreg,f,c
  1615   002814  D7FE               	bra	u257
  1616   002816  2E56               	decfsz	??_main^(0+1280),f,c
  1617   002818  D7FC               	bra	u257
  1618   00281A  0000               	nop	
  1619   00281C                     
  1620                           ;maincode03.c: 165:         tira_neopixel2(led_uno);
  1621   00281C  0E6A               	movlw	low _led_uno
  1622   00281E  6E54               	movwf	tira_neopixel2@led^(0+1280),c
  1623   002820  0E05               	movlw	high _led_uno
  1624   002822  6E55               	movwf	(tira_neopixel2@led+1)^(0+1280),c
  1625   002824  EC8B  F016         	call	_tira_neopixel2	;wreg free
  1626   002828                     
  1627                           ;maincode03.c: 166:         _delay((unsigned long)((15)*(32000000UL/4000.0)));
  1628   002828  0E9C               	movlw	156
  1629   00282A  6E56               	movwf	??_main^(0+1280),c
  1630   00282C  0ED7               	movlw	215
  1631   00282E                     u267:
  1632   00282E  2EE8               	decfsz	wreg,f,c
  1633   002830  D7FE               	bra	u267
  1634   002832  2E56               	decfsz	??_main^(0+1280),f,c
  1635   002834  D7FC               	bra	u267
  1636   002836  0000               	nop	
  1637   002838                     
  1638                           ;maincode03.c: 167:         tira_neopixel2(led_dos);
  1639   002838  0E47               	movlw	low _led_dos
  1640   00283A  6E54               	movwf	tira_neopixel2@led^(0+1280),c
  1641   00283C  0E05               	movlw	high _led_dos
  1642   00283E  6E55               	movwf	(tira_neopixel2@led+1)^(0+1280),c
  1643   002840  EC8B  F016         	call	_tira_neopixel2	;wreg free
  1644   002844                     
  1645                           ;maincode03.c: 168:         _delay((unsigned long)((15)*(32000000UL/4000.0)));
  1646   002844  0E9C               	movlw	156
  1647   002846  6E56               	movwf	??_main^(0+1280),c
  1648   002848  0ED7               	movlw	215
  1649   00284A                     u277:
  1650   00284A  2EE8               	decfsz	wreg,f,c
  1651   00284C  D7FE               	bra	u277
  1652   00284E  2E56               	decfsz	??_main^(0+1280),f,c
  1653   002850  D7FC               	bra	u277
  1654   002852  0000               	nop	
  1655   002854                     
  1656                           ;maincode03.c: 169:         tira_neopixel2(led_tres);
  1657   002854  0E3D               	movlw	low _led_tres
  1658   002856  6E54               	movwf	tira_neopixel2@led^(0+1280),c
  1659   002858  0E05               	movlw	high _led_tres
  1660   00285A  6E55               	movwf	(tira_neopixel2@led+1)^(0+1280),c
  1661   00285C  EC8B  F016         	call	_tira_neopixel2	;wreg free
  1662   002860                     
  1663                           ;maincode03.c: 170:         _delay((unsigned long)((15)*(32000000UL/4000.0)));
  1664   002860  0E9C               	movlw	156
  1665   002862  6E56               	movwf	??_main^(0+1280),c
  1666   002864  0ED7               	movlw	215
  1667   002866                     u287:
  1668   002866  2EE8               	decfsz	wreg,f,c
  1669   002868  D7FE               	bra	u287
  1670   00286A  2E56               	decfsz	??_main^(0+1280),f,c
  1671   00286C  D7FC               	bra	u287
  1672   00286E  0000               	nop	
  1673   002870                     
  1674                           ;maincode03.c: 171:         tira_neopixel2(led_cuatro);
  1675   002870  0E33               	movlw	low _led_cuatro
  1676   002872  6E54               	movwf	tira_neopixel2@led^(0+1280),c
  1677   002874  0E05               	movlw	high _led_cuatro
  1678   002876  6E55               	movwf	(tira_neopixel2@led+1)^(0+1280),c
  1679   002878  EC8B  F016         	call	_tira_neopixel2	;wreg free
  1680   00287C                     
  1681                           ;maincode03.c: 172:         _delay((unsigned long)((15)*(32000000UL/4000.0)));
  1682   00287C  0E9C               	movlw	156
  1683   00287E  6E56               	movwf	??_main^(0+1280),c
  1684   002880  0ED7               	movlw	215
  1685   002882                     u297:
  1686   002882  2EE8               	decfsz	wreg,f,c
  1687   002884  D7FE               	bra	u297
  1688   002886  2E56               	decfsz	??_main^(0+1280),f,c
  1689   002888  D7FC               	bra	u297
  1690   00288A  0000               	nop	
  1691   00288C                     
  1692                           ;maincode03.c: 173:         tira_neopixel2(led_cinco);
  1693   00288C  0E29               	movlw	low _led_cinco
  1694   00288E  6E54               	movwf	tira_neopixel2@led^(0+1280),c
  1695   002890  0E05               	movlw	high _led_cinco
  1696   002892  6E55               	movwf	(tira_neopixel2@led+1)^(0+1280),c
  1697   002894  EC8B  F016         	call	_tira_neopixel2	;wreg free
  1698   002898                     
  1699                           ;maincode03.c: 174:         _delay((unsigned long)((15)*(32000000UL/4000.0)));
  1700   002898  0E9C               	movlw	156
  1701   00289A  6E56               	movwf	??_main^(0+1280),c
  1702   00289C  0ED7               	movlw	215
  1703   00289E                     u307:
  1704   00289E  2EE8               	decfsz	wreg,f,c
  1705   0028A0  D7FE               	bra	u307
  1706   0028A2  2E56               	decfsz	??_main^(0+1280),f,c
  1707   0028A4  D7FC               	bra	u307
  1708   0028A6  0000               	nop	
  1709   0028A8                     
  1710                           ;maincode03.c: 175:         tira_neopixel2(led_seis);
  1711   0028A8  0E1F               	movlw	low _led_seis
  1712   0028AA  6E54               	movwf	tira_neopixel2@led^(0+1280),c
  1713   0028AC  0E05               	movlw	high _led_seis
  1714   0028AE  6E55               	movwf	(tira_neopixel2@led+1)^(0+1280),c
  1715   0028B0  EC8B  F016         	call	_tira_neopixel2	;wreg free
  1716   0028B4                     
  1717                           ;maincode03.c: 176:         _delay((unsigned long)((15)*(32000000UL/4000.0)));
  1718   0028B4  0E9C               	movlw	156
  1719   0028B6  6E56               	movwf	??_main^(0+1280),c
  1720   0028B8  0ED7               	movlw	215
  1721   0028BA                     u317:
  1722   0028BA  2EE8               	decfsz	wreg,f,c
  1723   0028BC  D7FE               	bra	u317
  1724   0028BE  2E56               	decfsz	??_main^(0+1280),f,c
  1725   0028C0  D7FC               	bra	u317
  1726   0028C2  0000               	nop	
  1727   0028C4                     
  1728                           ;maincode03.c: 177:         tira_neopixel2(led_siete);
  1729   0028C4  0E15               	movlw	low _led_siete
  1730   0028C6  6E54               	movwf	tira_neopixel2@led^(0+1280),c
  1731   0028C8  0E05               	movlw	high _led_siete
  1732   0028CA  6E55               	movwf	(tira_neopixel2@led+1)^(0+1280),c
  1733   0028CC  EC8B  F016         	call	_tira_neopixel2	;wreg free
  1734   0028D0                     
  1735                           ;maincode03.c: 178:         _delay((unsigned long)((15)*(32000000UL/4000.0)));
  1736   0028D0  0E9C               	movlw	156
  1737   0028D2  6E56               	movwf	??_main^(0+1280),c
  1738   0028D4  0ED7               	movlw	215
  1739   0028D6                     u327:
  1740   0028D6  2EE8               	decfsz	wreg,f,c
  1741   0028D8  D7FE               	bra	u327
  1742   0028DA  2E56               	decfsz	??_main^(0+1280),f,c
  1743   0028DC  D7FC               	bra	u327
  1744   0028DE  0000               	nop	
  1745   0028E0                     
  1746                           ;maincode03.c: 179:         tira_neopixel2(led_ocho);
  1747   0028E0  0E0B               	movlw	low _led_ocho
  1748   0028E2  6E54               	movwf	tira_neopixel2@led^(0+1280),c
  1749   0028E4  0E05               	movlw	high _led_ocho
  1750   0028E6  6E55               	movwf	(tira_neopixel2@led+1)^(0+1280),c
  1751   0028E8  EC8B  F016         	call	_tira_neopixel2	;wreg free
  1752   0028EC                     
  1753                           ;maincode03.c: 180:         _delay((unsigned long)((15)*(32000000UL/4000.0)));
  1754   0028EC  0E9C               	movlw	156
  1755   0028EE  6E56               	movwf	??_main^(0+1280),c
  1756   0028F0  0ED7               	movlw	215
  1757   0028F2                     u337:
  1758   0028F2  2EE8               	decfsz	wreg,f,c
  1759   0028F4  D7FE               	bra	u337
  1760   0028F6  2E56               	decfsz	??_main^(0+1280),f,c
  1761   0028F8  D7FC               	bra	u337
  1762   0028FA  0000               	nop	
  1763   0028FC                     
  1764                           ;maincode03.c: 181:         tira_neopixel2(led_nueve);
  1765   0028FC  0E01               	movlw	low _led_nueve
  1766   0028FE  6E54               	movwf	tira_neopixel2@led^(0+1280),c
  1767   002900  0E05               	movlw	high _led_nueve
  1768   002902  6E55               	movwf	(tira_neopixel2@led+1)^(0+1280),c
  1769   002904  EC8B  F016         	call	_tira_neopixel2	;wreg free
  1770   002908                     
  1771                           ;maincode03.c: 182:         _delay((unsigned long)((15)*(32000000UL/4000.0)));
  1772   002908  0E9C               	movlw	156
  1773   00290A  6E56               	movwf	??_main^(0+1280),c
  1774   00290C  0ED7               	movlw	215
  1775   00290E                     u347:
  1776   00290E  2EE8               	decfsz	wreg,f,c
  1777   002910  D7FE               	bra	u347
  1778   002912  2E56               	decfsz	??_main^(0+1280),f,c
  1779   002914  D7FC               	bra	u347
  1780   002916  0000               	nop	
  1781   002918                     
  1782                           ;maincode03.c: 183:         tira_neopixel2(led_diez);
  1783   002918  0E60               	movlw	low _led_diez
  1784   00291A  6E54               	movwf	tira_neopixel2@led^(0+1280),c
  1785   00291C  0E05               	movlw	high _led_diez
  1786   00291E  6E55               	movwf	(tira_neopixel2@led+1)^(0+1280),c
  1787   002920  EC8B  F016         	call	_tira_neopixel2	;wreg free
  1788   002924                     
  1789                           ;maincode03.c: 184:         _delay((unsigned long)((15)*(32000000UL/4000.0)));
  1790   002924  0E9C               	movlw	156
  1791   002926  6E56               	movwf	??_main^(0+1280),c
  1792   002928  0ED7               	movlw	215
  1793   00292A                     u357:
  1794   00292A  2EE8               	decfsz	wreg,f,c
  1795   00292C  D7FE               	bra	u357
  1796   00292E  2E56               	decfsz	??_main^(0+1280),f,c
  1797   002930  D7FC               	bra	u357
  1798   002932  0000               	nop	
  1799   002934                     
  1800                           ;maincode03.c: 185:         tira_neopixel2(led_nueve);
  1801   002934  0E01               	movlw	low _led_nueve
  1802   002936  6E54               	movwf	tira_neopixel2@led^(0+1280),c
  1803   002938  0E05               	movlw	high _led_nueve
  1804   00293A  6E55               	movwf	(tira_neopixel2@led+1)^(0+1280),c
  1805   00293C  EC8B  F016         	call	_tira_neopixel2	;wreg free
  1806   002940                     
  1807                           ;maincode03.c: 186:         _delay((unsigned long)((15)*(32000000UL/4000.0)));
  1808   002940  0E9C               	movlw	156
  1809   002942  6E56               	movwf	??_main^(0+1280),c
  1810   002944  0ED7               	movlw	215
  1811   002946                     u367:
  1812   002946  2EE8               	decfsz	wreg,f,c
  1813   002948  D7FE               	bra	u367
  1814   00294A  2E56               	decfsz	??_main^(0+1280),f,c
  1815   00294C  D7FC               	bra	u367
  1816   00294E  0000               	nop	
  1817   002950                     
  1818                           ;maincode03.c: 187:         tira_neopixel2(led_ocho);
  1819   002950  0E0B               	movlw	low _led_ocho
  1820   002952  6E54               	movwf	tira_neopixel2@led^(0+1280),c
  1821   002954  0E05               	movlw	high _led_ocho
  1822   002956  6E55               	movwf	(tira_neopixel2@led+1)^(0+1280),c
  1823   002958  EC8B  F016         	call	_tira_neopixel2	;wreg free
  1824   00295C                     
  1825                           ;maincode03.c: 188:         _delay((unsigned long)((15)*(32000000UL/4000.0)));
  1826   00295C  0E9C               	movlw	156
  1827   00295E  6E56               	movwf	??_main^(0+1280),c
  1828   002960  0ED7               	movlw	215
  1829   002962                     u377:
  1830   002962  2EE8               	decfsz	wreg,f,c
  1831   002964  D7FE               	bra	u377
  1832   002966  2E56               	decfsz	??_main^(0+1280),f,c
  1833   002968  D7FC               	bra	u377
  1834   00296A  0000               	nop	
  1835   00296C                     
  1836                           ;maincode03.c: 189:         tira_neopixel2(led_siete);
  1837   00296C  0E15               	movlw	low _led_siete
  1838   00296E  6E54               	movwf	tira_neopixel2@led^(0+1280),c
  1839   002970  0E05               	movlw	high _led_siete
  1840   002972  6E55               	movwf	(tira_neopixel2@led+1)^(0+1280),c
  1841   002974  EC8B  F016         	call	_tira_neopixel2	;wreg free
  1842   002978                     
  1843                           ;maincode03.c: 190:         _delay((unsigned long)((15)*(32000000UL/4000.0)));
  1844   002978  0E9C               	movlw	156
  1845   00297A  6E56               	movwf	??_main^(0+1280),c
  1846   00297C  0ED7               	movlw	215
  1847   00297E                     u387:
  1848   00297E  2EE8               	decfsz	wreg,f,c
  1849   002980  D7FE               	bra	u387
  1850   002982  2E56               	decfsz	??_main^(0+1280),f,c
  1851   002984  D7FC               	bra	u387
  1852   002986  0000               	nop	
  1853   002988                     
  1854                           ;maincode03.c: 191:         tira_neopixel2(led_seis);
  1855   002988  0E1F               	movlw	low _led_seis
  1856   00298A  6E54               	movwf	tira_neopixel2@led^(0+1280),c
  1857   00298C  0E05               	movlw	high _led_seis
  1858   00298E  6E55               	movwf	(tira_neopixel2@led+1)^(0+1280),c
  1859   002990  EC8B  F016         	call	_tira_neopixel2	;wreg free
  1860   002994                     
  1861                           ;maincode03.c: 192:         _delay((unsigned long)((15)*(32000000UL/4000.0)));
  1862   002994  0E9C               	movlw	156
  1863   002996  6E56               	movwf	??_main^(0+1280),c
  1864   002998  0ED7               	movlw	215
  1865   00299A                     u397:
  1866   00299A  2EE8               	decfsz	wreg,f,c
  1867   00299C  D7FE               	bra	u397
  1868   00299E  2E56               	decfsz	??_main^(0+1280),f,c
  1869   0029A0  D7FC               	bra	u397
  1870   0029A2  0000               	nop	
  1871   0029A4                     
  1872                           ;maincode03.c: 193:         tira_neopixel2(led_cinco);
  1873   0029A4  0E29               	movlw	low _led_cinco
  1874   0029A6  6E54               	movwf	tira_neopixel2@led^(0+1280),c
  1875   0029A8  0E05               	movlw	high _led_cinco
  1876   0029AA  6E55               	movwf	(tira_neopixel2@led+1)^(0+1280),c
  1877   0029AC  EC8B  F016         	call	_tira_neopixel2	;wreg free
  1878   0029B0                     
  1879                           ;maincode03.c: 194:         _delay((unsigned long)((15)*(32000000UL/4000.0)));
  1880   0029B0  0E9C               	movlw	156
  1881   0029B2  6E56               	movwf	??_main^(0+1280),c
  1882   0029B4  0ED7               	movlw	215
  1883   0029B6                     u407:
  1884   0029B6  2EE8               	decfsz	wreg,f,c
  1885   0029B8  D7FE               	bra	u407
  1886   0029BA  2E56               	decfsz	??_main^(0+1280),f,c
  1887   0029BC  D7FC               	bra	u407
  1888   0029BE  0000               	nop	
  1889   0029C0                     
  1890                           ;maincode03.c: 195:         tira_neopixel2(led_cuatro);
  1891   0029C0  0E33               	movlw	low _led_cuatro
  1892   0029C2  6E54               	movwf	tira_neopixel2@led^(0+1280),c
  1893   0029C4  0E05               	movlw	high _led_cuatro
  1894   0029C6  6E55               	movwf	(tira_neopixel2@led+1)^(0+1280),c
  1895   0029C8  EC8B  F016         	call	_tira_neopixel2	;wreg free
  1896   0029CC                     
  1897                           ;maincode03.c: 196:         _delay((unsigned long)((15)*(32000000UL/4000.0)));
  1898   0029CC  0E9C               	movlw	156
  1899   0029CE  6E56               	movwf	??_main^(0+1280),c
  1900   0029D0  0ED7               	movlw	215
  1901   0029D2                     u417:
  1902   0029D2  2EE8               	decfsz	wreg,f,c
  1903   0029D4  D7FE               	bra	u417
  1904   0029D6  2E56               	decfsz	??_main^(0+1280),f,c
  1905   0029D8  D7FC               	bra	u417
  1906   0029DA  0000               	nop	
  1907   0029DC                     
  1908                           ;maincode03.c: 197:         tira_neopixel2(led_tres);
  1909   0029DC  0E3D               	movlw	low _led_tres
  1910   0029DE  6E54               	movwf	tira_neopixel2@led^(0+1280),c
  1911   0029E0  0E05               	movlw	high _led_tres
  1912   0029E2  6E55               	movwf	(tira_neopixel2@led+1)^(0+1280),c
  1913   0029E4  EC8B  F016         	call	_tira_neopixel2	;wreg free
  1914   0029E8                     
  1915                           ;maincode03.c: 198:         _delay((unsigned long)((15)*(32000000UL/4000.0)));
  1916   0029E8  0E9C               	movlw	156
  1917   0029EA  6E56               	movwf	??_main^(0+1280),c
  1918   0029EC  0ED7               	movlw	215
  1919   0029EE                     u427:
  1920   0029EE  2EE8               	decfsz	wreg,f,c
  1921   0029F0  D7FE               	bra	u427
  1922   0029F2  2E56               	decfsz	??_main^(0+1280),f,c
  1923   0029F4  D7FC               	bra	u427
  1924   0029F6  0000               	nop	
  1925   0029F8                     
  1926                           ;maincode03.c: 199:         tira_neopixel2(led_dos);
  1927   0029F8  0E47               	movlw	low _led_dos
  1928   0029FA  6E54               	movwf	tira_neopixel2@led^(0+1280),c
  1929   0029FC  0E05               	movlw	high _led_dos
  1930   0029FE  6E55               	movwf	(tira_neopixel2@led+1)^(0+1280),c
  1931   002A00  EC8B  F016         	call	_tira_neopixel2	;wreg free
  1932   002A04                     
  1933                           ;maincode03.c: 200:         _delay((unsigned long)((15)*(32000000UL/4000.0)));
  1934   002A04  0E9C               	movlw	156
  1935   002A06  6E56               	movwf	??_main^(0+1280),c
  1936   002A08  0ED7               	movlw	215
  1937   002A0A                     u437:
  1938   002A0A  2EE8               	decfsz	wreg,f,c
  1939   002A0C  D7FE               	bra	u437
  1940   002A0E  2E56               	decfsz	??_main^(0+1280),f,c
  1941   002A10  D7FC               	bra	u437
  1942   002A12  0000               	nop	
  1943   002A14                     
  1944                           ;maincode03.c: 201:         tira_neopixel3(led_uno);
  1945   002A14  0E6A               	movlw	low _led_uno
  1946   002A16  6E54               	movwf	tira_neopixel3@led^(0+1280),c
  1947   002A18  0E05               	movlw	high _led_uno
  1948   002A1A  6E55               	movwf	(tira_neopixel3@led+1)^(0+1280),c
  1949   002A1C  EC0A  F016         	call	_tira_neopixel3	;wreg free
  1950   002A20                     
  1951                           ;maincode03.c: 202:         _delay((unsigned long)((15)*(32000000UL/4000.0)));
  1952   002A20  0E9C               	movlw	156
  1953   002A22  6E56               	movwf	??_main^(0+1280),c
  1954   002A24  0ED7               	movlw	215
  1955   002A26                     u447:
  1956   002A26  2EE8               	decfsz	wreg,f,c
  1957   002A28  D7FE               	bra	u447
  1958   002A2A  2E56               	decfsz	??_main^(0+1280),f,c
  1959   002A2C  D7FC               	bra	u447
  1960   002A2E  0000               	nop	
  1961   002A30                     
  1962                           ;maincode03.c: 203:         tira_neopixel3(led_dos);
  1963   002A30  0E47               	movlw	low _led_dos
  1964   002A32  6E54               	movwf	tira_neopixel3@led^(0+1280),c
  1965   002A34  0E05               	movlw	high _led_dos
  1966   002A36  6E55               	movwf	(tira_neopixel3@led+1)^(0+1280),c
  1967   002A38  EC0A  F016         	call	_tira_neopixel3	;wreg free
  1968   002A3C                     
  1969                           ;maincode03.c: 204:         _delay((unsigned long)((15)*(32000000UL/4000.0)));
  1970   002A3C  0E9C               	movlw	156
  1971   002A3E  6E56               	movwf	??_main^(0+1280),c
  1972   002A40  0ED7               	movlw	215
  1973   002A42                     u457:
  1974   002A42  2EE8               	decfsz	wreg,f,c
  1975   002A44  D7FE               	bra	u457
  1976   002A46  2E56               	decfsz	??_main^(0+1280),f,c
  1977   002A48  D7FC               	bra	u457
  1978   002A4A  0000               	nop	
  1979   002A4C                     
  1980                           ;maincode03.c: 205:         tira_neopixel3(led_tres);
  1981   002A4C  0E3D               	movlw	low _led_tres
  1982   002A4E  6E54               	movwf	tira_neopixel3@led^(0+1280),c
  1983   002A50  0E05               	movlw	high _led_tres
  1984   002A52  6E55               	movwf	(tira_neopixel3@led+1)^(0+1280),c
  1985   002A54  EC0A  F016         	call	_tira_neopixel3	;wreg free
  1986   002A58                     
  1987                           ;maincode03.c: 206:         _delay((unsigned long)((15)*(32000000UL/4000.0)));
  1988   002A58  0E9C               	movlw	156
  1989   002A5A  6E56               	movwf	??_main^(0+1280),c
  1990   002A5C  0ED7               	movlw	215
  1991   002A5E                     u467:
  1992   002A5E  2EE8               	decfsz	wreg,f,c
  1993   002A60  D7FE               	bra	u467
  1994   002A62  2E56               	decfsz	??_main^(0+1280),f,c
  1995   002A64  D7FC               	bra	u467
  1996   002A66  0000               	nop	
  1997   002A68                     
  1998                           ;maincode03.c: 207:         tira_neopixel3(led_cuatro);
  1999   002A68  0E33               	movlw	low _led_cuatro
  2000   002A6A  6E54               	movwf	tira_neopixel3@led^(0+1280),c
  2001   002A6C  0E05               	movlw	high _led_cuatro
  2002   002A6E  6E55               	movwf	(tira_neopixel3@led+1)^(0+1280),c
  2003   002A70  EC0A  F016         	call	_tira_neopixel3	;wreg free
  2004   002A74                     
  2005                           ;maincode03.c: 208:         _delay((unsigned long)((15)*(32000000UL/4000.0)));
  2006   002A74  0E9C               	movlw	156
  2007   002A76  6E56               	movwf	??_main^(0+1280),c
  2008   002A78  0ED7               	movlw	215
  2009   002A7A                     u477:
  2010   002A7A  2EE8               	decfsz	wreg,f,c
  2011   002A7C  D7FE               	bra	u477
  2012   002A7E  2E56               	decfsz	??_main^(0+1280),f,c
  2013   002A80  D7FC               	bra	u477
  2014   002A82  0000               	nop	
  2015   002A84                     
  2016                           ;maincode03.c: 209:         tira_neopixel3(led_cinco);
  2017   002A84  0E29               	movlw	low _led_cinco
  2018   002A86  6E54               	movwf	tira_neopixel3@led^(0+1280),c
  2019   002A88  0E05               	movlw	high _led_cinco
  2020   002A8A  6E55               	movwf	(tira_neopixel3@led+1)^(0+1280),c
  2021   002A8C  EC0A  F016         	call	_tira_neopixel3	;wreg free
  2022   002A90                     
  2023                           ;maincode03.c: 210:         _delay((unsigned long)((15)*(32000000UL/4000.0)));
  2024   002A90  0E9C               	movlw	156
  2025   002A92  6E56               	movwf	??_main^(0+1280),c
  2026   002A94  0ED7               	movlw	215
  2027   002A96                     u487:
  2028   002A96  2EE8               	decfsz	wreg,f,c
  2029   002A98  D7FE               	bra	u487
  2030   002A9A  2E56               	decfsz	??_main^(0+1280),f,c
  2031   002A9C  D7FC               	bra	u487
  2032   002A9E  0000               	nop	
  2033   002AA0                     
  2034                           ;maincode03.c: 211:         tira_neopixel3(led_seis);
  2035   002AA0  0E1F               	movlw	low _led_seis
  2036   002AA2  6E54               	movwf	tira_neopixel3@led^(0+1280),c
  2037   002AA4  0E05               	movlw	high _led_seis
  2038   002AA6  6E55               	movwf	(tira_neopixel3@led+1)^(0+1280),c
  2039   002AA8  EC0A  F016         	call	_tira_neopixel3	;wreg free
  2040   002AAC                     
  2041                           ;maincode03.c: 212:         _delay((unsigned long)((15)*(32000000UL/4000.0)));
  2042   002AAC  0E9C               	movlw	156
  2043   002AAE  6E56               	movwf	??_main^(0+1280),c
  2044   002AB0  0ED7               	movlw	215
  2045   002AB2                     u497:
  2046   002AB2  2EE8               	decfsz	wreg,f,c
  2047   002AB4  D7FE               	bra	u497
  2048   002AB6  2E56               	decfsz	??_main^(0+1280),f,c
  2049   002AB8  D7FC               	bra	u497
  2050   002ABA  0000               	nop	
  2051   002ABC                     
  2052                           ;maincode03.c: 213:         tira_neopixel3(led_siete);
  2053   002ABC  0E15               	movlw	low _led_siete
  2054   002ABE  6E54               	movwf	tira_neopixel3@led^(0+1280),c
  2055   002AC0  0E05               	movlw	high _led_siete
  2056   002AC2  6E55               	movwf	(tira_neopixel3@led+1)^(0+1280),c
  2057   002AC4  EC0A  F016         	call	_tira_neopixel3	;wreg free
  2058   002AC8                     
  2059                           ;maincode03.c: 214:         _delay((unsigned long)((15)*(32000000UL/4000.0)));
  2060   002AC8  0E9C               	movlw	156
  2061   002ACA  6E56               	movwf	??_main^(0+1280),c
  2062   002ACC  0ED7               	movlw	215
  2063   002ACE                     u507:
  2064   002ACE  2EE8               	decfsz	wreg,f,c
  2065   002AD0  D7FE               	bra	u507
  2066   002AD2  2E56               	decfsz	??_main^(0+1280),f,c
  2067   002AD4  D7FC               	bra	u507
  2068   002AD6  0000               	nop	
  2069   002AD8                     
  2070                           ;maincode03.c: 215:         tira_neopixel3(led_ocho);
  2071   002AD8  0E0B               	movlw	low _led_ocho
  2072   002ADA  6E54               	movwf	tira_neopixel3@led^(0+1280),c
  2073   002ADC  0E05               	movlw	high _led_ocho
  2074   002ADE  6E55               	movwf	(tira_neopixel3@led+1)^(0+1280),c
  2075   002AE0  EC0A  F016         	call	_tira_neopixel3	;wreg free
  2076   002AE4                     
  2077                           ;maincode03.c: 216:         _delay((unsigned long)((15)*(32000000UL/4000.0)));
  2078   002AE4  0E9C               	movlw	156
  2079   002AE6  6E56               	movwf	??_main^(0+1280),c
  2080   002AE8  0ED7               	movlw	215
  2081   002AEA                     u517:
  2082   002AEA  2EE8               	decfsz	wreg,f,c
  2083   002AEC  D7FE               	bra	u517
  2084   002AEE  2E56               	decfsz	??_main^(0+1280),f,c
  2085   002AF0  D7FC               	bra	u517
  2086   002AF2  0000               	nop	
  2087   002AF4                     
  2088                           ;maincode03.c: 217:         tira_neopixel3(led_nueve);
  2089   002AF4  0E01               	movlw	low _led_nueve
  2090   002AF6  6E54               	movwf	tira_neopixel3@led^(0+1280),c
  2091   002AF8  0E05               	movlw	high _led_nueve
  2092   002AFA  6E55               	movwf	(tira_neopixel3@led+1)^(0+1280),c
  2093   002AFC  EC0A  F016         	call	_tira_neopixel3	;wreg free
  2094   002B00                     
  2095                           ;maincode03.c: 218:         _delay((unsigned long)((15)*(32000000UL/4000.0)));
  2096   002B00  0E9C               	movlw	156
  2097   002B02  6E56               	movwf	??_main^(0+1280),c
  2098   002B04  0ED7               	movlw	215
  2099   002B06                     u527:
  2100   002B06  2EE8               	decfsz	wreg,f,c
  2101   002B08  D7FE               	bra	u527
  2102   002B0A  2E56               	decfsz	??_main^(0+1280),f,c
  2103   002B0C  D7FC               	bra	u527
  2104   002B0E  0000               	nop	
  2105   002B10                     
  2106                           ;maincode03.c: 219:         tira_neopixel3(led_diez);
  2107   002B10  0E60               	movlw	low _led_diez
  2108   002B12  6E54               	movwf	tira_neopixel3@led^(0+1280),c
  2109   002B14  0E05               	movlw	high _led_diez
  2110   002B16  6E55               	movwf	(tira_neopixel3@led+1)^(0+1280),c
  2111   002B18  EC0A  F016         	call	_tira_neopixel3	;wreg free
  2112   002B1C                     
  2113                           ;maincode03.c: 220:         _delay((unsigned long)((15)*(32000000UL/4000.0)));
  2114   002B1C  0E9C               	movlw	156
  2115   002B1E  6E56               	movwf	??_main^(0+1280),c
  2116   002B20  0ED7               	movlw	215
  2117   002B22                     u537:
  2118   002B22  2EE8               	decfsz	wreg,f,c
  2119   002B24  D7FE               	bra	u537
  2120   002B26  2E56               	decfsz	??_main^(0+1280),f,c
  2121   002B28  D7FC               	bra	u537
  2122   002B2A  0000               	nop	
  2123   002B2C                     
  2124                           ;maincode03.c: 221:         tira_neopixel3(led_nueve);
  2125   002B2C  0E01               	movlw	low _led_nueve
  2126   002B2E  6E54               	movwf	tira_neopixel3@led^(0+1280),c
  2127   002B30  0E05               	movlw	high _led_nueve
  2128   002B32  6E55               	movwf	(tira_neopixel3@led+1)^(0+1280),c
  2129   002B34  EC0A  F016         	call	_tira_neopixel3	;wreg free
  2130   002B38                     
  2131                           ;maincode03.c: 222:         _delay((unsigned long)((15)*(32000000UL/4000.0)));
  2132   002B38  0E9C               	movlw	156
  2133   002B3A  6E56               	movwf	??_main^(0+1280),c
  2134   002B3C  0ED7               	movlw	215
  2135   002B3E                     u547:
  2136   002B3E  2EE8               	decfsz	wreg,f,c
  2137   002B40  D7FE               	bra	u547
  2138   002B42  2E56               	decfsz	??_main^(0+1280),f,c
  2139   002B44  D7FC               	bra	u547
  2140   002B46  0000               	nop	
  2141   002B48                     
  2142                           ;maincode03.c: 223:         tira_neopixel3(led_ocho);
  2143   002B48  0E0B               	movlw	low _led_ocho
  2144   002B4A  6E54               	movwf	tira_neopixel3@led^(0+1280),c
  2145   002B4C  0E05               	movlw	high _led_ocho
  2146   002B4E  6E55               	movwf	(tira_neopixel3@led+1)^(0+1280),c
  2147   002B50  EC0A  F016         	call	_tira_neopixel3	;wreg free
  2148   002B54                     
  2149                           ;maincode03.c: 224:         _delay((unsigned long)((15)*(32000000UL/4000.0)));
  2150   002B54  0E9C               	movlw	156
  2151   002B56  6E56               	movwf	??_main^(0+1280),c
  2152   002B58  0ED7               	movlw	215
  2153   002B5A                     u557:
  2154   002B5A  2EE8               	decfsz	wreg,f,c
  2155   002B5C  D7FE               	bra	u557
  2156   002B5E  2E56               	decfsz	??_main^(0+1280),f,c
  2157   002B60  D7FC               	bra	u557
  2158   002B62  0000               	nop	
  2159   002B64                     
  2160                           ;maincode03.c: 225:         tira_neopixel3(led_siete);
  2161   002B64  0E15               	movlw	low _led_siete
  2162   002B66  6E54               	movwf	tira_neopixel3@led^(0+1280),c
  2163   002B68  0E05               	movlw	high _led_siete
  2164   002B6A  6E55               	movwf	(tira_neopixel3@led+1)^(0+1280),c
  2165   002B6C  EC0A  F016         	call	_tira_neopixel3	;wreg free
  2166   002B70                     
  2167                           ;maincode03.c: 226:         _delay((unsigned long)((15)*(32000000UL/4000.0)));
  2168   002B70  0E9C               	movlw	156
  2169   002B72  6E56               	movwf	??_main^(0+1280),c
  2170   002B74  0ED7               	movlw	215
  2171   002B76                     u567:
  2172   002B76  2EE8               	decfsz	wreg,f,c
  2173   002B78  D7FE               	bra	u567
  2174   002B7A  2E56               	decfsz	??_main^(0+1280),f,c
  2175   002B7C  D7FC               	bra	u567
  2176   002B7E  0000               	nop	
  2177   002B80                     
  2178                           ;maincode03.c: 227:         tira_neopixel3(led_seis);
  2179   002B80  0E1F               	movlw	low _led_seis
  2180   002B82  6E54               	movwf	tira_neopixel3@led^(0+1280),c
  2181   002B84  0E05               	movlw	high _led_seis
  2182   002B86  6E55               	movwf	(tira_neopixel3@led+1)^(0+1280),c
  2183   002B88  EC0A  F016         	call	_tira_neopixel3	;wreg free
  2184   002B8C                     
  2185                           ;maincode03.c: 228:         _delay((unsigned long)((15)*(32000000UL/4000.0)));
  2186   002B8C  0E9C               	movlw	156
  2187   002B8E  6E56               	movwf	??_main^(0+1280),c
  2188   002B90  0ED7               	movlw	215
  2189   002B92                     u577:
  2190   002B92  2EE8               	decfsz	wreg,f,c
  2191   002B94  D7FE               	bra	u577
  2192   002B96  2E56               	decfsz	??_main^(0+1280),f,c
  2193   002B98  D7FC               	bra	u577
  2194   002B9A  0000               	nop	
  2195   002B9C                     
  2196                           ;maincode03.c: 229:         tira_neopixel3(led_cinco);
  2197   002B9C  0E29               	movlw	low _led_cinco
  2198   002B9E  6E54               	movwf	tira_neopixel3@led^(0+1280),c
  2199   002BA0  0E05               	movlw	high _led_cinco
  2200   002BA2  6E55               	movwf	(tira_neopixel3@led+1)^(0+1280),c
  2201   002BA4  EC0A  F016         	call	_tira_neopixel3	;wreg free
  2202   002BA8                     
  2203                           ;maincode03.c: 230:         _delay((unsigned long)((15)*(32000000UL/4000.0)));
  2204   002BA8  0E9C               	movlw	156
  2205   002BAA  6E56               	movwf	??_main^(0+1280),c
  2206   002BAC  0ED7               	movlw	215
  2207   002BAE                     u587:
  2208   002BAE  2EE8               	decfsz	wreg,f,c
  2209   002BB0  D7FE               	bra	u587
  2210   002BB2  2E56               	decfsz	??_main^(0+1280),f,c
  2211   002BB4  D7FC               	bra	u587
  2212   002BB6  0000               	nop	
  2213   002BB8                     
  2214                           ;maincode03.c: 231:         tira_neopixel3(led_cuatro);
  2215   002BB8  0E33               	movlw	low _led_cuatro
  2216   002BBA  6E54               	movwf	tira_neopixel3@led^(0+1280),c
  2217   002BBC  0E05               	movlw	high _led_cuatro
  2218   002BBE  6E55               	movwf	(tira_neopixel3@led+1)^(0+1280),c
  2219   002BC0  EC0A  F016         	call	_tira_neopixel3	;wreg free
  2220   002BC4                     
  2221                           ;maincode03.c: 232:         _delay((unsigned long)((15)*(32000000UL/4000.0)));
  2222   002BC4  0E9C               	movlw	156
  2223   002BC6  6E56               	movwf	??_main^(0+1280),c
  2224   002BC8  0ED7               	movlw	215
  2225   002BCA                     u597:
  2226   002BCA  2EE8               	decfsz	wreg,f,c
  2227   002BCC  D7FE               	bra	u597
  2228   002BCE  2E56               	decfsz	??_main^(0+1280),f,c
  2229   002BD0  D7FC               	bra	u597
  2230   002BD2  0000               	nop	
  2231   002BD4                     
  2232                           ;maincode03.c: 233:         tira_neopixel3(led_tres);
  2233   002BD4  0E3D               	movlw	low _led_tres
  2234   002BD6  6E54               	movwf	tira_neopixel3@led^(0+1280),c
  2235   002BD8  0E05               	movlw	high _led_tres
  2236   002BDA  6E55               	movwf	(tira_neopixel3@led+1)^(0+1280),c
  2237   002BDC  EC0A  F016         	call	_tira_neopixel3	;wreg free
  2238   002BE0                     
  2239                           ;maincode03.c: 234:         _delay((unsigned long)((15)*(32000000UL/4000.0)));
  2240   002BE0  0E9C               	movlw	156
  2241   002BE2  6E56               	movwf	??_main^(0+1280),c
  2242   002BE4  0ED7               	movlw	215
  2243   002BE6                     u607:
  2244   002BE6  2EE8               	decfsz	wreg,f,c
  2245   002BE8  D7FE               	bra	u607
  2246   002BEA  2E56               	decfsz	??_main^(0+1280),f,c
  2247   002BEC  D7FC               	bra	u607
  2248   002BEE  0000               	nop	
  2249   002BF0                     
  2250                           ;maincode03.c: 235:         tira_neopixel3(led_dos);
  2251   002BF0  0E47               	movlw	low _led_dos
  2252   002BF2  6E54               	movwf	tira_neopixel3@led^(0+1280),c
  2253   002BF4  0E05               	movlw	high _led_dos
  2254   002BF6  6E55               	movwf	(tira_neopixel3@led+1)^(0+1280),c
  2255   002BF8  EC0A  F016         	call	_tira_neopixel3	;wreg free
  2256   002BFC                     
  2257                           ;maincode03.c: 236:         _delay((unsigned long)((15)*(32000000UL/4000.0)));
  2258   002BFC  0E9C               	movlw	156
  2259   002BFE  6E56               	movwf	??_main^(0+1280),c
  2260   002C00  0ED7               	movlw	215
  2261   002C02                     u617:
  2262   002C02  2EE8               	decfsz	wreg,f,c
  2263   002C04  D7FE               	bra	u617
  2264   002C06  2E56               	decfsz	??_main^(0+1280),f,c
  2265   002C08  D7FC               	bra	u617
  2266   002C0A  0000               	nop	
  2267   002C0C  EF12  F013         	goto	l1162
  2268   002C10  EFFE  F0FF         	goto	start
  2269   002C14                     __end_of_main:
  2270                           	callstack 0
  2271                           
  2272 ;; *************** function _tira_neopixel3 *****************
  2273 ;; Defined at:
  2274 ;;		line 110 in file "maincode03.c"
  2275 ;; Parameters:    Size  Location     Type
  2276 ;;  led             2    3[COMRAM] PTR unsigned char 
  2277 ;;		 -> led_diez(10), led_nueve(10), led_ocho(10), led_siete(10), 
  2278 ;;		 -> led_seis(10), led_cinco(10), led_cuatro(10), led_tres(10), 
  2279 ;;		 -> led_dos(10), led_uno(10), 
  2280 ;; Auto vars:     Size  Location     Type
  2281 ;;		None
  2282 ;; Return value:  Size  Location     Type
  2283 ;;                  1    wreg      void 
  2284 ;; Registers used:
  2285 ;;		wreg, fsr2l, fsr2h, status,2, status,0, cstack
  2286 ;; Tracked objects:
  2287 ;;		On entry : 0/0
  2288 ;;		On exit  : 0/0
  2289 ;;		Unchanged: 0/0
  2290 ;; Data sizes:     COMRAM   BANK5   BANK6   BANK7   BANK8   BANK9  BANK10  BANK11  BANK12  BANK13  BANK14  BANK15  BANK1
      +6  BANK17  BANK18  BANK19  BANK20  BANK21  BANK22  BANK23  BANK24  BANK25  BANK26  BANK27  BANK28  BANK29  BANK30  BANK3
      +1  BANK32  BANK33  BANK34  BANK35  BANK36
  2291 ;;      Params:         2       0       0       0       0       0       0       0       0       0       0       0       
      +0       0       0       0       0       0       0       0       0       0       0       0       0       0       0       
      +0       0       0       0       0       0
  2292 ;;      Locals:         0       0       0       0       0       0       0       0       0       0       0       0       
      +0       0       0       0       0       0       0       0       0       0       0       0       0       0       0       
      +0       0       0       0       0       0
  2293 ;;      Temps:          0       0       0       0       0       0       0       0       0       0       0       0       
      +0       0       0       0       0       0       0       0       0       0       0       0       0       0       0       
      +0       0       0       0       0       0
  2294 ;;      Totals:         2       0       0       0       0       0       0       0       0       0       0       0       
      +0       0       0       0       0       0       0       0       0       0       0       0       0       0       0       
      +0       0       0       0       0       0
  2295 ;;Total ram usage:        2 bytes
  2296 ;; Hardware stack levels used: 1
  2297 ;; Hardware stack levels required when called: 1
  2298 ;; This function calls:
  2299 ;;		_neopixel
  2300 ;; This function is called by:
  2301 ;;		_main
  2302 ;; This function uses a non-reentrant model
  2303 ;;
  2304                           
  2305                           	psect	text1
  2306   002C14                     __ptext1:
  2307                           	callstack 0
  2308   002C14                     _tira_neopixel3:
  2309                           	callstack 125
  2310   002C14                     
  2311                           ;maincode03.c: 111:     neopixel(0,0,led[0]);
  2312   002C14  0E00               	movlw	0
  2313   002C16  6E51               	movwf	neopixel@g^(0+1280),c
  2314   002C18  C554  F4D9         	movff	tira_neopixel3@led,fsr2l
  2315   002C1C  C555  F4DA         	movff	tira_neopixel3@led+1,fsr2h
  2316   002C20  50DF               	movf	indf2,w,c
  2317   002C22  6E52               	movwf	neopixel@b^(0+1280),c
  2318   002C24  0E00               	movlw	0
  2319   002C26  EC12  F018         	call	_neopixel
  2320   002C2A                     
  2321                           ;maincode03.c: 112:     neopixel(0,0,led[1]);
  2322   002C2A  0E00               	movlw	0
  2323   002C2C  6E51               	movwf	neopixel@g^(0+1280),c
  2324   002C2E  EE20 F001          	lfsr	2,1
  2325   002C32  5054               	movf	tira_neopixel3@led^(0+1280),w,c
  2326   002C34  26D9               	addwf	fsr2l,f,c
  2327   002C36  5055               	movf	(tira_neopixel3@led+1)^(0+1280),w,c
  2328   002C38  22DA               	addwfc	fsr2h,f,c
  2329   002C3A  50DF               	movf	indf2,w,c
  2330   002C3C  6E52               	movwf	neopixel@b^(0+1280),c
  2331   002C3E  0E00               	movlw	0
  2332   002C40  EC12  F018         	call	_neopixel
  2333   002C44                     
  2334                           ;maincode03.c: 113:     neopixel(0,0,led[2]);
  2335   002C44  0E00               	movlw	0
  2336   002C46  6E51               	movwf	neopixel@g^(0+1280),c
  2337   002C48  EE20 F002          	lfsr	2,2
  2338   002C4C  5054               	movf	tira_neopixel3@led^(0+1280),w,c
  2339   002C4E  26D9               	addwf	fsr2l,f,c
  2340   002C50  5055               	movf	(tira_neopixel3@led+1)^(0+1280),w,c
  2341   002C52  22DA               	addwfc	fsr2h,f,c
  2342   002C54  50DF               	movf	indf2,w,c
  2343   002C56  6E52               	movwf	neopixel@b^(0+1280),c
  2344   002C58  0E00               	movlw	0
  2345   002C5A  EC12  F018         	call	_neopixel
  2346   002C5E                     
  2347                           ;maincode03.c: 114:     neopixel(0,0,led[3]);
  2348   002C5E  0E00               	movlw	0
  2349   002C60  6E51               	movwf	neopixel@g^(0+1280),c
  2350   002C62  EE20 F003          	lfsr	2,3
  2351   002C66  5054               	movf	tira_neopixel3@led^(0+1280),w,c
  2352   002C68  26D9               	addwf	fsr2l,f,c
  2353   002C6A  5055               	movf	(tira_neopixel3@led+1)^(0+1280),w,c
  2354   002C6C  22DA               	addwfc	fsr2h,f,c
  2355   002C6E  50DF               	movf	indf2,w,c
  2356   002C70  6E52               	movwf	neopixel@b^(0+1280),c
  2357   002C72  0E00               	movlw	0
  2358   002C74  EC12  F018         	call	_neopixel
  2359   002C78                     
  2360                           ;maincode03.c: 115:     neopixel(0,0,led[4]);
  2361   002C78  0E00               	movlw	0
  2362   002C7A  6E51               	movwf	neopixel@g^(0+1280),c
  2363   002C7C  EE20 F004          	lfsr	2,4
  2364   002C80  5054               	movf	tira_neopixel3@led^(0+1280),w,c
  2365   002C82  26D9               	addwf	fsr2l,f,c
  2366   002C84  5055               	movf	(tira_neopixel3@led+1)^(0+1280),w,c
  2367   002C86  22DA               	addwfc	fsr2h,f,c
  2368   002C88  50DF               	movf	indf2,w,c
  2369   002C8A  6E52               	movwf	neopixel@b^(0+1280),c
  2370   002C8C  0E00               	movlw	0
  2371   002C8E  EC12  F018         	call	_neopixel
  2372   002C92                     
  2373                           ;maincode03.c: 116:     neopixel(0,0,led[5]);
  2374   002C92  0E00               	movlw	0
  2375   002C94  6E51               	movwf	neopixel@g^(0+1280),c
  2376   002C96  EE20 F005          	lfsr	2,5
  2377   002C9A  5054               	movf	tira_neopixel3@led^(0+1280),w,c
  2378   002C9C  26D9               	addwf	fsr2l,f,c
  2379   002C9E  5055               	movf	(tira_neopixel3@led+1)^(0+1280),w,c
  2380   002CA0  22DA               	addwfc	fsr2h,f,c
  2381   002CA2  50DF               	movf	indf2,w,c
  2382   002CA4  6E52               	movwf	neopixel@b^(0+1280),c
  2383   002CA6  0E00               	movlw	0
  2384   002CA8  EC12  F018         	call	_neopixel
  2385   002CAC                     
  2386                           ;maincode03.c: 117:     neopixel(0,0,led[6]);
  2387   002CAC  0E00               	movlw	0
  2388   002CAE  6E51               	movwf	neopixel@g^(0+1280),c
  2389   002CB0  EE20 F006          	lfsr	2,6
  2390   002CB4  5054               	movf	tira_neopixel3@led^(0+1280),w,c
  2391   002CB6  26D9               	addwf	fsr2l,f,c
  2392   002CB8  5055               	movf	(tira_neopixel3@led+1)^(0+1280),w,c
  2393   002CBA  22DA               	addwfc	fsr2h,f,c
  2394   002CBC  50DF               	movf	indf2,w,c
  2395   002CBE  6E52               	movwf	neopixel@b^(0+1280),c
  2396   002CC0  0E00               	movlw	0
  2397   002CC2  EC12  F018         	call	_neopixel
  2398   002CC6                     
  2399                           ;maincode03.c: 118:     neopixel(0,0,led[7]);
  2400   002CC6  0E00               	movlw	0
  2401   002CC8  6E51               	movwf	neopixel@g^(0+1280),c
  2402   002CCA  EE20 F007          	lfsr	2,7
  2403   002CCE  5054               	movf	tira_neopixel3@led^(0+1280),w,c
  2404   002CD0  26D9               	addwf	fsr2l,f,c
  2405   002CD2  5055               	movf	(tira_neopixel3@led+1)^(0+1280),w,c
  2406   002CD4  22DA               	addwfc	fsr2h,f,c
  2407   002CD6  50DF               	movf	indf2,w,c
  2408   002CD8  6E52               	movwf	neopixel@b^(0+1280),c
  2409   002CDA  0E00               	movlw	0
  2410   002CDC  EC12  F018         	call	_neopixel
  2411   002CE0                     
  2412                           ;maincode03.c: 119:     neopixel(0,0,led[8]);
  2413   002CE0  0E00               	movlw	0
  2414   002CE2  6E51               	movwf	neopixel@g^(0+1280),c
  2415   002CE4  EE20 F008          	lfsr	2,8
  2416   002CE8  5054               	movf	tira_neopixel3@led^(0+1280),w,c
  2417   002CEA  26D9               	addwf	fsr2l,f,c
  2418   002CEC  5055               	movf	(tira_neopixel3@led+1)^(0+1280),w,c
  2419   002CEE  22DA               	addwfc	fsr2h,f,c
  2420   002CF0  50DF               	movf	indf2,w,c
  2421   002CF2  6E52               	movwf	neopixel@b^(0+1280),c
  2422   002CF4  0E00               	movlw	0
  2423   002CF6  EC12  F018         	call	_neopixel
  2424   002CFA                     
  2425                           ;maincode03.c: 120:     neopixel(0,0,led[9]);
  2426   002CFA  0E00               	movlw	0
  2427   002CFC  6E51               	movwf	neopixel@g^(0+1280),c
  2428   002CFE  EE20 F009          	lfsr	2,9
  2429   002D02  5054               	movf	tira_neopixel3@led^(0+1280),w,c
  2430   002D04  26D9               	addwf	fsr2l,f,c
  2431   002D06  5055               	movf	(tira_neopixel3@led+1)^(0+1280),w,c
  2432   002D08  22DA               	addwfc	fsr2h,f,c
  2433   002D0A  50DF               	movf	indf2,w,c
  2434   002D0C  6E52               	movwf	neopixel@b^(0+1280),c
  2435   002D0E  0E00               	movlw	0
  2436   002D10  EC12  F018         	call	_neopixel
  2437   002D14  0012               	return		;funcret
  2438   002D16                     __end_of_tira_neopixel3:
  2439                           	callstack 0
  2440                           
  2441 ;; *************** function _tira_neopixel2 *****************
  2442 ;; Defined at:
  2443 ;;		line 97 in file "maincode03.c"
  2444 ;; Parameters:    Size  Location     Type
  2445 ;;  led             2    3[COMRAM] PTR unsigned char 
  2446 ;;		 -> led_diez(10), led_nueve(10), led_ocho(10), led_siete(10), 
  2447 ;;		 -> led_seis(10), led_cinco(10), led_cuatro(10), led_tres(10), 
  2448 ;;		 -> led_dos(10), led_uno(10), 
  2449 ;; Auto vars:     Size  Location     Type
  2450 ;;		None
  2451 ;; Return value:  Size  Location     Type
  2452 ;;                  1    wreg      void 
  2453 ;; Registers used:
  2454 ;;		wreg, fsr2l, fsr2h, status,2, status,0, cstack
  2455 ;; Tracked objects:
  2456 ;;		On entry : 0/0
  2457 ;;		On exit  : 0/0
  2458 ;;		Unchanged: 0/0
  2459 ;; Data sizes:     COMRAM   BANK5   BANK6   BANK7   BANK8   BANK9  BANK10  BANK11  BANK12  BANK13  BANK14  BANK15  BANK1
      +6  BANK17  BANK18  BANK19  BANK20  BANK21  BANK22  BANK23  BANK24  BANK25  BANK26  BANK27  BANK28  BANK29  BANK30  BANK3
      +1  BANK32  BANK33  BANK34  BANK35  BANK36
  2460 ;;      Params:         2       0       0       0       0       0       0       0       0       0       0       0       
      +0       0       0       0       0       0       0       0       0       0       0       0       0       0       0       
      +0       0       0       0       0       0
  2461 ;;      Locals:         0       0       0       0       0       0       0       0       0       0       0       0       
      +0       0       0       0       0       0       0       0       0       0       0       0       0       0       0       
      +0       0       0       0       0       0
  2462 ;;      Temps:          0       0       0       0       0       0       0       0       0       0       0       0       
      +0       0       0       0       0       0       0       0       0       0       0       0       0       0       0       
      +0       0       0       0       0       0
  2463 ;;      Totals:         2       0       0       0       0       0       0       0       0       0       0       0       
      +0       0       0       0       0       0       0       0       0       0       0       0       0       0       0       
      +0       0       0       0       0       0
  2464 ;;Total ram usage:        2 bytes
  2465 ;; Hardware stack levels used: 1
  2466 ;; Hardware stack levels required when called: 1
  2467 ;; This function calls:
  2468 ;;		_neopixel
  2469 ;; This function is called by:
  2470 ;;		_main
  2471 ;; This function uses a non-reentrant model
  2472 ;;
  2473                           
  2474                           	psect	text2
  2475   002D16                     __ptext2:
  2476                           	callstack 0
  2477   002D16                     _tira_neopixel2:
  2478                           	callstack 125
  2479   002D16                     
  2480                           ;maincode03.c: 98:     neopixel(0, led[0],0);
  2481   002D16  C554  F4D9         	movff	tira_neopixel2@led,fsr2l
  2482   002D1A  C555  F4DA         	movff	tira_neopixel2@led+1,fsr2h
  2483   002D1E  50DF               	movf	indf2,w,c
  2484   002D20  6E51               	movwf	neopixel@g^(0+1280),c
  2485   002D22  0E00               	movlw	0
  2486   002D24  6E52               	movwf	neopixel@b^(0+1280),c
  2487   002D26  0E00               	movlw	0
  2488   002D28  EC12  F018         	call	_neopixel
  2489   002D2C                     
  2490                           ;maincode03.c: 99:     neopixel(0, led[1],0);
  2491   002D2C  EE20 F001          	lfsr	2,1
  2492   002D30  5054               	movf	tira_neopixel2@led^(0+1280),w,c
  2493   002D32  26D9               	addwf	fsr2l,f,c
  2494   002D34  5055               	movf	(tira_neopixel2@led+1)^(0+1280),w,c
  2495   002D36  22DA               	addwfc	fsr2h,f,c
  2496   002D38  50DF               	movf	indf2,w,c
  2497   002D3A  6E51               	movwf	neopixel@g^(0+1280),c
  2498   002D3C  0E00               	movlw	0
  2499   002D3E  6E52               	movwf	neopixel@b^(0+1280),c
  2500   002D40  0E00               	movlw	0
  2501   002D42  EC12  F018         	call	_neopixel
  2502   002D46                     
  2503                           ;maincode03.c: 100:     neopixel(0, led[2],0);
  2504   002D46  EE20 F002          	lfsr	2,2
  2505   002D4A  5054               	movf	tira_neopixel2@led^(0+1280),w,c
  2506   002D4C  26D9               	addwf	fsr2l,f,c
  2507   002D4E  5055               	movf	(tira_neopixel2@led+1)^(0+1280),w,c
  2508   002D50  22DA               	addwfc	fsr2h,f,c
  2509   002D52  50DF               	movf	indf2,w,c
  2510   002D54  6E51               	movwf	neopixel@g^(0+1280),c
  2511   002D56  0E00               	movlw	0
  2512   002D58  6E52               	movwf	neopixel@b^(0+1280),c
  2513   002D5A  0E00               	movlw	0
  2514   002D5C  EC12  F018         	call	_neopixel
  2515   002D60                     
  2516                           ;maincode03.c: 101:     neopixel(0, led[3],0);
  2517   002D60  EE20 F003          	lfsr	2,3
  2518   002D64  5054               	movf	tira_neopixel2@led^(0+1280),w,c
  2519   002D66  26D9               	addwf	fsr2l,f,c
  2520   002D68  5055               	movf	(tira_neopixel2@led+1)^(0+1280),w,c
  2521   002D6A  22DA               	addwfc	fsr2h,f,c
  2522   002D6C  50DF               	movf	indf2,w,c
  2523   002D6E  6E51               	movwf	neopixel@g^(0+1280),c
  2524   002D70  0E00               	movlw	0
  2525   002D72  6E52               	movwf	neopixel@b^(0+1280),c
  2526   002D74  0E00               	movlw	0
  2527   002D76  EC12  F018         	call	_neopixel
  2528   002D7A                     
  2529                           ;maincode03.c: 102:     neopixel(0, led[4],0);
  2530   002D7A  EE20 F004          	lfsr	2,4
  2531   002D7E  5054               	movf	tira_neopixel2@led^(0+1280),w,c
  2532   002D80  26D9               	addwf	fsr2l,f,c
  2533   002D82  5055               	movf	(tira_neopixel2@led+1)^(0+1280),w,c
  2534   002D84  22DA               	addwfc	fsr2h,f,c
  2535   002D86  50DF               	movf	indf2,w,c
  2536   002D88  6E51               	movwf	neopixel@g^(0+1280),c
  2537   002D8A  0E00               	movlw	0
  2538   002D8C  6E52               	movwf	neopixel@b^(0+1280),c
  2539   002D8E  0E00               	movlw	0
  2540   002D90  EC12  F018         	call	_neopixel
  2541   002D94                     
  2542                           ;maincode03.c: 103:     neopixel(0, led[5],0);
  2543   002D94  EE20 F005          	lfsr	2,5
  2544   002D98  5054               	movf	tira_neopixel2@led^(0+1280),w,c
  2545   002D9A  26D9               	addwf	fsr2l,f,c
  2546   002D9C  5055               	movf	(tira_neopixel2@led+1)^(0+1280),w,c
  2547   002D9E  22DA               	addwfc	fsr2h,f,c
  2548   002DA0  50DF               	movf	indf2,w,c
  2549   002DA2  6E51               	movwf	neopixel@g^(0+1280),c
  2550   002DA4  0E00               	movlw	0
  2551   002DA6  6E52               	movwf	neopixel@b^(0+1280),c
  2552   002DA8  0E00               	movlw	0
  2553   002DAA  EC12  F018         	call	_neopixel
  2554   002DAE                     
  2555                           ;maincode03.c: 104:     neopixel(0, led[6],0);
  2556   002DAE  EE20 F006          	lfsr	2,6
  2557   002DB2  5054               	movf	tira_neopixel2@led^(0+1280),w,c
  2558   002DB4  26D9               	addwf	fsr2l,f,c
  2559   002DB6  5055               	movf	(tira_neopixel2@led+1)^(0+1280),w,c
  2560   002DB8  22DA               	addwfc	fsr2h,f,c
  2561   002DBA  50DF               	movf	indf2,w,c
  2562   002DBC  6E51               	movwf	neopixel@g^(0+1280),c
  2563   002DBE  0E00               	movlw	0
  2564   002DC0  6E52               	movwf	neopixel@b^(0+1280),c
  2565   002DC2  0E00               	movlw	0
  2566   002DC4  EC12  F018         	call	_neopixel
  2567   002DC8                     
  2568                           ;maincode03.c: 105:     neopixel(0, led[7],0);
  2569   002DC8  EE20 F007          	lfsr	2,7
  2570   002DCC  5054               	movf	tira_neopixel2@led^(0+1280),w,c
  2571   002DCE  26D9               	addwf	fsr2l,f,c
  2572   002DD0  5055               	movf	(tira_neopixel2@led+1)^(0+1280),w,c
  2573   002DD2  22DA               	addwfc	fsr2h,f,c
  2574   002DD4  50DF               	movf	indf2,w,c
  2575   002DD6  6E51               	movwf	neopixel@g^(0+1280),c
  2576   002DD8  0E00               	movlw	0
  2577   002DDA  6E52               	movwf	neopixel@b^(0+1280),c
  2578   002DDC  0E00               	movlw	0
  2579   002DDE  EC12  F018         	call	_neopixel
  2580   002DE2                     
  2581                           ;maincode03.c: 106:     neopixel(0, led[8],0);
  2582   002DE2  EE20 F008          	lfsr	2,8
  2583   002DE6  5054               	movf	tira_neopixel2@led^(0+1280),w,c
  2584   002DE8  26D9               	addwf	fsr2l,f,c
  2585   002DEA  5055               	movf	(tira_neopixel2@led+1)^(0+1280),w,c
  2586   002DEC  22DA               	addwfc	fsr2h,f,c
  2587   002DEE  50DF               	movf	indf2,w,c
  2588   002DF0  6E51               	movwf	neopixel@g^(0+1280),c
  2589   002DF2  0E00               	movlw	0
  2590   002DF4  6E52               	movwf	neopixel@b^(0+1280),c
  2591   002DF6  0E00               	movlw	0
  2592   002DF8  EC12  F018         	call	_neopixel
  2593   002DFC                     
  2594                           ;maincode03.c: 107:     neopixel(0, led[9],0);
  2595   002DFC  EE20 F009          	lfsr	2,9
  2596   002E00  5054               	movf	tira_neopixel2@led^(0+1280),w,c
  2597   002E02  26D9               	addwf	fsr2l,f,c
  2598   002E04  5055               	movf	(tira_neopixel2@led+1)^(0+1280),w,c
  2599   002E06  22DA               	addwfc	fsr2h,f,c
  2600   002E08  50DF               	movf	indf2,w,c
  2601   002E0A  6E51               	movwf	neopixel@g^(0+1280),c
  2602   002E0C  0E00               	movlw	0
  2603   002E0E  6E52               	movwf	neopixel@b^(0+1280),c
  2604   002E10  0E00               	movlw	0
  2605   002E12  EC12  F018         	call	_neopixel
  2606   002E16  0012               	return		;funcret
  2607   002E18                     __end_of_tira_neopixel2:
  2608                           	callstack 0
  2609                           
  2610 ;; *************** function _tira_neopixel *****************
  2611 ;; Defined at:
  2612 ;;		line 70 in file "maincode03.c"
  2613 ;; Parameters:    Size  Location     Type
  2614 ;;  led             2    3[COMRAM] PTR unsigned char 
  2615 ;;		 -> led_diez(10), led_nueve(10), led_ocho(10), led_siete(10), 
  2616 ;;		 -> led_seis(10), led_cinco(10), led_cuatro(10), led_tres(10), 
  2617 ;;		 -> led_dos(10), led_uno(10), 
  2618 ;; Auto vars:     Size  Location     Type
  2619 ;;		None
  2620 ;; Return value:  Size  Location     Type
  2621 ;;                  1    wreg      void 
  2622 ;; Registers used:
  2623 ;;		wreg, fsr2l, fsr2h, status,2, status,0, cstack
  2624 ;; Tracked objects:
  2625 ;;		On entry : 0/0
  2626 ;;		On exit  : 0/0
  2627 ;;		Unchanged: 0/0
  2628 ;; Data sizes:     COMRAM   BANK5   BANK6   BANK7   BANK8   BANK9  BANK10  BANK11  BANK12  BANK13  BANK14  BANK15  BANK1
      +6  BANK17  BANK18  BANK19  BANK20  BANK21  BANK22  BANK23  BANK24  BANK25  BANK26  BANK27  BANK28  BANK29  BANK30  BANK3
      +1  BANK32  BANK33  BANK34  BANK35  BANK36
  2629 ;;      Params:         2       0       0       0       0       0       0       0       0       0       0       0       
      +0       0       0       0       0       0       0       0       0       0       0       0       0       0       0       
      +0       0       0       0       0       0
  2630 ;;      Locals:         0       0       0       0       0       0       0       0       0       0       0       0       
      +0       0       0       0       0       0       0       0       0       0       0       0       0       0       0       
      +0       0       0       0       0       0
  2631 ;;      Temps:          0       0       0       0       0       0       0       0       0       0       0       0       
      +0       0       0       0       0       0       0       0       0       0       0       0       0       0       0       
      +0       0       0       0       0       0
  2632 ;;      Totals:         2       0       0       0       0       0       0       0       0       0       0       0       
      +0       0       0       0       0       0       0       0       0       0       0       0       0       0       0       
      +0       0       0       0       0       0
  2633 ;;Total ram usage:        2 bytes
  2634 ;; Hardware stack levels used: 1
  2635 ;; Hardware stack levels required when called: 1
  2636 ;; This function calls:
  2637 ;;		_neopixel
  2638 ;; This function is called by:
  2639 ;;		_main
  2640 ;; This function uses a non-reentrant model
  2641 ;;
  2642                           
  2643                           	psect	text3
  2644   002E18                     __ptext3:
  2645                           	callstack 0
  2646   002E18                     _tira_neopixel:
  2647                           	callstack 125
  2648   002E18                     
  2649                           ;maincode03.c: 71:     neopixel(led[0],0,0);
  2650   002E18  0E00               	movlw	0
  2651   002E1A  6E51               	movwf	neopixel@g^(0+1280),c
  2652   002E1C  0E00               	movlw	0
  2653   002E1E  6E52               	movwf	neopixel@b^(0+1280),c
  2654   002E20  C554  F4D9         	movff	tira_neopixel@led,fsr2l
  2655   002E24  C555  F4DA         	movff	tira_neopixel@led+1,fsr2h
  2656   002E28  50DF               	movf	indf2,w,c
  2657   002E2A  EC12  F018         	call	_neopixel
  2658   002E2E                     
  2659                           ;maincode03.c: 72:     neopixel(led[1],0,0);
  2660   002E2E  0E00               	movlw	0
  2661   002E30  6E51               	movwf	neopixel@g^(0+1280),c
  2662   002E32  0E00               	movlw	0
  2663   002E34  6E52               	movwf	neopixel@b^(0+1280),c
  2664   002E36  EE20 F001          	lfsr	2,1
  2665   002E3A  5054               	movf	tira_neopixel@led^(0+1280),w,c
  2666   002E3C  26D9               	addwf	fsr2l,f,c
  2667   002E3E  5055               	movf	(tira_neopixel@led+1)^(0+1280),w,c
  2668   002E40  22DA               	addwfc	fsr2h,f,c
  2669   002E42  50DF               	movf	indf2,w,c
  2670   002E44  EC12  F018         	call	_neopixel
  2671   002E48                     
  2672                           ;maincode03.c: 73:     neopixel(led[2],0,0);
  2673   002E48  0E00               	movlw	0
  2674   002E4A  6E51               	movwf	neopixel@g^(0+1280),c
  2675   002E4C  0E00               	movlw	0
  2676   002E4E  6E52               	movwf	neopixel@b^(0+1280),c
  2677   002E50  EE20 F002          	lfsr	2,2
  2678   002E54  5054               	movf	tira_neopixel@led^(0+1280),w,c
  2679   002E56  26D9               	addwf	fsr2l,f,c
  2680   002E58  5055               	movf	(tira_neopixel@led+1)^(0+1280),w,c
  2681   002E5A  22DA               	addwfc	fsr2h,f,c
  2682   002E5C  50DF               	movf	indf2,w,c
  2683   002E5E  EC12  F018         	call	_neopixel
  2684   002E62                     
  2685                           ;maincode03.c: 74:     neopixel(led[3],0,0);
  2686   002E62  0E00               	movlw	0
  2687   002E64  6E51               	movwf	neopixel@g^(0+1280),c
  2688   002E66  0E00               	movlw	0
  2689   002E68  6E52               	movwf	neopixel@b^(0+1280),c
  2690   002E6A  EE20 F003          	lfsr	2,3
  2691   002E6E  5054               	movf	tira_neopixel@led^(0+1280),w,c
  2692   002E70  26D9               	addwf	fsr2l,f,c
  2693   002E72  5055               	movf	(tira_neopixel@led+1)^(0+1280),w,c
  2694   002E74  22DA               	addwfc	fsr2h,f,c
  2695   002E76  50DF               	movf	indf2,w,c
  2696   002E78  EC12  F018         	call	_neopixel
  2697   002E7C                     
  2698                           ;maincode03.c: 75:     neopixel(led[4],0,0);
  2699   002E7C  0E00               	movlw	0
  2700   002E7E  6E51               	movwf	neopixel@g^(0+1280),c
  2701   002E80  0E00               	movlw	0
  2702   002E82  6E52               	movwf	neopixel@b^(0+1280),c
  2703   002E84  EE20 F004          	lfsr	2,4
  2704   002E88  5054               	movf	tira_neopixel@led^(0+1280),w,c
  2705   002E8A  26D9               	addwf	fsr2l,f,c
  2706   002E8C  5055               	movf	(tira_neopixel@led+1)^(0+1280),w,c
  2707   002E8E  22DA               	addwfc	fsr2h,f,c
  2708   002E90  50DF               	movf	indf2,w,c
  2709   002E92  EC12  F018         	call	_neopixel
  2710   002E96                     
  2711                           ;maincode03.c: 76:     neopixel(led[5],0,0);
  2712   002E96  0E00               	movlw	0
  2713   002E98  6E51               	movwf	neopixel@g^(0+1280),c
  2714   002E9A  0E00               	movlw	0
  2715   002E9C  6E52               	movwf	neopixel@b^(0+1280),c
  2716   002E9E  EE20 F005          	lfsr	2,5
  2717   002EA2  5054               	movf	tira_neopixel@led^(0+1280),w,c
  2718   002EA4  26D9               	addwf	fsr2l,f,c
  2719   002EA6  5055               	movf	(tira_neopixel@led+1)^(0+1280),w,c
  2720   002EA8  22DA               	addwfc	fsr2h,f,c
  2721   002EAA  50DF               	movf	indf2,w,c
  2722   002EAC  EC12  F018         	call	_neopixel
  2723   002EB0                     
  2724                           ;maincode03.c: 77:     neopixel(led[6],0,0);
  2725   002EB0  0E00               	movlw	0
  2726   002EB2  6E51               	movwf	neopixel@g^(0+1280),c
  2727   002EB4  0E00               	movlw	0
  2728   002EB6  6E52               	movwf	neopixel@b^(0+1280),c
  2729   002EB8  EE20 F006          	lfsr	2,6
  2730   002EBC  5054               	movf	tira_neopixel@led^(0+1280),w,c
  2731   002EBE  26D9               	addwf	fsr2l,f,c
  2732   002EC0  5055               	movf	(tira_neopixel@led+1)^(0+1280),w,c
  2733   002EC2  22DA               	addwfc	fsr2h,f,c
  2734   002EC4  50DF               	movf	indf2,w,c
  2735   002EC6  EC12  F018         	call	_neopixel
  2736   002ECA                     
  2737                           ;maincode03.c: 78:     neopixel(led[7],0,0);
  2738   002ECA  0E00               	movlw	0
  2739   002ECC  6E51               	movwf	neopixel@g^(0+1280),c
  2740   002ECE  0E00               	movlw	0
  2741   002ED0  6E52               	movwf	neopixel@b^(0+1280),c
  2742   002ED2  EE20 F007          	lfsr	2,7
  2743   002ED6  5054               	movf	tira_neopixel@led^(0+1280),w,c
  2744   002ED8  26D9               	addwf	fsr2l,f,c
  2745   002EDA  5055               	movf	(tira_neopixel@led+1)^(0+1280),w,c
  2746   002EDC  22DA               	addwfc	fsr2h,f,c
  2747   002EDE  50DF               	movf	indf2,w,c
  2748   002EE0  EC12  F018         	call	_neopixel
  2749   002EE4                     
  2750                           ;maincode03.c: 79:     neopixel(led[8],0,0);
  2751   002EE4  0E00               	movlw	0
  2752   002EE6  6E51               	movwf	neopixel@g^(0+1280),c
  2753   002EE8  0E00               	movlw	0
  2754   002EEA  6E52               	movwf	neopixel@b^(0+1280),c
  2755   002EEC  EE20 F008          	lfsr	2,8
  2756   002EF0  5054               	movf	tira_neopixel@led^(0+1280),w,c
  2757   002EF2  26D9               	addwf	fsr2l,f,c
  2758   002EF4  5055               	movf	(tira_neopixel@led+1)^(0+1280),w,c
  2759   002EF6  22DA               	addwfc	fsr2h,f,c
  2760   002EF8  50DF               	movf	indf2,w,c
  2761   002EFA  EC12  F018         	call	_neopixel
  2762   002EFE                     
  2763                           ;maincode03.c: 80:     neopixel(led[9],0,0);
  2764   002EFE  0E00               	movlw	0
  2765   002F00  6E51               	movwf	neopixel@g^(0+1280),c
  2766   002F02  0E00               	movlw	0
  2767   002F04  6E52               	movwf	neopixel@b^(0+1280),c
  2768   002F06  EE20 F009          	lfsr	2,9
  2769   002F0A  5054               	movf	tira_neopixel@led^(0+1280),w,c
  2770   002F0C  26D9               	addwf	fsr2l,f,c
  2771   002F0E  5055               	movf	(tira_neopixel@led+1)^(0+1280),w,c
  2772   002F10  22DA               	addwfc	fsr2h,f,c
  2773   002F12  50DF               	movf	indf2,w,c
  2774   002F14  EC12  F018         	call	_neopixel
  2775   002F18  0012               	return		;funcret
  2776   002F1A                     __end_of_tira_neopixel:
  2777                           	callstack 0
  2778                           
  2779 ;; *************** function _neopixel *****************
  2780 ;; Defined at:
  2781 ;;		line 61 in file "maincode03.c"
  2782 ;; Parameters:    Size  Location     Type
  2783 ;;  r               1    wreg     unsigned char 
  2784 ;;  g               1    0[COMRAM] unsigned char 
  2785 ;;  b               1    1[COMRAM] unsigned char 
  2786 ;; Auto vars:     Size  Location     Type
  2787 ;;  r               1    2[COMRAM] unsigned char 
  2788 ;; Return value:  Size  Location     Type
  2789 ;;                  1    wreg      void 
  2790 ;; Registers used:
  2791 ;;		wreg
  2792 ;; Tracked objects:
  2793 ;;		On entry : 0/0
  2794 ;;		On exit  : 0/0
  2795 ;;		Unchanged: 0/0
  2796 ;; Data sizes:     COMRAM   BANK5   BANK6   BANK7   BANK8   BANK9  BANK10  BANK11  BANK12  BANK13  BANK14  BANK15  BANK1
      +6  BANK17  BANK18  BANK19  BANK20  BANK21  BANK22  BANK23  BANK24  BANK25  BANK26  BANK27  BANK28  BANK29  BANK30  BANK3
      +1  BANK32  BANK33  BANK34  BANK35  BANK36
  2797 ;;      Params:         2       0       0       0       0       0       0       0       0       0       0       0       
      +0       0       0       0       0       0       0       0       0       0       0       0       0       0       0       
      +0       0       0       0       0       0
  2798 ;;      Locals:         1       0       0       0       0       0       0       0       0       0       0       0       
      +0       0       0       0       0       0       0       0       0       0       0       0       0       0       0       
      +0       0       0       0       0       0
  2799 ;;      Temps:          0       0       0       0       0       0       0       0       0       0       0       0       
      +0       0       0       0       0       0       0       0       0       0       0       0       0       0       0       
      +0       0       0       0       0       0
  2800 ;;      Totals:         3       0       0       0       0       0       0       0       0       0       0       0       
      +0       0       0       0       0       0       0       0       0       0       0       0       0       0       0       
      +0       0       0       0       0       0
  2801 ;;Total ram usage:        3 bytes
  2802 ;; Hardware stack levels used: 1
  2803 ;; This function calls:
  2804 ;;		Nothing
  2805 ;; This function is called by:
  2806 ;;		_tira_neopixel
  2807 ;;		_tira_neopixel2
  2808 ;;		_tira_neopixel3
  2809 ;;		_main
  2810 ;; This function uses a non-reentrant model
  2811 ;;
  2812                           
  2813                           	psect	text4
  2814   003024                     __ptext4:
  2815                           	callstack 0
  2816   003024                     _neopixel:
  2817                           	callstack 125
  2818                           
  2819                           ;incstack = 0
  2820                           ;neopixel@r stored from wreg
  2821   003024  6E53               	movwf	neopixel@r^(0+1280),c
  2822   003026                     
  2823                           ;maincode03.c: 62:     SPI1TXB = r;
  2824   003026  C553  F081         	movff	neopixel@r,129	;volatile
  2825   00302A                     l84:
  2826   00302A  0100               	movlb	0	; () banked
  2827   00302C  AB87               	btfss	135,5,b	;volatile
  2828   00302E  EF1B  F018         	goto	u41
  2829   003032  EF1D  F018         	goto	u40
  2830   003036                     u41:
  2831   003036  EF15  F018         	goto	l84
  2832   00303A                     u40:
  2833   00303A                     
  2834                           ; BSR set to: 0
  2835                           ;maincode03.c: 64:     SPI1TXB = g;
  2836   00303A  C551  F081         	movff	neopixel@g,129	;volatile
  2837   00303E                     l87:
  2838                           
  2839                           ; BSR set to: 0
  2840   00303E  AB87               	btfss	135,5,b	;volatile
  2841   003040  EF24  F018         	goto	u51
  2842   003044  EF26  F018         	goto	u50
  2843   003048                     u51:
  2844   003048  EF1F  F018         	goto	l87
  2845   00304C                     u50:
  2846   00304C                     
  2847                           ; BSR set to: 0
  2848                           ;maincode03.c: 66:     SPI1TXB = b;
  2849   00304C  C552  F081         	movff	neopixel@b,129	;volatile
  2850   003050                     l90:
  2851                           
  2852                           ; BSR set to: 0
  2853   003050  AB87               	btfss	135,5,b	;volatile
  2854   003052  EF2D  F018         	goto	u61
  2855   003056  EF2F  F018         	goto	u60
  2856   00305A                     u61:
  2857   00305A  EF28  F018         	goto	l90
  2858   00305E                     u60:
  2859   00305E                     
  2860                           ; BSR set to: 0
  2861   00305E  0012               	return		;funcret
  2862   003060                     __end_of_neopixel:
  2863                           	callstack 0
  2864                           
  2865 ;; *************** function _configuro *****************
  2866 ;; Defined at:
  2867 ;;		line 24 in file "maincode03.c"
  2868 ;; Parameters:    Size  Location     Type
  2869 ;;		None
  2870 ;; Auto vars:     Size  Location     Type
  2871 ;;		None
  2872 ;; Return value:  Size  Location     Type
  2873 ;;                  1    wreg      void 
  2874 ;; Registers used:
  2875 ;;		wreg, status,2
  2876 ;; Tracked objects:
  2877 ;;		On entry : 0/0
  2878 ;;		On exit  : 0/0
  2879 ;;		Unchanged: 0/0
  2880 ;; Data sizes:     COMRAM   BANK5   BANK6   BANK7   BANK8   BANK9  BANK10  BANK11  BANK12  BANK13  BANK14  BANK15  BANK1
      +6  BANK17  BANK18  BANK19  BANK20  BANK21  BANK22  BANK23  BANK24  BANK25  BANK26  BANK27  BANK28  BANK29  BANK30  BANK3
      +1  BANK32  BANK33  BANK34  BANK35  BANK36
  2881 ;;      Params:         0       0       0       0       0       0       0       0       0       0       0       0       
      +0       0       0       0       0       0       0       0       0       0       0       0       0       0       0       
      +0       0       0       0       0       0
  2882 ;;      Locals:         0       0       0       0       0       0       0       0       0       0       0       0       
      +0       0       0       0       0       0       0       0       0       0       0       0       0       0       0       
      +0       0       0       0       0       0
  2883 ;;      Temps:          0       0       0       0       0       0       0       0       0       0       0       0       
      +0       0       0       0       0       0       0       0       0       0       0       0       0       0       0       
      +0       0       0       0       0       0
  2884 ;;      Totals:         0       0       0       0       0       0       0       0       0       0       0       0       
      +0       0       0       0       0       0       0       0       0       0       0       0       0       0       0       
      +0       0       0       0       0       0
  2885 ;;Total ram usage:        0 bytes
  2886 ;; Hardware stack levels used: 1
  2887 ;; This function calls:
  2888 ;;		Nothing
  2889 ;; This function is called by:
  2890 ;;		_main
  2891 ;; This function uses a non-reentrant model
  2892 ;;
  2893                           
  2894                           	psect	text5
  2895   002F1A                     __ptext5:
  2896                           	callstack 0
  2897   002F1A                     _configuro:
  2898                           	callstack 126
  2899   002F1A                     
  2900                           ;maincode03.c: 26:     OSCCON1 = 0x60;
  2901   002F1A  0E60               	movlw	96
  2902   002F1C  0100               	movlb	0	; () banked
  2903   002F1E  6FAD               	movwf	173,b	;volatile
  2904                           
  2905                           ;maincode03.c: 27:     OSCFRQ = 0x06;
  2906   002F20  0E06               	movlw	6
  2907   002F22  6FB1               	movwf	177,b	;volatile
  2908                           
  2909                           ;maincode03.c: 28:     OSCEN = 0x40;
  2910   002F24  0E40               	movlw	64
  2911   002F26  6FB3               	movwf	179,b	;volatile
  2912                           
  2913                           ;maincode03.c: 30:     T2CON = 0x80;
  2914   002F28  0E80               	movlw	128
  2915   002F2A  0103               	movlb	3	; () banked
  2916   002F2C  6F24               	movwf	36,b	;volatile
  2917                           
  2918                           ;maincode03.c: 31:     T2CLKCON = 0x01;
  2919   002F2E  0E01               	movlw	1
  2920   002F30  6F26               	movwf	38,b	;volatile
  2921                           
  2922                           ;maincode03.c: 32:     T2PR = 5;
  2923   002F32  0E05               	movlw	5
  2924   002F34  6F23               	movwf	35,b	;volatile
  2925                           
  2926                           ;maincode03.c: 34:     SPI1CON0 = 0x83;
  2927   002F36  0E83               	movlw	131
  2928   002F38  0100               	movlb	0	; () banked
  2929   002F3A  6F84               	movwf	132,b	;volatile
  2930                           
  2931                           ;maincode03.c: 35:     SPI1CON1 = 0x40;
  2932   002F3C  0E40               	movlw	64
  2933   002F3E  6F85               	movwf	133,b	;volatile
  2934                           
  2935                           ;maincode03.c: 36:     SPI1CON2 = 0x02;
  2936   002F40  0E02               	movlw	2
  2937   002F42  6F86               	movwf	134,b	;volatile
  2938                           
  2939                           ;maincode03.c: 37:     SPI1CLK = 0x06;
  2940   002F44  0E06               	movlw	6
  2941   002F46  6F8C               	movwf	140,b	;volatile
  2942                           
  2943                           ;maincode03.c: 39:     CCP1CON = 0x8C;
  2944   002F48  0E8C               	movlw	140
  2945   002F4A  0103               	movlb	3	; () banked
  2946   002F4C  6F42               	movwf	66,b	;volatile
  2947   002F4E                     
  2948                           ; BSR set to: 3
  2949                           ;maincode03.c: 40:     CCPR1H = 0x00;
  2950   002F4E  6B41               	clrf	65,b	;volatile
  2951                           
  2952                           ;maincode03.c: 41:     CCPR1L = 0x0A;
  2953   002F50  0E0A               	movlw	10
  2954   002F52  6F40               	movwf	64,b	;volatile
  2955   002F54                     
  2956                           ; BSR set to: 3
  2957                           ;maincode03.c: 43:     CLCSELECT = 0x00;
  2958   002F54  0100               	movlb	0	; () banked
  2959   002F56  6BD5               	clrf	213,b	;volatile
  2960                           
  2961                           ;maincode03.c: 44:     CLCnSEL0 = 0x1F;
  2962   002F58  0E1F               	movlw	31
  2963   002F5A  6FD8               	movwf	216,b	;volatile
  2964                           
  2965                           ;maincode03.c: 45:     CLCnSEL1 = 0x41;
  2966   002F5C  0E41               	movlw	65
  2967   002F5E  6FD9               	movwf	217,b	;volatile
  2968                           
  2969                           ;maincode03.c: 46:     CLCnSEL2 = 0x40;
  2970   002F60  0E40               	movlw	64
  2971   002F62  6FDA               	movwf	218,b	;volatile
  2972                           
  2973                           ;maincode03.c: 47:     CLCnGLS0 = 0x05;
  2974   002F64  0E05               	movlw	5
  2975   002F66  6FDC               	movwf	220,b	;volatile
  2976                           
  2977                           ;maincode03.c: 48:     CLCnGLS1 = 0x10;
  2978   002F68  0E10               	movlw	16
  2979   002F6A  6FDD               	movwf	221,b	;volatile
  2980                           
  2981                           ;maincode03.c: 49:     CLCnGLS2 = 0x08;
  2982   002F6C  0E08               	movlw	8
  2983   002F6E  6FDE               	movwf	222,b	;volatile
  2984                           
  2985                           ;maincode03.c: 50:     CLCnGLS3 = 0x20;
  2986   002F70  0E20               	movlw	32
  2987   002F72  6FDF               	movwf	223,b	;volatile
  2988                           
  2989                           ;maincode03.c: 51:     CLCnPOL = 0x01;
  2990   002F74  0E01               	movlw	1
  2991   002F76  6FD7               	movwf	215,b	;volatile
  2992                           
  2993                           ;maincode03.c: 52:     CLCnCON = 0x80;
  2994   002F78  0E80               	movlw	128
  2995   002F7A  6FD6               	movwf	214,b	;volatile
  2996   002F7C                     
  2997                           ; BSR set to: 0
  2998                           ;maincode03.c: 54:     TRISFbits.TRISF3 = 0;
  2999   002F7C  96CB               	bcf	203,3,c	;volatile
  3000   002F7E                     
  3001                           ; BSR set to: 0
  3002                           ;maincode03.c: 55:     ANSELFbits.ANSELF3 = 0;
  3003   002F7E  0104               	movlb	4	; () banked
  3004   002F80  9728               	bcf	40,3,b	;volatile
  3005   002F82                     
  3006                           ; BSR set to: 4
  3007                           ;maincode03.c: 56:     TRISFbits.TRISF0 = 0;
  3008   002F82  90CB               	bcf	203,0,c	;volatile
  3009   002F84                     
  3010                           ; BSR set to: 4
  3011                           ;maincode03.c: 57:     ANSELFbits.ANSELF0 = 0;
  3012   002F84  9128               	bcf	40,0,b	;volatile
  3013                           
  3014                           ;maincode03.c: 58:     RF0PPS = 0x01;
  3015   002F86  0E01               	movlw	1
  3016   002F88  0102               	movlb	2	; () banked
  3017   002F8A  6F29               	movwf	41,b	;volatile
  3018   002F8C                     
  3019                           ; BSR set to: 2
  3020   002F8C  0012               	return		;funcret
  3021   002F8E                     __end_of_configuro:
  3022                           	callstack 0
  3023                           
  3024                           	psect	smallconst
  3025   002600                     __psmallconst:
  3026                           	callstack 0
  3027   002600  00                 	db	0
  3028   002601  00                 	db	0	; dummy byte at the end
  3029   000000                     __activetblptr  equ	0
  3030                           
  3031                           	psect	rparam
  3032   000001                     ___rparam_used  equ	1
  3033   000000                     ___param_bank   equ	0
  3034   000000                     __Lparam        equ	__Lrparam
  3035   000000                     __Hparam        equ	__Hrparam
  3036                           
  3037                           	psect	config
  3038                           
  3039                           ;Config register CONFIG1 @ 0x300000
  3040                           ;	External Oscillator Selection
  3041                           ;	FEXTOSC = OFF, Oscillator not enabled
  3042                           ;	Reset Oscillator Selection
  3043                           ;	RSTOSC = EXTOSC, EXTOSC operating per FEXTOSC bits (device manufacturing default)
  3044   300000                     	org	3145728
  3045   300000  FC                 	db	252
  3046                           
  3047                           ;Config register CONFIG2 @ 0x300001
  3048                           ;	Clock out Enable bit
  3049                           ;	CLKOUTEN = OFF, CLKOUT function is disabled
  3050                           ;	PRLOCKED One-Way Set Enable bit
  3051                           ;	PR1WAY = ON, PRLOCKED bit can be cleared and set only once
  3052                           ;	Clock Switch Enable bit
  3053                           ;	CSWEN = ON, Writing to NOSC and NDIV is allowed
  3054                           ;	Fail-Safe Clock Monitor Enable bit
  3055                           ;	FCMEN = ON, Fail-Safe Clock Monitor enabled
  3056   300001                     	org	3145729
  3057   300001  FF                 	db	255
  3058                           
  3059                           ;Config register CONFIG3 @ 0x300002
  3060                           ;	MCLR Enable bit
  3061                           ;	MCLRE = EXTMCLR, If LVP = 0, MCLR pin is MCLR; If LVP = 1, RE3 pin function is MCLR
  3062                           ;	Power-up timer selection bits
  3063                           ;	PWRTS = PWRT_64, PWRT set at 64ms
  3064                           ;	Multi-vector enable bit
  3065                           ;	MVECEN = ON, Multi-vector enabled, Vector table used for interrupts
  3066                           ;	IVTLOCK bit One-way set enable bit
  3067                           ;	IVT1WAY = ON, IVTLOCKED bit can be cleared and set only once
  3068                           ;	Low Power BOR Enable bit
  3069                           ;	LPBOREN = OFF, Low-Power BOR disabled
  3070                           ;	Brown-out Reset Enable bits
  3071                           ;	BOREN = OFF, Brown-out Reset disabled
  3072   300002                     	org	3145730
  3073   300002  3D                 	db	61
  3074                           
  3075                           ;Config register CONFIG4 @ 0x300003
  3076                           ;	Brown-out Reset Voltage Selection bits
  3077                           ;	BORV = VBOR_1P9, Brown-out Reset Voltage (VBOR) set to 1.9V
  3078                           ;	ZCD Disable bit
  3079                           ;	ZCD = OFF, ZCD module is disabled. ZCD can be enabled by setting the ZCDSEN bit of ZCD
      +                          CON
  3080                           ;	PPSLOCK bit One-Way Set Enable bit
  3081                           ;	PPS1WAY = ON, PPSLOCKED bit can be cleared and set only once; PPS registers remain loc
      +                          ked after one clear/set cycle
  3082                           ;	Stack Full/Underflow Reset Enable bit
  3083                           ;	STVREN = ON, Stack full/underflow will cause Reset
  3084                           ;	Low Voltage Programming Enable bit
  3085                           ;	LVP = OFF, HV on MCLR/VPP must be used for programming
  3086                           ;	Extended Instruction Set Enable bit
  3087                           ;	XINST = OFF, Extended Instruction Set and Indexed Addressing Mode disabled
  3088   300003                     	org	3145731
  3089   300003  DF                 	db	223
  3090                           
  3091                           ;Config register CONFIG5 @ 0x300004
  3092                           ;	WDT Period selection bits
  3093                           ;	WDTCPS = WDTCPS_31, Divider ratio 1:65536; software control of WDTPS
  3094                           ;	WDT operating mode
  3095                           ;	WDTE = OFF, WDT Disabled; SWDTEN is ignored
  3096   300004                     	org	3145732
  3097   300004  9F                 	db	159
  3098                           
  3099                           ;Config register CONFIG6 @ 0x300005
  3100                           ;	WDT Window Select bits
  3101                           ;	WDTCWS = WDTCWS_7, window always open (100%); software control; keyed access not requi
      +                          red
  3102                           ;	WDT input clock selector
  3103                           ;	WDTCCS = SC, Software Control
  3104   300005                     	org	3145733
  3105   300005  FF                 	db	255
  3106                           
  3107                           ;Config register CONFIG7 @ 0x300006
  3108                           ;	Boot Block Size selection bits
  3109                           ;	BBSIZE = BBSIZE_512, Boot Block size is 512 words
  3110                           ;	Boot Block enable bit
  3111                           ;	BBEN = OFF, Boot block disabled
  3112                           ;	Storage Area Flash enable bit
  3113                           ;	SAFEN = OFF, SAF disabled
  3114                           ;	Background Debugger
  3115                           ;	DEBUG = OFF, Background Debugger disabled
  3116   300006                     	org	3145734
  3117   300006  FF                 	db	255
  3118                           
  3119                           ;Config register CONFIG8 @ 0x300007
  3120                           ;	Boot Block Write Protection bit
  3121                           ;	WRTB = OFF, Boot Block not Write protected
  3122                           ;	Configuration Register Write Protection bit
  3123                           ;	WRTC = OFF, Configuration registers not Write protected
  3124                           ;	Data EEPROM Write Protection bit
  3125                           ;	WRTD = OFF, Data EEPROM not Write protected
  3126                           ;	SAF Write protection bit
  3127                           ;	WRTSAF = OFF, SAF not Write Protected
  3128                           ;	Application Block write protection bit
  3129                           ;	WRTAPP = OFF, Application Block not write protected
  3130   300007                     	org	3145735
  3131   300007  FF                 	db	255
  3132                           
  3133                           ;Config register CONFIG10 @ 0x300009
  3134                           ;	PFM and Data EEPROM Code Protection bit
  3135                           ;	CP = OFF, PFM and Data EEPROM code protection disabled
  3136   300009                     	org	3145737
  3137   300009  FF                 	db	255
  3138                           tosu	equ	0x4FF
  3139                           tosh	equ	0x4FE
  3140                           tosl	equ	0x4FD
  3141                           stkptr	equ	0x4FC
  3142                           pclatu	equ	0x4FB
  3143                           pclath	equ	0x4FA
  3144                           pcl	equ	0x4F9
  3145                           tblptru	equ	0x4F8
  3146                           tblptrh	equ	0x4F7
  3147                           tblptrl	equ	0x4F6
  3148                           tablat	equ	0x4F5
  3149                           prodh	equ	0x4F4
  3150                           prodl	equ	0x4F3
  3151                           indf0	equ	0x4EF
  3152                           postinc0	equ	0x4EE
  3153                           postdec0	equ	0x4ED
  3154                           preinc0	equ	0x4EC
  3155                           plusw0	equ	0x4EB
  3156                           fsr0h	equ	0x4EA
  3157                           fsr0l	equ	0x4E9
  3158                           wreg	equ	0x4E8
  3159                           indf1	equ	0x4E7
  3160                           postinc1	equ	0x4E6
  3161                           postdec1	equ	0x4E5
  3162                           preinc1	equ	0x4E4
  3163                           plusw1	equ	0x4E3
  3164                           fsr1h	equ	0x4E2
  3165                           fsr1l	equ	0x4E1
  3166                           bsr	equ	0x4E0
  3167                           indf2	equ	0x4DF
  3168                           postinc2	equ	0x4DE
  3169                           postdec2	equ	0x4DD
  3170                           preinc2	equ	0x4DC
  3171                           plusw2	equ	0x4DB
  3172                           fsr2h	equ	0x4DA
  3173                           fsr2l	equ	0x4D9
  3174                           status	equ	0x4D8

Data Sizes:
    Strings     0
    Constant    0
    Data        100
    BSS         0
    Persistent  0
    Stack       0

Auto Spaces:
    Space          Size  Autos    Used
    COMRAM           95      6      86
    BANK5           160      0      20
    BANK6           256      0       0
    BANK7           256      0       0
    BANK8           256      0       0
    BANK9           256      0       0
    BANK10          256      0       0
    BANK11          256      0       0
    BANK12          256      0       0
    BANK13          256      0       0
    BANK14          256      0       0
    BANK15          256      0       0
    BANK16          256      0       0
    BANK17          256      0       0
    BANK18          256      0       0
    BANK19          256      0       0
    BANK20          256      0       0
    BANK21          256      0       0
    BANK22          256      0       0
    BANK23          256      0       0
    BANK24          256      0       0
    BANK25          256      0       0
    BANK26          256      0       0
    BANK27          256      0       0
    BANK28          256      0       0
    BANK29          256      0       0
    BANK30          256      0       0
    BANK31          256      0       0
    BANK32          256      0       0
    BANK33          256      0       0
    BANK34          256      0       0
    BANK35          256      0       0
    BANK36          256      0       0

Pointer List with Targets:

    tira_neopixel2@led	PTR unsigned char  size(2) Largest target is 10
		 -> led_cinco(COMRAM[10]), led_cuatro(COMRAM[10]), led_diez(BANK5[10]), led_dos(COMRAM[10]), 
		 -> led_nueve(COMRAM[10]), led_ocho(COMRAM[10]), led_seis(COMRAM[10]), led_siete(COMRAM[10]), 
		 -> led_tres(COMRAM[10]), led_uno(BANK5[10]), 

    tira_neopixel3@led	PTR unsigned char  size(2) Largest target is 10
		 -> led_cinco(COMRAM[10]), led_cuatro(COMRAM[10]), led_diez(BANK5[10]), led_dos(COMRAM[10]), 
		 -> led_nueve(COMRAM[10]), led_ocho(COMRAM[10]), led_seis(COMRAM[10]), led_siete(COMRAM[10]), 
		 -> led_tres(COMRAM[10]), led_uno(BANK5[10]), 

    tira_neopixel@led	PTR unsigned char  size(2) Largest target is 10
		 -> led_cinco(COMRAM[10]), led_cuatro(COMRAM[10]), led_diez(BANK5[10]), led_dos(COMRAM[10]), 
		 -> led_nueve(COMRAM[10]), led_ocho(COMRAM[10]), led_seis(COMRAM[10]), led_siete(COMRAM[10]), 
		 -> led_tres(COMRAM[10]), led_uno(BANK5[10]), 


Critical Paths under _main in COMRAM

    _main->_tira_neopixel
    _main->_tira_neopixel2
    _main->_tira_neopixel3
    _tira_neopixel3->_neopixel
    _tira_neopixel2->_neopixel
    _tira_neopixel->_neopixel

Critical Paths under _main in BANK5

    None.

Critical Paths under _main in BANK6

    None.

Critical Paths under _main in BANK7

    None.

Critical Paths under _main in BANK8

    None.

Critical Paths under _main in BANK9

    None.

Critical Paths under _main in BANK10

    None.

Critical Paths under _main in BANK11

    None.

Critical Paths under _main in BANK12

    None.

Critical Paths under _main in BANK13

    None.

Critical Paths under _main in BANK14

    None.

Critical Paths under _main in BANK15

    None.

Critical Paths under _main in BANK16

    None.

Critical Paths under _main in BANK17

    None.

Critical Paths under _main in BANK18

    None.

Critical Paths under _main in BANK19

    None.

Critical Paths under _main in BANK20

    None.

Critical Paths under _main in BANK21

    None.

Critical Paths under _main in BANK22

    None.

Critical Paths under _main in BANK23

    None.

Critical Paths under _main in BANK24

    None.

Critical Paths under _main in BANK25

    None.

Critical Paths under _main in BANK26

    None.

Critical Paths under _main in BANK27

    None.

Critical Paths under _main in BANK28

    None.

Critical Paths under _main in BANK29

    None.

Critical Paths under _main in BANK30

    None.

Critical Paths under _main in BANK31

    None.

Critical Paths under _main in BANK32

    None.

Critical Paths under _main in BANK33

    None.

Critical Paths under _main in BANK34

    None.

Critical Paths under _main in BANK35

    None.

Critical Paths under _main in BANK36

    None.

Call Graph Tables:

 ---------------------------------------------------------------------------------
 (Depth) Function   	        Calls       Base Space   Used Autos Params    Refs
 ---------------------------------------------------------------------------------
 (0) _main                                                 1     1      0    1254
                                              5 COMRAM     1     1      0
                          _configuro
                           _neopixel
                      _tira_neopixel
                     _tira_neopixel2
                     _tira_neopixel3
 ---------------------------------------------------------------------------------
 (1) _tira_neopixel3                                       2     0      2     373
                                              3 COMRAM     2     0      2
                           _neopixel
 ---------------------------------------------------------------------------------
 (1) _tira_neopixel2                                       2     0      2     373
                                              3 COMRAM     2     0      2
                           _neopixel
 ---------------------------------------------------------------------------------
 (1) _tira_neopixel                                        2     0      2     373
                                              3 COMRAM     2     0      2
                           _neopixel
 ---------------------------------------------------------------------------------
 (2) _neopixel                                             3     1      2     135
                                              0 COMRAM     3     1      2
 ---------------------------------------------------------------------------------
 (1) _configuro                                            0     0      0       0
 ---------------------------------------------------------------------------------
 Estimated maximum stack depth 2
 ---------------------------------------------------------------------------------

 Call Graph Graphs:

 _main (ROOT)
   _configuro
   _neopixel
   _tira_neopixel
     _neopixel
   _tira_neopixel2
     _neopixel
   _tira_neopixel3
     _neopixel

Address spaces:
Name               Size   Autos  Total    Usage
BIGRAM            8191      0       0      0.0%
BITBIGSFRh        1065      0       0      0.0%
BITBIGSFR_1        256      0       0      0.0%
BITBANK36          256      0       0      0.0%
BANK36             256      0       0      0.0%
BITBANK35          256      0       0      0.0%
BANK35             256      0       0      0.0%
BITBANK34          256      0       0      0.0%
BANK34             256      0       0      0.0%
BITBANK33          256      0       0      0.0%
BANK33             256      0       0      0.0%
BITBANK32          256      0       0      0.0%
BANK32             256      0       0      0.0%
BITBANK31          256      0       0      0.0%
BANK31             256      0       0      0.0%
BITBANK30          256      0       0      0.0%
BANK30             256      0       0      0.0%
BITBANK29          256      0       0      0.0%
BANK29             256      0       0      0.0%
BITBANK28          256      0       0      0.0%
BANK28             256      0       0      0.0%
BITBANK27          256      0       0      0.0%
BANK27             256      0       0      0.0%
BITBANK26          256      0       0      0.0%
BANK26             256      0       0      0.0%
BITBANK25          256      0       0      0.0%
BANK25             256      0       0      0.0%
BITBANK24          256      0       0      0.0%
BANK24             256      0       0      0.0%
BITBANK23          256      0       0      0.0%
BANK23             256      0       0      0.0%
BITBANK22          256      0       0      0.0%
BANK22             256      0       0      0.0%
BITBANK21          256      0       0      0.0%
BANK21             256      0       0      0.0%
BITBANK20          256      0       0      0.0%
BANK20             256      0       0      0.0%
BITBANK19          256      0       0      0.0%
BANK19             256      0       0      0.0%
BITBANK18          256      0       0      0.0%
BANK18             256      0       0      0.0%
BITBANK17          256      0       0      0.0%
BANK17             256      0       0      0.0%
BITBANK16          256      0       0      0.0%
BANK16             256      0       0      0.0%
BITBANK15          256      0       0      0.0%
BANK15             256      0       0      0.0%
BITBANK14          256      0       0      0.0%
BANK14             256      0       0      0.0%
BITBANK13          256      0       0      0.0%
BANK13             256      0       0      0.0%
BITBANK12          256      0       0      0.0%
BANK12             256      0       0      0.0%
BITBANK11          256      0       0      0.0%
BANK11             256      0       0      0.0%
BITBANK10          256      0       0      0.0%
BANK10             256      0       0      0.0%
BITBANK9           256      0       0      0.0%
BANK9              256      0       0      0.0%
BITBANK8           256      0       0      0.0%
BANK8              256      0       0      0.0%
BITBANK7           256      0       0      0.0%
BANK7              256      0       0      0.0%
BITBANK6           256      0       0      0.0%
BANK6              256      0       0      0.0%
BITBANK5           160      0       0      0.0%
BANK5              160      0      20     12.5%
BITBIGSFRll        129      0       0      0.0%
BITCOMRAM           95      0       0      0.0%
COMRAM              95      6      86     90.5%
BITBIGSFRlh         84      0       0      0.0%
STACK                0      0       0      0.0%
DATA                 0      0     106      0.0%


Microchip Technology PIC18 Macro Assembler V2.50 build 20240725155939 
Symbol Table                                                                                   Mon Sep 30 20:52:41 2024

                     l81 2F8C                       l90 3050                       l84 302A  
                     l93 305E                       l86 303A                       l87 303E  
                     l96 2F18                       l89 304C                       l99 2E16  
                     u40 303A                       u41 3036                       u50 304C  
                     u51 3048                       u60 305E                       u61 305A  
                     u77 261A                       u87 2636                       u97 2652  
                    l102 2D14                      u107 266E                      u117 268A  
                    u207 2786                      u127 26A6                      u217 27A2  
                    u137 26C2                      u307 289E                      u227 27BE  
                    u147 26DE                      u317 28BA                      u237 27DA  
                    u157 26FA                      u407 29B6                      u327 28D6  
                    u247 27F6                      u167 2716                      u417 29D2  
                    u337 28F2                      u257 2812                      u177 2732  
                    u507 2ACE                      u427 29EE                      u347 290E  
                    u267 282E                      u187 274E                      u517 2AEA  
                    u437 2A0A                      u357 292A                      u277 284A  
                    u197 276A                      u607 2BE6                      u527 2B06  
                    u447 2A26                      u367 2946                      u287 2866  
                    u617 2C02                      u537 2B22                      u457 2A42  
                    u377 2962                      u297 2882                      u547 2B3E  
                    u467 2A5E                      u387 297E                      u557 2B5A  
                    u477 2A7A                      u397 299A                      u567 2B76  
                    u487 2A96                      u577 2B92                      u497 2AB2  
                    u587 2BAE                      u597 2BCA                      wreg 04E8  
                   l1100 2E2E                     l1110 2EB0                     l1102 2E48  
                   l1112 2ECA                     l1104 2E62                     l1120 2D2C  
                   l1200 272C                     l1114 2EE4                     l1106 2E7C  
                   l1130 2DAE                     l1122 2D46                     l1210 2774  
                   l1202 273C                     l1116 2EFE                     l1108 2E96  
                   l1132 2DC8                     l1124 2D60                     l1140 2C2A  
                   l1300 29E8                     l1220 27B8                     l1212 2780  
                   l1204 2748                     l1134 2DE2                     l1126 2D7A  
                   l1118 2D16                     l1150 2CAC                     l1142 2C44  
                   l1310 2A30                     l1302 29F8                     l1230 2800  
                   l1222 27C8                     l1214 2790                     l1206 2758  
                   l1136 2DFC                     l1128 2D94                     l1152 2CC6  
                   l1144 2C5E                     l1320 2A74                     l1312 2A3C  
                   l1304 2A04                     l1240 2844                     l1232 280C  
                   l1224 27D4                     l1216 279C                     l1208 2764  
                   l1160 2614                     l1090 2F7C                     l1082 3026  
                   l1154 2CE0                     l1146 2C78                     l1138 2C14  
                   l1330 2ABC                     l1322 2A84                     l1314 2A4C  
                   l1306 2A14                     l1250 288C                     l1242 2854  
                   l1234 281C                     l1226 27E4                     l1218 27AC  
                   l1170 265C                     l1162 2624                     l1092 2F7E  
                   l1084 2F1A                     l1156 2CFA                     l1148 2C92  
                   l1340 2B00                     l1332 2AC8                     l1324 2A90  
                   l1316 2A58                     l1308 2A20                     l1260 28D0  
                   l1252 2898                     l1244 2860                     l1236 2828  
                   l1228 27F0                     l1180 26A0                     l1172 2668  
                   l1164 2630                     l1094 2F82                     l1086 2F4E  
                   l1350 2B48                     l1342 2B10                     l1334 2AD8  
                   l1326 2AA0                     l1318 2A68                     l1270 2918  
                   l1262 28E0                     l1254 28A8                     l1246 2870  
                   l1238 2838                     l1190 26E8                     l1182 26B0  
                   l1174 2678                     l1166 2640                     l1158 2602  
                   l1096 2F84                     l1088 2F54                     l1360 2B8C  
                   l1352 2B54                     l1344 2B1C                     l1336 2AE4  
                   l1328 2AAC                     l1280 295C                     l1272 2924  
                   l1264 28EC                     l1256 28B4                     l1248 287C  
                   l1192 26F4                     l1184 26BC                     l1176 2684  
                   l1168 264C                     l1098 2E18                     l1370 2BD4  
                   l1362 2B9C                     l1354 2B64                     l1346 2B2C  
                   l1338 2AF4                     l1290 29A4                     l1282 296C  
                   l1274 2934                     l1266 28FC                     l1258 28C4  
                   l1194 2704                     l1186 26CC                     l1178 2694  
                   l1372 2BE0                     l1364 2BA8                     l1356 2B70  
                   l1348 2B38                     l1292 29B0                     l1284 2978  
                   l1276 2940                     l1268 2908                     l1196 2710  
                   l1188 26D8                     l1374 2BF0                     l1366 2BB8  
                   l1358 2B80                     l1294 29C0                     l1286 2988  
                   l1278 2950                     l1198 2720                     l1376 2BFC  
                   l1368 2BC4                     l1296 29CC                     l1288 2994  
                   l1298 29DC                     _T2PR 0323                     _main 2602  
                   fsr2h 04DA                     indf2 04DF                     fsr1l 04E1  
                   fsr2l 04D9                     start FFFC           _SPI1STATUSbits 0087  
           ___param_bank 0000          ??_tira_neopixel 0556                    ?_main 0551  
                  _T2CON 0324                    _OSCEN 00B3                    tablat 04F5  
        __initialization 2FDE             __end_of_main 2C14         ??_tira_neopixel2 0556  
       ??_tira_neopixel3 0556                   ??_main 0556            __activetblptr 0000  
                 _CCPR1H 0341                   _CCPR1L 0340                   _RF0PPS 0229  
                 _OSCFRQ 00B1                   isa$std 0001         __end_of_neopixel 3060  
           __pdataCOMRAM 0501             __mediumconst 0000                   tblptrh 04F7  
                 tblptrl 04F6                   tblptru 04F8               __accesstop 0560  
__end_of__initialization 301E            ___rparam_used 0001           __pcstackCOMRAM 0551  
           __pidataBANK5 3060         tira_neopixel@led 0554                  _CCP1CON 0342  
                _CLCnCON 00D6                  _CLCnPOL 00D7                  _OSCCON1 00AD  
                _SPI1CLK 008C                  _SPI1TXB 0081               _led_cuatro 0533  
              ?_neopixel 0551                  __Hparam 0000                  __Lparam 0000  
              _CLCSELECT 00D5        __end_of_configuro 2F8E             __psmallconst 2600  
  __end_of_tira_neopixel 2F1A                  __pcinit 2FDE                  __ramtop 2600  
                __ptext0 2602                  __ptext1 2C14                  __ptext2 2D16  
                __ptext3 2E18                  __ptext4 3024                  __ptext5 2F1A  
                _led_dos 0547                  _led_uno 056A     end_of_initialization 301E  
             ??_neopixel 0553                  postdec1 04E5                  postinc0 04EE  
              _TRISFbits 04CB            __pidataCOMRAM 2F8E      start_initialization 2FDE  
      tira_neopixel2@led 0554        tira_neopixel3@led 0554              __pdataBANK5 0560  
              _configuro 2F1A                _led_cinco 0529                _led_siete 0515  
              _led_nueve 0501              __smallconst 2600                 _T2CLKCON 0326  
               _CLCnGLS0 00DC                 _CLCnGLS1 00DD                 _CLCnGLS2 00DE  
               _CLCnGLS3 00DF                 _CLCnSEL0 00D8                 _CLCnSEL1 00D9  
               _CLCnSEL2 00DA                 _SPI1CON0 0084                 _SPI1CON1 0085  
               _SPI1CON2 0086               ?_configuro 0551           _tira_neopixel2 2D16  
         _tira_neopixel3 2C14                copy_data0 2FF2                copy_data1 3012  
               __Hrparam 0000                 __Lrparam 0000               _ANSELFbits 0428  
 __end_of_tira_neopixel2 2E18   __end_of_tira_neopixel3 2D16                neopixel@b 0552  
              neopixel@g 0551                neopixel@r 0553                 _led_diez 0560  
               _led_ocho 050B                 _led_seis 051F                 _led_tres 053D  
               _neopixel 3024                 isa$xinst 0000            _tira_neopixel 2E18  
            ??_configuro 0551          ?_tira_neopixel2 0554          ?_tira_neopixel3 0554  
         ?_tira_neopixel 0554  
