

Microchip MPLAB XC8 Assembler V2.46 build 20240104201356 
                                                                                               Mon Oct 21 11:27:56 2024

Microchip MPLAB XC8 C Compiler v2.46 (Free license) build 20240104201356 Og1 
     1                           	processor	18F57Q43
     2                           	fnconf	rparam,??,?,0
     3                           	pagewidth 120
     4                           	opt	flic
     5                           	psect	idataBANK5,global,class=CODE,delta=1,noexec
     6                           	psect	smallconst,global,reloc=2,class=SMALLCONST,delta=1,noexec
     7                           	psect	cinit,global,reloc=2,class=CODE,delta=1
     8                           	psect	bssCOMRAM,global,class=COMRAM,space=1,delta=1,lowdata,noexec
     9                           	psect	bssBANK5,global,class=BANK5,space=1,delta=1,lowdata,noexec
    10                           	psect	dataBANK5,global,class=BANK5,space=1,delta=1,lowdata,noexec
    11                           	psect	cstackCOMRAM,global,class=COMRAM,space=1,delta=1,lowdata,noexec
    12                           	psect	text0,global,reloc=2,class=CODE,delta=1
    13                           	psect	text1,global,reloc=2,class=CODE,delta=1
    14                           	psect	text2,global,reloc=2,class=CODE,delta=1,group=1
    15                           	psect	text3,global,reloc=2,class=CODE,delta=1,group=1
    16                           	psect	text4,global,reloc=2,class=CODE,delta=1
    17                           	psect	text5,global,reloc=2,class=CODE,delta=1
    18                           	psect	text6,global,reloc=2,class=CODE,delta=1
    19                           	psect	text7,global,reloc=2,class=CODE,delta=1
    20                           	psect	text8,global,reloc=2,class=CODE,delta=1
    21                           	psect	text9,global,reloc=2,class=CODE,delta=1
    22                           	psect	text10,global,reloc=2,class=CODE,delta=1
    23                           	psect	text11,global,reloc=2,class=CODE,delta=1
    24                           	psect	text12,global,reloc=2,class=CODE,delta=1
    25                           	psect	text13,global,reloc=2,class=CODE,delta=1
    26                           	psect	text14,global,reloc=2,class=CODE,delta=1
    27                           	psect	text15,global,reloc=2,class=CODE,delta=1
    28                           	psect	text16,global,reloc=2,class=CODE,delta=1,group=2
    29                           	psect	text17,global,reloc=2,class=CODE,delta=1
    30                           	psect	text18,global,reloc=2,class=CODE,delta=1
    31                           	psect	text19,global,reloc=4,class=CODE,delta=1
    32                           	psect	text20,global,reloc=4,class=CODE,delta=1
    33                           	psect	ivt0x8,global,reloc=2,class=CODE,delta=1,noexec,keep,optim=
    34                           	psect	intsave_regs,global,class=BIGRAM,space=1,delta=1,noexec
    35                           	psect	rparam,global,class=COMRAM,space=1,delta=1,noexec
    36                           	psect	config,global,abs,ovrld,class=CONFIG,space=4,delta=1,noexec
    37   000000                     
    38                           ; Generated 18/12/2023 GMT
    39                           ; 
    40                           ; Copyright © 2023, Microchip Technology Inc. and its subsidiaries ("Microchip")
    41                           ; All rights reserved.
    42                           ; 
    43                           ; This software is developed by Microchip Technology Inc. and its subsidiaries ("Microch
      +                          ip").
    44                           ; 
    45                           ; Redistribution and use in source and binary forms, with or without modification, are
    46                           ; permitted provided that the following conditions are met:
    47                           ; 
    48                           ;     1. Redistributions of source code must retain the above copyright notice, this lis
      +                          t of
    49                           ;        conditions and the following disclaimer.
    50                           ; 
    51                           ;     2. Redistributions in binary form must reproduce the above copyright notice, this 
      +                          list
    52                           ;        of conditions and the following disclaimer in the documentation and/or other
    53                           ;        materials provided with the distribution. Publication is not required when
    54                           ;        this file is used in an embedded application.
    55                           ; 
    56                           ;     3. Microchip's name may not be used to endorse or promote products derived from th
      +                          is
    57                           ;        software without specific prior written permission.
    58                           ; 
    59                           ; THIS SOFTWARE IS PROVIDED BY MICROCHIP "AS IS" AND ANY EXPRESS OR IMPLIED WARRANTIES,
    60                           ; INCLUDING, BUT NOT LIMITED TO, THE IMPLIED WARRANTIES OF MERCHANTABILITY AND FITNESS F
      +                          OR
    61                           ; PURPOSE ARE DISCLAIMED.  IN NO EVENT SHALL MICROCHIP BE LIABLE FOR ANY DIRECT, INDIREC
      +                          T,
    62                           ; INCIDENTAL, SPECIAL, EXEMPLARY, OR CONSEQUENTIAL DAMAGES (INCLUDING BUT NOT LIMITED TO
    63                           ; PROCUREMENT OF SUBSTITUTE GOODS OR SERVICES; LOSS OF USE, DATA OR PROFITS; OR BUSINESS
    64                           ; INTERRUPTION) HOWSOEVER CAUSED AND ON ANY THEORY OF LIABILITY, WHETHER IN CONTRACT, ST
      +                          RICT
    65                           ; LIABILITY, OR TORT (INCLUDING NEGLIGENCE OR OTHERWISE) ARISING IN ANY WAY OUT OF THE U
      +                          SE OF
    66                           ; THIS SOFTWARE, EVEN IF ADVISED OF THE POSSIBILITY OF SUCH DAMAGE.
    67                           ; 
    68                           ; 
    69                           ; Code-generator required, PIC18F57Q43 Definitions
    70                           ; 
    71                           ; SFR Addresses
    72   000000                     
    73                           	psect	idataBANK5
    74   003520                     __pidataBANK5:
    75                           	callstack 0
    76                           
    77                           ;initializer for _num_9
    78   003520  78                 	db	120
    79   003521  CC                 	db	204
    80   003522  CC                 	db	204
    81   003523  7C                 	db	124
    82   003524  0C                 	db	12
    83   003525  18                 	db	24
    84   003526  70                 	db	112
    85   003527  00                 	db	0
    86                           
    87                           ;initializer for _num_8
    88   003528  78                 	db	120
    89   003529  CC                 	db	204
    90   00352A  CC                 	db	204
    91   00352B  78                 	db	120
    92   00352C  CC                 	db	204
    93   00352D  CC                 	db	204
    94   00352E  78                 	db	120
    95   00352F  00                 	db	0
    96                           
    97                           ;initializer for _num_7
    98   003530  FC                 	db	252
    99   003531  CC                 	db	204
   100   003532  0C                 	db	12
   101   003533  18                 	db	24
   102   003534  30                 	db	48
   103   003535  30                 	db	48
   104   003536  30                 	db	48
   105   003537  00                 	db	0
   106                           
   107                           ;initializer for _num_6
   108   003538  38                 	db	56
   109   003539  60                 	db	96
   110   00353A  C0                 	db	192
   111   00353B  F8                 	db	248
   112   00353C  CC                 	db	204
   113   00353D  CC                 	db	204
   114   00353E  78                 	db	120
   115   00353F  00                 	db	0
   116                           
   117                           ;initializer for _num_5
   118   003540  FC                 	db	252
   119   003541  C0                 	db	192
   120   003542  F8                 	db	248
   121   003543  0C                 	db	12
   122   003544  0C                 	db	12
   123   003545  CC                 	db	204
   124   003546  78                 	db	120
   125   003547  00                 	db	0
   126                           
   127                           ;initializer for _num_4
   128   003548  1C                 	db	28
   129   003549  3C                 	db	60
   130   00354A  6C                 	db	108
   131   00354B  CC                 	db	204
   132   00354C  FE                 	db	254
   133   00354D  0C                 	db	12
   134   00354E  1E                 	db	30
   135   00354F  00                 	db	0
   136                           
   137                           ;initializer for _num_3
   138   003550  78                 	db	120
   139   003551  CC                 	db	204
   140   003552  0C                 	db	12
   141   003553  38                 	db	56
   142   003554  0C                 	db	12
   143   003555  CC                 	db	204
   144   003556  78                 	db	120
   145   003557  00                 	db	0
   146                           
   147                           ;initializer for _num_2
   148   003558  78                 	db	120
   149   003559  CC                 	db	204
   150   00355A  0C                 	db	12
   151   00355B  38                 	db	56
   152   00355C  60                 	db	96
   153   00355D  CC                 	db	204
   154   00355E  FC                 	db	252
   155   00355F  00                 	db	0
   156                           
   157                           ;initializer for _num_1
   158   003560  30                 	db	48
   159   003561  70                 	db	112
   160   003562  30                 	db	48
   161   003563  30                 	db	48
   162   003564  30                 	db	48
   163   003565  30                 	db	48
   164   003566  FC                 	db	252
   165   003567  00                 	db	0
   166                           
   167                           ;initializer for _num_0
   168   003568  78                 	db	120
   169   003569  CC                 	db	204
   170   00356A  DC                 	db	220
   171   00356B  FC                 	db	252
   172   00356C  EC                 	db	236
   173   00356D  CC                 	db	204
   174   00356E  7C                 	db	124
   175   00356F  00                 	db	0
   176                           
   177                           ;initializer for _letra_a
   178   003570  30                 	db	48
   179   003571  78                 	db	120
   180   003572  CC                 	db	204
   181   003573  CC                 	db	204
   182   003574  FC                 	db	252
   183   003575  CC                 	db	204
   184   003576  CC                 	db	204
   185   003577  00                 	db	0
   186   000000                     _LATD	set	1217
   187   000000                     _OSCCON1	set	173
   188   000000                     _ANSELCbits	set	1040
   189   000000                     _ANSELD	set	1048
   190   000000                     _LATDbits	set	1217
   191   000000                     _LATFbits	set	1219
   192   000000                     _LATEbits	set	1218
   193   000000                     _TRISCbits	set	1224
   194   000000                     _TRISD	set	1225
   195   000000                     _TRISFbits	set	1227
   196   000000                     _TRISE	set	1226
   197   000000                     _PORTD	set	1233
   198   000000                     _INTCON0bits	set	1238
   199   000000                     _ANSELE	set	1056
   200   000000                     _ANSELFbits	set	1064
   201   000000                     _LATCbits	set	1216
   202   000000                     _OSCFRQ	set	177
   203   000000                     _OSCEN	set	179
   204   000000                     _TMR0H	set	793
   205   000000                     _T0CON0	set	794
   206   000000                     _T0CON1	set	795
   207   000000                     _PIE3bits	set	1185
   208   000000                     _PIR3bits	set	1201
   209                           
   210                           	psect	smallconst
   211   002500                     __psmallconst:
   212                           	callstack 0
   213   002500  00                 	db	0
   214   002501                     STR_1:
   215   002501  50                 	db	80	;'P'
   216   002502  72                 	db	114	;'r'
   217   002503  75                 	db	117	;'u'
   218   002504  65                 	db	101	;'e'
   219   002505  62                 	db	98	;'b'
   220   002506  61                 	db	97	;'a'
   221   002507  20                 	db	32
   222   002508  4D                 	db	77	;'M'
   223   002509  41                 	db	65	;'A'
   224   00250A  58                 	db	88	;'X'
   225   00250B  37                 	db	55	;'7'
   226   00250C  32                 	db	50	;'2'
   227   00250D  31                 	db	49	;'1'
   228   00250E  39                 	db	57	;'9'
   229   00250F  00                 	db	0
   230   002510                     STR_2:
   231   002510  4D                 	db	77	;'M'
   232   002511  61                 	db	97	;'a'
   233   002512  74                 	db	116	;'t'
   234   002513  72                 	db	114	;'r'
   235   002514  69                 	db	105	;'i'
   236   002515  7A                 	db	122	;'z'
   237   002516  20                 	db	32
   238   002517  38                 	db	56	;'8'
   239   002518  78                 	db	120	;'x'
   240   002519  38                 	db	56	;'8'
   241   00251A  00                 	db	0
   242   00251B  00                 	db	0	; dummy byte at the end
   243   000000                     
   244                           ; #config settings
   245                           
   246                           	psect	cinit
   247   00361E                     __pcinit:
   248                           	callstack 0
   249   00361E                     start_initialization:
   250                           	callstack 0
   251   00361E                     __initialization:
   252                           	callstack 0
   253                           
   254                           ; Initialize objects allocated to BANK5 (88 bytes)
   255                           ; load TBLPTR registers with __pidataBANK5
   256   00361E  0E20               	movlw	low __pidataBANK5
   257   003620  6EF6               	movwf	tblptrl,c
   258   003622  0E35               	movlw	high __pidataBANK5
   259   003624  6EF7               	movwf	tblptrh,c
   260   003626  0E00               	movlw	low (__pidataBANK5 shr (0+16))
   261   003628  6EF8               	movwf	tblptru,c
   262   00362A  EE01  F160         	lfsr	0,__pdataBANK5
   263   00362E  EE10 F058          	lfsr	1,88
   264   003632                     copy_data0:
   265   003632  0009               	tblrd		*+
   266   003634  C4F5 F4EE          	movff	tablat,postinc0
   267   003638  50E5               	movf	postdec1,w,c
   268   00363A  50E1               	movf	fsr1l,w,c
   269   00363C  E1FA               	bnz	copy_data0
   270                           
   271                           ; Clear objects allocated to BANK5 (8 bytes)
   272   00363E  EE01  F1B8         	lfsr	0,__pbssBANK5
   273   003642  0E08               	movlw	8
   274   003644                     clear_0:
   275   003644  6AEE               	clrf	postinc0,c
   276   003646  06E8               	decf	wreg,f,c
   277   003648  E1FD               	bnz	clear_0
   278                           
   279                           ; Clear objects allocated to COMRAM (6 bytes)
   280   00364A  6A58               	clrf	(__pbssCOMRAM+5)& (0+255),c
   281   00364C  6A57               	clrf	(__pbssCOMRAM+4)& (0+255),c
   282   00364E  6A56               	clrf	(__pbssCOMRAM+3)& (0+255),c
   283   003650  6A55               	clrf	(__pbssCOMRAM+2)& (0+255),c
   284   003652  6A54               	clrf	(__pbssCOMRAM+1)& (0+255),c
   285   003654  6A53               	clrf	__pbssCOMRAM& (0+255),c
   286                           
   287                           ;
   288                           ; Setup IVTBASE
   289                           ;
   290   003656  0104               	movlb	4
   291   003658  0E08               	movlw	(ivt0x8_base shr 0)& (0+255)
   292   00365A  6F5D               	movwf	93,b
   293   00365C  0E00               	movlw	(ivt0x8_base shr (0+8))& (0+255)
   294   00365E  6F5E               	movwf	94,b
   295   003660  0E00               	movlw	(ivt0x8_base shr (0+16))& (0+255)
   296   003662  6F5F               	movwf	95,b
   297   003664                     end_of_initialization:
   298                           	callstack 0
   299   003664                     __end_of__initialization:
   300                           	callstack 0
   301   003664  0100               	movlb	0
   302   003666  EFB2  F017         	goto	_main	;jump to C main() function
   303                           
   304                           	psect	bssCOMRAM
   305   000553                     __pbssCOMRAM:
   306                           	callstack 0
   307   000553                     _deco_unidad:
   308                           	callstack 0
   309   000553                     	ds	1
   310   000554                     _deco_decena:
   311                           	callstack 0
   312   000554                     	ds	1
   313   000555                     _deco_centena:
   314                           	callstack 0
   315   000555                     	ds	1
   316   000556                     _desplazamiento:
   317                           	callstack 0
   318   000556                     	ds	1
   319   000557                     _concatenado:
   320                           	callstack 0
   321   000557                     	ds	1
   322   000558                     _variablazo:
   323                           	callstack 0
   324   000558                     	ds	1
   325                           
   326                           	psect	bssBANK5
   327   0005B8                     __pbssBANK5:
   328                           	callstack 0
   329   0005B8                     _vacio:
   330                           	callstack 0
   331   0005B8                     	ds	8
   332                           
   333                           	psect	dataBANK5
   334   000560                     __pdataBANK5:
   335                           	callstack 0
   336   000560                     _num_9:
   337                           	callstack 0
   338   000560                     	ds	8
   339   000568                     _num_8:
   340                           	callstack 0
   341   000568                     	ds	8
   342   000570                     _num_7:
   343                           	callstack 0
   344   000570                     	ds	8
   345   000578                     _num_6:
   346                           	callstack 0
   347   000578                     	ds	8
   348   000580                     _num_5:
   349                           	callstack 0
   350   000580                     	ds	8
   351   000588                     _num_4:
   352                           	callstack 0
   353   000588                     	ds	8
   354   000590                     _num_3:
   355                           	callstack 0
   356   000590                     	ds	8
   357   000598                     _num_2:
   358                           	callstack 0
   359   000598                     	ds	8
   360   0005A0                     _num_1:
   361                           	callstack 0
   362   0005A0                     	ds	8
   363   0005A8                     _num_0:
   364                           	callstack 0
   365   0005A8                     	ds	8
   366   0005B0                     _letra_a:
   367                           	callstack 0
   368   0005B0                     	ds	8
   369                           
   370                           	psect	cstackCOMRAM
   371   000501                     __pcstackCOMRAM:
   372                           	callstack 0
   373   000501                     ??_TMR0_ISR:
   374   000501                     
   375                           ; 1 bytes @ 0x0
   376   000501                     	ds	1
   377   000502                     ?_strlen:
   378                           	callstack 0
   379   000502                     ?___awmod:
   380                           	callstack 0
   381   000502                     ENVIA_NIBBLE@dato:
   382                           	callstack 0
   383   000502                     LEER_LCD@aux:
   384                           	callstack 0
   385   000502                     MAX7219_WriteData2@dato:
   386                           	callstack 0
   387   000502                     strlen@s:
   388                           	callstack 0
   389   000502                     ___awmod@dividend:
   390                           	callstack 0
   391                           
   392                           ; 2 bytes @ 0x1
   393   000502                     	ds	1
   394   000503                     ??_ENVIA_CHAR:
   395   000503                     ??_MAX7219_WriteData2:
   396   000503                     ENVIA_LCD_CMD@dato:
   397                           	callstack 0
   398                           
   399                           ; 1 bytes @ 0x2
   400   000503                     	ds	1
   401   000504                     ENVIA_CHAR@dato:
   402                           	callstack 0
   403   000504                     ENVIA_LCD_CMD@aux:
   404                           	callstack 0
   405   000504                     strlen@a:
   406                           	callstack 0
   407   000504                     ___awmod@divisor:
   408                           	callstack 0
   409                           
   410                           ; 2 bytes @ 0x3
   411   000504                     	ds	1
   412   000505                     ??_LCD_CONFIG:
   413   000505                     POS_CURSOR@columna:
   414                           	callstack 0
   415   000505                     CURSOR_ONOFF@estado:
   416                           	callstack 0
   417   000505                     ENVIA_CHAR@aux:
   418                           	callstack 0
   419   000505                     MAX7219_WriteData2@comando:
   420                           	callstack 0
   421                           
   422                           ; 1 bytes @ 0x4
   423   000505                     	ds	1
   424   000506                     ??_LCD_INIT:
   425   000506                     POS_CURSOR@fila:
   426                           	callstack 0
   427   000506                     ESCRIBE_MENSAJE2@cadena:
   428                           	callstack 0
   429   000506                     MAX7219_WriteData2@var_x:
   430                           	callstack 0
   431   000506                     ___awmod@counter:
   432                           	callstack 0
   433                           
   434                           ; 1 bytes @ 0x5
   435   000506                     	ds	1
   436   000507                     ??_ESCRIBE_MENSAJE2:
   437   000507                     ___awmod@sign:
   438                           	callstack 0
   439                           
   440                           ; 1 bytes @ 0x6
   441   000507                     	ds	1
   442   000508                     ??_configuro:
   443   000508                     ?___awdiv:
   444                           	callstack 0
   445   000508                     ESCRIBE_MENSAJE2@tam:
   446                           	callstack 0
   447   000508                     ___awdiv@dividend:
   448                           	callstack 0
   449                           
   450                           ; 2 bytes @ 0x7
   451   000508                     	ds	1
   452   000509                     ESCRIBE_MENSAJE2@i:
   453                           	callstack 0
   454                           
   455                           ; 1 bytes @ 0x8
   456   000509                     	ds	1
   457   00050A                     ___awdiv@divisor:
   458                           	callstack 0
   459                           
   460                           ; 2 bytes @ 0x9
   461   00050A                     	ds	2
   462   00050C                     ___awdiv@counter:
   463                           	callstack 0
   464                           
   465                           ; 1 bytes @ 0xB
   466   00050C                     	ds	1
   467   00050D                     ___awdiv@sign:
   468                           	callstack 0
   469                           
   470                           ; 1 bytes @ 0xC
   471   00050D                     	ds	1
   472   00050E                     ___awdiv@quotient:
   473                           	callstack 0
   474                           
   475                           ; 2 bytes @ 0xD
   476   00050E                     	ds	2
   477   000510                     decodificacion@centena:
   478                           	callstack 0
   479                           
   480                           ; 1 bytes @ 0xF
   481   000510                     	ds	1
   482   000511                     decodificacion@decena:
   483                           	callstack 0
   484                           
   485                           ; 1 bytes @ 0x10
   486   000511                     	ds	1
   487   000512                     decodificacion@unidad:
   488                           	callstack 0
   489                           
   490                           ; 1 bytes @ 0x11
   491   000512                     	ds	1
   492   000513                     decodificacion@numero:
   493                           	callstack 0
   494                           
   495                           ; 1 bytes @ 0x12
   496   000513                     	ds	1
   497   000514                     decodificacion@i:
   498                           	callstack 0
   499                           
   500                           ; 2 bytes @ 0x13
   501   000514                     	ds	2
   502   000516                     decodificacion@i_486:
   503                           	callstack 0
   504                           
   505                           ; 2 bytes @ 0x15
   506   000516                     	ds	2
   507   000518                     decodificacion@i_487:
   508                           	callstack 0
   509                           
   510                           ; 2 bytes @ 0x17
   511   000518                     	ds	2
   512   00051A                     decodificacion@i_488:
   513                           	callstack 0
   514                           
   515                           ; 2 bytes @ 0x19
   516   00051A                     	ds	2
   517   00051C                     decodificacion@i_489:
   518                           	callstack 0
   519                           
   520                           ; 2 bytes @ 0x1B
   521   00051C                     	ds	2
   522   00051E                     decodificacion@i_490:
   523                           	callstack 0
   524                           
   525                           ; 2 bytes @ 0x1D
   526   00051E                     	ds	2
   527   000520                     decodificacion@i_491:
   528                           	callstack 0
   529                           
   530                           ; 2 bytes @ 0x1F
   531   000520                     	ds	2
   532   000522                     decodificacion@i_492:
   533                           	callstack 0
   534                           
   535                           ; 2 bytes @ 0x21
   536   000522                     	ds	2
   537   000524                     decodificacion@i_493:
   538                           	callstack 0
   539                           
   540                           ; 2 bytes @ 0x23
   541   000524                     	ds	2
   542   000526                     decodificacion@i_494:
   543                           	callstack 0
   544                           
   545                           ; 2 bytes @ 0x25
   546   000526                     	ds	2
   547   000528                     decodificacion@i_495:
   548                           	callstack 0
   549                           
   550                           ; 2 bytes @ 0x27
   551   000528                     	ds	2
   552   00052A                     decodificacion@i_496:
   553                           	callstack 0
   554                           
   555                           ; 2 bytes @ 0x29
   556   00052A                     	ds	2
   557   00052C                     decodificacion@i_497:
   558                           	callstack 0
   559                           
   560                           ; 2 bytes @ 0x2B
   561   00052C                     	ds	2
   562   00052E                     decodificacion@i_498:
   563                           	callstack 0
   564                           
   565                           ; 2 bytes @ 0x2D
   566   00052E                     	ds	2
   567   000530                     decodificacion@i_499:
   568                           	callstack 0
   569                           
   570                           ; 2 bytes @ 0x2F
   571   000530                     	ds	2
   572   000532                     decodificacion@i_500:
   573                           	callstack 0
   574                           
   575                           ; 2 bytes @ 0x31
   576   000532                     	ds	2
   577   000534                     decodificacion@i_501:
   578                           	callstack 0
   579                           
   580                           ; 2 bytes @ 0x33
   581   000534                     	ds	2
   582   000536                     decodificacion@i_502:
   583                           	callstack 0
   584                           
   585                           ; 2 bytes @ 0x35
   586   000536                     	ds	2
   587   000538                     decodificacion@i_503:
   588                           	callstack 0
   589                           
   590                           ; 2 bytes @ 0x37
   591   000538                     	ds	2
   592   00053A                     decodificacion@i_504:
   593                           	callstack 0
   594                           
   595                           ; 2 bytes @ 0x39
   596   00053A                     	ds	2
   597   00053C                     decodificacion@i_505:
   598                           	callstack 0
   599                           
   600                           ; 2 bytes @ 0x3B
   601   00053C                     	ds	2
   602   00053E                     decodificacion@i_506:
   603                           	callstack 0
   604                           
   605                           ; 2 bytes @ 0x3D
   606   00053E                     	ds	2
   607   000540                     decodificacion@i_507:
   608                           	callstack 0
   609                           
   610                           ; 2 bytes @ 0x3F
   611   000540                     	ds	2
   612   000542                     decodificacion@i_508:
   613                           	callstack 0
   614                           
   615                           ; 2 bytes @ 0x41
   616   000542                     	ds	2
   617   000544                     decodificacion@i_509:
   618                           	callstack 0
   619                           
   620                           ; 2 bytes @ 0x43
   621   000544                     	ds	2
   622   000546                     decodificacion@i_510:
   623                           	callstack 0
   624                           
   625                           ; 2 bytes @ 0x45
   626   000546                     	ds	2
   627   000548                     decodificacion@i_511:
   628                           	callstack 0
   629                           
   630                           ; 2 bytes @ 0x47
   631   000548                     	ds	2
   632   00054A                     decodificacion@i_512:
   633                           	callstack 0
   634                           
   635                           ; 2 bytes @ 0x49
   636   00054A                     	ds	2
   637   00054C                     decodificacion@i_513:
   638                           	callstack 0
   639                           
   640                           ; 2 bytes @ 0x4B
   641   00054C                     	ds	2
   642   00054E                     decodificacion@i_514:
   643                           	callstack 0
   644                           
   645                           ; 2 bytes @ 0x4D
   646   00054E                     	ds	2
   647   000550                     ??_main:
   648                           
   649                           ; 1 bytes @ 0x4F
   650   000550                     	ds	2
   651   000552                     main@cuenta:
   652                           	callstack 0
   653                           
   654                           ; 1 bytes @ 0x51
   655   000552                     	ds	1
   656                           
   657 ;;
   658 ;;Main: autosize = 0, tempsize = 2, incstack = 0, save=0
   659 ;;
   660 ;; *************** function _main *****************
   661 ;; Defined at:
   662 ;;		line 232 in file "maincode02.c"
   663 ;; Parameters:    Size  Location     Type
   664 ;;		None
   665 ;; Auto vars:     Size  Location     Type
   666 ;;  cuenta          1   81[COMRAM] unsigned char 
   667 ;; Return value:  Size  Location     Type
   668 ;;                  1    wreg      void 
   669 ;; Registers used:
   670 ;;		wreg, fsr1l, fsr1h, fsr2l, fsr2h, status,2, status,0, tblptrl, tblptrh, tblptru, cstack
   671 ;; Tracked objects:
   672 ;;		On entry : 0/0
   673 ;;		On exit  : 0/0
   674 ;;		Unchanged: 0/0
   675 ;; Data sizes:     COMRAM   BANK5   BANK6   BANK7   BANK8   BANK9  BANK10  BANK11  BANK12  BANK13  BANK14  BANK15  BANK1
      +6  BANK17  BANK18  BANK19  BANK20  BANK21  BANK22  BANK23  BANK24  BANK25  BANK26  BANK27  BANK28  BANK29  BANK30  BANK3
      +1  BANK32  BANK33  BANK34  BANK35  BANK36
   676 ;;      Params:         0       0       0       0       0       0       0       0       0       0       0       0       
      +0       0       0       0       0       0       0       0       0       0       0       0       0       0       0       
      +0       0       0       0       0       0
   677 ;;      Locals:         1       0       0       0       0       0       0       0       0       0       0       0       
      +0       0       0       0       0       0       0       0       0       0       0       0       0       0       0       
      +0       0       0       0       0       0
   678 ;;      Temps:          2       0       0       0       0       0       0       0       0       0       0       0       
      +0       0       0       0       0       0       0       0       0       0       0       0       0       0       0       
      +0       0       0       0       0       0
   679 ;;      Totals:         3       0       0       0       0       0       0       0       0       0       0       0       
      +0       0       0       0       0       0       0       0       0       0       0       0       0       0       0       
      +0       0       0       0       0       0
   680 ;;Total ram usage:        3 bytes
   681 ;; Hardware stack levels required when called: 6
   682 ;; This function calls:
   683 ;;		_ESCRIBE_MENSAJE2
   684 ;;		_MAX7219_WriteData2
   685 ;;		_POS_CURSOR
   686 ;;		_configuro
   687 ;;		_decodificacion
   688 ;; This function is called by:
   689 ;;		Startup code after reset
   690 ;; This function uses a non-reentrant model
   691 ;;
   692                           
   693                           	psect	text0
   694   002F64                     __ptext0:
   695                           	callstack 0
   696   002F64                     _main:
   697                           	callstack 121
   698   002F64                     
   699                           ;maincode02.c: 233:     configuro();
   700   002F64  ECBC  F01A         	call	_configuro	;wreg free
   701                           
   702                           ;maincode02.c: 234:     POS_CURSOR(1,0);
   703   002F68  0E00               	movlw	0
   704   002F6A  6E05               	movwf	POS_CURSOR@columna^(0+1280),c
   705   002F6C  0E01               	movlw	1
   706   002F6E  ECE7  F019         	call	_POS_CURSOR
   707   002F72                     
   708                           ;maincode02.c: 235:     ESCRIBE_MENSAJE2("Prueba MAX7219");
   709   002F72  0E01               	movlw	low STR_1
   710   002F74  6E06               	movwf	ESCRIBE_MENSAJE2@cadena^(0+1280),c
   711   002F76  EC5B  F01B         	call	_ESCRIBE_MENSAJE2	;wreg free
   712   002F7A                     
   713                           ;maincode02.c: 236:     POS_CURSOR(2,0);
   714   002F7A  0E00               	movlw	0
   715   002F7C  6E05               	movwf	POS_CURSOR@columna^(0+1280),c
   716   002F7E  0E02               	movlw	2
   717   002F80  ECE7  F019         	call	_POS_CURSOR
   718                           
   719                           ;maincode02.c: 237:     ESCRIBE_MENSAJE2("Matriz 8x8");
   720   002F84  0E10               	movlw	low STR_2
   721   002F86  6E06               	movwf	ESCRIBE_MENSAJE2@cadena^(0+1280),c
   722   002F88  EC5B  F01B         	call	_ESCRIBE_MENSAJE2	;wreg free
   723   002F8C                     
   724                           ;maincode02.c: 238:     MAX7219_WriteData2(0x01,0xFF);
   725   002F8C  0EFF               	movlw	255
   726   002F8E  6E02               	movwf	MAX7219_WriteData2@dato^(0+1280),c
   727   002F90  0E01               	movlw	1
   728   002F92  EC90  F019         	call	_MAX7219_WriteData2
   729   002F96                     
   730                           ;maincode02.c: 239:     MAX7219_WriteData2(0x02,0x00);
   731   002F96  0E00               	movlw	0
   732   002F98  6E02               	movwf	MAX7219_WriteData2@dato^(0+1280),c
   733   002F9A  0E02               	movlw	2
   734   002F9C  EC90  F019         	call	_MAX7219_WriteData2
   735   002FA0                     
   736                           ;maincode02.c: 240:     MAX7219_WriteData2(0x03,0xFF);
   737   002FA0  0EFF               	movlw	255
   738   002FA2  6E02               	movwf	MAX7219_WriteData2@dato^(0+1280),c
   739   002FA4  0E03               	movlw	3
   740   002FA6  EC90  F019         	call	_MAX7219_WriteData2
   741   002FAA                     
   742                           ;maincode02.c: 241:     MAX7219_WriteData2(0x04,0x00);
   743   002FAA  0E00               	movlw	0
   744   002FAC  6E02               	movwf	MAX7219_WriteData2@dato^(0+1280),c
   745   002FAE  0E04               	movlw	4
   746   002FB0  EC90  F019         	call	_MAX7219_WriteData2
   747   002FB4                     
   748                           ;maincode02.c: 242:     MAX7219_WriteData2(0x05,0xFF);
   749   002FB4  0EFF               	movlw	255
   750   002FB6  6E02               	movwf	MAX7219_WriteData2@dato^(0+1280),c
   751   002FB8  0E05               	movlw	5
   752   002FBA  EC90  F019         	call	_MAX7219_WriteData2
   753   002FBE                     
   754                           ;maincode02.c: 243:     MAX7219_WriteData2(0x06,0x00);
   755   002FBE  0E00               	movlw	0
   756   002FC0  6E02               	movwf	MAX7219_WriteData2@dato^(0+1280),c
   757   002FC2  0E06               	movlw	6
   758   002FC4  EC90  F019         	call	_MAX7219_WriteData2
   759   002FC8                     
   760                           ;maincode02.c: 244:     MAX7219_WriteData2(0x07,0xFF);
   761   002FC8  0EFF               	movlw	255
   762   002FCA  6E02               	movwf	MAX7219_WriteData2@dato^(0+1280),c
   763   002FCC  0E07               	movlw	7
   764   002FCE  EC90  F019         	call	_MAX7219_WriteData2
   765   002FD2                     
   766                           ;maincode02.c: 245:     MAX7219_WriteData2(0x08,0x00);
   767   002FD2  0E00               	movlw	0
   768   002FD4  6E02               	movwf	MAX7219_WriteData2@dato^(0+1280),c
   769   002FD6  0E08               	movlw	8
   770   002FD8  EC90  F019         	call	_MAX7219_WriteData2
   771   002FDC                     
   772                           ;maincode02.c: 246:     _delay((unsigned long)((1500)*(32000000UL/4000.0)));
   773   002FDC  0E3D               	movlw	61
   774   002FDE  6E51               	movwf	(??_main+1)^(0+1280),c
   775   002FE0  0EE1               	movlw	225
   776   002FE2  6E50               	movwf	??_main^(0+1280),c
   777   002FE4  0E40               	movlw	64
   778   002FE6                     u1337:
   779   002FE6  2EE8               	decfsz	wreg,f,c
   780   002FE8  D7FE               	bra	u1337
   781   002FEA  2E50               	decfsz	??_main^(0+1280),f,c
   782   002FEC  D7FC               	bra	u1337
   783   002FEE  2E51               	decfsz	(??_main+1)^(0+1280),f,c
   784   002FF0  D7FA               	bra	u1337
   785   002FF2                     
   786                           ;maincode02.c: 247:     MAX7219_WriteData2(0x01,0xAA);
   787   002FF2  0EAA               	movlw	170
   788   002FF4  6E02               	movwf	MAX7219_WriteData2@dato^(0+1280),c
   789   002FF6  0E01               	movlw	1
   790   002FF8  EC90  F019         	call	_MAX7219_WriteData2
   791   002FFC                     
   792                           ;maincode02.c: 248:     MAX7219_WriteData2(0x02,0x55);
   793   002FFC  0E55               	movlw	85
   794   002FFE  6E02               	movwf	MAX7219_WriteData2@dato^(0+1280),c
   795   003000  0E02               	movlw	2
   796   003002  EC90  F019         	call	_MAX7219_WriteData2
   797   003006                     
   798                           ;maincode02.c: 249:     MAX7219_WriteData2(0x03,0xAA);
   799   003006  0EAA               	movlw	170
   800   003008  6E02               	movwf	MAX7219_WriteData2@dato^(0+1280),c
   801   00300A  0E03               	movlw	3
   802   00300C  EC90  F019         	call	_MAX7219_WriteData2
   803   003010                     
   804                           ;maincode02.c: 250:     MAX7219_WriteData2(0x04,0x55);
   805   003010  0E55               	movlw	85
   806   003012  6E02               	movwf	MAX7219_WriteData2@dato^(0+1280),c
   807   003014  0E04               	movlw	4
   808   003016  EC90  F019         	call	_MAX7219_WriteData2
   809   00301A                     
   810                           ;maincode02.c: 251:     MAX7219_WriteData2(0x05,0xAA);
   811   00301A  0EAA               	movlw	170
   812   00301C  6E02               	movwf	MAX7219_WriteData2@dato^(0+1280),c
   813   00301E  0E05               	movlw	5
   814   003020  EC90  F019         	call	_MAX7219_WriteData2
   815   003024                     
   816                           ;maincode02.c: 252:     MAX7219_WriteData2(0x06,0x55);
   817   003024  0E55               	movlw	85
   818   003026  6E02               	movwf	MAX7219_WriteData2@dato^(0+1280),c
   819   003028  0E06               	movlw	6
   820   00302A  EC90  F019         	call	_MAX7219_WriteData2
   821   00302E                     
   822                           ;maincode02.c: 253:     MAX7219_WriteData2(0x07,0xAA);
   823   00302E  0EAA               	movlw	170
   824   003030  6E02               	movwf	MAX7219_WriteData2@dato^(0+1280),c
   825   003032  0E07               	movlw	7
   826   003034  EC90  F019         	call	_MAX7219_WriteData2
   827   003038                     
   828                           ;maincode02.c: 254:     MAX7219_WriteData2(0x08,0x55);
   829   003038  0E55               	movlw	85
   830   00303A  6E02               	movwf	MAX7219_WriteData2@dato^(0+1280),c
   831   00303C  0E08               	movlw	8
   832   00303E  EC90  F019         	call	_MAX7219_WriteData2
   833   003042                     
   834                           ;maincode02.c: 255:     _delay((unsigned long)((1500)*(32000000UL/4000.0)));
   835   003042  0E3D               	movlw	61
   836   003044  6E51               	movwf	(??_main+1)^(0+1280),c
   837   003046  0EE1               	movlw	225
   838   003048  6E50               	movwf	??_main^(0+1280),c
   839   00304A  0E40               	movlw	64
   840   00304C                     u1347:
   841   00304C  2EE8               	decfsz	wreg,f,c
   842   00304E  D7FE               	bra	u1347
   843   003050  2E50               	decfsz	??_main^(0+1280),f,c
   844   003052  D7FC               	bra	u1347
   845   003054  2E51               	decfsz	(??_main+1)^(0+1280),f,c
   846   003056  D7FA               	bra	u1347
   847   003058                     
   848                           ;maincode02.c: 256:     MAX7219_WriteData2(0x01,0x00);
   849   003058  0E00               	movlw	0
   850   00305A  6E02               	movwf	MAX7219_WriteData2@dato^(0+1280),c
   851   00305C  0E01               	movlw	1
   852   00305E  EC90  F019         	call	_MAX7219_WriteData2
   853   003062                     
   854                           ;maincode02.c: 257:     MAX7219_WriteData2(0x02,0x00);
   855   003062  0E00               	movlw	0
   856   003064  6E02               	movwf	MAX7219_WriteData2@dato^(0+1280),c
   857   003066  0E02               	movlw	2
   858   003068  EC90  F019         	call	_MAX7219_WriteData2
   859   00306C                     
   860                           ;maincode02.c: 258:     MAX7219_WriteData2(0x03,0x00);
   861   00306C  0E00               	movlw	0
   862   00306E  6E02               	movwf	MAX7219_WriteData2@dato^(0+1280),c
   863   003070  0E03               	movlw	3
   864   003072  EC90  F019         	call	_MAX7219_WriteData2
   865   003076                     
   866                           ;maincode02.c: 259:     MAX7219_WriteData2(0x04,0x00);
   867   003076  0E00               	movlw	0
   868   003078  6E02               	movwf	MAX7219_WriteData2@dato^(0+1280),c
   869   00307A  0E04               	movlw	4
   870   00307C  EC90  F019         	call	_MAX7219_WriteData2
   871   003080                     
   872                           ;maincode02.c: 260:     MAX7219_WriteData2(0x05,0x00);
   873   003080  0E00               	movlw	0
   874   003082  6E02               	movwf	MAX7219_WriteData2@dato^(0+1280),c
   875   003084  0E05               	movlw	5
   876   003086  EC90  F019         	call	_MAX7219_WriteData2
   877   00308A                     
   878                           ;maincode02.c: 261:     MAX7219_WriteData2(0x06,0x00);
   879   00308A  0E00               	movlw	0
   880   00308C  6E02               	movwf	MAX7219_WriteData2@dato^(0+1280),c
   881   00308E  0E06               	movlw	6
   882   003090  EC90  F019         	call	_MAX7219_WriteData2
   883   003094                     
   884                           ;maincode02.c: 262:     MAX7219_WriteData2(0x07,0x00);
   885   003094  0E00               	movlw	0
   886   003096  6E02               	movwf	MAX7219_WriteData2@dato^(0+1280),c
   887   003098  0E07               	movlw	7
   888   00309A  EC90  F019         	call	_MAX7219_WriteData2
   889   00309E                     
   890                           ;maincode02.c: 263:     MAX7219_WriteData2(0x08,0x00);
   891   00309E  0E00               	movlw	0
   892   0030A0  6E02               	movwf	MAX7219_WriteData2@dato^(0+1280),c
   893   0030A2  0E08               	movlw	8
   894   0030A4  EC90  F019         	call	_MAX7219_WriteData2
   895   0030A8                     
   896                           ;maincode02.c: 264:     _delay((unsigned long)((1500)*(32000000UL/4000.0)));
   897   0030A8  0E3D               	movlw	61
   898   0030AA  6E51               	movwf	(??_main+1)^(0+1280),c
   899   0030AC  0EE1               	movlw	225
   900   0030AE  6E50               	movwf	??_main^(0+1280),c
   901   0030B0  0E40               	movlw	64
   902   0030B2                     u1357:
   903   0030B2  2EE8               	decfsz	wreg,f,c
   904   0030B4  D7FE               	bra	u1357
   905   0030B6  2E50               	decfsz	??_main^(0+1280),f,c
   906   0030B8  D7FC               	bra	u1357
   907   0030BA  2E51               	decfsz	(??_main+1)^(0+1280),f,c
   908   0030BC  D7FA               	bra	u1357
   909   0030BE                     
   910                           ;maincode02.c: 265:     INTCON0bits.GIE = 1;
   911   0030BE  8ED6               	bsf	214,7,c	;volatile
   912   0030C0                     l2703:
   913                           
   914                           ;maincode02.c: 267:         unsigned char cuenta;;maincode02.c: 268:         for(cuenta=
      +                          0;cuenta<200;cuenta++){
   915   0030C0  0E00               	movlw	0
   916   0030C2  6E52               	movwf	main@cuenta^(0+1280),c
   917   0030C4                     l2709:
   918                           
   919                           ;maincode02.c: 269:             decodificacion(cuenta);
   920   0030C4  5052               	movf	main@cuenta^(0+1280),w,c
   921   0030C6  EC8E  F012         	call	_decodificacion
   922   0030CA                     
   923                           ;maincode02.c: 275:             MAX7219_WriteData2(0x01,deco_centena[desplazamiento]);
   924   0030CA  0E55               	movlw	low _deco_centena
   925   0030CC  2456               	addwf	_desplazamiento^(0+1280),w,c
   926   0030CE  6ED9               	movwf	fsr2l,c
   927   0030D0  6ADA               	clrf	fsr2h,c
   928   0030D2  0E05               	movlw	high _deco_centena
   929   0030D4  22DA               	addwfc	fsr2h,f,c
   930   0030D6  50DF               	movf	indf2,w,c
   931   0030D8  6E02               	movwf	MAX7219_WriteData2@dato^(0+1280),c
   932   0030DA  0E01               	movlw	1
   933   0030DC  EC90  F019         	call	_MAX7219_WriteData2
   934   0030E0                     
   935                           ;maincode02.c: 276:             MAX7219_WriteData2(0x02,deco_centena[desplazamiento+1]);
   936   0030E0  0E56               	movlw	low (_deco_centena+1)
   937   0030E2  2456               	addwf	_desplazamiento^(0+1280),w,c
   938   0030E4  6ED9               	movwf	fsr2l,c
   939   0030E6  6ADA               	clrf	fsr2h,c
   940   0030E8  0E05               	movlw	high (_deco_centena+1)
   941   0030EA  22DA               	addwfc	fsr2h,f,c
   942   0030EC  50DF               	movf	indf2,w,c
   943   0030EE  6E02               	movwf	MAX7219_WriteData2@dato^(0+1280),c
   944   0030F0  0E02               	movlw	2
   945   0030F2  EC90  F019         	call	_MAX7219_WriteData2
   946   0030F6                     
   947                           ;maincode02.c: 277:             MAX7219_WriteData2(0x03,deco_centena[desplazamiento+2]);
   948   0030F6  0E57               	movlw	low (_deco_centena+2)
   949   0030F8  2456               	addwf	_desplazamiento^(0+1280),w,c
   950   0030FA  6ED9               	movwf	fsr2l,c
   951   0030FC  6ADA               	clrf	fsr2h,c
   952   0030FE  0E05               	movlw	high (_deco_centena+2)
   953   003100  22DA               	addwfc	fsr2h,f,c
   954   003102  50DF               	movf	indf2,w,c
   955   003104  6E02               	movwf	MAX7219_WriteData2@dato^(0+1280),c
   956   003106  0E03               	movlw	3
   957   003108  EC90  F019         	call	_MAX7219_WriteData2
   958   00310C                     
   959                           ;maincode02.c: 278:             MAX7219_WriteData2(0x04,deco_centena[desplazamiento+3]);
   960   00310C  0E58               	movlw	low (_deco_centena+3)
   961   00310E  2456               	addwf	_desplazamiento^(0+1280),w,c
   962   003110  6ED9               	movwf	fsr2l,c
   963   003112  6ADA               	clrf	fsr2h,c
   964   003114  0E05               	movlw	high (_deco_centena+3)
   965   003116  22DA               	addwfc	fsr2h,f,c
   966   003118  50DF               	movf	indf2,w,c
   967   00311A  6E02               	movwf	MAX7219_WriteData2@dato^(0+1280),c
   968   00311C  0E04               	movlw	4
   969   00311E  EC90  F019         	call	_MAX7219_WriteData2
   970   003122                     
   971                           ;maincode02.c: 279:             MAX7219_WriteData2(0x05,deco_centena[desplazamiento+4]);
   972   003122  0E59               	movlw	low (_deco_centena+4)
   973   003124  2456               	addwf	_desplazamiento^(0+1280),w,c
   974   003126  6ED9               	movwf	fsr2l,c
   975   003128  6ADA               	clrf	fsr2h,c
   976   00312A  0E05               	movlw	high (_deco_centena+4)
   977   00312C  22DA               	addwfc	fsr2h,f,c
   978   00312E  50DF               	movf	indf2,w,c
   979   003130  6E02               	movwf	MAX7219_WriteData2@dato^(0+1280),c
   980   003132  0E05               	movlw	5
   981   003134  EC90  F019         	call	_MAX7219_WriteData2
   982   003138                     
   983                           ;maincode02.c: 280:             MAX7219_WriteData2(0x06,deco_centena[desplazamiento+5]);
   984   003138  0E5A               	movlw	low (_deco_centena+5)
   985   00313A  2456               	addwf	_desplazamiento^(0+1280),w,c
   986   00313C  6ED9               	movwf	fsr2l,c
   987   00313E  6ADA               	clrf	fsr2h,c
   988   003140  0E05               	movlw	high (_deco_centena+5)
   989   003142  22DA               	addwfc	fsr2h,f,c
   990   003144  50DF               	movf	indf2,w,c
   991   003146  6E02               	movwf	MAX7219_WriteData2@dato^(0+1280),c
   992   003148  0E06               	movlw	6
   993   00314A  EC90  F019         	call	_MAX7219_WriteData2
   994   00314E                     
   995                           ;maincode02.c: 281:             MAX7219_WriteData2(0x07,deco_centena[desplazamiento+6]);
   996   00314E  0E5B               	movlw	low (_deco_centena+6)
   997   003150  2456               	addwf	_desplazamiento^(0+1280),w,c
   998   003152  6ED9               	movwf	fsr2l,c
   999   003154  6ADA               	clrf	fsr2h,c
  1000   003156  0E05               	movlw	high (_deco_centena+6)
  1001   003158  22DA               	addwfc	fsr2h,f,c
  1002   00315A  50DF               	movf	indf2,w,c
  1003   00315C  6E02               	movwf	MAX7219_WriteData2@dato^(0+1280),c
  1004   00315E  0E07               	movlw	7
  1005   003160  EC90  F019         	call	_MAX7219_WriteData2
  1006   003164                     
  1007                           ;maincode02.c: 282:             MAX7219_WriteData2(0x08,deco_centena[desplazamiento+7]);
  1008   003164  0E5C               	movlw	low (_deco_centena+7)
  1009   003166  2456               	addwf	_desplazamiento^(0+1280),w,c
  1010   003168  6ED9               	movwf	fsr2l,c
  1011   00316A  6ADA               	clrf	fsr2h,c
  1012   00316C  0E05               	movlw	high (_deco_centena+7)
  1013   00316E  22DA               	addwfc	fsr2h,f,c
  1014   003170  50DF               	movf	indf2,w,c
  1015   003172  6E02               	movwf	MAX7219_WriteData2@dato^(0+1280),c
  1016   003174  0E08               	movlw	8
  1017   003176  EC90  F019         	call	_MAX7219_WriteData2
  1018   00317A                     
  1019                           ;maincode02.c: 283:             _delay((unsigned long)((100)*(32000000UL/4000.0)));
  1020   00317A  0E05               	movlw	5
  1021   00317C  6E51               	movwf	(??_main+1)^(0+1280),c
  1022   00317E  0E0F               	movlw	15
  1023   003180  6E50               	movwf	??_main^(0+1280),c
  1024   003182  0EF1               	movlw	241
  1025   003184                     u1367:
  1026   003184  2EE8               	decfsz	wreg,f,c
  1027   003186  D7FE               	bra	u1367
  1028   003188  2E50               	decfsz	??_main^(0+1280),f,c
  1029   00318A  D7FC               	bra	u1367
  1030   00318C  2E51               	decfsz	(??_main+1)^(0+1280),f,c
  1031   00318E  D7FA               	bra	u1367
  1032   003190  0000               	nop	
  1033   003192                     
  1034                           ;maincode02.c: 284:         }
  1035   003192  2A52               	incf	main@cuenta^(0+1280),f,c
  1036   003194  0EC7               	movlw	199
  1037   003196  6452               	cpfsgt	main@cuenta^(0+1280),c
  1038   003198  EFD0  F018         	goto	u1321
  1039   00319C  EFD2  F018         	goto	u1320
  1040   0031A0                     u1321:
  1041   0031A0  EF62  F018         	goto	l2709
  1042   0031A4                     u1320:
  1043   0031A4  EF60  F018         	goto	l2703
  1044   0031A8  EF81  F000         	goto	start
  1045   0031AC                     __end_of_main:
  1046                           	callstack 0
  1047                           
  1048 ;; *************** function _decodificacion *****************
  1049 ;; Defined at:
  1050 ;;		line 68 in file "maincode02.c"
  1051 ;; Parameters:    Size  Location     Type
  1052 ;;  numero          1    wreg     unsigned char 
  1053 ;; Auto vars:     Size  Location     Type
  1054 ;;  numero          1   18[COMRAM] unsigned char 
  1055 ;;  i               2   77[COMRAM] int 
  1056 ;;  i               2   75[COMRAM] int 
  1057 ;;  i               2   73[COMRAM] int 
  1058 ;;  i               2   71[COMRAM] int 
  1059 ;;  i               2   69[COMRAM] int 
  1060 ;;  i               2   67[COMRAM] int 
  1061 ;;  i               2   65[COMRAM] int 
  1062 ;;  i               2   63[COMRAM] int 
  1063 ;;  i               2   61[COMRAM] int 
  1064 ;;  i               2   59[COMRAM] int 
  1065 ;;  i               2   57[COMRAM] int 
  1066 ;;  i               2   55[COMRAM] int 
  1067 ;;  i               2   53[COMRAM] int 
  1068 ;;  i               2   51[COMRAM] int 
  1069 ;;  i               2   49[COMRAM] int 
  1070 ;;  i               2   47[COMRAM] int 
  1071 ;;  i               2   45[COMRAM] int 
  1072 ;;  i               2   43[COMRAM] int 
  1073 ;;  i               2   41[COMRAM] int 
  1074 ;;  i               2   39[COMRAM] int 
  1075 ;;  i               2   37[COMRAM] int 
  1076 ;;  i               2   35[COMRAM] int 
  1077 ;;  i               2   33[COMRAM] int 
  1078 ;;  i               2   31[COMRAM] int 
  1079 ;;  i               2   29[COMRAM] int 
  1080 ;;  i               2   27[COMRAM] int 
  1081 ;;  i               2   25[COMRAM] int 
  1082 ;;  i               2   23[COMRAM] int 
  1083 ;;  i               2   21[COMRAM] int 
  1084 ;;  i               2   19[COMRAM] int 
  1085 ;;  unidad          1   17[COMRAM] unsigned char 
  1086 ;;  decena          1   16[COMRAM] unsigned char 
  1087 ;;  centena         1   15[COMRAM] unsigned char 
  1088 ;; Return value:  Size  Location     Type
  1089 ;;                  1    wreg      void 
  1090 ;; Registers used:
  1091 ;;		wreg, fsr1l, fsr1h, fsr2l, fsr2h, status,2, status,0, cstack
  1092 ;; Tracked objects:
  1093 ;;		On entry : 0/0
  1094 ;;		On exit  : 0/0
  1095 ;;		Unchanged: 0/0
  1096 ;; Data sizes:     COMRAM   BANK5   BANK6   BANK7   BANK8   BANK9  BANK10  BANK11  BANK12  BANK13  BANK14  BANK15  BANK1
      +6  BANK17  BANK18  BANK19  BANK20  BANK21  BANK22  BANK23  BANK24  BANK25  BANK26  BANK27  BANK28  BANK29  BANK30  BANK3
      +1  BANK32  BANK33  BANK34  BANK35  BANK36
  1097 ;;      Params:         0       0       0       0       0       0       0       0       0       0       0       0       
      +0       0       0       0       0       0       0       0       0       0       0       0       0       0       0       
      +0       0       0       0       0       0
  1098 ;;      Locals:        64       0       0       0       0       0       0       0       0       0       0       0       
      +0       0       0       0       0       0       0       0       0       0       0       0       0       0       0       
      +0       0       0       0       0       0
  1099 ;;      Temps:          0       0       0       0       0       0       0       0       0       0       0       0       
      +0       0       0       0       0       0       0       0       0       0       0       0       0       0       0       
      +0       0       0       0       0       0
  1100 ;;      Totals:        64       0       0       0       0       0       0       0       0       0       0       0       
      +0       0       0       0       0       0       0       0       0       0       0       0       0       0       0       
      +0       0       0       0       0       0
  1101 ;;Total ram usage:       64 bytes
  1102 ;; Hardware stack levels used: 1
  1103 ;; Hardware stack levels required when called: 2
  1104 ;; This function calls:
  1105 ;;		___awdiv
  1106 ;;		___awmod
  1107 ;; This function is called by:
  1108 ;;		_main
  1109 ;; This function uses a non-reentrant model
  1110 ;;
  1111                           
  1112                           	psect	text1
  1113   00251C                     __ptext1:
  1114                           	callstack 0
  1115   00251C                     _decodificacion:
  1116                           	callstack 124
  1117                           
  1118                           ;incstack = 0
  1119                           ;decodificacion@numero stored from wreg
  1120   00251C  6E13               	movwf	decodificacion@numero^(0+1280),c
  1121   00251E                     
  1122                           ;maincode02.c: 69:     unsigned char centena, decena, unidad;;maincode02.c: 70:     cent
      +                          ena = numero / 100;
  1123   00251E  C513  F508         	movff	decodificacion@numero,___awdiv@dividend
  1124   002522  6A09               	clrf	(___awdiv@dividend+1)^(0+1280),c
  1125   002524  0E00               	movlw	0
  1126   002526  6E0B               	movwf	(___awdiv@divisor+1)^(0+1280),c
  1127   002528  0E64               	movlw	100
  1128   00252A  6E0A               	movwf	___awdiv@divisor^(0+1280),c
  1129   00252C  ECD6  F018         	call	___awdiv	;wreg free
  1130   002530  5008               	movf	?___awdiv^(0+1280),w,c
  1131   002532  6E10               	movwf	decodificacion@centena^(0+1280),c
  1132                           
  1133                           ;maincode02.c: 71:     decena = (numero % 100) / 10;
  1134   002534  0E00               	movlw	0
  1135   002536  6E05               	movwf	(___awmod@divisor+1)^(0+1280),c
  1136   002538  0E64               	movlw	100
  1137   00253A  6E04               	movwf	___awmod@divisor^(0+1280),c
  1138   00253C  C513  F502         	movff	decodificacion@numero,___awmod@dividend
  1139   002540  6A03               	clrf	(___awmod@dividend+1)^(0+1280),c
  1140   002542  EC38  F019         	call	___awmod	;wreg free
  1141   002546  C502  F508         	movff	?___awmod,___awdiv@dividend
  1142   00254A  C503  F509         	movff	?___awmod+1,___awdiv@dividend+1
  1143   00254E  0E00               	movlw	0
  1144   002550  6E0B               	movwf	(___awdiv@divisor+1)^(0+1280),c
  1145   002552  0E0A               	movlw	10
  1146   002554  6E0A               	movwf	___awdiv@divisor^(0+1280),c
  1147   002556  ECD6  F018         	call	___awdiv	;wreg free
  1148   00255A  5008               	movf	?___awdiv^(0+1280),w,c
  1149   00255C  6E11               	movwf	decodificacion@decena^(0+1280),c
  1150                           
  1151                           ;maincode02.c: 72:     unidad = numero % 10;
  1152   00255E  C513  F502         	movff	decodificacion@numero,___awmod@dividend
  1153   002562  6A03               	clrf	(___awmod@dividend+1)^(0+1280),c
  1154   002564  0E00               	movlw	0
  1155   002566  6E05               	movwf	(___awmod@divisor+1)^(0+1280),c
  1156   002568  0E0A               	movlw	10
  1157   00256A  6E04               	movwf	___awmod@divisor^(0+1280),c
  1158   00256C  EC38  F019         	call	___awmod	;wreg free
  1159   002570  5002               	movf	?___awmod^(0+1280),w,c
  1160   002572  6E12               	movwf	decodificacion@unidad^(0+1280),c
  1161                           
  1162                           ;maincode02.c: 73:     switch(centena){
  1163   002574  EF38  F014         	goto	l2367
  1164   002578                     l2245:
  1165                           
  1166                           ;maincode02.c: 75:             for (int i = 0; i < 8; i++) {
  1167   002578  0E00               	movlw	0
  1168   00257A  6E15               	movwf	(decodificacion@i+1)^(0+1280),c
  1169   00257C  0E00               	movlw	0
  1170   00257E  6E14               	movwf	decodificacion@i^(0+1280),c
  1171   002580                     l2247:
  1172   002580  BE15               	btfsc	(decodificacion@i+1)^(0+1280),7,c
  1173   002582  EFCC  F012         	goto	u1011
  1174   002586  5015               	movf	(decodificacion@i+1)^(0+1280),w,c
  1175   002588  E109               	bnz	u1010
  1176   00258A  0E08               	movlw	8
  1177   00258C  5C14               	subwf	decodificacion@i^(0+1280),w,c
  1178   00258E  A0D8               	btfss	status,0,c
  1179   002590  EFCC  F012         	goto	u1011
  1180   002594  EFCE  F012         	goto	u1010
  1181   002598                     u1011:
  1182   002598  EFD0  F012         	goto	l2251
  1183   00259C                     u1010:
  1184   00259C  EFDF  F015         	goto	l2491
  1185   0025A0                     l2251:
  1186                           
  1187                           ;maincode02.c: 76:                 deco_centena[i] = num_0[i];
  1188   0025A0  0EA8               	movlw	low _num_0
  1189   0025A2  2414               	addwf	decodificacion@i^(0+1280),w,c
  1190   0025A4  6ED9               	movwf	fsr2l,c
  1191   0025A6  0E05               	movlw	high _num_0
  1192   0025A8  2015               	addwfc	(decodificacion@i+1)^(0+1280),w,c
  1193   0025AA  6EDA               	movwf	fsr2h,c
  1194   0025AC  0E55               	movlw	low _deco_centena
  1195   0025AE  2414               	addwf	decodificacion@i^(0+1280),w,c
  1196   0025B0  6EE1               	movwf	fsr1l,c
  1197   0025B2  0E05               	movlw	high _deco_centena
  1198   0025B4  2015               	addwfc	(decodificacion@i+1)^(0+1280),w,c
  1199   0025B6  6EE2               	movwf	fsr1h,c
  1200   0025B8  C4DF F4E7          	movff	indf2,indf1
  1201   0025BC                     
  1202                           ;maincode02.c: 77:             }
  1203   0025BC  4A14               	infsnz	decodificacion@i^(0+1280),f,c
  1204   0025BE  2A15               	incf	(decodificacion@i+1)^(0+1280),f,c
  1205   0025C0  EFC0  F012         	goto	l2247
  1206   0025C4                     l2257:
  1207                           
  1208                           ;maincode02.c: 80:             for (int i = 0; i < 8; i++) {
  1209   0025C4  0E00               	movlw	0
  1210   0025C6  6E17               	movwf	(decodificacion@i_486+1)^(0+1280),c
  1211   0025C8  0E00               	movlw	0
  1212   0025CA  6E16               	movwf	decodificacion@i_486^(0+1280),c
  1213   0025CC                     l2259:
  1214   0025CC  BE17               	btfsc	(decodificacion@i_486+1)^(0+1280),7,c
  1215   0025CE  EFF2  F012         	goto	u1021
  1216   0025D2  5017               	movf	(decodificacion@i_486+1)^(0+1280),w,c
  1217   0025D4  E109               	bnz	u1020
  1218   0025D6  0E08               	movlw	8
  1219   0025D8  5C16               	subwf	decodificacion@i_486^(0+1280),w,c
  1220   0025DA  A0D8               	btfss	status,0,c
  1221   0025DC  EFF2  F012         	goto	u1021
  1222   0025E0  EFF4  F012         	goto	u1020
  1223   0025E4                     u1021:
  1224   0025E4  EFF6  F012         	goto	l2263
  1225   0025E8                     u1020:
  1226   0025E8  EFDF  F015         	goto	l2491
  1227   0025EC                     l2263:
  1228                           
  1229                           ;maincode02.c: 81:                 deco_centena[i] = num_1[i];
  1230   0025EC  0EA0               	movlw	low _num_1
  1231   0025EE  2416               	addwf	decodificacion@i_486^(0+1280),w,c
  1232   0025F0  6ED9               	movwf	fsr2l,c
  1233   0025F2  0E05               	movlw	high _num_1
  1234   0025F4  2017               	addwfc	(decodificacion@i_486+1)^(0+1280),w,c
  1235   0025F6  6EDA               	movwf	fsr2h,c
  1236   0025F8  0E55               	movlw	low _deco_centena
  1237   0025FA  2416               	addwf	decodificacion@i_486^(0+1280),w,c
  1238   0025FC  6EE1               	movwf	fsr1l,c
  1239   0025FE  0E05               	movlw	high _deco_centena
  1240   002600  2017               	addwfc	(decodificacion@i_486+1)^(0+1280),w,c
  1241   002602  6EE2               	movwf	fsr1h,c
  1242   002604  C4DF F4E7          	movff	indf2,indf1
  1243   002608                     
  1244                           ;maincode02.c: 82:             }
  1245   002608  4A16               	infsnz	decodificacion@i_486^(0+1280),f,c
  1246   00260A  2A17               	incf	(decodificacion@i_486+1)^(0+1280),f,c
  1247   00260C  EFE6  F012         	goto	l2259
  1248   002610                     l2269:
  1249                           
  1250                           ;maincode02.c: 85:             for (int i = 0; i < 8; i++) {
  1251   002610  0E00               	movlw	0
  1252   002612  6E19               	movwf	(decodificacion@i_487+1)^(0+1280),c
  1253   002614  0E00               	movlw	0
  1254   002616  6E18               	movwf	decodificacion@i_487^(0+1280),c
  1255   002618                     l2271:
  1256   002618  BE19               	btfsc	(decodificacion@i_487+1)^(0+1280),7,c
  1257   00261A  EF18  F013         	goto	u1031
  1258   00261E  5019               	movf	(decodificacion@i_487+1)^(0+1280),w,c
  1259   002620  E109               	bnz	u1030
  1260   002622  0E08               	movlw	8
  1261   002624  5C18               	subwf	decodificacion@i_487^(0+1280),w,c
  1262   002626  A0D8               	btfss	status,0,c
  1263   002628  EF18  F013         	goto	u1031
  1264   00262C  EF1A  F013         	goto	u1030
  1265   002630                     u1031:
  1266   002630  EF1C  F013         	goto	l2275
  1267   002634                     u1030:
  1268   002634  EFDF  F015         	goto	l2491
  1269   002638                     l2275:
  1270                           
  1271                           ;maincode02.c: 86:                 deco_centena[i] = num_2[i];
  1272   002638  0E98               	movlw	low _num_2
  1273   00263A  2418               	addwf	decodificacion@i_487^(0+1280),w,c
  1274   00263C  6ED9               	movwf	fsr2l,c
  1275   00263E  0E05               	movlw	high _num_2
  1276   002640  2019               	addwfc	(decodificacion@i_487+1)^(0+1280),w,c
  1277   002642  6EDA               	movwf	fsr2h,c
  1278   002644  0E55               	movlw	low _deco_centena
  1279   002646  2418               	addwf	decodificacion@i_487^(0+1280),w,c
  1280   002648  6EE1               	movwf	fsr1l,c
  1281   00264A  0E05               	movlw	high _deco_centena
  1282   00264C  2019               	addwfc	(decodificacion@i_487+1)^(0+1280),w,c
  1283   00264E  6EE2               	movwf	fsr1h,c
  1284   002650  C4DF F4E7          	movff	indf2,indf1
  1285   002654                     
  1286                           ;maincode02.c: 87:             }
  1287   002654  4A18               	infsnz	decodificacion@i_487^(0+1280),f,c
  1288   002656  2A19               	incf	(decodificacion@i_487+1)^(0+1280),f,c
  1289   002658  EF0C  F013         	goto	l2271
  1290   00265C                     l2281:
  1291                           
  1292                           ;maincode02.c: 90:             for (int i = 0; i < 8; i++) {
  1293   00265C  0E00               	movlw	0
  1294   00265E  6E1B               	movwf	(decodificacion@i_488+1)^(0+1280),c
  1295   002660  0E00               	movlw	0
  1296   002662  6E1A               	movwf	decodificacion@i_488^(0+1280),c
  1297   002664                     l2283:
  1298   002664  BE1B               	btfsc	(decodificacion@i_488+1)^(0+1280),7,c
  1299   002666  EF3E  F013         	goto	u1041
  1300   00266A  501B               	movf	(decodificacion@i_488+1)^(0+1280),w,c
  1301   00266C  E109               	bnz	u1040
  1302   00266E  0E08               	movlw	8
  1303   002670  5C1A               	subwf	decodificacion@i_488^(0+1280),w,c
  1304   002672  A0D8               	btfss	status,0,c
  1305   002674  EF3E  F013         	goto	u1041
  1306   002678  EF40  F013         	goto	u1040
  1307   00267C                     u1041:
  1308   00267C  EF42  F013         	goto	l2287
  1309   002680                     u1040:
  1310   002680  EFDF  F015         	goto	l2491
  1311   002684                     l2287:
  1312                           
  1313                           ;maincode02.c: 91:                 deco_centena[i] = num_3[i];
  1314   002684  0E90               	movlw	low _num_3
  1315   002686  241A               	addwf	decodificacion@i_488^(0+1280),w,c
  1316   002688  6ED9               	movwf	fsr2l,c
  1317   00268A  0E05               	movlw	high _num_3
  1318   00268C  201B               	addwfc	(decodificacion@i_488+1)^(0+1280),w,c
  1319   00268E  6EDA               	movwf	fsr2h,c
  1320   002690  0E55               	movlw	low _deco_centena
  1321   002692  241A               	addwf	decodificacion@i_488^(0+1280),w,c
  1322   002694  6EE1               	movwf	fsr1l,c
  1323   002696  0E05               	movlw	high _deco_centena
  1324   002698  201B               	addwfc	(decodificacion@i_488+1)^(0+1280),w,c
  1325   00269A  6EE2               	movwf	fsr1h,c
  1326   00269C  C4DF F4E7          	movff	indf2,indf1
  1327   0026A0                     
  1328                           ;maincode02.c: 92:             }
  1329   0026A0  4A1A               	infsnz	decodificacion@i_488^(0+1280),f,c
  1330   0026A2  2A1B               	incf	(decodificacion@i_488+1)^(0+1280),f,c
  1331   0026A4  EF32  F013         	goto	l2283
  1332   0026A8                     l2293:
  1333                           
  1334                           ;maincode02.c: 95:             for (int i = 0; i < 8; i++) {
  1335   0026A8  0E00               	movlw	0
  1336   0026AA  6E1D               	movwf	(decodificacion@i_489+1)^(0+1280),c
  1337   0026AC  0E00               	movlw	0
  1338   0026AE  6E1C               	movwf	decodificacion@i_489^(0+1280),c
  1339   0026B0                     l2295:
  1340   0026B0  BE1D               	btfsc	(decodificacion@i_489+1)^(0+1280),7,c
  1341   0026B2  EF64  F013         	goto	u1051
  1342   0026B6  501D               	movf	(decodificacion@i_489+1)^(0+1280),w,c
  1343   0026B8  E109               	bnz	u1050
  1344   0026BA  0E08               	movlw	8
  1345   0026BC  5C1C               	subwf	decodificacion@i_489^(0+1280),w,c
  1346   0026BE  A0D8               	btfss	status,0,c
  1347   0026C0  EF64  F013         	goto	u1051
  1348   0026C4  EF66  F013         	goto	u1050
  1349   0026C8                     u1051:
  1350   0026C8  EF68  F013         	goto	l2299
  1351   0026CC                     u1050:
  1352   0026CC  EFDF  F015         	goto	l2491
  1353   0026D0                     l2299:
  1354                           
  1355                           ;maincode02.c: 96:                 deco_centena[i] = num_4[i];
  1356   0026D0  0E88               	movlw	low _num_4
  1357   0026D2  241C               	addwf	decodificacion@i_489^(0+1280),w,c
  1358   0026D4  6ED9               	movwf	fsr2l,c
  1359   0026D6  0E05               	movlw	high _num_4
  1360   0026D8  201D               	addwfc	(decodificacion@i_489+1)^(0+1280),w,c
  1361   0026DA  6EDA               	movwf	fsr2h,c
  1362   0026DC  0E55               	movlw	low _deco_centena
  1363   0026DE  241C               	addwf	decodificacion@i_489^(0+1280),w,c
  1364   0026E0  6EE1               	movwf	fsr1l,c
  1365   0026E2  0E05               	movlw	high _deco_centena
  1366   0026E4  201D               	addwfc	(decodificacion@i_489+1)^(0+1280),w,c
  1367   0026E6  6EE2               	movwf	fsr1h,c
  1368   0026E8  C4DF F4E7          	movff	indf2,indf1
  1369   0026EC                     
  1370                           ;maincode02.c: 97:             }
  1371   0026EC  4A1C               	infsnz	decodificacion@i_489^(0+1280),f,c
  1372   0026EE  2A1D               	incf	(decodificacion@i_489+1)^(0+1280),f,c
  1373   0026F0  EF58  F013         	goto	l2295
  1374   0026F4                     l2305:
  1375                           
  1376                           ;maincode02.c: 100:             for (int i = 0; i < 8; i++) {
  1377   0026F4  0E00               	movlw	0
  1378   0026F6  6E1F               	movwf	(decodificacion@i_490+1)^(0+1280),c
  1379   0026F8  0E00               	movlw	0
  1380   0026FA  6E1E               	movwf	decodificacion@i_490^(0+1280),c
  1381   0026FC                     l2307:
  1382   0026FC  BE1F               	btfsc	(decodificacion@i_490+1)^(0+1280),7,c
  1383   0026FE  EF8A  F013         	goto	u1061
  1384   002702  501F               	movf	(decodificacion@i_490+1)^(0+1280),w,c
  1385   002704  E109               	bnz	u1060
  1386   002706  0E08               	movlw	8
  1387   002708  5C1E               	subwf	decodificacion@i_490^(0+1280),w,c
  1388   00270A  A0D8               	btfss	status,0,c
  1389   00270C  EF8A  F013         	goto	u1061
  1390   002710  EF8C  F013         	goto	u1060
  1391   002714                     u1061:
  1392   002714  EF8E  F013         	goto	l2311
  1393   002718                     u1060:
  1394   002718  EFDF  F015         	goto	l2491
  1395   00271C                     l2311:
  1396                           
  1397                           ;maincode02.c: 101:                 deco_centena[i] = num_5[i];
  1398   00271C  0E80               	movlw	low _num_5
  1399   00271E  241E               	addwf	decodificacion@i_490^(0+1280),w,c
  1400   002720  6ED9               	movwf	fsr2l,c
  1401   002722  0E05               	movlw	high _num_5
  1402   002724  201F               	addwfc	(decodificacion@i_490+1)^(0+1280),w,c
  1403   002726  6EDA               	movwf	fsr2h,c
  1404   002728  0E55               	movlw	low _deco_centena
  1405   00272A  241E               	addwf	decodificacion@i_490^(0+1280),w,c
  1406   00272C  6EE1               	movwf	fsr1l,c
  1407   00272E  0E05               	movlw	high _deco_centena
  1408   002730  201F               	addwfc	(decodificacion@i_490+1)^(0+1280),w,c
  1409   002732  6EE2               	movwf	fsr1h,c
  1410   002734  C4DF F4E7          	movff	indf2,indf1
  1411   002738                     
  1412                           ;maincode02.c: 102:             }
  1413   002738  4A1E               	infsnz	decodificacion@i_490^(0+1280),f,c
  1414   00273A  2A1F               	incf	(decodificacion@i_490+1)^(0+1280),f,c
  1415   00273C  EF7E  F013         	goto	l2307
  1416   002740                     l2317:
  1417                           
  1418                           ;maincode02.c: 105:             for (int i = 0; i < 8; i++) {
  1419   002740  0E00               	movlw	0
  1420   002742  6E21               	movwf	(decodificacion@i_491+1)^(0+1280),c
  1421   002744  0E00               	movlw	0
  1422   002746  6E20               	movwf	decodificacion@i_491^(0+1280),c
  1423   002748                     l2319:
  1424   002748  BE21               	btfsc	(decodificacion@i_491+1)^(0+1280),7,c
  1425   00274A  EFB0  F013         	goto	u1071
  1426   00274E  5021               	movf	(decodificacion@i_491+1)^(0+1280),w,c
  1427   002750  E109               	bnz	u1070
  1428   002752  0E08               	movlw	8
  1429   002754  5C20               	subwf	decodificacion@i_491^(0+1280),w,c
  1430   002756  A0D8               	btfss	status,0,c
  1431   002758  EFB0  F013         	goto	u1071
  1432   00275C  EFB2  F013         	goto	u1070
  1433   002760                     u1071:
  1434   002760  EFB4  F013         	goto	l2323
  1435   002764                     u1070:
  1436   002764  EFDF  F015         	goto	l2491
  1437   002768                     l2323:
  1438                           
  1439                           ;maincode02.c: 106:                 deco_centena[i] = num_6[i];
  1440   002768  0E78               	movlw	low _num_6
  1441   00276A  2420               	addwf	decodificacion@i_491^(0+1280),w,c
  1442   00276C  6ED9               	movwf	fsr2l,c
  1443   00276E  0E05               	movlw	high _num_6
  1444   002770  2021               	addwfc	(decodificacion@i_491+1)^(0+1280),w,c
  1445   002772  6EDA               	movwf	fsr2h,c
  1446   002774  0E55               	movlw	low _deco_centena
  1447   002776  2420               	addwf	decodificacion@i_491^(0+1280),w,c
  1448   002778  6EE1               	movwf	fsr1l,c
  1449   00277A  0E05               	movlw	high _deco_centena
  1450   00277C  2021               	addwfc	(decodificacion@i_491+1)^(0+1280),w,c
  1451   00277E  6EE2               	movwf	fsr1h,c
  1452   002780  C4DF F4E7          	movff	indf2,indf1
  1453   002784                     
  1454                           ;maincode02.c: 107:             }
  1455   002784  4A20               	infsnz	decodificacion@i_491^(0+1280),f,c
  1456   002786  2A21               	incf	(decodificacion@i_491+1)^(0+1280),f,c
  1457   002788  EFA4  F013         	goto	l2319
  1458   00278C                     l2329:
  1459                           
  1460                           ;maincode02.c: 110:             for (int i = 0; i < 8; i++) {
  1461   00278C  0E00               	movlw	0
  1462   00278E  6E23               	movwf	(decodificacion@i_492+1)^(0+1280),c
  1463   002790  0E00               	movlw	0
  1464   002792  6E22               	movwf	decodificacion@i_492^(0+1280),c
  1465   002794                     l2331:
  1466   002794  BE23               	btfsc	(decodificacion@i_492+1)^(0+1280),7,c
  1467   002796  EFD6  F013         	goto	u1081
  1468   00279A  5023               	movf	(decodificacion@i_492+1)^(0+1280),w,c
  1469   00279C  E109               	bnz	u1080
  1470   00279E  0E08               	movlw	8
  1471   0027A0  5C22               	subwf	decodificacion@i_492^(0+1280),w,c
  1472   0027A2  A0D8               	btfss	status,0,c
  1473   0027A4  EFD6  F013         	goto	u1081
  1474   0027A8  EFD8  F013         	goto	u1080
  1475   0027AC                     u1081:
  1476   0027AC  EFDA  F013         	goto	l2335
  1477   0027B0                     u1080:
  1478   0027B0  EFDF  F015         	goto	l2491
  1479   0027B4                     l2335:
  1480                           
  1481                           ;maincode02.c: 111:                 deco_centena[i] = num_7[i];
  1482   0027B4  0E70               	movlw	low _num_7
  1483   0027B6  2422               	addwf	decodificacion@i_492^(0+1280),w,c
  1484   0027B8  6ED9               	movwf	fsr2l,c
  1485   0027BA  0E05               	movlw	high _num_7
  1486   0027BC  2023               	addwfc	(decodificacion@i_492+1)^(0+1280),w,c
  1487   0027BE  6EDA               	movwf	fsr2h,c
  1488   0027C0  0E55               	movlw	low _deco_centena
  1489   0027C2  2422               	addwf	decodificacion@i_492^(0+1280),w,c
  1490   0027C4  6EE1               	movwf	fsr1l,c
  1491   0027C6  0E05               	movlw	high _deco_centena
  1492   0027C8  2023               	addwfc	(decodificacion@i_492+1)^(0+1280),w,c
  1493   0027CA  6EE2               	movwf	fsr1h,c
  1494   0027CC  C4DF F4E7          	movff	indf2,indf1
  1495   0027D0                     
  1496                           ;maincode02.c: 112:             }
  1497   0027D0  4A22               	infsnz	decodificacion@i_492^(0+1280),f,c
  1498   0027D2  2A23               	incf	(decodificacion@i_492+1)^(0+1280),f,c
  1499   0027D4  EFCA  F013         	goto	l2331
  1500   0027D8                     l2341:
  1501                           
  1502                           ;maincode02.c: 115:             for (int i = 0; i < 8; i++) {
  1503   0027D8  0E00               	movlw	0
  1504   0027DA  6E25               	movwf	(decodificacion@i_493+1)^(0+1280),c
  1505   0027DC  0E00               	movlw	0
  1506   0027DE  6E24               	movwf	decodificacion@i_493^(0+1280),c
  1507   0027E0                     l2343:
  1508   0027E0  BE25               	btfsc	(decodificacion@i_493+1)^(0+1280),7,c
  1509   0027E2  EFFC  F013         	goto	u1091
  1510   0027E6  5025               	movf	(decodificacion@i_493+1)^(0+1280),w,c
  1511   0027E8  E109               	bnz	u1090
  1512   0027EA  0E08               	movlw	8
  1513   0027EC  5C24               	subwf	decodificacion@i_493^(0+1280),w,c
  1514   0027EE  A0D8               	btfss	status,0,c
  1515   0027F0  EFFC  F013         	goto	u1091
  1516   0027F4  EFFE  F013         	goto	u1090
  1517   0027F8                     u1091:
  1518   0027F8  EF00  F014         	goto	l2347
  1519   0027FC                     u1090:
  1520   0027FC  EFDF  F015         	goto	l2491
  1521   002800                     l2347:
  1522                           
  1523                           ;maincode02.c: 116:                 deco_centena[i] = num_8[i];
  1524   002800  0E68               	movlw	low _num_8
  1525   002802  2424               	addwf	decodificacion@i_493^(0+1280),w,c
  1526   002804  6ED9               	movwf	fsr2l,c
  1527   002806  0E05               	movlw	high _num_8
  1528   002808  2025               	addwfc	(decodificacion@i_493+1)^(0+1280),w,c
  1529   00280A  6EDA               	movwf	fsr2h,c
  1530   00280C  0E55               	movlw	low _deco_centena
  1531   00280E  2424               	addwf	decodificacion@i_493^(0+1280),w,c
  1532   002810  6EE1               	movwf	fsr1l,c
  1533   002812  0E05               	movlw	high _deco_centena
  1534   002814  2025               	addwfc	(decodificacion@i_493+1)^(0+1280),w,c
  1535   002816  6EE2               	movwf	fsr1h,c
  1536   002818  C4DF F4E7          	movff	indf2,indf1
  1537   00281C                     
  1538                           ;maincode02.c: 117:             }
  1539   00281C  4A24               	infsnz	decodificacion@i_493^(0+1280),f,c
  1540   00281E  2A25               	incf	(decodificacion@i_493+1)^(0+1280),f,c
  1541   002820  EFF0  F013         	goto	l2343
  1542   002824                     l2353:
  1543                           
  1544                           ;maincode02.c: 120:             for (int i = 0; i < 8; i++) {
  1545   002824  0E00               	movlw	0
  1546   002826  6E27               	movwf	(decodificacion@i_494+1)^(0+1280),c
  1547   002828  0E00               	movlw	0
  1548   00282A  6E26               	movwf	decodificacion@i_494^(0+1280),c
  1549   00282C                     l2355:
  1550   00282C  BE27               	btfsc	(decodificacion@i_494+1)^(0+1280),7,c
  1551   00282E  EF22  F014         	goto	u1101
  1552   002832  5027               	movf	(decodificacion@i_494+1)^(0+1280),w,c
  1553   002834  E109               	bnz	u1100
  1554   002836  0E08               	movlw	8
  1555   002838  5C26               	subwf	decodificacion@i_494^(0+1280),w,c
  1556   00283A  A0D8               	btfss	status,0,c
  1557   00283C  EF22  F014         	goto	u1101
  1558   002840  EF24  F014         	goto	u1100
  1559   002844                     u1101:
  1560   002844  EF26  F014         	goto	l2359
  1561   002848                     u1100:
  1562   002848  EFDF  F015         	goto	l2491
  1563   00284C                     l2359:
  1564                           
  1565                           ;maincode02.c: 121:                 deco_centena[i] = num_9[i];
  1566   00284C  0E60               	movlw	low _num_9
  1567   00284E  2426               	addwf	decodificacion@i_494^(0+1280),w,c
  1568   002850  6ED9               	movwf	fsr2l,c
  1569   002852  0E05               	movlw	high _num_9
  1570   002854  2027               	addwfc	(decodificacion@i_494+1)^(0+1280),w,c
  1571   002856  6EDA               	movwf	fsr2h,c
  1572   002858  0E55               	movlw	low _deco_centena
  1573   00285A  2426               	addwf	decodificacion@i_494^(0+1280),w,c
  1574   00285C  6EE1               	movwf	fsr1l,c
  1575   00285E  0E05               	movlw	high _deco_centena
  1576   002860  2027               	addwfc	(decodificacion@i_494+1)^(0+1280),w,c
  1577   002862  6EE2               	movwf	fsr1h,c
  1578   002864  C4DF F4E7          	movff	indf2,indf1
  1579   002868                     
  1580                           ;maincode02.c: 122:             }
  1581   002868  4A26               	infsnz	decodificacion@i_494^(0+1280),f,c
  1582   00286A  2A27               	incf	(decodificacion@i_494+1)^(0+1280),f,c
  1583   00286C  EF16  F014         	goto	l2355
  1584   002870                     l2367:
  1585   002870  5010               	movf	decodificacion@centena^(0+1280),w,c
  1586                           
  1587                           ; Switch size 1, requested type "simple"
  1588                           ; Number of cases is 10, Range of values is 0 to 9
  1589                           ; switch strategies available:
  1590                           ; Name         Instructions Cycles
  1591                           ; simple_byte           31    16 (average)
  1592                           ;	Chosen strategy is simple_byte
  1593   002872  0A00               	xorlw	0	; case 0
  1594   002874  B4D8               	btfsc	status,2,c
  1595   002876  EFBC  F012         	goto	l2245
  1596   00287A  0A01               	xorlw	1	; case 1
  1597   00287C  B4D8               	btfsc	status,2,c
  1598   00287E  EFE2  F012         	goto	l2257
  1599   002882  0A03               	xorlw	3	; case 2
  1600   002884  B4D8               	btfsc	status,2,c
  1601   002886  EF08  F013         	goto	l2269
  1602   00288A  0A01               	xorlw	1	; case 3
  1603   00288C  B4D8               	btfsc	status,2,c
  1604   00288E  EF2E  F013         	goto	l2281
  1605   002892  0A07               	xorlw	7	; case 4
  1606   002894  B4D8               	btfsc	status,2,c
  1607   002896  EF54  F013         	goto	l2293
  1608   00289A  0A01               	xorlw	1	; case 5
  1609   00289C  B4D8               	btfsc	status,2,c
  1610   00289E  EF7A  F013         	goto	l2305
  1611   0028A2  0A03               	xorlw	3	; case 6
  1612   0028A4  B4D8               	btfsc	status,2,c
  1613   0028A6  EFA0  F013         	goto	l2317
  1614   0028AA  0A01               	xorlw	1	; case 7
  1615   0028AC  B4D8               	btfsc	status,2,c
  1616   0028AE  EFC6  F013         	goto	l2329
  1617   0028B2  0A0F               	xorlw	15	; case 8
  1618   0028B4  B4D8               	btfsc	status,2,c
  1619   0028B6  EFEC  F013         	goto	l2341
  1620   0028BA  0A01               	xorlw	1	; case 9
  1621   0028BC  B4D8               	btfsc	status,2,c
  1622   0028BE  EF12  F014         	goto	l2353
  1623   0028C2  EFDF  F015         	goto	l2491
  1624   0028C6                     l2369:
  1625                           
  1626                           ;maincode02.c: 127:             for (int i = 0; i < 8; i++) {
  1627   0028C6  0E00               	movlw	0
  1628   0028C8  6E29               	movwf	(decodificacion@i_495+1)^(0+1280),c
  1629   0028CA  0E00               	movlw	0
  1630   0028CC  6E28               	movwf	decodificacion@i_495^(0+1280),c
  1631   0028CE                     l2371:
  1632   0028CE  BE29               	btfsc	(decodificacion@i_495+1)^(0+1280),7,c
  1633   0028D0  EF73  F014         	goto	u1111
  1634   0028D4  5029               	movf	(decodificacion@i_495+1)^(0+1280),w,c
  1635   0028D6  E109               	bnz	u1110
  1636   0028D8  0E08               	movlw	8
  1637   0028DA  5C28               	subwf	decodificacion@i_495^(0+1280),w,c
  1638   0028DC  A0D8               	btfss	status,0,c
  1639   0028DE  EF73  F014         	goto	u1111
  1640   0028E2  EF75  F014         	goto	u1110
  1641   0028E6                     u1111:
  1642   0028E6  EF77  F014         	goto	l2375
  1643   0028EA                     u1110:
  1644   0028EA  EF86  F017         	goto	l2615
  1645   0028EE                     l2375:
  1646                           
  1647                           ;maincode02.c: 128:                 deco_decena[i] = num_0[i];
  1648   0028EE  0EA8               	movlw	low _num_0
  1649   0028F0  2428               	addwf	decodificacion@i_495^(0+1280),w,c
  1650   0028F2  6ED9               	movwf	fsr2l,c
  1651   0028F4  0E05               	movlw	high _num_0
  1652   0028F6  2029               	addwfc	(decodificacion@i_495+1)^(0+1280),w,c
  1653   0028F8  6EDA               	movwf	fsr2h,c
  1654   0028FA  0E54               	movlw	low _deco_decena
  1655   0028FC  2428               	addwf	decodificacion@i_495^(0+1280),w,c
  1656   0028FE  6EE1               	movwf	fsr1l,c
  1657   002900  0E05               	movlw	high _deco_decena
  1658   002902  2029               	addwfc	(decodificacion@i_495+1)^(0+1280),w,c
  1659   002904  6EE2               	movwf	fsr1h,c
  1660   002906  C4DF F4E7          	movff	indf2,indf1
  1661   00290A                     
  1662                           ;maincode02.c: 129:             }
  1663   00290A  4A28               	infsnz	decodificacion@i_495^(0+1280),f,c
  1664   00290C  2A29               	incf	(decodificacion@i_495+1)^(0+1280),f,c
  1665   00290E  EF67  F014         	goto	l2371
  1666   002912                     l2381:
  1667                           
  1668                           ;maincode02.c: 132:             for (int i = 0; i < 8; i++) {
  1669   002912  0E00               	movlw	0
  1670   002914  6E2B               	movwf	(decodificacion@i_496+1)^(0+1280),c
  1671   002916  0E00               	movlw	0
  1672   002918  6E2A               	movwf	decodificacion@i_496^(0+1280),c
  1673   00291A                     l2383:
  1674   00291A  BE2B               	btfsc	(decodificacion@i_496+1)^(0+1280),7,c
  1675   00291C  EF99  F014         	goto	u1121
  1676   002920  502B               	movf	(decodificacion@i_496+1)^(0+1280),w,c
  1677   002922  E109               	bnz	u1120
  1678   002924  0E08               	movlw	8
  1679   002926  5C2A               	subwf	decodificacion@i_496^(0+1280),w,c
  1680   002928  A0D8               	btfss	status,0,c
  1681   00292A  EF99  F014         	goto	u1121
  1682   00292E  EF9B  F014         	goto	u1120
  1683   002932                     u1121:
  1684   002932  EF9D  F014         	goto	l2387
  1685   002936                     u1120:
  1686   002936  EF86  F017         	goto	l2615
  1687   00293A                     l2387:
  1688                           
  1689                           ;maincode02.c: 133:                 deco_decena[i] = num_1[i];
  1690   00293A  0EA0               	movlw	low _num_1
  1691   00293C  242A               	addwf	decodificacion@i_496^(0+1280),w,c
  1692   00293E  6ED9               	movwf	fsr2l,c
  1693   002940  0E05               	movlw	high _num_1
  1694   002942  202B               	addwfc	(decodificacion@i_496+1)^(0+1280),w,c
  1695   002944  6EDA               	movwf	fsr2h,c
  1696   002946  0E54               	movlw	low _deco_decena
  1697   002948  242A               	addwf	decodificacion@i_496^(0+1280),w,c
  1698   00294A  6EE1               	movwf	fsr1l,c
  1699   00294C  0E05               	movlw	high _deco_decena
  1700   00294E  202B               	addwfc	(decodificacion@i_496+1)^(0+1280),w,c
  1701   002950  6EE2               	movwf	fsr1h,c
  1702   002952  C4DF F4E7          	movff	indf2,indf1
  1703   002956                     
  1704                           ;maincode02.c: 134:             }
  1705   002956  4A2A               	infsnz	decodificacion@i_496^(0+1280),f,c
  1706   002958  2A2B               	incf	(decodificacion@i_496+1)^(0+1280),f,c
  1707   00295A  EF8D  F014         	goto	l2383
  1708   00295E                     l2393:
  1709                           
  1710                           ;maincode02.c: 137:             for (int i = 0; i < 8; i++) {
  1711   00295E  0E00               	movlw	0
  1712   002960  6E2D               	movwf	(decodificacion@i_497+1)^(0+1280),c
  1713   002962  0E00               	movlw	0
  1714   002964  6E2C               	movwf	decodificacion@i_497^(0+1280),c
  1715   002966                     l2395:
  1716   002966  BE2D               	btfsc	(decodificacion@i_497+1)^(0+1280),7,c
  1717   002968  EFBF  F014         	goto	u1131
  1718   00296C  502D               	movf	(decodificacion@i_497+1)^(0+1280),w,c
  1719   00296E  E109               	bnz	u1130
  1720   002970  0E08               	movlw	8
  1721   002972  5C2C               	subwf	decodificacion@i_497^(0+1280),w,c
  1722   002974  A0D8               	btfss	status,0,c
  1723   002976  EFBF  F014         	goto	u1131
  1724   00297A  EFC1  F014         	goto	u1130
  1725   00297E                     u1131:
  1726   00297E  EFC3  F014         	goto	l2399
  1727   002982                     u1130:
  1728   002982  EF86  F017         	goto	l2615
  1729   002986                     l2399:
  1730                           
  1731                           ;maincode02.c: 138:                 deco_decena[i] = num_2[i];
  1732   002986  0E98               	movlw	low _num_2
  1733   002988  242C               	addwf	decodificacion@i_497^(0+1280),w,c
  1734   00298A  6ED9               	movwf	fsr2l,c
  1735   00298C  0E05               	movlw	high _num_2
  1736   00298E  202D               	addwfc	(decodificacion@i_497+1)^(0+1280),w,c
  1737   002990  6EDA               	movwf	fsr2h,c
  1738   002992  0E54               	movlw	low _deco_decena
  1739   002994  242C               	addwf	decodificacion@i_497^(0+1280),w,c
  1740   002996  6EE1               	movwf	fsr1l,c
  1741   002998  0E05               	movlw	high _deco_decena
  1742   00299A  202D               	addwfc	(decodificacion@i_497+1)^(0+1280),w,c
  1743   00299C  6EE2               	movwf	fsr1h,c
  1744   00299E  C4DF F4E7          	movff	indf2,indf1
  1745   0029A2                     
  1746                           ;maincode02.c: 139:             }
  1747   0029A2  4A2C               	infsnz	decodificacion@i_497^(0+1280),f,c
  1748   0029A4  2A2D               	incf	(decodificacion@i_497+1)^(0+1280),f,c
  1749   0029A6  EFB3  F014         	goto	l2395
  1750   0029AA                     l2405:
  1751                           
  1752                           ;maincode02.c: 142:             for (int i = 0; i < 8; i++) {
  1753   0029AA  0E00               	movlw	0
  1754   0029AC  6E2F               	movwf	(decodificacion@i_498+1)^(0+1280),c
  1755   0029AE  0E00               	movlw	0
  1756   0029B0  6E2E               	movwf	decodificacion@i_498^(0+1280),c
  1757   0029B2                     l2407:
  1758   0029B2  BE2F               	btfsc	(decodificacion@i_498+1)^(0+1280),7,c
  1759   0029B4  EFE5  F014         	goto	u1141
  1760   0029B8  502F               	movf	(decodificacion@i_498+1)^(0+1280),w,c
  1761   0029BA  E109               	bnz	u1140
  1762   0029BC  0E08               	movlw	8
  1763   0029BE  5C2E               	subwf	decodificacion@i_498^(0+1280),w,c
  1764   0029C0  A0D8               	btfss	status,0,c
  1765   0029C2  EFE5  F014         	goto	u1141
  1766   0029C6  EFE7  F014         	goto	u1140
  1767   0029CA                     u1141:
  1768   0029CA  EFE9  F014         	goto	l2411
  1769   0029CE                     u1140:
  1770   0029CE  EF86  F017         	goto	l2615
  1771   0029D2                     l2411:
  1772                           
  1773                           ;maincode02.c: 143:                 deco_decena[i] = num_3[i];
  1774   0029D2  0E90               	movlw	low _num_3
  1775   0029D4  242E               	addwf	decodificacion@i_498^(0+1280),w,c
  1776   0029D6  6ED9               	movwf	fsr2l,c
  1777   0029D8  0E05               	movlw	high _num_3
  1778   0029DA  202F               	addwfc	(decodificacion@i_498+1)^(0+1280),w,c
  1779   0029DC  6EDA               	movwf	fsr2h,c
  1780   0029DE  0E54               	movlw	low _deco_decena
  1781   0029E0  242E               	addwf	decodificacion@i_498^(0+1280),w,c
  1782   0029E2  6EE1               	movwf	fsr1l,c
  1783   0029E4  0E05               	movlw	high _deco_decena
  1784   0029E6  202F               	addwfc	(decodificacion@i_498+1)^(0+1280),w,c
  1785   0029E8  6EE2               	movwf	fsr1h,c
  1786   0029EA  C4DF F4E7          	movff	indf2,indf1
  1787   0029EE                     
  1788                           ;maincode02.c: 144:             }
  1789   0029EE  4A2E               	infsnz	decodificacion@i_498^(0+1280),f,c
  1790   0029F0  2A2F               	incf	(decodificacion@i_498+1)^(0+1280),f,c
  1791   0029F2  EFD9  F014         	goto	l2407
  1792   0029F6                     l2417:
  1793                           
  1794                           ;maincode02.c: 147:             for (int i = 0; i < 8; i++) {
  1795   0029F6  0E00               	movlw	0
  1796   0029F8  6E31               	movwf	(decodificacion@i_499+1)^(0+1280),c
  1797   0029FA  0E00               	movlw	0
  1798   0029FC  6E30               	movwf	decodificacion@i_499^(0+1280),c
  1799   0029FE                     l2419:
  1800   0029FE  BE31               	btfsc	(decodificacion@i_499+1)^(0+1280),7,c
  1801   002A00  EF0B  F015         	goto	u1151
  1802   002A04  5031               	movf	(decodificacion@i_499+1)^(0+1280),w,c
  1803   002A06  E109               	bnz	u1150
  1804   002A08  0E08               	movlw	8
  1805   002A0A  5C30               	subwf	decodificacion@i_499^(0+1280),w,c
  1806   002A0C  A0D8               	btfss	status,0,c
  1807   002A0E  EF0B  F015         	goto	u1151
  1808   002A12  EF0D  F015         	goto	u1150
  1809   002A16                     u1151:
  1810   002A16  EF0F  F015         	goto	l2423
  1811   002A1A                     u1150:
  1812   002A1A  EF86  F017         	goto	l2615
  1813   002A1E                     l2423:
  1814                           
  1815                           ;maincode02.c: 148:                 deco_decena[i] = num_4[i];
  1816   002A1E  0E88               	movlw	low _num_4
  1817   002A20  2430               	addwf	decodificacion@i_499^(0+1280),w,c
  1818   002A22  6ED9               	movwf	fsr2l,c
  1819   002A24  0E05               	movlw	high _num_4
  1820   002A26  2031               	addwfc	(decodificacion@i_499+1)^(0+1280),w,c
  1821   002A28  6EDA               	movwf	fsr2h,c
  1822   002A2A  0E54               	movlw	low _deco_decena
  1823   002A2C  2430               	addwf	decodificacion@i_499^(0+1280),w,c
  1824   002A2E  6EE1               	movwf	fsr1l,c
  1825   002A30  0E05               	movlw	high _deco_decena
  1826   002A32  2031               	addwfc	(decodificacion@i_499+1)^(0+1280),w,c
  1827   002A34  6EE2               	movwf	fsr1h,c
  1828   002A36  C4DF F4E7          	movff	indf2,indf1
  1829   002A3A                     
  1830                           ;maincode02.c: 149:             }
  1831   002A3A  4A30               	infsnz	decodificacion@i_499^(0+1280),f,c
  1832   002A3C  2A31               	incf	(decodificacion@i_499+1)^(0+1280),f,c
  1833   002A3E  EFFF  F014         	goto	l2419
  1834   002A42                     l2429:
  1835                           
  1836                           ;maincode02.c: 152:             for (int i = 0; i < 8; i++) {
  1837   002A42  0E00               	movlw	0
  1838   002A44  6E33               	movwf	(decodificacion@i_500+1)^(0+1280),c
  1839   002A46  0E00               	movlw	0
  1840   002A48  6E32               	movwf	decodificacion@i_500^(0+1280),c
  1841   002A4A                     l2431:
  1842   002A4A  BE33               	btfsc	(decodificacion@i_500+1)^(0+1280),7,c
  1843   002A4C  EF31  F015         	goto	u1161
  1844   002A50  5033               	movf	(decodificacion@i_500+1)^(0+1280),w,c
  1845   002A52  E109               	bnz	u1160
  1846   002A54  0E08               	movlw	8
  1847   002A56  5C32               	subwf	decodificacion@i_500^(0+1280),w,c
  1848   002A58  A0D8               	btfss	status,0,c
  1849   002A5A  EF31  F015         	goto	u1161
  1850   002A5E  EF33  F015         	goto	u1160
  1851   002A62                     u1161:
  1852   002A62  EF35  F015         	goto	l2435
  1853   002A66                     u1160:
  1854   002A66  EF86  F017         	goto	l2615
  1855   002A6A                     l2435:
  1856                           
  1857                           ;maincode02.c: 153:                 deco_decena[i] = num_5[i];
  1858   002A6A  0E80               	movlw	low _num_5
  1859   002A6C  2432               	addwf	decodificacion@i_500^(0+1280),w,c
  1860   002A6E  6ED9               	movwf	fsr2l,c
  1861   002A70  0E05               	movlw	high _num_5
  1862   002A72  2033               	addwfc	(decodificacion@i_500+1)^(0+1280),w,c
  1863   002A74  6EDA               	movwf	fsr2h,c
  1864   002A76  0E54               	movlw	low _deco_decena
  1865   002A78  2432               	addwf	decodificacion@i_500^(0+1280),w,c
  1866   002A7A  6EE1               	movwf	fsr1l,c
  1867   002A7C  0E05               	movlw	high _deco_decena
  1868   002A7E  2033               	addwfc	(decodificacion@i_500+1)^(0+1280),w,c
  1869   002A80  6EE2               	movwf	fsr1h,c
  1870   002A82  C4DF F4E7          	movff	indf2,indf1
  1871   002A86                     
  1872                           ;maincode02.c: 154:             }
  1873   002A86  4A32               	infsnz	decodificacion@i_500^(0+1280),f,c
  1874   002A88  2A33               	incf	(decodificacion@i_500+1)^(0+1280),f,c
  1875   002A8A  EF25  F015         	goto	l2431
  1876   002A8E                     l2441:
  1877                           
  1878                           ;maincode02.c: 157:             for (int i = 0; i < 8; i++) {
  1879   002A8E  0E00               	movlw	0
  1880   002A90  6E35               	movwf	(decodificacion@i_501+1)^(0+1280),c
  1881   002A92  0E00               	movlw	0
  1882   002A94  6E34               	movwf	decodificacion@i_501^(0+1280),c
  1883   002A96                     l2443:
  1884   002A96  BE35               	btfsc	(decodificacion@i_501+1)^(0+1280),7,c
  1885   002A98  EF57  F015         	goto	u1171
  1886   002A9C  5035               	movf	(decodificacion@i_501+1)^(0+1280),w,c
  1887   002A9E  E109               	bnz	u1170
  1888   002AA0  0E08               	movlw	8
  1889   002AA2  5C34               	subwf	decodificacion@i_501^(0+1280),w,c
  1890   002AA4  A0D8               	btfss	status,0,c
  1891   002AA6  EF57  F015         	goto	u1171
  1892   002AAA  EF59  F015         	goto	u1170
  1893   002AAE                     u1171:
  1894   002AAE  EF5B  F015         	goto	l2447
  1895   002AB2                     u1170:
  1896   002AB2  EF86  F017         	goto	l2615
  1897   002AB6                     l2447:
  1898                           
  1899                           ;maincode02.c: 158:                 deco_decena[i] = num_6[i];
  1900   002AB6  0E78               	movlw	low _num_6
  1901   002AB8  2434               	addwf	decodificacion@i_501^(0+1280),w,c
  1902   002ABA  6ED9               	movwf	fsr2l,c
  1903   002ABC  0E05               	movlw	high _num_6
  1904   002ABE  2035               	addwfc	(decodificacion@i_501+1)^(0+1280),w,c
  1905   002AC0  6EDA               	movwf	fsr2h,c
  1906   002AC2  0E54               	movlw	low _deco_decena
  1907   002AC4  2434               	addwf	decodificacion@i_501^(0+1280),w,c
  1908   002AC6  6EE1               	movwf	fsr1l,c
  1909   002AC8  0E05               	movlw	high _deco_decena
  1910   002ACA  2035               	addwfc	(decodificacion@i_501+1)^(0+1280),w,c
  1911   002ACC  6EE2               	movwf	fsr1h,c
  1912   002ACE  C4DF F4E7          	movff	indf2,indf1
  1913   002AD2                     
  1914                           ;maincode02.c: 159:             }
  1915   002AD2  4A34               	infsnz	decodificacion@i_501^(0+1280),f,c
  1916   002AD4  2A35               	incf	(decodificacion@i_501+1)^(0+1280),f,c
  1917   002AD6  EF4B  F015         	goto	l2443
  1918   002ADA                     l2453:
  1919                           
  1920                           ;maincode02.c: 162:             for (int i = 0; i < 8; i++) {
  1921   002ADA  0E00               	movlw	0
  1922   002ADC  6E37               	movwf	(decodificacion@i_502+1)^(0+1280),c
  1923   002ADE  0E00               	movlw	0
  1924   002AE0  6E36               	movwf	decodificacion@i_502^(0+1280),c
  1925   002AE2                     l2455:
  1926   002AE2  BE37               	btfsc	(decodificacion@i_502+1)^(0+1280),7,c
  1927   002AE4  EF7D  F015         	goto	u1181
  1928   002AE8  5037               	movf	(decodificacion@i_502+1)^(0+1280),w,c
  1929   002AEA  E109               	bnz	u1180
  1930   002AEC  0E08               	movlw	8
  1931   002AEE  5C36               	subwf	decodificacion@i_502^(0+1280),w,c
  1932   002AF0  A0D8               	btfss	status,0,c
  1933   002AF2  EF7D  F015         	goto	u1181
  1934   002AF6  EF7F  F015         	goto	u1180
  1935   002AFA                     u1181:
  1936   002AFA  EF81  F015         	goto	l2459
  1937   002AFE                     u1180:
  1938   002AFE  EF86  F017         	goto	l2615
  1939   002B02                     l2459:
  1940                           
  1941                           ;maincode02.c: 163:                 deco_decena[i] = num_7[i];
  1942   002B02  0E70               	movlw	low _num_7
  1943   002B04  2436               	addwf	decodificacion@i_502^(0+1280),w,c
  1944   002B06  6ED9               	movwf	fsr2l,c
  1945   002B08  0E05               	movlw	high _num_7
  1946   002B0A  2037               	addwfc	(decodificacion@i_502+1)^(0+1280),w,c
  1947   002B0C  6EDA               	movwf	fsr2h,c
  1948   002B0E  0E54               	movlw	low _deco_decena
  1949   002B10  2436               	addwf	decodificacion@i_502^(0+1280),w,c
  1950   002B12  6EE1               	movwf	fsr1l,c
  1951   002B14  0E05               	movlw	high _deco_decena
  1952   002B16  2037               	addwfc	(decodificacion@i_502+1)^(0+1280),w,c
  1953   002B18  6EE2               	movwf	fsr1h,c
  1954   002B1A  C4DF F4E7          	movff	indf2,indf1
  1955   002B1E                     
  1956                           ;maincode02.c: 164:             }
  1957   002B1E  4A36               	infsnz	decodificacion@i_502^(0+1280),f,c
  1958   002B20  2A37               	incf	(decodificacion@i_502+1)^(0+1280),f,c
  1959   002B22  EF71  F015         	goto	l2455
  1960   002B26                     l2465:
  1961                           
  1962                           ;maincode02.c: 167:             for (int i = 0; i < 8; i++) {
  1963   002B26  0E00               	movlw	0
  1964   002B28  6E39               	movwf	(decodificacion@i_503+1)^(0+1280),c
  1965   002B2A  0E00               	movlw	0
  1966   002B2C  6E38               	movwf	decodificacion@i_503^(0+1280),c
  1967   002B2E                     l2467:
  1968   002B2E  BE39               	btfsc	(decodificacion@i_503+1)^(0+1280),7,c
  1969   002B30  EFA3  F015         	goto	u1191
  1970   002B34  5039               	movf	(decodificacion@i_503+1)^(0+1280),w,c
  1971   002B36  E109               	bnz	u1190
  1972   002B38  0E08               	movlw	8
  1973   002B3A  5C38               	subwf	decodificacion@i_503^(0+1280),w,c
  1974   002B3C  A0D8               	btfss	status,0,c
  1975   002B3E  EFA3  F015         	goto	u1191
  1976   002B42  EFA5  F015         	goto	u1190
  1977   002B46                     u1191:
  1978   002B46  EFA7  F015         	goto	l2471
  1979   002B4A                     u1190:
  1980   002B4A  EF86  F017         	goto	l2615
  1981   002B4E                     l2471:
  1982                           
  1983                           ;maincode02.c: 168:                 deco_decena[i] = num_8[i];
  1984   002B4E  0E68               	movlw	low _num_8
  1985   002B50  2438               	addwf	decodificacion@i_503^(0+1280),w,c
  1986   002B52  6ED9               	movwf	fsr2l,c
  1987   002B54  0E05               	movlw	high _num_8
  1988   002B56  2039               	addwfc	(decodificacion@i_503+1)^(0+1280),w,c
  1989   002B58  6EDA               	movwf	fsr2h,c
  1990   002B5A  0E54               	movlw	low _deco_decena
  1991   002B5C  2438               	addwf	decodificacion@i_503^(0+1280),w,c
  1992   002B5E  6EE1               	movwf	fsr1l,c
  1993   002B60  0E05               	movlw	high _deco_decena
  1994   002B62  2039               	addwfc	(decodificacion@i_503+1)^(0+1280),w,c
  1995   002B64  6EE2               	movwf	fsr1h,c
  1996   002B66  C4DF F4E7          	movff	indf2,indf1
  1997   002B6A                     
  1998                           ;maincode02.c: 169:             }
  1999   002B6A  4A38               	infsnz	decodificacion@i_503^(0+1280),f,c
  2000   002B6C  2A39               	incf	(decodificacion@i_503+1)^(0+1280),f,c
  2001   002B6E  EF97  F015         	goto	l2467
  2002   002B72                     l2477:
  2003                           
  2004                           ;maincode02.c: 172:             for (int i = 0; i < 8; i++) {
  2005   002B72  0E00               	movlw	0
  2006   002B74  6E3B               	movwf	(decodificacion@i_504+1)^(0+1280),c
  2007   002B76  0E00               	movlw	0
  2008   002B78  6E3A               	movwf	decodificacion@i_504^(0+1280),c
  2009   002B7A                     l2479:
  2010   002B7A  BE3B               	btfsc	(decodificacion@i_504+1)^(0+1280),7,c
  2011   002B7C  EFC9  F015         	goto	u1201
  2012   002B80  503B               	movf	(decodificacion@i_504+1)^(0+1280),w,c
  2013   002B82  E109               	bnz	u1200
  2014   002B84  0E08               	movlw	8
  2015   002B86  5C3A               	subwf	decodificacion@i_504^(0+1280),w,c
  2016   002B88  A0D8               	btfss	status,0,c
  2017   002B8A  EFC9  F015         	goto	u1201
  2018   002B8E  EFCB  F015         	goto	u1200
  2019   002B92                     u1201:
  2020   002B92  EFCD  F015         	goto	l2483
  2021   002B96                     u1200:
  2022   002B96  EF86  F017         	goto	l2615
  2023   002B9A                     l2483:
  2024                           
  2025                           ;maincode02.c: 173:                 deco_decena[i] = num_9[i];
  2026   002B9A  0E60               	movlw	low _num_9
  2027   002B9C  243A               	addwf	decodificacion@i_504^(0+1280),w,c
  2028   002B9E  6ED9               	movwf	fsr2l,c
  2029   002BA0  0E05               	movlw	high _num_9
  2030   002BA2  203B               	addwfc	(decodificacion@i_504+1)^(0+1280),w,c
  2031   002BA4  6EDA               	movwf	fsr2h,c
  2032   002BA6  0E54               	movlw	low _deco_decena
  2033   002BA8  243A               	addwf	decodificacion@i_504^(0+1280),w,c
  2034   002BAA  6EE1               	movwf	fsr1l,c
  2035   002BAC  0E05               	movlw	high _deco_decena
  2036   002BAE  203B               	addwfc	(decodificacion@i_504+1)^(0+1280),w,c
  2037   002BB0  6EE2               	movwf	fsr1h,c
  2038   002BB2  C4DF F4E7          	movff	indf2,indf1
  2039   002BB6                     
  2040                           ;maincode02.c: 174:             }
  2041   002BB6  4A3A               	infsnz	decodificacion@i_504^(0+1280),f,c
  2042   002BB8  2A3B               	incf	(decodificacion@i_504+1)^(0+1280),f,c
  2043   002BBA  EFBD  F015         	goto	l2479
  2044   002BBE                     l2491:
  2045   002BBE  5011               	movf	decodificacion@decena^(0+1280),w,c
  2046                           
  2047                           ; Switch size 1, requested type "simple"
  2048                           ; Number of cases is 10, Range of values is 0 to 9
  2049                           ; switch strategies available:
  2050                           ; Name         Instructions Cycles
  2051                           ; simple_byte           31    16 (average)
  2052                           ;	Chosen strategy is simple_byte
  2053   002BC0  0A00               	xorlw	0	; case 0
  2054   002BC2  B4D8               	btfsc	status,2,c
  2055   002BC4  EF63  F014         	goto	l2369
  2056   002BC8  0A01               	xorlw	1	; case 1
  2057   002BCA  B4D8               	btfsc	status,2,c
  2058   002BCC  EF89  F014         	goto	l2381
  2059   002BD0  0A03               	xorlw	3	; case 2
  2060   002BD2  B4D8               	btfsc	status,2,c
  2061   002BD4  EFAF  F014         	goto	l2393
  2062   002BD8  0A01               	xorlw	1	; case 3
  2063   002BDA  B4D8               	btfsc	status,2,c
  2064   002BDC  EFD5  F014         	goto	l2405
  2065   002BE0  0A07               	xorlw	7	; case 4
  2066   002BE2  B4D8               	btfsc	status,2,c
  2067   002BE4  EFFB  F014         	goto	l2417
  2068   002BE8  0A01               	xorlw	1	; case 5
  2069   002BEA  B4D8               	btfsc	status,2,c
  2070   002BEC  EF21  F015         	goto	l2429
  2071   002BF0  0A03               	xorlw	3	; case 6
  2072   002BF2  B4D8               	btfsc	status,2,c
  2073   002BF4  EF47  F015         	goto	l2441
  2074   002BF8  0A01               	xorlw	1	; case 7
  2075   002BFA  B4D8               	btfsc	status,2,c
  2076   002BFC  EF6D  F015         	goto	l2453
  2077   002C00  0A0F               	xorlw	15	; case 8
  2078   002C02  B4D8               	btfsc	status,2,c
  2079   002C04  EF93  F015         	goto	l2465
  2080   002C08  0A01               	xorlw	1	; case 9
  2081   002C0A  B4D8               	btfsc	status,2,c
  2082   002C0C  EFB9  F015         	goto	l2477
  2083   002C10  EF86  F017         	goto	l2615
  2084   002C14                     l2493:
  2085                           
  2086                           ;maincode02.c: 180:             for (int i = 0; i < 8; i++) {
  2087   002C14  0E00               	movlw	0
  2088   002C16  6E3D               	movwf	(decodificacion@i_505+1)^(0+1280),c
  2089   002C18  0E00               	movlw	0
  2090   002C1A  6E3C               	movwf	decodificacion@i_505^(0+1280),c
  2091   002C1C                     l2495:
  2092   002C1C  BE3D               	btfsc	(decodificacion@i_505+1)^(0+1280),7,c
  2093   002C1E  EF1A  F016         	goto	u1211
  2094   002C22  503D               	movf	(decodificacion@i_505+1)^(0+1280),w,c
  2095   002C24  E109               	bnz	u1210
  2096   002C26  0E08               	movlw	8
  2097   002C28  5C3C               	subwf	decodificacion@i_505^(0+1280),w,c
  2098   002C2A  A0D8               	btfss	status,0,c
  2099   002C2C  EF1A  F016         	goto	u1211
  2100   002C30  EF1C  F016         	goto	u1210
  2101   002C34                     u1211:
  2102   002C34  EF1E  F016         	goto	l2499
  2103   002C38                     u1210:
  2104   002C38  EFB1  F017         	goto	l377
  2105   002C3C                     l2499:
  2106                           
  2107                           ;maincode02.c: 181:                 deco_unidad[i] = num_0[i];
  2108   002C3C  0EA8               	movlw	low _num_0
  2109   002C3E  243C               	addwf	decodificacion@i_505^(0+1280),w,c
  2110   002C40  6ED9               	movwf	fsr2l,c
  2111   002C42  0E05               	movlw	high _num_0
  2112   002C44  203D               	addwfc	(decodificacion@i_505+1)^(0+1280),w,c
  2113   002C46  6EDA               	movwf	fsr2h,c
  2114   002C48  0E53               	movlw	low _deco_unidad
  2115   002C4A  243C               	addwf	decodificacion@i_505^(0+1280),w,c
  2116   002C4C  6EE1               	movwf	fsr1l,c
  2117   002C4E  0E05               	movlw	high _deco_unidad
  2118   002C50  203D               	addwfc	(decodificacion@i_505+1)^(0+1280),w,c
  2119   002C52  6EE2               	movwf	fsr1h,c
  2120   002C54  C4DF F4E7          	movff	indf2,indf1
  2121   002C58                     
  2122                           ;maincode02.c: 182:             }
  2123   002C58  4A3C               	infsnz	decodificacion@i_505^(0+1280),f,c
  2124   002C5A  2A3D               	incf	(decodificacion@i_505+1)^(0+1280),f,c
  2125   002C5C  EF0E  F016         	goto	l2495
  2126   002C60                     l2505:
  2127                           
  2128                           ;maincode02.c: 185:             for (int i = 0; i < 8; i++) {
  2129   002C60  0E00               	movlw	0
  2130   002C62  6E3F               	movwf	(decodificacion@i_506+1)^(0+1280),c
  2131   002C64  0E00               	movlw	0
  2132   002C66  6E3E               	movwf	decodificacion@i_506^(0+1280),c
  2133   002C68                     l2507:
  2134   002C68  BE3F               	btfsc	(decodificacion@i_506+1)^(0+1280),7,c
  2135   002C6A  EF40  F016         	goto	u1221
  2136   002C6E  503F               	movf	(decodificacion@i_506+1)^(0+1280),w,c
  2137   002C70  E109               	bnz	u1220
  2138   002C72  0E08               	movlw	8
  2139   002C74  5C3E               	subwf	decodificacion@i_506^(0+1280),w,c
  2140   002C76  A0D8               	btfss	status,0,c
  2141   002C78  EF40  F016         	goto	u1221
  2142   002C7C  EF42  F016         	goto	u1220
  2143   002C80                     u1221:
  2144   002C80  EF44  F016         	goto	l2511
  2145   002C84                     u1220:
  2146   002C84  EFB1  F017         	goto	l377
  2147   002C88                     l2511:
  2148                           
  2149                           ;maincode02.c: 186:                 deco_unidad[i] = num_1[i];
  2150   002C88  0EA0               	movlw	low _num_1
  2151   002C8A  243E               	addwf	decodificacion@i_506^(0+1280),w,c
  2152   002C8C  6ED9               	movwf	fsr2l,c
  2153   002C8E  0E05               	movlw	high _num_1
  2154   002C90  203F               	addwfc	(decodificacion@i_506+1)^(0+1280),w,c
  2155   002C92  6EDA               	movwf	fsr2h,c
  2156   002C94  0E53               	movlw	low _deco_unidad
  2157   002C96  243E               	addwf	decodificacion@i_506^(0+1280),w,c
  2158   002C98  6EE1               	movwf	fsr1l,c
  2159   002C9A  0E05               	movlw	high _deco_unidad
  2160   002C9C  203F               	addwfc	(decodificacion@i_506+1)^(0+1280),w,c
  2161   002C9E  6EE2               	movwf	fsr1h,c
  2162   002CA0  C4DF F4E7          	movff	indf2,indf1
  2163   002CA4                     
  2164                           ;maincode02.c: 187:             }
  2165   002CA4  4A3E               	infsnz	decodificacion@i_506^(0+1280),f,c
  2166   002CA6  2A3F               	incf	(decodificacion@i_506+1)^(0+1280),f,c
  2167   002CA8  EF34  F016         	goto	l2507
  2168   002CAC                     l2517:
  2169                           
  2170                           ;maincode02.c: 190:             for (int i = 0; i < 8; i++) {
  2171   002CAC  0E00               	movlw	0
  2172   002CAE  6E41               	movwf	(decodificacion@i_507+1)^(0+1280),c
  2173   002CB0  0E00               	movlw	0
  2174   002CB2  6E40               	movwf	decodificacion@i_507^(0+1280),c
  2175   002CB4                     l2519:
  2176   002CB4  BE41               	btfsc	(decodificacion@i_507+1)^(0+1280),7,c
  2177   002CB6  EF66  F016         	goto	u1231
  2178   002CBA  5041               	movf	(decodificacion@i_507+1)^(0+1280),w,c
  2179   002CBC  E109               	bnz	u1230
  2180   002CBE  0E08               	movlw	8
  2181   002CC0  5C40               	subwf	decodificacion@i_507^(0+1280),w,c
  2182   002CC2  A0D8               	btfss	status,0,c
  2183   002CC4  EF66  F016         	goto	u1231
  2184   002CC8  EF68  F016         	goto	u1230
  2185   002CCC                     u1231:
  2186   002CCC  EF6A  F016         	goto	l2523
  2187   002CD0                     u1230:
  2188   002CD0  EFB1  F017         	goto	l377
  2189   002CD4                     l2523:
  2190                           
  2191                           ;maincode02.c: 191:                 deco_unidad[i] = num_2[i];
  2192   002CD4  0E98               	movlw	low _num_2
  2193   002CD6  2440               	addwf	decodificacion@i_507^(0+1280),w,c
  2194   002CD8  6ED9               	movwf	fsr2l,c
  2195   002CDA  0E05               	movlw	high _num_2
  2196   002CDC  2041               	addwfc	(decodificacion@i_507+1)^(0+1280),w,c
  2197   002CDE  6EDA               	movwf	fsr2h,c
  2198   002CE0  0E53               	movlw	low _deco_unidad
  2199   002CE2  2440               	addwf	decodificacion@i_507^(0+1280),w,c
  2200   002CE4  6EE1               	movwf	fsr1l,c
  2201   002CE6  0E05               	movlw	high _deco_unidad
  2202   002CE8  2041               	addwfc	(decodificacion@i_507+1)^(0+1280),w,c
  2203   002CEA  6EE2               	movwf	fsr1h,c
  2204   002CEC  C4DF F4E7          	movff	indf2,indf1
  2205   002CF0                     
  2206                           ;maincode02.c: 192:             }
  2207   002CF0  4A40               	infsnz	decodificacion@i_507^(0+1280),f,c
  2208   002CF2  2A41               	incf	(decodificacion@i_507+1)^(0+1280),f,c
  2209   002CF4  EF5A  F016         	goto	l2519
  2210   002CF8                     l2529:
  2211                           
  2212                           ;maincode02.c: 195:             for (int i = 0; i < 8; i++) {
  2213   002CF8  0E00               	movlw	0
  2214   002CFA  6E43               	movwf	(decodificacion@i_508+1)^(0+1280),c
  2215   002CFC  0E00               	movlw	0
  2216   002CFE  6E42               	movwf	decodificacion@i_508^(0+1280),c
  2217   002D00                     l2531:
  2218   002D00  BE43               	btfsc	(decodificacion@i_508+1)^(0+1280),7,c
  2219   002D02  EF8C  F016         	goto	u1241
  2220   002D06  5043               	movf	(decodificacion@i_508+1)^(0+1280),w,c
  2221   002D08  E109               	bnz	u1240
  2222   002D0A  0E08               	movlw	8
  2223   002D0C  5C42               	subwf	decodificacion@i_508^(0+1280),w,c
  2224   002D0E  A0D8               	btfss	status,0,c
  2225   002D10  EF8C  F016         	goto	u1241
  2226   002D14  EF8E  F016         	goto	u1240
  2227   002D18                     u1241:
  2228   002D18  EF90  F016         	goto	l2535
  2229   002D1C                     u1240:
  2230   002D1C  EFB1  F017         	goto	l377
  2231   002D20                     l2535:
  2232                           
  2233                           ;maincode02.c: 196:                 deco_unidad[i] = num_3[i];
  2234   002D20  0E90               	movlw	low _num_3
  2235   002D22  2442               	addwf	decodificacion@i_508^(0+1280),w,c
  2236   002D24  6ED9               	movwf	fsr2l,c
  2237   002D26  0E05               	movlw	high _num_3
  2238   002D28  2043               	addwfc	(decodificacion@i_508+1)^(0+1280),w,c
  2239   002D2A  6EDA               	movwf	fsr2h,c
  2240   002D2C  0E53               	movlw	low _deco_unidad
  2241   002D2E  2442               	addwf	decodificacion@i_508^(0+1280),w,c
  2242   002D30  6EE1               	movwf	fsr1l,c
  2243   002D32  0E05               	movlw	high _deco_unidad
  2244   002D34  2043               	addwfc	(decodificacion@i_508+1)^(0+1280),w,c
  2245   002D36  6EE2               	movwf	fsr1h,c
  2246   002D38  C4DF F4E7          	movff	indf2,indf1
  2247   002D3C                     
  2248                           ;maincode02.c: 197:             }
  2249   002D3C  4A42               	infsnz	decodificacion@i_508^(0+1280),f,c
  2250   002D3E  2A43               	incf	(decodificacion@i_508+1)^(0+1280),f,c
  2251   002D40  EF80  F016         	goto	l2531
  2252   002D44                     l2541:
  2253                           
  2254                           ;maincode02.c: 200:             for (int i = 0; i < 8; i++) {
  2255   002D44  0E00               	movlw	0
  2256   002D46  6E45               	movwf	(decodificacion@i_509+1)^(0+1280),c
  2257   002D48  0E00               	movlw	0
  2258   002D4A  6E44               	movwf	decodificacion@i_509^(0+1280),c
  2259   002D4C                     l2543:
  2260   002D4C  BE45               	btfsc	(decodificacion@i_509+1)^(0+1280),7,c
  2261   002D4E  EFB2  F016         	goto	u1251
  2262   002D52  5045               	movf	(decodificacion@i_509+1)^(0+1280),w,c
  2263   002D54  E109               	bnz	u1250
  2264   002D56  0E08               	movlw	8
  2265   002D58  5C44               	subwf	decodificacion@i_509^(0+1280),w,c
  2266   002D5A  A0D8               	btfss	status,0,c
  2267   002D5C  EFB2  F016         	goto	u1251
  2268   002D60  EFB4  F016         	goto	u1250
  2269   002D64                     u1251:
  2270   002D64  EFB6  F016         	goto	l2547
  2271   002D68                     u1250:
  2272   002D68  EFB1  F017         	goto	l377
  2273   002D6C                     l2547:
  2274                           
  2275                           ;maincode02.c: 201:                 deco_unidad[i] = num_4[i];
  2276   002D6C  0E88               	movlw	low _num_4
  2277   002D6E  2444               	addwf	decodificacion@i_509^(0+1280),w,c
  2278   002D70  6ED9               	movwf	fsr2l,c
  2279   002D72  0E05               	movlw	high _num_4
  2280   002D74  2045               	addwfc	(decodificacion@i_509+1)^(0+1280),w,c
  2281   002D76  6EDA               	movwf	fsr2h,c
  2282   002D78  0E53               	movlw	low _deco_unidad
  2283   002D7A  2444               	addwf	decodificacion@i_509^(0+1280),w,c
  2284   002D7C  6EE1               	movwf	fsr1l,c
  2285   002D7E  0E05               	movlw	high _deco_unidad
  2286   002D80  2045               	addwfc	(decodificacion@i_509+1)^(0+1280),w,c
  2287   002D82  6EE2               	movwf	fsr1h,c
  2288   002D84  C4DF F4E7          	movff	indf2,indf1
  2289   002D88                     
  2290                           ;maincode02.c: 202:             }
  2291   002D88  4A44               	infsnz	decodificacion@i_509^(0+1280),f,c
  2292   002D8A  2A45               	incf	(decodificacion@i_509+1)^(0+1280),f,c
  2293   002D8C  EFA6  F016         	goto	l2543
  2294   002D90                     l2553:
  2295                           
  2296                           ;maincode02.c: 205:             for (int i = 0; i < 8; i++) {
  2297   002D90  0E00               	movlw	0
  2298   002D92  6E47               	movwf	(decodificacion@i_510+1)^(0+1280),c
  2299   002D94  0E00               	movlw	0
  2300   002D96  6E46               	movwf	decodificacion@i_510^(0+1280),c
  2301   002D98                     l2555:
  2302   002D98  BE47               	btfsc	(decodificacion@i_510+1)^(0+1280),7,c
  2303   002D9A  EFD8  F016         	goto	u1261
  2304   002D9E  5047               	movf	(decodificacion@i_510+1)^(0+1280),w,c
  2305   002DA0  E109               	bnz	u1260
  2306   002DA2  0E08               	movlw	8
  2307   002DA4  5C46               	subwf	decodificacion@i_510^(0+1280),w,c
  2308   002DA6  A0D8               	btfss	status,0,c
  2309   002DA8  EFD8  F016         	goto	u1261
  2310   002DAC  EFDA  F016         	goto	u1260
  2311   002DB0                     u1261:
  2312   002DB0  EFDC  F016         	goto	l2559
  2313   002DB4                     u1260:
  2314   002DB4  EFB1  F017         	goto	l377
  2315   002DB8                     l2559:
  2316                           
  2317                           ;maincode02.c: 206:                 deco_unidad[i] = num_5[i];
  2318   002DB8  0E80               	movlw	low _num_5
  2319   002DBA  2446               	addwf	decodificacion@i_510^(0+1280),w,c
  2320   002DBC  6ED9               	movwf	fsr2l,c
  2321   002DBE  0E05               	movlw	high _num_5
  2322   002DC0  2047               	addwfc	(decodificacion@i_510+1)^(0+1280),w,c
  2323   002DC2  6EDA               	movwf	fsr2h,c
  2324   002DC4  0E53               	movlw	low _deco_unidad
  2325   002DC6  2446               	addwf	decodificacion@i_510^(0+1280),w,c
  2326   002DC8  6EE1               	movwf	fsr1l,c
  2327   002DCA  0E05               	movlw	high _deco_unidad
  2328   002DCC  2047               	addwfc	(decodificacion@i_510+1)^(0+1280),w,c
  2329   002DCE  6EE2               	movwf	fsr1h,c
  2330   002DD0  C4DF F4E7          	movff	indf2,indf1
  2331   002DD4                     
  2332                           ;maincode02.c: 207:             }
  2333   002DD4  4A46               	infsnz	decodificacion@i_510^(0+1280),f,c
  2334   002DD6  2A47               	incf	(decodificacion@i_510+1)^(0+1280),f,c
  2335   002DD8  EFCC  F016         	goto	l2555
  2336   002DDC                     l2565:
  2337                           
  2338                           ;maincode02.c: 210:             for (int i = 0; i < 8; i++) {
  2339   002DDC  0E00               	movlw	0
  2340   002DDE  6E49               	movwf	(decodificacion@i_511+1)^(0+1280),c
  2341   002DE0  0E00               	movlw	0
  2342   002DE2  6E48               	movwf	decodificacion@i_511^(0+1280),c
  2343   002DE4                     l2567:
  2344   002DE4  BE49               	btfsc	(decodificacion@i_511+1)^(0+1280),7,c
  2345   002DE6  EFFE  F016         	goto	u1271
  2346   002DEA  5049               	movf	(decodificacion@i_511+1)^(0+1280),w,c
  2347   002DEC  E109               	bnz	u1270
  2348   002DEE  0E08               	movlw	8
  2349   002DF0  5C48               	subwf	decodificacion@i_511^(0+1280),w,c
  2350   002DF2  A0D8               	btfss	status,0,c
  2351   002DF4  EFFE  F016         	goto	u1271
  2352   002DF8  EF00  F017         	goto	u1270
  2353   002DFC                     u1271:
  2354   002DFC  EF02  F017         	goto	l2571
  2355   002E00                     u1270:
  2356   002E00  EFB1  F017         	goto	l377
  2357   002E04                     l2571:
  2358                           
  2359                           ;maincode02.c: 211:                 deco_unidad[i] = num_6[i];
  2360   002E04  0E78               	movlw	low _num_6
  2361   002E06  2448               	addwf	decodificacion@i_511^(0+1280),w,c
  2362   002E08  6ED9               	movwf	fsr2l,c
  2363   002E0A  0E05               	movlw	high _num_6
  2364   002E0C  2049               	addwfc	(decodificacion@i_511+1)^(0+1280),w,c
  2365   002E0E  6EDA               	movwf	fsr2h,c
  2366   002E10  0E53               	movlw	low _deco_unidad
  2367   002E12  2448               	addwf	decodificacion@i_511^(0+1280),w,c
  2368   002E14  6EE1               	movwf	fsr1l,c
  2369   002E16  0E05               	movlw	high _deco_unidad
  2370   002E18  2049               	addwfc	(decodificacion@i_511+1)^(0+1280),w,c
  2371   002E1A  6EE2               	movwf	fsr1h,c
  2372   002E1C  C4DF F4E7          	movff	indf2,indf1
  2373   002E20                     
  2374                           ;maincode02.c: 212:             }
  2375   002E20  4A48               	infsnz	decodificacion@i_511^(0+1280),f,c
  2376   002E22  2A49               	incf	(decodificacion@i_511+1)^(0+1280),f,c
  2377   002E24  EFF2  F016         	goto	l2567
  2378   002E28                     l2577:
  2379                           
  2380                           ;maincode02.c: 215:             for (int i = 0; i < 8; i++) {
  2381   002E28  0E00               	movlw	0
  2382   002E2A  6E4B               	movwf	(decodificacion@i_512+1)^(0+1280),c
  2383   002E2C  0E00               	movlw	0
  2384   002E2E  6E4A               	movwf	decodificacion@i_512^(0+1280),c
  2385   002E30                     l2579:
  2386   002E30  BE4B               	btfsc	(decodificacion@i_512+1)^(0+1280),7,c
  2387   002E32  EF24  F017         	goto	u1281
  2388   002E36  504B               	movf	(decodificacion@i_512+1)^(0+1280),w,c
  2389   002E38  E109               	bnz	u1280
  2390   002E3A  0E08               	movlw	8
  2391   002E3C  5C4A               	subwf	decodificacion@i_512^(0+1280),w,c
  2392   002E3E  A0D8               	btfss	status,0,c
  2393   002E40  EF24  F017         	goto	u1281
  2394   002E44  EF26  F017         	goto	u1280
  2395   002E48                     u1281:
  2396   002E48  EF28  F017         	goto	l2583
  2397   002E4C                     u1280:
  2398   002E4C  EFB1  F017         	goto	l377
  2399   002E50                     l2583:
  2400                           
  2401                           ;maincode02.c: 216:                 deco_unidad[i] = num_7[i];
  2402   002E50  0E70               	movlw	low _num_7
  2403   002E52  244A               	addwf	decodificacion@i_512^(0+1280),w,c
  2404   002E54  6ED9               	movwf	fsr2l,c
  2405   002E56  0E05               	movlw	high _num_7
  2406   002E58  204B               	addwfc	(decodificacion@i_512+1)^(0+1280),w,c
  2407   002E5A  6EDA               	movwf	fsr2h,c
  2408   002E5C  0E53               	movlw	low _deco_unidad
  2409   002E5E  244A               	addwf	decodificacion@i_512^(0+1280),w,c
  2410   002E60  6EE1               	movwf	fsr1l,c
  2411   002E62  0E05               	movlw	high _deco_unidad
  2412   002E64  204B               	addwfc	(decodificacion@i_512+1)^(0+1280),w,c
  2413   002E66  6EE2               	movwf	fsr1h,c
  2414   002E68  C4DF F4E7          	movff	indf2,indf1
  2415   002E6C                     
  2416                           ;maincode02.c: 217:             }
  2417   002E6C  4A4A               	infsnz	decodificacion@i_512^(0+1280),f,c
  2418   002E6E  2A4B               	incf	(decodificacion@i_512+1)^(0+1280),f,c
  2419   002E70  EF18  F017         	goto	l2579
  2420   002E74                     l2589:
  2421                           
  2422                           ;maincode02.c: 220:             for (int i = 0; i < 8; i++) {
  2423   002E74  0E00               	movlw	0
  2424   002E76  6E4D               	movwf	(decodificacion@i_513+1)^(0+1280),c
  2425   002E78  0E00               	movlw	0
  2426   002E7A  6E4C               	movwf	decodificacion@i_513^(0+1280),c
  2427   002E7C                     l2591:
  2428   002E7C  BE4D               	btfsc	(decodificacion@i_513+1)^(0+1280),7,c
  2429   002E7E  EF4A  F017         	goto	u1291
  2430   002E82  504D               	movf	(decodificacion@i_513+1)^(0+1280),w,c
  2431   002E84  E109               	bnz	u1290
  2432   002E86  0E08               	movlw	8
  2433   002E88  5C4C               	subwf	decodificacion@i_513^(0+1280),w,c
  2434   002E8A  A0D8               	btfss	status,0,c
  2435   002E8C  EF4A  F017         	goto	u1291
  2436   002E90  EF4C  F017         	goto	u1290
  2437   002E94                     u1291:
  2438   002E94  EF4E  F017         	goto	l2595
  2439   002E98                     u1290:
  2440   002E98  EFB1  F017         	goto	l377
  2441   002E9C                     l2595:
  2442                           
  2443                           ;maincode02.c: 221:                 deco_unidad[i] = num_8[i];
  2444   002E9C  0E68               	movlw	low _num_8
  2445   002E9E  244C               	addwf	decodificacion@i_513^(0+1280),w,c
  2446   002EA0  6ED9               	movwf	fsr2l,c
  2447   002EA2  0E05               	movlw	high _num_8
  2448   002EA4  204D               	addwfc	(decodificacion@i_513+1)^(0+1280),w,c
  2449   002EA6  6EDA               	movwf	fsr2h,c
  2450   002EA8  0E53               	movlw	low _deco_unidad
  2451   002EAA  244C               	addwf	decodificacion@i_513^(0+1280),w,c
  2452   002EAC  6EE1               	movwf	fsr1l,c
  2453   002EAE  0E05               	movlw	high _deco_unidad
  2454   002EB0  204D               	addwfc	(decodificacion@i_513+1)^(0+1280),w,c
  2455   002EB2  6EE2               	movwf	fsr1h,c
  2456   002EB4  C4DF F4E7          	movff	indf2,indf1
  2457   002EB8                     
  2458                           ;maincode02.c: 222:             }
  2459   002EB8  4A4C               	infsnz	decodificacion@i_513^(0+1280),f,c
  2460   002EBA  2A4D               	incf	(decodificacion@i_513+1)^(0+1280),f,c
  2461   002EBC  EF3E  F017         	goto	l2591
  2462   002EC0                     l2601:
  2463                           
  2464                           ;maincode02.c: 225:             for (int i = 0; i < 8; i++) {
  2465   002EC0  0E00               	movlw	0
  2466   002EC2  6E4F               	movwf	(decodificacion@i_514+1)^(0+1280),c
  2467   002EC4  0E00               	movlw	0
  2468   002EC6  6E4E               	movwf	decodificacion@i_514^(0+1280),c
  2469   002EC8                     l2603:
  2470   002EC8  BE4F               	btfsc	(decodificacion@i_514+1)^(0+1280),7,c
  2471   002ECA  EF70  F017         	goto	u1301
  2472   002ECE  504F               	movf	(decodificacion@i_514+1)^(0+1280),w,c
  2473   002ED0  E109               	bnz	u1300
  2474   002ED2  0E08               	movlw	8
  2475   002ED4  5C4E               	subwf	decodificacion@i_514^(0+1280),w,c
  2476   002ED6  A0D8               	btfss	status,0,c
  2477   002ED8  EF70  F017         	goto	u1301
  2478   002EDC  EF72  F017         	goto	u1300
  2479   002EE0                     u1301:
  2480   002EE0  EF74  F017         	goto	l2607
  2481   002EE4                     u1300:
  2482   002EE4  EFB1  F017         	goto	l377
  2483   002EE8                     l2607:
  2484                           
  2485                           ;maincode02.c: 226:                 deco_unidad[i] = num_9[i];
  2486   002EE8  0E60               	movlw	low _num_9
  2487   002EEA  244E               	addwf	decodificacion@i_514^(0+1280),w,c
  2488   002EEC  6ED9               	movwf	fsr2l,c
  2489   002EEE  0E05               	movlw	high _num_9
  2490   002EF0  204F               	addwfc	(decodificacion@i_514+1)^(0+1280),w,c
  2491   002EF2  6EDA               	movwf	fsr2h,c
  2492   002EF4  0E53               	movlw	low _deco_unidad
  2493   002EF6  244E               	addwf	decodificacion@i_514^(0+1280),w,c
  2494   002EF8  6EE1               	movwf	fsr1l,c
  2495   002EFA  0E05               	movlw	high _deco_unidad
  2496   002EFC  204F               	addwfc	(decodificacion@i_514+1)^(0+1280),w,c
  2497   002EFE  6EE2               	movwf	fsr1h,c
  2498   002F00  C4DF F4E7          	movff	indf2,indf1
  2499   002F04                     
  2500                           ;maincode02.c: 227:             }
  2501   002F04  4A4E               	infsnz	decodificacion@i_514^(0+1280),f,c
  2502   002F06  2A4F               	incf	(decodificacion@i_514+1)^(0+1280),f,c
  2503   002F08  EF64  F017         	goto	l2603
  2504   002F0C                     l2615:
  2505   002F0C  5012               	movf	decodificacion@unidad^(0+1280),w,c
  2506                           
  2507                           ; Switch size 1, requested type "simple"
  2508                           ; Number of cases is 10, Range of values is 0 to 9
  2509                           ; switch strategies available:
  2510                           ; Name         Instructions Cycles
  2511                           ; simple_byte           31    16 (average)
  2512                           ;	Chosen strategy is simple_byte
  2513   002F0E  0A00               	xorlw	0	; case 0
  2514   002F10  B4D8               	btfsc	status,2,c
  2515   002F12  EF0A  F016         	goto	l2493
  2516   002F16  0A01               	xorlw	1	; case 1
  2517   002F18  B4D8               	btfsc	status,2,c
  2518   002F1A  EF30  F016         	goto	l2505
  2519   002F1E  0A03               	xorlw	3	; case 2
  2520   002F20  B4D8               	btfsc	status,2,c
  2521   002F22  EF56  F016         	goto	l2517
  2522   002F26  0A01               	xorlw	1	; case 3
  2523   002F28  B4D8               	btfsc	status,2,c
  2524   002F2A  EF7C  F016         	goto	l2529
  2525   002F2E  0A07               	xorlw	7	; case 4
  2526   002F30  B4D8               	btfsc	status,2,c
  2527   002F32  EFA2  F016         	goto	l2541
  2528   002F36  0A01               	xorlw	1	; case 5
  2529   002F38  B4D8               	btfsc	status,2,c
  2530   002F3A  EFC8  F016         	goto	l2553
  2531   002F3E  0A03               	xorlw	3	; case 6
  2532   002F40  B4D8               	btfsc	status,2,c
  2533   002F42  EFEE  F016         	goto	l2565
  2534   002F46  0A01               	xorlw	1	; case 7
  2535   002F48  B4D8               	btfsc	status,2,c
  2536   002F4A  EF14  F017         	goto	l2577
  2537   002F4E  0A0F               	xorlw	15	; case 8
  2538   002F50  B4D8               	btfsc	status,2,c
  2539   002F52  EF3A  F017         	goto	l2589
  2540   002F56  0A01               	xorlw	1	; case 9
  2541   002F58  B4D8               	btfsc	status,2,c
  2542   002F5A  EF60  F017         	goto	l2601
  2543   002F5E  EFB1  F017         	goto	l377
  2544   002F62                     l377:
  2545   002F62  0012               	return		;funcret
  2546   002F64                     __end_of_decodificacion:
  2547                           	callstack 0
  2548                           
  2549 ;; *************** function ___awmod *****************
  2550 ;; Defined at:
  2551 ;;		line 7 in file "C:\Program Files\Microchip\xc8\v2.46\pic\sources\c99\common\awmod.c"
  2552 ;; Parameters:    Size  Location     Type
  2553 ;;  dividend        2    1[COMRAM] int 
  2554 ;;  divisor         2    3[COMRAM] int 
  2555 ;; Auto vars:     Size  Location     Type
  2556 ;;  sign            1    6[COMRAM] unsigned char 
  2557 ;;  counter         1    5[COMRAM] unsigned char 
  2558 ;; Return value:  Size  Location     Type
  2559 ;;                  2    1[COMRAM] int 
  2560 ;; Registers used:
  2561 ;;		wreg, status,2, status,0
  2562 ;; Tracked objects:
  2563 ;;		On entry : 0/0
  2564 ;;		On exit  : 0/0
  2565 ;;		Unchanged: 0/0
  2566 ;; Data sizes:     COMRAM   BANK5   BANK6   BANK7   BANK8   BANK9  BANK10  BANK11  BANK12  BANK13  BANK14  BANK15  BANK1
      +6  BANK17  BANK18  BANK19  BANK20  BANK21  BANK22  BANK23  BANK24  BANK25  BANK26  BANK27  BANK28  BANK29  BANK30  BANK3
      +1  BANK32  BANK33  BANK34  BANK35  BANK36
  2567 ;;      Params:         4       0       0       0       0       0       0       0       0       0       0       0       
      +0       0       0       0       0       0       0       0       0       0       0       0       0       0       0       
      +0       0       0       0       0       0
  2568 ;;      Locals:         2       0       0       0       0       0       0       0       0       0       0       0       
      +0       0       0       0       0       0       0       0       0       0       0       0       0       0       0       
      +0       0       0       0       0       0
  2569 ;;      Temps:          0       0       0       0       0       0       0       0       0       0       0       0       
      +0       0       0       0       0       0       0       0       0       0       0       0       0       0       0       
      +0       0       0       0       0       0
  2570 ;;      Totals:         6       0       0       0       0       0       0       0       0       0       0       0       
      +0       0       0       0       0       0       0       0       0       0       0       0       0       0       0       
      +0       0       0       0       0       0
  2571 ;;Total ram usage:        6 bytes
  2572 ;; Hardware stack levels used: 1
  2573 ;; Hardware stack levels required when called: 1
  2574 ;; This function calls:
  2575 ;;		Nothing
  2576 ;; This function is called by:
  2577 ;;		_decodificacion
  2578 ;;		_LCD_ESCRIBE_VAR_CHAR
  2579 ;; This function uses a non-reentrant model
  2580 ;;
  2581                           
  2582                           	psect	text2
  2583   003270                     __ptext2:
  2584                           	callstack 0
  2585   003270                     ___awmod:
  2586                           	callstack 124
  2587   003270  0E00               	movlw	0
  2588   003272  6E07               	movwf	___awmod@sign^(0+1280),c
  2589   003274  BE03               	btfsc	(___awmod@dividend+1)^(0+1280),7,c
  2590   003276  EF41  F019         	goto	u900
  2591   00327A  EF3F  F019         	goto	u901
  2592   00327E                     u901:
  2593   00327E  EF47  F019         	goto	l2167
  2594   003282                     u900:
  2595   003282  6C02               	negf	___awmod@dividend^(0+1280),c
  2596   003284  1E03               	comf	(___awmod@dividend+1)^(0+1280),f,c
  2597   003286  B0D8               	btfsc	status,0,c
  2598   003288  2A03               	incf	(___awmod@dividend+1)^(0+1280),f,c
  2599   00328A  0E01               	movlw	1
  2600   00328C  6E07               	movwf	___awmod@sign^(0+1280),c
  2601   00328E                     l2167:
  2602   00328E  BE05               	btfsc	(___awmod@divisor+1)^(0+1280),7,c
  2603   003290  EF4E  F019         	goto	u910
  2604   003294  EF4C  F019         	goto	u911
  2605   003298                     u911:
  2606   003298  EF52  F019         	goto	l2171
  2607   00329C                     u910:
  2608   00329C  6C04               	negf	___awmod@divisor^(0+1280),c
  2609   00329E  1E05               	comf	(___awmod@divisor+1)^(0+1280),f,c
  2610   0032A0  B0D8               	btfsc	status,0,c
  2611   0032A2  2A05               	incf	(___awmod@divisor+1)^(0+1280),f,c
  2612   0032A4                     l2171:
  2613   0032A4  5004               	movf	___awmod@divisor^(0+1280),w,c
  2614   0032A6  1005               	iorwf	(___awmod@divisor+1)^(0+1280),w,c
  2615   0032A8  B4D8               	btfsc	status,2,c
  2616   0032AA  EF59  F019         	goto	u921
  2617   0032AE  EF5B  F019         	goto	u920
  2618   0032B2                     u921:
  2619   0032B2  EF7F  F019         	goto	l2187
  2620   0032B6                     u920:
  2621   0032B6  0E01               	movlw	1
  2622   0032B8  6E06               	movwf	___awmod@counter^(0+1280),c
  2623   0032BA  EF63  F019         	goto	l2177
  2624   0032BE                     l2175:
  2625   0032BE  90D8               	bcf	status,0,c
  2626   0032C0  3604               	rlcf	___awmod@divisor^(0+1280),f,c
  2627   0032C2  3605               	rlcf	(___awmod@divisor+1)^(0+1280),f,c
  2628   0032C4  2A06               	incf	___awmod@counter^(0+1280),f,c
  2629   0032C6                     l2177:
  2630   0032C6  AE05               	btfss	(___awmod@divisor+1)^(0+1280),7,c
  2631   0032C8  EF68  F019         	goto	u931
  2632   0032CC  EF6A  F019         	goto	u930
  2633   0032D0                     u931:
  2634   0032D0  EF5F  F019         	goto	l2175
  2635   0032D4                     u930:
  2636   0032D4                     l2179:
  2637   0032D4  5004               	movf	___awmod@divisor^(0+1280),w,c
  2638   0032D6  5C02               	subwf	___awmod@dividend^(0+1280),w,c
  2639   0032D8  5005               	movf	(___awmod@divisor+1)^(0+1280),w,c
  2640   0032DA  5803               	subwfb	(___awmod@dividend+1)^(0+1280),w,c
  2641   0032DC  A0D8               	btfss	status,0,c
  2642   0032DE  EF73  F019         	goto	u941
  2643   0032E2  EF75  F019         	goto	u940
  2644   0032E6                     u941:
  2645   0032E6  EF79  F019         	goto	l2183
  2646   0032EA                     u940:
  2647   0032EA  5004               	movf	___awmod@divisor^(0+1280),w,c
  2648   0032EC  5E02               	subwf	___awmod@dividend^(0+1280),f,c
  2649   0032EE  5005               	movf	(___awmod@divisor+1)^(0+1280),w,c
  2650   0032F0  5A03               	subwfb	(___awmod@dividend+1)^(0+1280),f,c
  2651   0032F2                     l2183:
  2652   0032F2  90D8               	bcf	status,0,c
  2653   0032F4  3205               	rrcf	(___awmod@divisor+1)^(0+1280),f,c
  2654   0032F6  3204               	rrcf	___awmod@divisor^(0+1280),f,c
  2655   0032F8  2E06               	decfsz	___awmod@counter^(0+1280),f,c
  2656   0032FA  EF6A  F019         	goto	l2179
  2657   0032FE                     l2187:
  2658   0032FE  5007               	movf	___awmod@sign^(0+1280),w,c
  2659   003300  B4D8               	btfsc	status,2,c
  2660   003302  EF85  F019         	goto	u951
  2661   003306  EF87  F019         	goto	u950
  2662   00330A                     u951:
  2663   00330A  EF8B  F019         	goto	l2191
  2664   00330E                     u950:
  2665   00330E  6C02               	negf	___awmod@dividend^(0+1280),c
  2666   003310  1E03               	comf	(___awmod@dividend+1)^(0+1280),f,c
  2667   003312  B0D8               	btfsc	status,0,c
  2668   003314  2A03               	incf	(___awmod@dividend+1)^(0+1280),f,c
  2669   003316                     l2191:
  2670   003316  C502  F502         	movff	___awmod@dividend,?___awmod
  2671   00331A  C503  F503         	movff	___awmod@dividend+1,?___awmod+1
  2672   00331E  0012               	return		;funcret
  2673   003320                     __end_of___awmod:
  2674                           	callstack 0
  2675                           
  2676 ;; *************** function ___awdiv *****************
  2677 ;; Defined at:
  2678 ;;		line 7 in file "C:\Program Files\Microchip\xc8\v2.46\pic\sources\c99\common\awdiv.c"
  2679 ;; Parameters:    Size  Location     Type
  2680 ;;  dividend        2    7[COMRAM] int 
  2681 ;;  divisor         2    9[COMRAM] int 
  2682 ;; Auto vars:     Size  Location     Type
  2683 ;;  quotient        2   13[COMRAM] int 
  2684 ;;  sign            1   12[COMRAM] unsigned char 
  2685 ;;  counter         1   11[COMRAM] unsigned char 
  2686 ;; Return value:  Size  Location     Type
  2687 ;;                  2    7[COMRAM] int 
  2688 ;; Registers used:
  2689 ;;		wreg, status,2, status,0
  2690 ;; Tracked objects:
  2691 ;;		On entry : 0/0
  2692 ;;		On exit  : 0/0
  2693 ;;		Unchanged: 0/0
  2694 ;; Data sizes:     COMRAM   BANK5   BANK6   BANK7   BANK8   BANK9  BANK10  BANK11  BANK12  BANK13  BANK14  BANK15  BANK1
      +6  BANK17  BANK18  BANK19  BANK20  BANK21  BANK22  BANK23  BANK24  BANK25  BANK26  BANK27  BANK28  BANK29  BANK30  BANK3
      +1  BANK32  BANK33  BANK34  BANK35  BANK36
  2695 ;;      Params:         4       0       0       0       0       0       0       0       0       0       0       0       
      +0       0       0       0       0       0       0       0       0       0       0       0       0       0       0       
      +0       0       0       0       0       0
  2696 ;;      Locals:         4       0       0       0       0       0       0       0       0       0       0       0       
      +0       0       0       0       0       0       0       0       0       0       0       0       0       0       0       
      +0       0       0       0       0       0
  2697 ;;      Temps:          0       0       0       0       0       0       0       0       0       0       0       0       
      +0       0       0       0       0       0       0       0       0       0       0       0       0       0       0       
      +0       0       0       0       0       0
  2698 ;;      Totals:         8       0       0       0       0       0       0       0       0       0       0       0       
      +0       0       0       0       0       0       0       0       0       0       0       0       0       0       0       
      +0       0       0       0       0       0
  2699 ;;Total ram usage:        8 bytes
  2700 ;; Hardware stack levels used: 1
  2701 ;; Hardware stack levels required when called: 1
  2702 ;; This function calls:
  2703 ;;		Nothing
  2704 ;; This function is called by:
  2705 ;;		_decodificacion
  2706 ;;		_LCD_ESCRIBE_VAR_CHAR
  2707 ;; This function uses a non-reentrant model
  2708 ;;
  2709                           
  2710                           	psect	text3
  2711   0031AC                     __ptext3:
  2712                           	callstack 0
  2713   0031AC                     ___awdiv:
  2714                           	callstack 124
  2715   0031AC  0E00               	movlw	0
  2716   0031AE  6E0D               	movwf	___awdiv@sign^(0+1280),c
  2717   0031B0  BE0B               	btfsc	(___awdiv@divisor+1)^(0+1280),7,c
  2718   0031B2  EFDF  F018         	goto	u840
  2719   0031B6  EFDD  F018         	goto	u841
  2720   0031BA                     u841:
  2721   0031BA  EFE5  F018         	goto	l2123
  2722   0031BE                     u840:
  2723   0031BE  6C0A               	negf	___awdiv@divisor^(0+1280),c
  2724   0031C0  1E0B               	comf	(___awdiv@divisor+1)^(0+1280),f,c
  2725   0031C2  B0D8               	btfsc	status,0,c
  2726   0031C4  2A0B               	incf	(___awdiv@divisor+1)^(0+1280),f,c
  2727   0031C6  0E01               	movlw	1
  2728   0031C8  6E0D               	movwf	___awdiv@sign^(0+1280),c
  2729   0031CA                     l2123:
  2730   0031CA  BE09               	btfsc	(___awdiv@dividend+1)^(0+1280),7,c
  2731   0031CC  EFEC  F018         	goto	u850
  2732   0031D0  EFEA  F018         	goto	u851
  2733   0031D4                     u851:
  2734   0031D4  EFF2  F018         	goto	l2129
  2735   0031D8                     u850:
  2736   0031D8  6C08               	negf	___awdiv@dividend^(0+1280),c
  2737   0031DA  1E09               	comf	(___awdiv@dividend+1)^(0+1280),f,c
  2738   0031DC  B0D8               	btfsc	status,0,c
  2739   0031DE  2A09               	incf	(___awdiv@dividend+1)^(0+1280),f,c
  2740   0031E0  0E01               	movlw	1
  2741   0031E2  1A0D               	xorwf	___awdiv@sign^(0+1280),f,c
  2742   0031E4                     l2129:
  2743   0031E4  0E00               	movlw	0
  2744   0031E6  6E0F               	movwf	(___awdiv@quotient+1)^(0+1280),c
  2745   0031E8  0E00               	movlw	0
  2746   0031EA  6E0E               	movwf	___awdiv@quotient^(0+1280),c
  2747   0031EC  500A               	movf	___awdiv@divisor^(0+1280),w,c
  2748   0031EE  100B               	iorwf	(___awdiv@divisor+1)^(0+1280),w,c
  2749   0031F0  B4D8               	btfsc	status,2,c
  2750   0031F2  EFFD  F018         	goto	u861
  2751   0031F6  EFFF  F018         	goto	u860
  2752   0031FA                     u861:
  2753   0031FA  EF27  F019         	goto	l2151
  2754   0031FE                     u860:
  2755   0031FE  0E01               	movlw	1
  2756   003200  6E0C               	movwf	___awdiv@counter^(0+1280),c
  2757   003202  EF07  F019         	goto	l2137
  2758   003206                     l2135:
  2759   003206  90D8               	bcf	status,0,c
  2760   003208  360A               	rlcf	___awdiv@divisor^(0+1280),f,c
  2761   00320A  360B               	rlcf	(___awdiv@divisor+1)^(0+1280),f,c
  2762   00320C  2A0C               	incf	___awdiv@counter^(0+1280),f,c
  2763   00320E                     l2137:
  2764   00320E  AE0B               	btfss	(___awdiv@divisor+1)^(0+1280),7,c
  2765   003210  EF0C  F019         	goto	u871
  2766   003214  EF0E  F019         	goto	u870
  2767   003218                     u871:
  2768   003218  EF03  F019         	goto	l2135
  2769   00321C                     u870:
  2770   00321C                     l2139:
  2771   00321C  90D8               	bcf	status,0,c
  2772   00321E  360E               	rlcf	___awdiv@quotient^(0+1280),f,c
  2773   003220  360F               	rlcf	(___awdiv@quotient+1)^(0+1280),f,c
  2774   003222  500A               	movf	___awdiv@divisor^(0+1280),w,c
  2775   003224  5C08               	subwf	___awdiv@dividend^(0+1280),w,c
  2776   003226  500B               	movf	(___awdiv@divisor+1)^(0+1280),w,c
  2777   003228  5809               	subwfb	(___awdiv@dividend+1)^(0+1280),w,c
  2778   00322A  A0D8               	btfss	status,0,c
  2779   00322C  EF1A  F019         	goto	u881
  2780   003230  EF1C  F019         	goto	u880
  2781   003234                     u881:
  2782   003234  EF21  F019         	goto	l2147
  2783   003238                     u880:
  2784   003238  500A               	movf	___awdiv@divisor^(0+1280),w,c
  2785   00323A  5E08               	subwf	___awdiv@dividend^(0+1280),f,c
  2786   00323C  500B               	movf	(___awdiv@divisor+1)^(0+1280),w,c
  2787   00323E  5A09               	subwfb	(___awdiv@dividend+1)^(0+1280),f,c
  2788   003240  800E               	bsf	___awdiv@quotient^(0+1280),0,c
  2789   003242                     l2147:
  2790   003242  90D8               	bcf	status,0,c
  2791   003244  320B               	rrcf	(___awdiv@divisor+1)^(0+1280),f,c
  2792   003246  320A               	rrcf	___awdiv@divisor^(0+1280),f,c
  2793   003248  2E0C               	decfsz	___awdiv@counter^(0+1280),f,c
  2794   00324A  EF0E  F019         	goto	l2139
  2795   00324E                     l2151:
  2796   00324E  500D               	movf	___awdiv@sign^(0+1280),w,c
  2797   003250  B4D8               	btfsc	status,2,c
  2798   003252  EF2D  F019         	goto	u891
  2799   003256  EF2F  F019         	goto	u890
  2800   00325A                     u891:
  2801   00325A  EF33  F019         	goto	l2155
  2802   00325E                     u890:
  2803   00325E  6C0E               	negf	___awdiv@quotient^(0+1280),c
  2804   003260  1E0F               	comf	(___awdiv@quotient+1)^(0+1280),f,c
  2805   003262  B0D8               	btfsc	status,0,c
  2806   003264  2A0F               	incf	(___awdiv@quotient+1)^(0+1280),f,c
  2807   003266                     l2155:
  2808   003266  C50E  F508         	movff	___awdiv@quotient,?___awdiv
  2809   00326A  C50F  F509         	movff	___awdiv@quotient+1,?___awdiv+1
  2810   00326E  0012               	return		;funcret
  2811   003270                     __end_of___awdiv:
  2812                           	callstack 0
  2813                           
  2814 ;; *************** function _configuro *****************
  2815 ;; Defined at:
  2816 ;;		line 37 in file "maincode02.c"
  2817 ;; Parameters:    Size  Location     Type
  2818 ;;		None
  2819 ;; Auto vars:     Size  Location     Type
  2820 ;;		None
  2821 ;; Return value:  Size  Location     Type
  2822 ;;                  1    wreg      void 
  2823 ;; Registers used:
  2824 ;;		wreg, status,2, status,0, cstack
  2825 ;; Tracked objects:
  2826 ;;		On entry : 0/0
  2827 ;;		On exit  : 0/0
  2828 ;;		Unchanged: 0/0
  2829 ;; Data sizes:     COMRAM   BANK5   BANK6   BANK7   BANK8   BANK9  BANK10  BANK11  BANK12  BANK13  BANK14  BANK15  BANK1
      +6  BANK17  BANK18  BANK19  BANK20  BANK21  BANK22  BANK23  BANK24  BANK25  BANK26  BANK27  BANK28  BANK29  BANK30  BANK3
      +1  BANK32  BANK33  BANK34  BANK35  BANK36
  2830 ;;      Params:         0       0       0       0       0       0       0       0       0       0       0       0       
      +0       0       0       0       0       0       0       0       0       0       0       0       0       0       0       
      +0       0       0       0       0       0
  2831 ;;      Locals:         0       0       0       0       0       0       0       0       0       0       0       0       
      +0       0       0       0       0       0       0       0       0       0       0       0       0       0       0       
      +0       0       0       0       0       0
  2832 ;;      Temps:          2       0       0       0       0       0       0       0       0       0       0       0       
      +0       0       0       0       0       0       0       0       0       0       0       0       0       0       0       
      +0       0       0       0       0       0
  2833 ;;      Totals:         2       0       0       0       0       0       0       0       0       0       0       0       
      +0       0       0       0       0       0       0       0       0       0       0       0       0       0       0       
      +0       0       0       0       0       0
  2834 ;;Total ram usage:        2 bytes
  2835 ;; Hardware stack levels used: 1
  2836 ;; Hardware stack levels required when called: 5
  2837 ;; This function calls:
  2838 ;;		_LCD_INIT
  2839 ;;		_MAX7219_Init
  2840 ;;		_MAX7219_WriteData2
  2841 ;; This function is called by:
  2842 ;;		_main
  2843 ;; This function uses a non-reentrant model
  2844 ;;
  2845                           
  2846                           	psect	text4
  2847   003578                     __ptext4:
  2848                           	callstack 0
  2849   003578                     _configuro:
  2850                           	callstack 121
  2851   003578                     
  2852                           ;maincode02.c: 39:     OSCCON1 = 0x60;
  2853   003578  0E60               	movlw	96
  2854   00357A  0100               	movlb	0	; () banked
  2855   00357C  6FAD               	movwf	173,b	;volatile
  2856                           
  2857                           ;maincode02.c: 40:     OSCFRQ = 0x06;
  2858   00357E  0E06               	movlw	6
  2859   003580  6FB1               	movwf	177,b	;volatile
  2860                           
  2861                           ;maincode02.c: 41:     OSCEN = 0x40;
  2862   003582  0E40               	movlw	64
  2863   003584  6FB3               	movwf	179,b	;volatile
  2864   003586                     
  2865                           ; BSR set to: 0
  2866                           ;maincode02.c: 43:     TRISFbits.TRISF3 = 0;
  2867   003586  96CB               	bcf	203,3,c	;volatile
  2868   003588                     
  2869                           ; BSR set to: 0
  2870                           ;maincode02.c: 44:     ANSELFbits.ANSELF3 = 0;
  2871   003588  0104               	movlb	4	; () banked
  2872   00358A  9728               	bcf	40,3,b	;volatile
  2873                           
  2874                           ;maincode02.c: 46:     T0CON1 = 0x4E;
  2875   00358C  0E4E               	movlw	78
  2876   00358E  0103               	movlb	3	; () banked
  2877   003590  6F1B               	movwf	27,b	;volatile
  2878                           
  2879                           ;maincode02.c: 47:     T0CON0 = 0x80;
  2880   003592  0E80               	movlw	128
  2881   003594  6F1A               	movwf	26,b	;volatile
  2882                           
  2883                           ;maincode02.c: 48:     TMR0H = 146;
  2884   003596  0E92               	movlw	146
  2885   003598  6F19               	movwf	25,b	;volatile
  2886   00359A                     
  2887                           ; BSR set to: 3
  2888                           ;maincode02.c: 50:     PIE3bits.TMR0IE = 1;
  2889   00359A  8EA1               	bsf	161,7,c	;volatile
  2890   00359C                     
  2891                           ; BSR set to: 3
  2892                           ;maincode02.c: 51:     INTCON0bits.GIE = 0;
  2893   00359C  9ED6               	bcf	214,7,c	;volatile
  2894   00359E                     
  2895                           ; BSR set to: 3
  2896                           ;maincode02.c: 52:     PIR3bits.TMR0IF = 0;
  2897   00359E  9EB1               	bcf	177,7,c	;volatile
  2898   0035A0                     
  2899                           ; BSR set to: 3
  2900                           ;maincode02.c: 54:     LCD_INIT();
  2901   0035A0  EC5D  F01A         	call	_LCD_INIT	;wreg free
  2902   0035A4                     
  2903                           ;maincode02.c: 56:     MAX7219_Init();
  2904   0035A4  EC35  F01B         	call	_MAX7219_Init	;wreg free
  2905   0035A8                     
  2906                           ;maincode02.c: 57:     MAX7219_WriteData2(0x0A, 0x0F);
  2907   0035A8  0E0F               	movlw	15
  2908   0035AA  6E02               	movwf	MAX7219_WriteData2@dato^(0+1280),c
  2909   0035AC  0E0A               	movlw	10
  2910   0035AE  EC90  F019         	call	_MAX7219_WriteData2
  2911   0035B2                     
  2912                           ;maincode02.c: 58:     _delay((unsigned long)((100)*(32000000UL/4000.0)));
  2913   0035B2  0E05               	movlw	5
  2914   0035B4  6E09               	movwf	(??_configuro+1)^(0+1280),c
  2915   0035B6  0E0F               	movlw	15
  2916   0035B8  6E08               	movwf	??_configuro^(0+1280),c
  2917   0035BA  0EF1               	movlw	241
  2918   0035BC                     u1377:
  2919   0035BC  2EE8               	decfsz	wreg,f,c
  2920   0035BE  D7FE               	bra	u1377
  2921   0035C0  2E08               	decfsz	??_configuro^(0+1280),f,c
  2922   0035C2  D7FC               	bra	u1377
  2923   0035C4  2E09               	decfsz	(??_configuro+1)^(0+1280),f,c
  2924   0035C6  D7FA               	bra	u1377
  2925   0035C8  0000               	nop	
  2926   0035CA  0012               	return		;funcret
  2927   0035CC                     __end_of_configuro:
  2928                           	callstack 0
  2929                           
  2930 ;; *************** function _MAX7219_Init *****************
  2931 ;; Defined at:
  2932 ;;		line 11 in file "MAX7219.c"
  2933 ;; Parameters:    Size  Location     Type
  2934 ;;		None
  2935 ;; Auto vars:     Size  Location     Type
  2936 ;;		None
  2937 ;; Return value:  Size  Location     Type
  2938 ;;                  1    wreg      void 
  2939 ;; Registers used:
  2940 ;;		wreg, status,2, status,0, cstack
  2941 ;; Tracked objects:
  2942 ;;		On entry : 0/0
  2943 ;;		On exit  : 0/0
  2944 ;;		Unchanged: 0/0
  2945 ;; Data sizes:     COMRAM   BANK5   BANK6   BANK7   BANK8   BANK9  BANK10  BANK11  BANK12  BANK13  BANK14  BANK15  BANK1
      +6  BANK17  BANK18  BANK19  BANK20  BANK21  BANK22  BANK23  BANK24  BANK25  BANK26  BANK27  BANK28  BANK29  BANK30  BANK3
      +1  BANK32  BANK33  BANK34  BANK35  BANK36
  2946 ;;      Params:         0       0       0       0       0       0       0       0       0       0       0       0       
      +0       0       0       0       0       0       0       0       0       0       0       0       0       0       0       
      +0       0       0       0       0       0
  2947 ;;      Locals:         0       0       0       0       0       0       0       0       0       0       0       0       
      +0       0       0       0       0       0       0       0       0       0       0       0       0       0       0       
      +0       0       0       0       0       0
  2948 ;;      Temps:          0       0       0       0       0       0       0       0       0       0       0       0       
      +0       0       0       0       0       0       0       0       0       0       0       0       0       0       0       
      +0       0       0       0       0       0
  2949 ;;      Totals:         0       0       0       0       0       0       0       0       0       0       0       0       
      +0       0       0       0       0       0       0       0       0       0       0       0       0       0       0       
      +0       0       0       0       0       0
  2950 ;;Total ram usage:        0 bytes
  2951 ;; Hardware stack levels used: 1
  2952 ;; Hardware stack levels required when called: 2
  2953 ;; This function calls:
  2954 ;;		_MAX7219_WriteData2
  2955 ;; This function is called by:
  2956 ;;		_configuro
  2957 ;; This function uses a non-reentrant model
  2958 ;;
  2959                           
  2960                           	psect	text5
  2961   00366A                     __ptext5:
  2962                           	callstack 0
  2963   00366A                     _MAX7219_Init:
  2964                           	callstack 123
  2965   00366A                     
  2966                           ;MAX7219.c: 12:     TRISCbits.TRISC0 = 0;
  2967   00366A  90C8               	bcf	200,0,c	;volatile
  2968                           
  2969                           ;MAX7219.c: 13:     ANSELCbits.ANSELC0 = 0;
  2970   00366C  0104               	movlb	4	; () banked
  2971   00366E  9110               	bcf	16,0,b	;volatile
  2972   003670                     
  2973                           ; BSR set to: 4
  2974                           ;MAX7219.c: 14:     TRISE = 0xFC;
  2975   003670  0EFC               	movlw	252
  2976   003672  6ECA               	movwf	202,c	;volatile
  2977                           
  2978                           ;MAX7219.c: 15:     ANSELE = 0xFC;
  2979   003674  0EFC               	movlw	252
  2980   003676  6F20               	movwf	32,b	;volatile
  2981   003678                     
  2982                           ; BSR set to: 4
  2983                           ;MAX7219.c: 16:     MAX7219_WriteData2(0x0C, 0x00);
  2984   003678  0E00               	movlw	0
  2985   00367A  6E02               	movwf	MAX7219_WriteData2@dato^(0+1280),c
  2986   00367C  0E0C               	movlw	12
  2987   00367E  EC90  F019         	call	_MAX7219_WriteData2
  2988   003682                     
  2989                           ;MAX7219.c: 17:     MAX7219_WriteData2(0x0F, 0x00);
  2990   003682  0E00               	movlw	0
  2991   003684  6E02               	movwf	MAX7219_WriteData2@dato^(0+1280),c
  2992   003686  0E0F               	movlw	15
  2993   003688  EC90  F019         	call	_MAX7219_WriteData2
  2994   00368C                     
  2995                           ;MAX7219.c: 18:     MAX7219_WriteData2(0x0A, 0x03);
  2996   00368C  0E03               	movlw	3
  2997   00368E  6E02               	movwf	MAX7219_WriteData2@dato^(0+1280),c
  2998   003690  0E0A               	movlw	10
  2999   003692  EC90  F019         	call	_MAX7219_WriteData2
  3000   003696                     
  3001                           ;MAX7219.c: 19:     MAX7219_WriteData2(0x0B, 0x07);
  3002   003696  0E07               	movlw	7
  3003   003698  6E02               	movwf	MAX7219_WriteData2@dato^(0+1280),c
  3004   00369A  0E0B               	movlw	11
  3005   00369C  EC90  F019         	call	_MAX7219_WriteData2
  3006   0036A0                     
  3007                           ;MAX7219.c: 20:     MAX7219_WriteData2(0x0C, 0x01);
  3008   0036A0  0E01               	movlw	1
  3009   0036A2  6E02               	movwf	MAX7219_WriteData2@dato^(0+1280),c
  3010   0036A4  0E0C               	movlw	12
  3011   0036A6  EC90  F019         	call	_MAX7219_WriteData2
  3012   0036AA                     
  3013                           ;MAX7219.c: 21:     MAX7219_WriteData2(0x09, 0x00);
  3014   0036AA  0E00               	movlw	0
  3015   0036AC  6E02               	movwf	MAX7219_WriteData2@dato^(0+1280),c
  3016   0036AE  0E09               	movlw	9
  3017   0036B0  EC90  F019         	call	_MAX7219_WriteData2
  3018   0036B4  0012               	return		;funcret
  3019   0036B6                     __end_of_MAX7219_Init:
  3020                           	callstack 0
  3021                           
  3022 ;; *************** function _MAX7219_WriteData2 *****************
  3023 ;; Defined at:
  3024 ;;		line 58 in file "MAX7219.c"
  3025 ;; Parameters:    Size  Location     Type
  3026 ;;  comando         1    wreg     unsigned char 
  3027 ;;  dato            1    1[COMRAM] unsigned char 
  3028 ;; Auto vars:     Size  Location     Type
  3029 ;;  comando         1    4[COMRAM] unsigned char 
  3030 ;;  var_x           1    5[COMRAM] unsigned char 
  3031 ;; Return value:  Size  Location     Type
  3032 ;;                  1    wreg      void 
  3033 ;; Registers used:
  3034 ;;		wreg, status,2, status,0
  3035 ;; Tracked objects:
  3036 ;;		On entry : 0/0
  3037 ;;		On exit  : 0/0
  3038 ;;		Unchanged: 0/0
  3039 ;; Data sizes:     COMRAM   BANK5   BANK6   BANK7   BANK8   BANK9  BANK10  BANK11  BANK12  BANK13  BANK14  BANK15  BANK1
      +6  BANK17  BANK18  BANK19  BANK20  BANK21  BANK22  BANK23  BANK24  BANK25  BANK26  BANK27  BANK28  BANK29  BANK30  BANK3
      +1  BANK32  BANK33  BANK34  BANK35  BANK36
  3040 ;;      Params:         1       0       0       0       0       0       0       0       0       0       0       0       
      +0       0       0       0       0       0       0       0       0       0       0       0       0       0       0       
      +0       0       0       0       0       0
  3041 ;;      Locals:         2       0       0       0       0       0       0       0       0       0       0       0       
      +0       0       0       0       0       0       0       0       0       0       0       0       0       0       0       
      +0       0       0       0       0       0
  3042 ;;      Temps:          2       0       0       0       0       0       0       0       0       0       0       0       
      +0       0       0       0       0       0       0       0       0       0       0       0       0       0       0       
      +0       0       0       0       0       0
  3043 ;;      Totals:         5       0       0       0       0       0       0       0       0       0       0       0       
      +0       0       0       0       0       0       0       0       0       0       0       0       0       0       0       
      +0       0       0       0       0       0
  3044 ;;Total ram usage:        5 bytes
  3045 ;; Hardware stack levels used: 1
  3046 ;; Hardware stack levels required when called: 1
  3047 ;; This function calls:
  3048 ;;		Nothing
  3049 ;; This function is called by:
  3050 ;;		_MAX7219_Init
  3051 ;;		_configuro
  3052 ;;		_main
  3053 ;;		_MAX7219_WriteAll
  3054 ;; This function uses a non-reentrant model
  3055 ;;
  3056                           
  3057                           	psect	text6
  3058   003320                     __ptext6:
  3059                           	callstack 0
  3060   003320                     _MAX7219_WriteData2:
  3061                           	callstack 124
  3062                           
  3063                           ;incstack = 0
  3064                           ;MAX7219_WriteData2@comando stored from wreg
  3065   003320  6E05               	movwf	MAX7219_WriteData2@comando^(0+1280),c
  3066   003322                     
  3067                           ;MAX7219.c: 60:  unsigned char var_x;;MAX7219.c: 61:  LATCbits.LATC0 = 1;
  3068   003322  80C0               	bsf	192,0,c	;volatile
  3069                           
  3070                           ;MAX7219.c: 62:  LATEbits.LATE0 = 0;
  3071   003324  90C2               	bcf	194,0,c	;volatile
  3072                           
  3073                           ;MAX7219.c: 63:  LATEbits.LATE1 = 0;
  3074   003326  92C2               	bcf	194,1,c	;volatile
  3075                           
  3076                           ;MAX7219.c: 65:  LATCbits.LATC0 = 0;
  3077   003328  90C0               	bcf	192,0,c	;volatile
  3078   00332A                     
  3079                           ;MAX7219.c: 67:  for(var_x=0;var_x<8;var_x++){
  3080   00332A  0E00               	movlw	0
  3081   00332C  6E06               	movwf	MAX7219_WriteData2@var_x^(0+1280),c
  3082   00332E                     l190:
  3083                           
  3084                           ;MAX7219.c: 68:         LATEbits.LATE0 = 0;
  3085   00332E  90C2               	bcf	194,0,c	;volatile
  3086   003330                     
  3087                           ;MAX7219.c: 69:   if(comando & (1<<(7-var_x))){
  3088   003330  5006               	movf	MAX7219_WriteData2@var_x^(0+1280),w,c
  3089   003332  0807               	sublw	7
  3090   003334  6E03               	movwf	??_MAX7219_WriteData2^(0+1280),c
  3091   003336  0E01               	movlw	1
  3092   003338  6E04               	movwf	(??_MAX7219_WriteData2+1)^(0+1280),c
  3093   00333A  2A03               	incf	??_MAX7219_WriteData2^(0+1280),f,c
  3094   00333C  EFA2  F019         	goto	u774
  3095   003340                     u775:
  3096   003340  90D8               	bcf	status,0,c
  3097   003342  3604               	rlcf	(??_MAX7219_WriteData2+1)^(0+1280),f,c
  3098   003344                     u774:
  3099   003344  2E03               	decfsz	??_MAX7219_WriteData2^(0+1280),f,c
  3100   003346  EFA0  F019         	goto	u775
  3101   00334A  5004               	movf	(??_MAX7219_WriteData2+1)^(0+1280),w,c
  3102   00334C  1405               	andwf	MAX7219_WriteData2@comando^(0+1280),w,c
  3103   00334E  0900               	iorlw	0
  3104   003350  B4D8               	btfsc	status,2,c
  3105   003352  EFAD  F019         	goto	u781
  3106   003356  EFAF  F019         	goto	u780
  3107   00335A                     u781:
  3108   00335A  EFB2  F019         	goto	l192
  3109   00335E                     u780:
  3110   00335E                     
  3111                           ;MAX7219.c: 70:    LATEbits.LATE1 = 1;
  3112   00335E  82C2               	bsf	194,1,c	;volatile
  3113                           
  3114                           ;MAX7219.c: 71:   }
  3115   003360  EFB3  F019         	goto	l193
  3116   003364                     l192:
  3117                           
  3118                           ;MAX7219.c: 73:    LATEbits.LATE1 = 0;
  3119   003364  92C2               	bcf	194,1,c	;volatile
  3120   003366                     l193:
  3121                           
  3122                           ;MAX7219.c: 75:   LATEbits.LATE0 = 1;
  3123   003366  80C2               	bsf	194,0,c	;volatile
  3124   003368                     
  3125                           ;MAX7219.c: 76:  }
  3126   003368  2A06               	incf	MAX7219_WriteData2@var_x^(0+1280),f,c
  3127   00336A  0E07               	movlw	7
  3128   00336C  6406               	cpfsgt	MAX7219_WriteData2@var_x^(0+1280),c
  3129   00336E  EFBB  F019         	goto	u791
  3130   003372  EFBD  F019         	goto	u790
  3131   003376                     u791:
  3132   003376  EF97  F019         	goto	l190
  3133   00337A                     u790:
  3134   00337A                     
  3135                           ;MAX7219.c: 79:  for(var_x=0;var_x<8;var_x++){
  3136   00337A  0E00               	movlw	0
  3137   00337C  6E06               	movwf	MAX7219_WriteData2@var_x^(0+1280),c
  3138   00337E                     l194:
  3139                           
  3140                           ;MAX7219.c: 80:   LATEbits.LATE0 = 0;
  3141   00337E  90C2               	bcf	194,0,c	;volatile
  3142   003380                     
  3143                           ;MAX7219.c: 81:   if(dato & (1<<(7-var_x))){
  3144   003380  5006               	movf	MAX7219_WriteData2@var_x^(0+1280),w,c
  3145   003382  0807               	sublw	7
  3146   003384  6E03               	movwf	??_MAX7219_WriteData2^(0+1280),c
  3147   003386  0E01               	movlw	1
  3148   003388  6E04               	movwf	(??_MAX7219_WriteData2+1)^(0+1280),c
  3149   00338A  2A03               	incf	??_MAX7219_WriteData2^(0+1280),f,c
  3150   00338C  EFCA  F019         	goto	u804
  3151   003390                     u805:
  3152   003390  90D8               	bcf	status,0,c
  3153   003392  3604               	rlcf	(??_MAX7219_WriteData2+1)^(0+1280),f,c
  3154   003394                     u804:
  3155   003394  2E03               	decfsz	??_MAX7219_WriteData2^(0+1280),f,c
  3156   003396  EFC8  F019         	goto	u805
  3157   00339A  5004               	movf	(??_MAX7219_WriteData2+1)^(0+1280),w,c
  3158   00339C  1402               	andwf	MAX7219_WriteData2@dato^(0+1280),w,c
  3159   00339E  0900               	iorlw	0
  3160   0033A0  B4D8               	btfsc	status,2,c
  3161   0033A2  EFD5  F019         	goto	u811
  3162   0033A6  EFD7  F019         	goto	u810
  3163   0033AA                     u811:
  3164   0033AA  EFDA  F019         	goto	l196
  3165   0033AE                     u810:
  3166   0033AE                     
  3167                           ;MAX7219.c: 82:    LATEbits.LATE1 = 1;
  3168   0033AE  82C2               	bsf	194,1,c	;volatile
  3169                           
  3170                           ;MAX7219.c: 83:   }
  3171   0033B0  EFDB  F019         	goto	l197
  3172   0033B4                     l196:
  3173                           
  3174                           ;MAX7219.c: 85:    LATEbits.LATE1 = 0;
  3175   0033B4  92C2               	bcf	194,1,c	;volatile
  3176   0033B6                     l197:
  3177                           
  3178                           ;MAX7219.c: 87:   LATEbits.LATE0 = 1;
  3179   0033B6  80C2               	bsf	194,0,c	;volatile
  3180   0033B8                     
  3181                           ;MAX7219.c: 88:  }
  3182   0033B8  2A06               	incf	MAX7219_WriteData2@var_x^(0+1280),f,c
  3183   0033BA  0E07               	movlw	7
  3184   0033BC  6406               	cpfsgt	MAX7219_WriteData2@var_x^(0+1280),c
  3185   0033BE  EFE3  F019         	goto	u821
  3186   0033C2  EFE5  F019         	goto	u820
  3187   0033C6                     u821:
  3188   0033C6  EFBF  F019         	goto	l194
  3189   0033CA                     u820:
  3190   0033CA                     
  3191                           ;MAX7219.c: 89:  LATCbits.LATC0 = 1;
  3192   0033CA  80C0               	bsf	192,0,c	;volatile
  3193   0033CC  0012               	return		;funcret
  3194   0033CE                     __end_of_MAX7219_WriteData2:
  3195                           	callstack 0
  3196                           
  3197 ;; *************** function _LCD_INIT *****************
  3198 ;; Defined at:
  3199 ;;		line 182 in file "LCD.c"
  3200 ;; Parameters:    Size  Location     Type
  3201 ;;		None
  3202 ;; Auto vars:     Size  Location     Type
  3203 ;;		None
  3204 ;; Return value:  Size  Location     Type
  3205 ;;                  1    wreg      void 
  3206 ;; Registers used:
  3207 ;;		wreg, status,2, status,0, cstack
  3208 ;; Tracked objects:
  3209 ;;		On entry : 0/0
  3210 ;;		On exit  : 0/0
  3211 ;;		Unchanged: 0/0
  3212 ;; Data sizes:     COMRAM   BANK5   BANK6   BANK7   BANK8   BANK9  BANK10  BANK11  BANK12  BANK13  BANK14  BANK15  BANK1
      +6  BANK17  BANK18  BANK19  BANK20  BANK21  BANK22  BANK23  BANK24  BANK25  BANK26  BANK27  BANK28  BANK29  BANK30  BANK3
      +1  BANK32  BANK33  BANK34  BANK35  BANK36
  3213 ;;      Params:         0       0       0       0       0       0       0       0       0       0       0       0       
      +0       0       0       0       0       0       0       0       0       0       0       0       0       0       0       
      +0       0       0       0       0       0
  3214 ;;      Locals:         0       0       0       0       0       0       0       0       0       0       0       0       
      +0       0       0       0       0       0       0       0       0       0       0       0       0       0       0       
      +0       0       0       0       0       0
  3215 ;;      Temps:          2       0       0       0       0       0       0       0       0       0       0       0       
      +0       0       0       0       0       0       0       0       0       0       0       0       0       0       0       
      +0       0       0       0       0       0
  3216 ;;      Totals:         2       0       0       0       0       0       0       0       0       0       0       0       
      +0       0       0       0       0       0       0       0       0       0       0       0       0       0       0       
      +0       0       0       0       0       0
  3217 ;;Total ram usage:        2 bytes
  3218 ;; Hardware stack levels used: 1
  3219 ;; Hardware stack levels required when called: 4
  3220 ;; This function calls:
  3221 ;;		_BORRAR_LCD
  3222 ;;		_CURSOR_HOME
  3223 ;;		_CURSOR_ONOFF
  3224 ;;		_LCD_CONFIG
  3225 ;; This function is called by:
  3226 ;;		_configuro
  3227 ;; This function uses a non-reentrant model
  3228 ;;
  3229                           
  3230                           	psect	text7
  3231   0034BA                     __ptext7:
  3232                           	callstack 0
  3233   0034BA                     _LCD_INIT:
  3234                           	callstack 121
  3235   0034BA                     
  3236                           ;LCD.c: 183:     _delay((unsigned long)((500)*(32000000UL/4000.0)));
  3237   0034BA  0E15               	movlw	21
  3238   0034BC  6E07               	movwf	(??_LCD_INIT+1)^(0+1280),c
  3239   0034BE  0E4B               	movlw	75
  3240   0034C0  6E06               	movwf	??_LCD_INIT^(0+1280),c
  3241   0034C2  0EBE               	movlw	190
  3242   0034C4                     u1387:
  3243   0034C4  2EE8               	decfsz	wreg,f,c
  3244   0034C6  D7FE               	bra	u1387
  3245   0034C8  2E06               	decfsz	??_LCD_INIT^(0+1280),f,c
  3246   0034CA  D7FC               	bra	u1387
  3247   0034CC  2E07               	decfsz	(??_LCD_INIT+1)^(0+1280),f,c
  3248   0034CE  D7FA               	bra	u1387
  3249   0034D0  D000               	nop2	
  3250   0034D2                     
  3251                           ;LCD.c: 184:     TRISD = 0x00;
  3252   0034D2  0E00               	movlw	0
  3253   0034D4  6EC9               	movwf	201,c	;volatile
  3254   0034D6                     
  3255                           ;LCD.c: 185:     ANSELD = 0x00;
  3256   0034D6  0E00               	movlw	0
  3257   0034D8  0104               	movlb	4	; () banked
  3258   0034DA  6F18               	movwf	24,b	;volatile
  3259                           
  3260                           ;LCD.c: 186:     _delay((unsigned long)((30)*(32000000UL/4000.0)));
  3261   0034DC  0E02               	movlw	2
  3262   0034DE  6E07               	movwf	(??_LCD_INIT+1)^(0+1280),c
  3263   0034E0  0E38               	movlw	56
  3264   0034E2  6E06               	movwf	??_LCD_INIT^(0+1280),c
  3265   0034E4  0EAD               	movlw	173
  3266   0034E6                     u1397:
  3267   0034E6  2EE8               	decfsz	wreg,f,c
  3268   0034E8  D7FE               	bra	u1397
  3269   0034EA  2E06               	decfsz	??_LCD_INIT^(0+1280),f,c
  3270   0034EC  D7FC               	bra	u1397
  3271   0034EE  2E07               	decfsz	(??_LCD_INIT+1)^(0+1280),f,c
  3272   0034F0  D7FA               	bra	u1397
  3273   0034F2  0000               	nop	
  3274   0034F4                     
  3275                           ;LCD.c: 187:     LCD_CONFIG();
  3276   0034F4  ECE6  F01A         	call	_LCD_CONFIG	;wreg free
  3277   0034F8                     
  3278                           ;LCD.c: 188:     _delay((unsigned long)((30)*(32000000UL/4000.0)));
  3279   0034F8  0E02               	movlw	2
  3280   0034FA  6E07               	movwf	(??_LCD_INIT+1)^(0+1280),c
  3281   0034FC  0E38               	movlw	56
  3282   0034FE  6E06               	movwf	??_LCD_INIT^(0+1280),c
  3283   003500  0EAD               	movlw	173
  3284   003502                     u1407:
  3285   003502  2EE8               	decfsz	wreg,f,c
  3286   003504  D7FE               	bra	u1407
  3287   003506  2E06               	decfsz	??_LCD_INIT^(0+1280),f,c
  3288   003508  D7FC               	bra	u1407
  3289   00350A  2E07               	decfsz	(??_LCD_INIT+1)^(0+1280),f,c
  3290   00350C  D7FA               	bra	u1407
  3291   00350E  0000               	nop	
  3292                           
  3293                           ;LCD.c: 189:     BORRAR_LCD();
  3294   003510  EC18  F01C         	call	_BORRAR_LCD	;wreg free
  3295                           
  3296                           ;LCD.c: 190:     CURSOR_HOME();
  3297   003514  EC14  F01C         	call	_CURSOR_HOME	;wreg free
  3298                           
  3299                           ;LCD.c: 191:     CURSOR_ONOFF(1);
  3300   003518  0E01               	movlw	1
  3301   00351A  ECEE  F01B         	call	_CURSOR_ONOFF
  3302   00351E  0012               	return		;funcret
  3303   003520                     __end_of_LCD_INIT:
  3304                           	callstack 0
  3305                           
  3306 ;; *************** function _LCD_CONFIG *****************
  3307 ;; Defined at:
  3308 ;;		line 94 in file "LCD.c"
  3309 ;; Parameters:    Size  Location     Type
  3310 ;;		None
  3311 ;; Auto vars:     Size  Location     Type
  3312 ;;		None
  3313 ;; Return value:  Size  Location     Type
  3314 ;;                  1    wreg      void 
  3315 ;; Registers used:
  3316 ;;		wreg, status,2, status,0, cstack
  3317 ;; Tracked objects:
  3318 ;;		On entry : 0/0
  3319 ;;		On exit  : 0/0
  3320 ;;		Unchanged: 0/0
  3321 ;; Data sizes:     COMRAM   BANK5   BANK6   BANK7   BANK8   BANK9  BANK10  BANK11  BANK12  BANK13  BANK14  BANK15  BANK1
      +6  BANK17  BANK18  BANK19  BANK20  BANK21  BANK22  BANK23  BANK24  BANK25  BANK26  BANK27  BANK28  BANK29  BANK30  BANK3
      +1  BANK32  BANK33  BANK34  BANK35  BANK36
  3322 ;;      Params:         0       0       0       0       0       0       0       0       0       0       0       0       
      +0       0       0       0       0       0       0       0       0       0       0       0       0       0       0       
      +0       0       0       0       0       0
  3323 ;;      Locals:         0       0       0       0       0       0       0       0       0       0       0       0       
      +0       0       0       0       0       0       0       0       0       0       0       0       0       0       0       
      +0       0       0       0       0       0
  3324 ;;      Temps:          1       0       0       0       0       0       0       0       0       0       0       0       
      +0       0       0       0       0       0       0       0       0       0       0       0       0       0       0       
      +0       0       0       0       0       0
  3325 ;;      Totals:         1       0       0       0       0       0       0       0       0       0       0       0       
      +0       0       0       0       0       0       0       0       0       0       0       0       0       0       0       
      +0       0       0       0       0       0
  3326 ;;Total ram usage:        1 bytes
  3327 ;; Hardware stack levels used: 1
  3328 ;; Hardware stack levels required when called: 3
  3329 ;; This function calls:
  3330 ;;		_ENVIA_LCD_CMD
  3331 ;;		_ENVIA_NIBBLE
  3332 ;; This function is called by:
  3333 ;;		_LCD_INIT
  3334 ;; This function uses a non-reentrant model
  3335 ;;
  3336                           
  3337                           	psect	text8
  3338   0035CC                     __ptext8:
  3339                           	callstack 0
  3340   0035CC                     _LCD_CONFIG:
  3341                           	callstack 121
  3342   0035CC                     
  3343                           ;LCD.c: 96:  LATDbits.LATD0 = 0;
  3344   0035CC  90C1               	bcf	193,0,c	;volatile
  3345                           
  3346                           ;LCD.c: 97:  LATDbits.LATD1 = 0;
  3347   0035CE  92C1               	bcf	193,1,c	;volatile
  3348   0035D0                     
  3349                           ;LCD.c: 98:  ENVIA_NIBBLE(0x30);
  3350   0035D0  0E30               	movlw	48
  3351   0035D2  EC06  F01C         	call	_ENVIA_NIBBLE
  3352   0035D6                     
  3353                           ;LCD.c: 99:     _delay((unsigned long)((3)*(32000000UL/4000.0)));
  3354   0035D6  0E20               	movlw	32
  3355   0035D8  6E05               	movwf	??_LCD_CONFIG^(0+1280),c
  3356   0035DA  0E2A               	movlw	42
  3357   0035DC                     u1417:
  3358   0035DC  2EE8               	decfsz	wreg,f,c
  3359   0035DE  D7FE               	bra	u1417
  3360   0035E0  2E05               	decfsz	??_LCD_CONFIG^(0+1280),f,c
  3361   0035E2  D7FC               	bra	u1417
  3362   0035E4                     
  3363                           ;LCD.c: 100:  ENVIA_NIBBLE(0x30);
  3364   0035E4  0E30               	movlw	48
  3365   0035E6  EC06  F01C         	call	_ENVIA_NIBBLE
  3366                           
  3367                           ;LCD.c: 102:  _delay((unsigned long)((100)*(32000000UL/4000000.0)));
  3368   0035EA  0EA0               	movlw	160
  3369   0035EC                     u1427:
  3370   0035EC  D000               	nop2	
  3371   0035EE  2EE8               	decfsz	wreg,f,c
  3372   0035F0  D7FD               	bra	u1427
  3373   0035F2                     
  3374                           ;LCD.c: 103:     ENVIA_NIBBLE(0x30);
  3375   0035F2  0E30               	movlw	48
  3376   0035F4  EC06  F01C         	call	_ENVIA_NIBBLE
  3377   0035F8                     
  3378                           ;LCD.c: 104:  ENVIA_NIBBLE(0x20);
  3379   0035F8  0E20               	movlw	32
  3380   0035FA  EC06  F01C         	call	_ENVIA_NIBBLE
  3381   0035FE                     
  3382                           ;LCD.c: 105:  ENVIA_LCD_CMD(0x01);
  3383   0035FE  0E01               	movlw	1
  3384   003600  ECBB  F01B         	call	_ENVIA_LCD_CMD
  3385   003604                     
  3386                           ;LCD.c: 106:  ENVIA_LCD_CMD(0x28);
  3387   003604  0E28               	movlw	40
  3388   003606  ECBB  F01B         	call	_ENVIA_LCD_CMD
  3389   00360A                     
  3390                           ;LCD.c: 107:  ENVIA_LCD_CMD(0x0F);
  3391   00360A  0E0F               	movlw	15
  3392   00360C  ECBB  F01B         	call	_ENVIA_LCD_CMD
  3393   003610                     
  3394                           ;LCD.c: 108:  ENVIA_LCD_CMD(0x06);
  3395   003610  0E06               	movlw	6
  3396   003612  ECBB  F01B         	call	_ENVIA_LCD_CMD
  3397   003616                     
  3398                           ;LCD.c: 109:  ENVIA_LCD_CMD(0x01);
  3399   003616  0E01               	movlw	1
  3400   003618  ECBB  F01B         	call	_ENVIA_LCD_CMD
  3401   00361C  0012               	return		;funcret
  3402   00361E                     __end_of_LCD_CONFIG:
  3403                           	callstack 0
  3404                           
  3405 ;; *************** function _CURSOR_ONOFF *****************
  3406 ;; Defined at:
  3407 ;;		line 54 in file "LCD.c"
  3408 ;; Parameters:    Size  Location     Type
  3409 ;;  estado          1    wreg     unsigned char 
  3410 ;; Auto vars:     Size  Location     Type
  3411 ;;  estado          1    4[COMRAM] unsigned char 
  3412 ;; Return value:  Size  Location     Type
  3413 ;;                  1    wreg      void 
  3414 ;; Registers used:
  3415 ;;		wreg, status,2, status,0, cstack
  3416 ;; Tracked objects:
  3417 ;;		On entry : 0/0
  3418 ;;		On exit  : 0/0
  3419 ;;		Unchanged: 0/0
  3420 ;; Data sizes:     COMRAM   BANK5   BANK6   BANK7   BANK8   BANK9  BANK10  BANK11  BANK12  BANK13  BANK14  BANK15  BANK1
      +6  BANK17  BANK18  BANK19  BANK20  BANK21  BANK22  BANK23  BANK24  BANK25  BANK26  BANK27  BANK28  BANK29  BANK30  BANK3
      +1  BANK32  BANK33  BANK34  BANK35  BANK36
  3421 ;;      Params:         0       0       0       0       0       0       0       0       0       0       0       0       
      +0       0       0       0       0       0       0       0       0       0       0       0       0       0       0       
      +0       0       0       0       0       0
  3422 ;;      Locals:         1       0       0       0       0       0       0       0       0       0       0       0       
      +0       0       0       0       0       0       0       0       0       0       0       0       0       0       0       
      +0       0       0       0       0       0
  3423 ;;      Temps:          0       0       0       0       0       0       0       0       0       0       0       0       
      +0       0       0       0       0       0       0       0       0       0       0       0       0       0       0       
      +0       0       0       0       0       0
  3424 ;;      Totals:         1       0       0       0       0       0       0       0       0       0       0       0       
      +0       0       0       0       0       0       0       0       0       0       0       0       0       0       0       
      +0       0       0       0       0       0
  3425 ;;Total ram usage:        1 bytes
  3426 ;; Hardware stack levels used: 1
  3427 ;; Hardware stack levels required when called: 3
  3428 ;; This function calls:
  3429 ;;		_ENVIA_LCD_CMD
  3430 ;; This function is called by:
  3431 ;;		_LCD_INIT
  3432 ;; This function uses a non-reentrant model
  3433 ;;
  3434                           
  3435                           	psect	text9
  3436   0037DC                     __ptext9:
  3437                           	callstack 0
  3438   0037DC                     _CURSOR_ONOFF:
  3439                           	callstack 121
  3440                           
  3441                           ;incstack = 0
  3442                           ;CURSOR_ONOFF@estado stored from wreg
  3443   0037DC  6E05               	movwf	CURSOR_ONOFF@estado^(0+1280),c
  3444   0037DE                     
  3445                           ;LCD.c: 55:  if(estado == 0) ENVIA_LCD_CMD(0x0E);
  3446   0037DE  5005               	movf	CURSOR_ONOFF@estado^(0+1280),w,c
  3447   0037E0  A4D8               	btfss	status,2,c
  3448   0037E2  EFF5  F01B         	goto	u21
  3449   0037E6  EFF7  F01B         	goto	u20
  3450   0037EA                     u21:
  3451   0037EA  EFFA  F01B         	goto	l1155
  3452   0037EE                     u20:
  3453   0037EE  0E0E               	movlw	14
  3454   0037F0  ECBB  F01B         	call	_ENVIA_LCD_CMD
  3455   0037F4                     l1155:
  3456                           
  3457                           ;LCD.c: 56:  if(estado == 1) ENVIA_LCD_CMD(0x0C);
  3458   0037F4  0405               	decf	CURSOR_ONOFF@estado^(0+1280),w,c
  3459   0037F6  A4D8               	btfss	status,2,c
  3460   0037F8  EF00  F01C         	goto	u31
  3461   0037FC  EF02  F01C         	goto	u30
  3462   003800                     u31:
  3463   003800  EF05  F01C         	goto	l62
  3464   003804                     u30:
  3465   003804  0E0C               	movlw	12
  3466   003806  ECBB  F01B         	call	_ENVIA_LCD_CMD
  3467   00380A                     l62:
  3468   00380A  0012               	return		;funcret
  3469   00380C                     __end_of_CURSOR_ONOFF:
  3470                           	callstack 0
  3471                           
  3472 ;; *************** function _CURSOR_HOME *****************
  3473 ;; Defined at:
  3474 ;;		line 34 in file "LCD.c"
  3475 ;; Parameters:    Size  Location     Type
  3476 ;;		None
  3477 ;; Auto vars:     Size  Location     Type
  3478 ;;		None
  3479 ;; Return value:  Size  Location     Type
  3480 ;;                  1    wreg      void 
  3481 ;; Registers used:
  3482 ;;		wreg, status,2, status,0, cstack
  3483 ;; Tracked objects:
  3484 ;;		On entry : 0/0
  3485 ;;		On exit  : 0/0
  3486 ;;		Unchanged: 0/0
  3487 ;; Data sizes:     COMRAM   BANK5   BANK6   BANK7   BANK8   BANK9  BANK10  BANK11  BANK12  BANK13  BANK14  BANK15  BANK1
      +6  BANK17  BANK18  BANK19  BANK20  BANK21  BANK22  BANK23  BANK24  BANK25  BANK26  BANK27  BANK28  BANK29  BANK30  BANK3
      +1  BANK32  BANK33  BANK34  BANK35  BANK36
  3488 ;;      Params:         0       0       0       0       0       0       0       0       0       0       0       0       
      +0       0       0       0       0       0       0       0       0       0       0       0       0       0       0       
      +0       0       0       0       0       0
  3489 ;;      Locals:         0       0       0       0       0       0       0       0       0       0       0       0       
      +0       0       0       0       0       0       0       0       0       0       0       0       0       0       0       
      +0       0       0       0       0       0
  3490 ;;      Temps:          0       0       0       0       0       0       0       0       0       0       0       0       
      +0       0       0       0       0       0       0       0       0       0       0       0       0       0       0       
      +0       0       0       0       0       0
  3491 ;;      Totals:         0       0       0       0       0       0       0       0       0       0       0       0       
      +0       0       0       0       0       0       0       0       0       0       0       0       0       0       0       
      +0       0       0       0       0       0
  3492 ;;Total ram usage:        0 bytes
  3493 ;; Hardware stack levels used: 1
  3494 ;; Hardware stack levels required when called: 3
  3495 ;; This function calls:
  3496 ;;		_ENVIA_LCD_CMD
  3497 ;; This function is called by:
  3498 ;;		_LCD_INIT
  3499 ;; This function uses a non-reentrant model
  3500 ;;
  3501                           
  3502                           	psect	text10
  3503   003828                     __ptext10:
  3504                           	callstack 0
  3505   003828                     _CURSOR_HOME:
  3506                           	callstack 121
  3507   003828                     
  3508                           ;LCD.c: 35:  ENVIA_LCD_CMD(0x02);
  3509   003828  0E02               	movlw	2
  3510   00382A  ECBB  F01B         	call	_ENVIA_LCD_CMD
  3511   00382E  0012               	return		;funcret
  3512   003830                     __end_of_CURSOR_HOME:
  3513                           	callstack 0
  3514                           
  3515 ;; *************** function _BORRAR_LCD *****************
  3516 ;; Defined at:
  3517 ;;		line 90 in file "LCD.c"
  3518 ;; Parameters:    Size  Location     Type
  3519 ;;		None
  3520 ;; Auto vars:     Size  Location     Type
  3521 ;;		None
  3522 ;; Return value:  Size  Location     Type
  3523 ;;                  1    wreg      void 
  3524 ;; Registers used:
  3525 ;;		wreg, status,2, status,0, cstack
  3526 ;; Tracked objects:
  3527 ;;		On entry : 0/0
  3528 ;;		On exit  : 0/0
  3529 ;;		Unchanged: 0/0
  3530 ;; Data sizes:     COMRAM   BANK5   BANK6   BANK7   BANK8   BANK9  BANK10  BANK11  BANK12  BANK13  BANK14  BANK15  BANK1
      +6  BANK17  BANK18  BANK19  BANK20  BANK21  BANK22  BANK23  BANK24  BANK25  BANK26  BANK27  BANK28  BANK29  BANK30  BANK3
      +1  BANK32  BANK33  BANK34  BANK35  BANK36
  3531 ;;      Params:         0       0       0       0       0       0       0       0       0       0       0       0       
      +0       0       0       0       0       0       0       0       0       0       0       0       0       0       0       
      +0       0       0       0       0       0
  3532 ;;      Locals:         0       0       0       0       0       0       0       0       0       0       0       0       
      +0       0       0       0       0       0       0       0       0       0       0       0       0       0       0       
      +0       0       0       0       0       0
  3533 ;;      Temps:          0       0       0       0       0       0       0       0       0       0       0       0       
      +0       0       0       0       0       0       0       0       0       0       0       0       0       0       0       
      +0       0       0       0       0       0
  3534 ;;      Totals:         0       0       0       0       0       0       0       0       0       0       0       0       
      +0       0       0       0       0       0       0       0       0       0       0       0       0       0       0       
      +0       0       0       0       0       0
  3535 ;;Total ram usage:        0 bytes
  3536 ;; Hardware stack levels used: 1
  3537 ;; Hardware stack levels required when called: 3
  3538 ;; This function calls:
  3539 ;;		_ENVIA_LCD_CMD
  3540 ;; This function is called by:
  3541 ;;		_LCD_INIT
  3542 ;; This function uses a non-reentrant model
  3543 ;;
  3544                           
  3545                           	psect	text11
  3546   003830                     __ptext11:
  3547                           	callstack 0
  3548   003830                     _BORRAR_LCD:
  3549                           	callstack 121
  3550   003830                     
  3551                           ;LCD.c: 91:  ENVIA_LCD_CMD(0x01);
  3552   003830  0E01               	movlw	1
  3553   003832  ECBB  F01B         	call	_ENVIA_LCD_CMD
  3554   003836  0012               	return		;funcret
  3555   003838                     __end_of_BORRAR_LCD:
  3556                           	callstack 0
  3557                           
  3558 ;; *************** function _POS_CURSOR *****************
  3559 ;; Defined at:
  3560 ;;		line 9 in file "LCD.c"
  3561 ;; Parameters:    Size  Location     Type
  3562 ;;  fila            1    wreg     unsigned char 
  3563 ;;  columna         1    4[COMRAM] unsigned char 
  3564 ;; Auto vars:     Size  Location     Type
  3565 ;;  fila            1    5[COMRAM] unsigned char 
  3566 ;; Return value:  Size  Location     Type
  3567 ;;                  1    wreg      void 
  3568 ;; Registers used:
  3569 ;;		wreg, status,2, status,0, cstack
  3570 ;; Tracked objects:
  3571 ;;		On entry : 0/0
  3572 ;;		On exit  : 0/0
  3573 ;;		Unchanged: 0/0
  3574 ;; Data sizes:     COMRAM   BANK5   BANK6   BANK7   BANK8   BANK9  BANK10  BANK11  BANK12  BANK13  BANK14  BANK15  BANK1
      +6  BANK17  BANK18  BANK19  BANK20  BANK21  BANK22  BANK23  BANK24  BANK25  BANK26  BANK27  BANK28  BANK29  BANK30  BANK3
      +1  BANK32  BANK33  BANK34  BANK35  BANK36
  3575 ;;      Params:         1       0       0       0       0       0       0       0       0       0       0       0       
      +0       0       0       0       0       0       0       0       0       0       0       0       0       0       0       
      +0       0       0       0       0       0
  3576 ;;      Locals:         1       0       0       0       0       0       0       0       0       0       0       0       
      +0       0       0       0       0       0       0       0       0       0       0       0       0       0       0       
      +0       0       0       0       0       0
  3577 ;;      Temps:          0       0       0       0       0       0       0       0       0       0       0       0       
      +0       0       0       0       0       0       0       0       0       0       0       0       0       0       0       
      +0       0       0       0       0       0
  3578 ;;      Totals:         2       0       0       0       0       0       0       0       0       0       0       0       
      +0       0       0       0       0       0       0       0       0       0       0       0       0       0       0       
      +0       0       0       0       0       0
  3579 ;;Total ram usage:        2 bytes
  3580 ;; Hardware stack levels used: 1
  3581 ;; Hardware stack levels required when called: 3
  3582 ;; This function calls:
  3583 ;;		_ENVIA_LCD_CMD
  3584 ;; This function is called by:
  3585 ;;		_main
  3586 ;; This function uses a non-reentrant model
  3587 ;;
  3588                           
  3589                           	psect	text12
  3590   0033CE                     __ptext12:
  3591                           	callstack 0
  3592   0033CE                     _POS_CURSOR:
  3593                           	callstack 123
  3594                           
  3595                           ;incstack = 0
  3596                           ;POS_CURSOR@fila stored from wreg
  3597   0033CE  6E06               	movwf	POS_CURSOR@fila^(0+1280),c
  3598   0033D0                     
  3599                           ;LCD.c: 10:  if(fila == 1){
  3600   0033D0  0406               	decf	POS_CURSOR@fila^(0+1280),w,c
  3601   0033D2  A4D8               	btfss	status,2,c
  3602   0033D4  EFEE  F019         	goto	u961
  3603   0033D8  EFF0  F019         	goto	u960
  3604   0033DC                     u961:
  3605   0033DC  EFF6  F019         	goto	l2199
  3606   0033E0                     u960:
  3607   0033E0                     
  3608                           ;LCD.c: 11:   ENVIA_LCD_CMD(0x80+columna);
  3609   0033E0  5005               	movf	POS_CURSOR@columna^(0+1280),w,c
  3610   0033E2  0F80               	addlw	128
  3611   0033E4  ECBB  F01B         	call	_ENVIA_LCD_CMD
  3612                           
  3613                           ;LCD.c: 12:  }
  3614   0033E8  EF23  F01A         	goto	l32
  3615   0033EC                     l2199:
  3616   0033EC  0E02               	movlw	2
  3617   0033EE  1806               	xorwf	POS_CURSOR@fila^(0+1280),w,c
  3618   0033F0  A4D8               	btfss	status,2,c
  3619   0033F2  EFFD  F019         	goto	u971
  3620   0033F6  EFFF  F019         	goto	u970
  3621   0033FA                     u971:
  3622   0033FA  EF05  F01A         	goto	l2203
  3623   0033FE                     u970:
  3624   0033FE                     
  3625                           ;LCD.c: 14:   ENVIA_LCD_CMD(0xC0+columna);
  3626   0033FE  5005               	movf	POS_CURSOR@columna^(0+1280),w,c
  3627   003400  0FC0               	addlw	192
  3628   003402  ECBB  F01B         	call	_ENVIA_LCD_CMD
  3629                           
  3630                           ;LCD.c: 15:  }
  3631   003406  EF23  F01A         	goto	l32
  3632   00340A                     l2203:
  3633   00340A  0E03               	movlw	3
  3634   00340C  1806               	xorwf	POS_CURSOR@fila^(0+1280),w,c
  3635   00340E  A4D8               	btfss	status,2,c
  3636   003410  EF0C  F01A         	goto	u981
  3637   003414  EF0E  F01A         	goto	u980
  3638   003418                     u981:
  3639   003418  EF14  F01A         	goto	l2207
  3640   00341C                     u980:
  3641   00341C                     
  3642                           ;LCD.c: 17:   ENVIA_LCD_CMD(0x94+columna);
  3643   00341C  5005               	movf	POS_CURSOR@columna^(0+1280),w,c
  3644   00341E  0F94               	addlw	148
  3645   003420  ECBB  F01B         	call	_ENVIA_LCD_CMD
  3646                           
  3647                           ;LCD.c: 18:  }
  3648   003424  EF23  F01A         	goto	l32
  3649   003428                     l2207:
  3650   003428  0E04               	movlw	4
  3651   00342A  1806               	xorwf	POS_CURSOR@fila^(0+1280),w,c
  3652   00342C  A4D8               	btfss	status,2,c
  3653   00342E  EF1B  F01A         	goto	u991
  3654   003432  EF1D  F01A         	goto	u990
  3655   003436                     u991:
  3656   003436  EF23  F01A         	goto	l28
  3657   00343A                     u990:
  3658   00343A                     
  3659                           ;LCD.c: 20:   ENVIA_LCD_CMD(0xD4+columna);
  3660   00343A  5005               	movf	POS_CURSOR@columna^(0+1280),w,c
  3661   00343C  0FD4               	addlw	212
  3662   00343E  ECBB  F01B         	call	_ENVIA_LCD_CMD
  3663   003442  EF23  F01A         	goto	l32
  3664   003446                     l28:
  3665   003446                     l32:
  3666   003446  0012               	return		;funcret
  3667   003448                     __end_of_POS_CURSOR:
  3668                           	callstack 0
  3669                           
  3670 ;; *************** function _ENVIA_LCD_CMD *****************
  3671 ;; Defined at:
  3672 ;;		line 123 in file "LCD.c"
  3673 ;; Parameters:    Size  Location     Type
  3674 ;;  dato            1    wreg     unsigned char 
  3675 ;; Auto vars:     Size  Location     Type
  3676 ;;  dato            1    2[COMRAM] unsigned char 
  3677 ;;  aux             1    3[COMRAM] unsigned char 
  3678 ;; Return value:  Size  Location     Type
  3679 ;;                  1    wreg      void 
  3680 ;; Registers used:
  3681 ;;		wreg, status,2, status,0, cstack
  3682 ;; Tracked objects:
  3683 ;;		On entry : 0/0
  3684 ;;		On exit  : 0/0
  3685 ;;		Unchanged: 0/0
  3686 ;; Data sizes:     COMRAM   BANK5   BANK6   BANK7   BANK8   BANK9  BANK10  BANK11  BANK12  BANK13  BANK14  BANK15  BANK1
      +6  BANK17  BANK18  BANK19  BANK20  BANK21  BANK22  BANK23  BANK24  BANK25  BANK26  BANK27  BANK28  BANK29  BANK30  BANK3
      +1  BANK32  BANK33  BANK34  BANK35  BANK36
  3687 ;;      Params:         0       0       0       0       0       0       0       0       0       0       0       0       
      +0       0       0       0       0       0       0       0       0       0       0       0       0       0       0       
      +0       0       0       0       0       0
  3688 ;;      Locals:         2       0       0       0       0       0       0       0       0       0       0       0       
      +0       0       0       0       0       0       0       0       0       0       0       0       0       0       0       
      +0       0       0       0       0       0
  3689 ;;      Temps:          0       0       0       0       0       0       0       0       0       0       0       0       
      +0       0       0       0       0       0       0       0       0       0       0       0       0       0       0       
      +0       0       0       0       0       0
  3690 ;;      Totals:         2       0       0       0       0       0       0       0       0       0       0       0       
      +0       0       0       0       0       0       0       0       0       0       0       0       0       0       0       
      +0       0       0       0       0       0
  3691 ;;Total ram usage:        2 bytes
  3692 ;; Hardware stack levels used: 1
  3693 ;; Hardware stack levels required when called: 2
  3694 ;; This function calls:
  3695 ;;		_ENVIA_NIBBLE
  3696 ;;		_LEER_LCD
  3697 ;; This function is called by:
  3698 ;;		_POS_CURSOR
  3699 ;;		_CURSOR_HOME
  3700 ;;		_CURSOR_ONOFF
  3701 ;;		_BORRAR_LCD
  3702 ;;		_LCD_CONFIG
  3703 ;;		_BLINK_CURSOR
  3704 ;;		_DISPLAY_ONOFF
  3705 ;;		_CURSOR_SHIFTLEFT
  3706 ;;		_CURSOR_SHIFTRIGHT
  3707 ;;		_DISPLAY_SHIFTLEFT
  3708 ;;		_DISPLAY_SHIFTRIGHT
  3709 ;;		_GENERACARACTER
  3710 ;; This function uses a non-reentrant model
  3711 ;;
  3712                           
  3713                           	psect	text13
  3714   003776                     __ptext13:
  3715                           	callstack 0
  3716   003776                     _ENVIA_LCD_CMD:
  3717                           	callstack 121
  3718                           
  3719                           ;incstack = 0
  3720                           ;ENVIA_LCD_CMD@dato stored from wreg
  3721   003776  6E03               	movwf	ENVIA_LCD_CMD@dato^(0+1280),c
  3722   003778                     
  3723                           ;LCD.c: 123: void ENVIA_LCD_CMD(unsigned char dato);LCD.c: 124: {;LCD.c: 125:  unsigned 
      +                          char aux;;LCD.c: 126:  LATDbits.LATD0 = 0;
  3724   003778  90C1               	bcf	193,0,c	;volatile
  3725   00377A                     
  3726                           ;LCD.c: 127:  LEER_LCD();
  3727   00377A  EC24  F01A         	call	_LEER_LCD	;wreg free
  3728   00377E                     
  3729                           ;LCD.c: 128:  TRISD = 0b00000000;
  3730   00377E  0E00               	movlw	0
  3731   003780  6EC9               	movwf	201,c	;volatile
  3732   003782                     
  3733                           ;LCD.c: 130:         _delay((unsigned long)((100)*(32000000UL/4000000.0)));
  3734   003782  0EA0               	movlw	160
  3735   003784                     u1437:
  3736   003784  D000               	nop2	
  3737   003786  2EE8               	decfsz	wreg,f,c
  3738   003788  D7FD               	bra	u1437
  3739   00378A                     
  3740                           ;LCD.c: 131:         LATDbits.LATD1 = 0;
  3741   00378A  92C1               	bcf	193,1,c	;volatile
  3742   00378C                     
  3743                           ;LCD.c: 132:  LATDbits.LATD2 = 0;
  3744   00378C  94C1               	bcf	193,2,c	;volatile
  3745   00378E                     
  3746                           ;LCD.c: 133:  LATDbits.LATD0 = 0;
  3747   00378E  90C1               	bcf	193,0,c	;volatile
  3748   003790                     
  3749                           ;LCD.c: 134:  aux = dato & 0xF0;
  3750   003790  5003               	movf	ENVIA_LCD_CMD@dato^(0+1280),w,c
  3751   003792  0BF0               	andlw	240
  3752   003794  6E04               	movwf	ENVIA_LCD_CMD@aux^(0+1280),c
  3753   003796                     
  3754                           ;LCD.c: 135:  ENVIA_NIBBLE(aux);
  3755   003796  5004               	movf	ENVIA_LCD_CMD@aux^(0+1280),w,c
  3756   003798  EC06  F01C         	call	_ENVIA_NIBBLE
  3757   00379C                     
  3758                           ;LCD.c: 136:  aux = dato<<4;
  3759   00379C  3803               	swapf	ENVIA_LCD_CMD@dato^(0+1280),w,c
  3760   00379E  0BF0               	andlw	240
  3761   0037A0  6E04               	movwf	ENVIA_LCD_CMD@aux^(0+1280),c
  3762   0037A2                     
  3763                           ;LCD.c: 137:  ENVIA_NIBBLE(aux);
  3764   0037A2  5004               	movf	ENVIA_LCD_CMD@aux^(0+1280),w,c
  3765   0037A4  EC06  F01C         	call	_ENVIA_NIBBLE
  3766   0037A8  0012               	return		;funcret
  3767   0037AA                     __end_of_ENVIA_LCD_CMD:
  3768                           	callstack 0
  3769                           
  3770 ;; *************** function _LEER_LCD *****************
  3771 ;; Defined at:
  3772 ;;		line 140 in file "LCD.c"
  3773 ;; Parameters:    Size  Location     Type
  3774 ;;		None
  3775 ;; Auto vars:     Size  Location     Type
  3776 ;;  aux             1    1[COMRAM] unsigned char 
  3777 ;; Return value:  Size  Location     Type
  3778 ;;                  1    wreg      void 
  3779 ;; Registers used:
  3780 ;;		wreg, status,2, status,0
  3781 ;; Tracked objects:
  3782 ;;		On entry : 0/0
  3783 ;;		On exit  : 0/0
  3784 ;;		Unchanged: 0/0
  3785 ;; Data sizes:     COMRAM   BANK5   BANK6   BANK7   BANK8   BANK9  BANK10  BANK11  BANK12  BANK13  BANK14  BANK15  BANK1
      +6  BANK17  BANK18  BANK19  BANK20  BANK21  BANK22  BANK23  BANK24  BANK25  BANK26  BANK27  BANK28  BANK29  BANK30  BANK3
      +1  BANK32  BANK33  BANK34  BANK35  BANK36
  3786 ;;      Params:         0       0       0       0       0       0       0       0       0       0       0       0       
      +0       0       0       0       0       0       0       0       0       0       0       0       0       0       0       
      +0       0       0       0       0       0
  3787 ;;      Locals:         1       0       0       0       0       0       0       0       0       0       0       0       
      +0       0       0       0       0       0       0       0       0       0       0       0       0       0       0       
      +0       0       0       0       0       0
  3788 ;;      Temps:          0       0       0       0       0       0       0       0       0       0       0       0       
      +0       0       0       0       0       0       0       0       0       0       0       0       0       0       0       
      +0       0       0       0       0       0
  3789 ;;      Totals:         1       0       0       0       0       0       0       0       0       0       0       0       
      +0       0       0       0       0       0       0       0       0       0       0       0       0       0       0       
      +0       0       0       0       0       0
  3790 ;;Total ram usage:        1 bytes
  3791 ;; Hardware stack levels used: 1
  3792 ;; Hardware stack levels required when called: 1
  3793 ;; This function calls:
  3794 ;;		Nothing
  3795 ;; This function is called by:
  3796 ;;		_ENVIA_LCD_CMD
  3797 ;; This function uses a non-reentrant model
  3798 ;;
  3799                           
  3800                           	psect	text14
  3801   003448                     __ptext14:
  3802                           	callstack 0
  3803   003448                     _LEER_LCD:
  3804                           	callstack 121
  3805   003448                     
  3806                           ;LCD.c: 142:  unsigned char aux;;LCD.c: 143:  TRISD = 0xF8;
  3807   003448  0EF8               	movlw	248
  3808   00344A  6EC9               	movwf	201,c	;volatile
  3809   00344C                     
  3810                           ;LCD.c: 144:  LATDbits.LATD0 = 0;
  3811   00344C  90C1               	bcf	193,0,c	;volatile
  3812   00344E                     
  3813                           ;LCD.c: 145:  LATDbits.LATD1 = 1;
  3814   00344E  82C1               	bsf	193,1,c	;volatile
  3815   003450                     
  3816                           ;LCD.c: 146:  LATDbits.LATD2 = 1;
  3817   003450  84C1               	bsf	193,2,c	;volatile
  3818   003452                     
  3819                           ;LCD.c: 147:         _delay((unsigned long)((100)*(32000000UL/4000000.0)));
  3820   003452  0EA0               	movlw	160
  3821   003454                     u1447:
  3822   003454  D000               	nop2	
  3823   003456  2EE8               	decfsz	wreg,f,c
  3824   003458  D7FD               	bra	u1447
  3825   00345A                     
  3826                           ;LCD.c: 149:  aux = PORTD;
  3827   00345A  C4D1 F502          	movff	1233,LEER_LCD@aux	;volatile
  3828   00345E                     
  3829                           ;LCD.c: 150:  LATDbits.LATD2 = 0;
  3830   00345E  94C1               	bcf	193,2,c	;volatile
  3831   003460                     
  3832                           ;LCD.c: 151:         _delay((unsigned long)((100)*(32000000UL/4000000.0)));
  3833   003460  0EA0               	movlw	160
  3834   003462                     u1457:
  3835   003462  D000               	nop2	
  3836   003464  2EE8               	decfsz	wreg,f,c
  3837   003466  D7FD               	bra	u1457
  3838   003468                     
  3839                           ;LCD.c: 153:  LATDbits.LATD2 = 1;
  3840   003468  84C1               	bsf	193,2,c	;volatile
  3841   00346A                     
  3842                           ;LCD.c: 154:         _delay((unsigned long)((100)*(32000000UL/4000000.0)));
  3843   00346A  0EA0               	movlw	160
  3844   00346C                     u1467:
  3845   00346C  D000               	nop2	
  3846   00346E  2EE8               	decfsz	wreg,f,c
  3847   003470  D7FD               	bra	u1467
  3848   003472                     
  3849                           ;LCD.c: 156:  LATDbits.LATD2 = 0;
  3850   003472  94C1               	bcf	193,2,c	;volatile
  3851   003474                     l1111:
  3852                           
  3853                           ;LCD.c: 157:  aux = aux & 0x80;
  3854   003474  5002               	movf	LEER_LCD@aux^(0+1280),w,c
  3855   003476  0B80               	andlw	128
  3856   003478  6E02               	movwf	LEER_LCD@aux^(0+1280),c
  3857                           
  3858                           ;LCD.c: 158:  while(aux == 0x80)
  3859   00347A  EF53  F01A         	goto	l1125
  3860   00347E                     l93:
  3861                           
  3862                           ;LCD.c: 159:         {;LCD.c: 160:             LATDbits.LATD2 = 1;
  3863   00347E  84C1               	bsf	193,2,c	;volatile
  3864   003480                     
  3865                           ;LCD.c: 161:             _delay((unsigned long)((100)*(32000000UL/4000000.0)));
  3866   003480  0EA0               	movlw	160
  3867   003482                     u1477:
  3868   003482  D000               	nop2	
  3869   003484  2EE8               	decfsz	wreg,f,c
  3870   003486  D7FD               	bra	u1477
  3871   003488                     
  3872                           ;LCD.c: 162:             aux = PORTD;
  3873   003488  C4D1 F502          	movff	1233,LEER_LCD@aux	;volatile
  3874   00348C                     
  3875                           ;LCD.c: 163:             LATDbits.LATD2 = 0;
  3876   00348C  94C1               	bcf	193,2,c	;volatile
  3877                           
  3878                           ;LCD.c: 164:             _delay((unsigned long)((100)*(32000000UL/4000000.0)));
  3879   00348E  0EA0               	movlw	160
  3880   003490                     u1487:
  3881   003490  D000               	nop2	
  3882   003492  2EE8               	decfsz	wreg,f,c
  3883   003494  D7FD               	bra	u1487
  3884   003496                     
  3885                           ;LCD.c: 165:             LATDbits.LATD2 = 1;
  3886   003496  84C1               	bsf	193,2,c	;volatile
  3887                           
  3888                           ;LCD.c: 166:             _delay((unsigned long)((100)*(32000000UL/4000000.0)));
  3889   003498  0EA0               	movlw	160
  3890   00349A                     u1497:
  3891   00349A  D000               	nop2	
  3892   00349C  2EE8               	decfsz	wreg,f,c
  3893   00349E  D7FD               	bra	u1497
  3894   0034A0                     
  3895                           ;LCD.c: 167:             LATDbits.LATD2 = 0;
  3896   0034A0  94C1               	bcf	193,2,c	;volatile
  3897   0034A2  EF3A  F01A         	goto	l1111
  3898   0034A6                     l1125:
  3899                           
  3900                           ;LCD.c: 158:  while(aux == 0x80)
  3901   0034A6  0E80               	movlw	128
  3902   0034A8  1802               	xorwf	LEER_LCD@aux^(0+1280),w,c
  3903   0034AA  B4D8               	btfsc	status,2,c
  3904   0034AC  EF5A  F01A         	goto	u11
  3905   0034B0  EF5C  F01A         	goto	u10
  3906   0034B4                     u11:
  3907   0034B4  EF3F  F01A         	goto	l93
  3908   0034B8                     u10:
  3909   0034B8  0012               	return		;funcret
  3910   0034BA                     __end_of_LEER_LCD:
  3911                           	callstack 0
  3912                           
  3913 ;; *************** function _ESCRIBE_MENSAJE2 *****************
  3914 ;; Defined at:
  3915 ;;		line 66 in file "LCD.c"
  3916 ;; Parameters:    Size  Location     Type
  3917 ;;  cadena          1    5[COMRAM] PTR const unsigned char 
  3918 ;;		 -> STR_2(11), STR_1(15), 
  3919 ;; Auto vars:     Size  Location     Type
  3920 ;;  i               1    8[COMRAM] unsigned char 
  3921 ;;  tam             1    7[COMRAM] unsigned char 
  3922 ;; Return value:  Size  Location     Type
  3923 ;;                  1    wreg      void 
  3924 ;; Registers used:
  3925 ;;		wreg, status,2, status,0, tblptrl, tblptrh, tblptru, cstack
  3926 ;; Tracked objects:
  3927 ;;		On entry : 0/0
  3928 ;;		On exit  : 0/0
  3929 ;;		Unchanged: 0/0
  3930 ;; Data sizes:     COMRAM   BANK5   BANK6   BANK7   BANK8   BANK9  BANK10  BANK11  BANK12  BANK13  BANK14  BANK15  BANK1
      +6  BANK17  BANK18  BANK19  BANK20  BANK21  BANK22  BANK23  BANK24  BANK25  BANK26  BANK27  BANK28  BANK29  BANK30  BANK3
      +1  BANK32  BANK33  BANK34  BANK35  BANK36
  3931 ;;      Params:         1       0       0       0       0       0       0       0       0       0       0       0       
      +0       0       0       0       0       0       0       0       0       0       0       0       0       0       0       
      +0       0       0       0       0       0
  3932 ;;      Locals:         2       0       0       0       0       0       0       0       0       0       0       0       
      +0       0       0       0       0       0       0       0       0       0       0       0       0       0       0       
      +0       0       0       0       0       0
  3933 ;;      Temps:          1       0       0       0       0       0       0       0       0       0       0       0       
      +0       0       0       0       0       0       0       0       0       0       0       0       0       0       0       
      +0       0       0       0       0       0
  3934 ;;      Totals:         4       0       0       0       0       0       0       0       0       0       0       0       
      +0       0       0       0       0       0       0       0       0       0       0       0       0       0       0       
      +0       0       0       0       0       0
  3935 ;;Total ram usage:        4 bytes
  3936 ;; Hardware stack levels used: 1
  3937 ;; Hardware stack levels required when called: 3
  3938 ;; This function calls:
  3939 ;;		_ENVIA_CHAR
  3940 ;;		_strlen
  3941 ;; This function is called by:
  3942 ;;		_main
  3943 ;; This function uses a non-reentrant model
  3944 ;;
  3945                           
  3946                           	psect	text15
  3947   0036B6                     __ptext15:
  3948                           	callstack 0
  3949   0036B6                     _ESCRIBE_MENSAJE2:
  3950                           	callstack 123
  3951   0036B6                     
  3952                           ;LCD.c: 67:     unsigned char tam;;LCD.c: 68:     tam = strlen(cadena);
  3953   0036B6  C506  F502         	movff	ESCRIBE_MENSAJE2@cadena,strlen@s
  3954   0036BA  EC9F  F01B         	call	_strlen	;wreg free
  3955   0036BE  5002               	movf	?_strlen^(0+1280),w,c
  3956   0036C0  6E08               	movwf	ESCRIBE_MENSAJE2@tam^(0+1280),c
  3957   0036C2                     
  3958                           ;LCD.c: 70:  for(i = 0; i<tam; i++) {
  3959   0036C2  0E00               	movlw	0
  3960   0036C4  6E09               	movwf	ESCRIBE_MENSAJE2@i^(0+1280),c
  3961   0036C6  EF73  F01B         	goto	l2221
  3962   0036CA                     l2217:
  3963                           
  3964                           ;LCD.c: 71:   ENVIA_CHAR(cadena[i]);
  3965   0036CA  5006               	movf	ESCRIBE_MENSAJE2@cadena^(0+1280),w,c
  3966   0036CC  2409               	addwf	ESCRIBE_MENSAJE2@i^(0+1280),w,c
  3967   0036CE  6E07               	movwf	??_ESCRIBE_MENSAJE2^(0+1280),c
  3968   0036D0  C507  F4F6         	movff	??_ESCRIBE_MENSAJE2,tblptrl
  3969   0036D4                     	if	1	;There is more than 1 active tblptr byte
  3970   0036D4  0E25               	movlw	high __smallconst
  3971   0036D6  6EF7               	movwf	tblptrh,c
  3972   0036D8                     	endif
  3973   0036D8                     	if	0	;tblptru may be non-zero
  3974   0036D8                     	endif
  3975   0036D8                     	if	1	;Program memory is > 0xFFFF, there are 3 active tblptr bytes
  3976   0036D8  0E00               	movlw	low (__smallconst shr (0+16))
  3977   0036DA  6EF8               	movwf	tblptru,c
  3978   0036DC                     	endif
  3979   0036DC  0008               	tblrd		*
  3980   0036DE  50F5               	movf	tablat,w,c
  3981   0036E0  ECD5  F01B         	call	_ENVIA_CHAR
  3982   0036E4                     
  3983                           ;LCD.c: 72:  }
  3984   0036E4  2A09               	incf	ESCRIBE_MENSAJE2@i^(0+1280),f,c
  3985   0036E6                     l2221:
  3986   0036E6  5008               	movf	ESCRIBE_MENSAJE2@tam^(0+1280),w,c
  3987   0036E8  5C09               	subwf	ESCRIBE_MENSAJE2@i^(0+1280),w,c
  3988   0036EA  A0D8               	btfss	status,0,c
  3989   0036EC  EF7A  F01B         	goto	u1001
  3990   0036F0  EF7C  F01B         	goto	u1000
  3991   0036F4                     u1001:
  3992   0036F4  EF65  F01B         	goto	l2217
  3993   0036F8                     u1000:
  3994   0036F8  0012               	return		;funcret
  3995   0036FA                     __end_of_ESCRIBE_MENSAJE2:
  3996                           	callstack 0
  3997                           
  3998 ;; *************** function _strlen *****************
  3999 ;; Defined at:
  4000 ;;		line 5 in file "C:\Program Files\Microchip\xc8\v2.46\pic\sources\c99\common\strlen.c"
  4001 ;; Parameters:    Size  Location     Type
  4002 ;;  s               1    1[COMRAM] PTR const unsigned char 
  4003 ;;		 -> STR_2(11), STR_1(15), 
  4004 ;; Auto vars:     Size  Location     Type
  4005 ;;  a               1    3[COMRAM] PTR const unsigned char 
  4006 ;;		 -> STR_2(11), STR_1(15), 
  4007 ;; Return value:  Size  Location     Type
  4008 ;;                  2    1[COMRAM] unsigned int 
  4009 ;; Registers used:
  4010 ;;		wreg, status,2, status,0, tblptrl, tblptrh, tblptru
  4011 ;; Tracked objects:
  4012 ;;		On entry : 0/0
  4013 ;;		On exit  : 0/0
  4014 ;;		Unchanged: 0/0
  4015 ;; Data sizes:     COMRAM   BANK5   BANK6   BANK7   BANK8   BANK9  BANK10  BANK11  BANK12  BANK13  BANK14  BANK15  BANK1
      +6  BANK17  BANK18  BANK19  BANK20  BANK21  BANK22  BANK23  BANK24  BANK25  BANK26  BANK27  BANK28  BANK29  BANK30  BANK3
      +1  BANK32  BANK33  BANK34  BANK35  BANK36
  4016 ;;      Params:         2       0       0       0       0       0       0       0       0       0       0       0       
      +0       0       0       0       0       0       0       0       0       0       0       0       0       0       0       
      +0       0       0       0       0       0
  4017 ;;      Locals:         1       0       0       0       0       0       0       0       0       0       0       0       
      +0       0       0       0       0       0       0       0       0       0       0       0       0       0       0       
      +0       0       0       0       0       0
  4018 ;;      Temps:          0       0       0       0       0       0       0       0       0       0       0       0       
      +0       0       0       0       0       0       0       0       0       0       0       0       0       0       0       
      +0       0       0       0       0       0
  4019 ;;      Totals:         3       0       0       0       0       0       0       0       0       0       0       0       
      +0       0       0       0       0       0       0       0       0       0       0       0       0       0       0       
      +0       0       0       0       0       0
  4020 ;;Total ram usage:        3 bytes
  4021 ;; Hardware stack levels used: 1
  4022 ;; Hardware stack levels required when called: 1
  4023 ;; This function calls:
  4024 ;;		Nothing
  4025 ;; This function is called by:
  4026 ;;		_ESCRIBE_MENSAJE2
  4027 ;; This function uses a non-reentrant model
  4028 ;;
  4029                           
  4030                           	psect	text16
  4031   00373E                     __ptext16:
  4032                           	callstack 0
  4033   00373E                     _strlen:
  4034                           	callstack 124
  4035   00373E  C502  F504         	movff	strlen@s,strlen@a
  4036   003742  EFA4  F01B         	goto	l2093
  4037   003746                     l2091:
  4038   003746  2A02               	incf	strlen@s^(0+1280),f,c
  4039   003748                     l2093:
  4040   003748  C502  F4F6         	movff	strlen@s,tblptrl
  4041   00374C                     	if	1	;There is more than 1 active tblptr byte
  4042   00374C  0E25               	movlw	high __smallconst
  4043   00374E  6EF7               	movwf	tblptrh,c
  4044   003750                     	endif
  4045   003750                     	if	0	;tblptru may be non-zero
  4046   003750                     	endif
  4047   003750                     	if	1	;Program memory is > 0xFFFF, there are 3 active tblptr bytes
  4048   003750  0E00               	movlw	low (__smallconst shr (0+16))
  4049   003752  6EF8               	movwf	tblptru,c
  4050   003754                     	endif
  4051   003754  0008               	tblrd		*
  4052   003756  50F5               	movf	tablat,w,c
  4053   003758  0900               	iorlw	0
  4054   00375A  A4D8               	btfss	status,2,c
  4055   00375C  EFB2  F01B         	goto	u831
  4056   003760  EFB4  F01B         	goto	u830
  4057   003764                     u831:
  4058   003764  EFA3  F01B         	goto	l2091
  4059   003768                     u830:
  4060   003768  5004               	movf	strlen@a^(0+1280),w,c
  4061   00376A  5C02               	subwf	strlen@s^(0+1280),w,c
  4062   00376C  6E02               	movwf	?_strlen^(0+1280),c
  4063   00376E  6A03               	clrf	(?_strlen+1)^(0+1280),c
  4064   003770  BE02               	btfsc	?_strlen^(0+1280),7,c
  4065   003772  0603               	decf	(?_strlen+1)^(0+1280),f,c
  4066   003774  0012               	return		;funcret
  4067   003776                     __end_of_strlen:
  4068                           	callstack 0
  4069                           
  4070 ;; *************** function _ENVIA_CHAR *****************
  4071 ;; Defined at:
  4072 ;;		line 75 in file "LCD.c"
  4073 ;; Parameters:    Size  Location     Type
  4074 ;;  dato            1    wreg     unsigned char 
  4075 ;; Auto vars:     Size  Location     Type
  4076 ;;  dato            1    3[COMRAM] unsigned char 
  4077 ;;  aux             1    4[COMRAM] unsigned char 
  4078 ;; Return value:  Size  Location     Type
  4079 ;;                  1    wreg      void 
  4080 ;; Registers used:
  4081 ;;		wreg, status,2, status,0, cstack
  4082 ;; Tracked objects:
  4083 ;;		On entry : 0/0
  4084 ;;		On exit  : 0/0
  4085 ;;		Unchanged: 0/0
  4086 ;; Data sizes:     COMRAM   BANK5   BANK6   BANK7   BANK8   BANK9  BANK10  BANK11  BANK12  BANK13  BANK14  BANK15  BANK1
      +6  BANK17  BANK18  BANK19  BANK20  BANK21  BANK22  BANK23  BANK24  BANK25  BANK26  BANK27  BANK28  BANK29  BANK30  BANK3
      +1  BANK32  BANK33  BANK34  BANK35  BANK36
  4087 ;;      Params:         0       0       0       0       0       0       0       0       0       0       0       0       
      +0       0       0       0       0       0       0       0       0       0       0       0       0       0       0       
      +0       0       0       0       0       0
  4088 ;;      Locals:         2       0       0       0       0       0       0       0       0       0       0       0       
      +0       0       0       0       0       0       0       0       0       0       0       0       0       0       0       
      +0       0       0       0       0       0
  4089 ;;      Temps:          1       0       0       0       0       0       0       0       0       0       0       0       
      +0       0       0       0       0       0       0       0       0       0       0       0       0       0       0       
      +0       0       0       0       0       0
  4090 ;;      Totals:         3       0       0       0       0       0       0       0       0       0       0       0       
      +0       0       0       0       0       0       0       0       0       0       0       0       0       0       0       
      +0       0       0       0       0       0
  4091 ;;Total ram usage:        3 bytes
  4092 ;; Hardware stack levels used: 1
  4093 ;; Hardware stack levels required when called: 2
  4094 ;; This function calls:
  4095 ;;		_ENVIA_NIBBLE
  4096 ;; This function is called by:
  4097 ;;		_ESCRIBE_MENSAJE2
  4098 ;;		_ESCRIBE_MENSAJE
  4099 ;;		_GENERACARACTER
  4100 ;;		_LCD_ESCRIBE_VAR_CHAR
  4101 ;;		_LCD_ESCRIBE_VAR_INT
  4102 ;;		_LCD_CHAR_GRADO
  4103 ;;		_LCD_VARCHAR_BITS
  4104 ;;		_LCD_VARCHAR_HEX
  4105 ;; This function uses a non-reentrant model
  4106 ;;
  4107                           
  4108                           	psect	text17
  4109   0037AA                     __ptext17:
  4110                           	callstack 0
  4111   0037AA                     _ENVIA_CHAR:
  4112                           	callstack 123
  4113                           
  4114                           ;incstack = 0
  4115                           ;ENVIA_CHAR@dato stored from wreg
  4116   0037AA  6E04               	movwf	ENVIA_CHAR@dato^(0+1280),c
  4117   0037AC                     
  4118                           ;LCD.c: 76:  unsigned char aux;;LCD.c: 77:  LATDbits.LATD0 = 1;
  4119   0037AC  80C1               	bsf	193,0,c	;volatile
  4120   0037AE                     
  4121                           ;LCD.c: 80:     _delay((unsigned long)((250)*(32000000UL/4000000.0)));
  4122   0037AE  0E03               	movlw	3
  4123   0037B0  6E03               	movwf	??_ENVIA_CHAR^(0+1280),c
  4124   0037B2  0E98               	movlw	152
  4125   0037B4                     u1507:
  4126   0037B4  2EE8               	decfsz	wreg,f,c
  4127   0037B6  D7FE               	bra	u1507
  4128   0037B8  2E03               	decfsz	??_ENVIA_CHAR^(0+1280),f,c
  4129   0037BA  D7FC               	bra	u1507
  4130   0037BC                     
  4131                           ;LCD.c: 81:  LATDbits.LATD1 = 0;
  4132   0037BC  92C1               	bcf	193,1,c	;volatile
  4133   0037BE                     
  4134                           ;LCD.c: 82:  LATDbits.LATD2 = 0;
  4135   0037BE  94C1               	bcf	193,2,c	;volatile
  4136   0037C0                     
  4137                           ;LCD.c: 83:  LATDbits.LATD0 = 1;
  4138   0037C0  80C1               	bsf	193,0,c	;volatile
  4139   0037C2                     
  4140                           ;LCD.c: 84:  aux = dato & 0xF0;
  4141   0037C2  5004               	movf	ENVIA_CHAR@dato^(0+1280),w,c
  4142   0037C4  0BF0               	andlw	240
  4143   0037C6  6E05               	movwf	ENVIA_CHAR@aux^(0+1280),c
  4144   0037C8                     
  4145                           ;LCD.c: 85:  ENVIA_NIBBLE(aux);
  4146   0037C8  5005               	movf	ENVIA_CHAR@aux^(0+1280),w,c
  4147   0037CA  EC06  F01C         	call	_ENVIA_NIBBLE
  4148   0037CE                     
  4149                           ;LCD.c: 86:  aux = dato << 4;
  4150   0037CE  3804               	swapf	ENVIA_CHAR@dato^(0+1280),w,c
  4151   0037D0  0BF0               	andlw	240
  4152   0037D2  6E05               	movwf	ENVIA_CHAR@aux^(0+1280),c
  4153   0037D4                     
  4154                           ;LCD.c: 87:  ENVIA_NIBBLE(aux);
  4155   0037D4  5005               	movf	ENVIA_CHAR@aux^(0+1280),w,c
  4156   0037D6  EC06  F01C         	call	_ENVIA_NIBBLE
  4157   0037DA  0012               	return		;funcret
  4158   0037DC                     __end_of_ENVIA_CHAR:
  4159                           	callstack 0
  4160                           
  4161 ;; *************** function _ENVIA_NIBBLE *****************
  4162 ;; Defined at:
  4163 ;;		line 112 in file "LCD.c"
  4164 ;; Parameters:    Size  Location     Type
  4165 ;;  dato            1    wreg     unsigned char 
  4166 ;; Auto vars:     Size  Location     Type
  4167 ;;  dato            1    1[COMRAM] unsigned char 
  4168 ;; Return value:  Size  Location     Type
  4169 ;;                  1    wreg      void 
  4170 ;; Registers used:
  4171 ;;		wreg, status,2, status,0
  4172 ;; Tracked objects:
  4173 ;;		On entry : 0/0
  4174 ;;		On exit  : 0/0
  4175 ;;		Unchanged: 0/0
  4176 ;; Data sizes:     COMRAM   BANK5   BANK6   BANK7   BANK8   BANK9  BANK10  BANK11  BANK12  BANK13  BANK14  BANK15  BANK1
      +6  BANK17  BANK18  BANK19  BANK20  BANK21  BANK22  BANK23  BANK24  BANK25  BANK26  BANK27  BANK28  BANK29  BANK30  BANK3
      +1  BANK32  BANK33  BANK34  BANK35  BANK36
  4177 ;;      Params:         0       0       0       0       0       0       0       0       0       0       0       0       
      +0       0       0       0       0       0       0       0       0       0       0       0       0       0       0       
      +0       0       0       0       0       0
  4178 ;;      Locals:         1       0       0       0       0       0       0       0       0       0       0       0       
      +0       0       0       0       0       0       0       0       0       0       0       0       0       0       0       
      +0       0       0       0       0       0
  4179 ;;      Temps:          0       0       0       0       0       0       0       0       0       0       0       0       
      +0       0       0       0       0       0       0       0       0       0       0       0       0       0       0       
      +0       0       0       0       0       0
  4180 ;;      Totals:         1       0       0       0       0       0       0       0       0       0       0       0       
      +0       0       0       0       0       0       0       0       0       0       0       0       0       0       0       
      +0       0       0       0       0       0
  4181 ;;Total ram usage:        1 bytes
  4182 ;; Hardware stack levels used: 1
  4183 ;; Hardware stack levels required when called: 1
  4184 ;; This function calls:
  4185 ;;		Nothing
  4186 ;; This function is called by:
  4187 ;;		_ENVIA_CHAR
  4188 ;;		_LCD_CONFIG
  4189 ;;		_ENVIA_LCD_CMD
  4190 ;; This function uses a non-reentrant model
  4191 ;;
  4192                           
  4193                           	psect	text18
  4194   00380C                     __ptext18:
  4195                           	callstack 0
  4196   00380C                     _ENVIA_NIBBLE:
  4197                           	callstack 122
  4198                           
  4199                           ;incstack = 0
  4200                           ;ENVIA_NIBBLE@dato stored from wreg
  4201   00380C  6E02               	movwf	ENVIA_NIBBLE@dato^(0+1280),c
  4202   00380E                     
  4203                           ;LCD.c: 112: void ENVIA_NIBBLE(unsigned char dato);LCD.c: 113: {;LCD.c: 114:  LATD &= 0x
      +                          0F;
  4204   00380E  0E0F               	movlw	15
  4205   003810  16C1               	andwf	193,f,c	;volatile
  4206                           
  4207                           ;LCD.c: 115:  dato &= 0xF0;
  4208   003812  0EF0               	movlw	240
  4209   003814  1602               	andwf	ENVIA_NIBBLE@dato^(0+1280),f,c
  4210                           
  4211                           ;LCD.c: 116:  LATD|= dato;
  4212   003816  5002               	movf	ENVIA_NIBBLE@dato^(0+1280),w,c	;volatile
  4213   003818  12C1               	iorwf	193,f,c	;volatile
  4214   00381A                     
  4215                           ;LCD.c: 117:  LATDbits.LATD2 = 1;
  4216   00381A  84C1               	bsf	193,2,c	;volatile
  4217   00381C                     
  4218                           ;LCD.c: 119:         _delay((unsigned long)((100)*(32000000UL/4000000.0)));
  4219   00381C  0EA0               	movlw	160
  4220   00381E                     u1517:
  4221   00381E  D000               	nop2	
  4222   003820  2EE8               	decfsz	wreg,f,c
  4223   003822  D7FD               	bra	u1517
  4224   003824                     
  4225                           ;LCD.c: 120:  LATDbits.LATD2 = 0;
  4226   003824  94C1               	bcf	193,2,c	;volatile
  4227   003826  0012               	return		;funcret
  4228   003828                     __end_of_ENVIA_NIBBLE:
  4229                           	callstack 0
  4230                           
  4231 ;; *************** function _TMR0_ISR *****************
  4232 ;; Defined at:
  4233 ;;		line 288 in file "maincode02.c"
  4234 ;; Parameters:    Size  Location     Type
  4235 ;;		None
  4236 ;; Auto vars:     Size  Location     Type
  4237 ;;		None
  4238 ;; Return value:  Size  Location     Type
  4239 ;;                  1    wreg      void 
  4240 ;; Registers used:
  4241 ;;		wreg, status,2, status,0
  4242 ;; Tracked objects:
  4243 ;;		On entry : 0/0
  4244 ;;		On exit  : 0/0
  4245 ;;		Unchanged: 0/0
  4246 ;; Data sizes:     COMRAM   BANK5   BANK6   BANK7   BANK8   BANK9  BANK10  BANK11  BANK12  BANK13  BANK14  BANK15  BANK1
      +6  BANK17  BANK18  BANK19  BANK20  BANK21  BANK22  BANK23  BANK24  BANK25  BANK26  BANK27  BANK28  BANK29  BANK30  BANK3
      +1  BANK32  BANK33  BANK34  BANK35  BANK36
  4247 ;;      Params:         0       0       0       0       0       0       0       0       0       0       0       0       
      +0       0       0       0       0       0       0       0       0       0       0       0       0       0       0       
      +0       0       0       0       0       0
  4248 ;;      Locals:         0       0       0       0       0       0       0       0       0       0       0       0       
      +0       0       0       0       0       0       0       0       0       0       0       0       0       0       0       
      +0       0       0       0       0       0
  4249 ;;      Temps:          1       0       0       0       0       0       0       0       0       0       0       0       
      +0       0       0       0       0       0       0       0       0       0       0       0       0       0       0       
      +0       0       0       0       0       0
  4250 ;;      Totals:         1       0       0       0       0       0       0       0       0       0       0       0       
      +0       0       0       0       0       0       0       0       0       0       0       0       0       0       0       
      +0       0       0       0       0       0
  4251 ;;Total ram usage:        1 bytes
  4252 ;; Hardware stack levels used: 1
  4253 ;; This function calls:
  4254 ;;		Nothing
  4255 ;; This function is called by:
  4256 ;;		Interrupt level 2
  4257 ;; This function uses a non-reentrant model
  4258 ;;
  4259                           
  4260                           	psect	text19
  4261   0036FC                     __ptext19:
  4262                           	callstack 0
  4263   0036FC                     _TMR0_ISR:
  4264                           	callstack 121
  4265   0036FC                     
  4266                           ;maincode02.c: 289:     PIR3bits.TMR0IF = 0;
  4267   0036FC  9EB1               	bcf	177,7,c	;volatile
  4268   0036FE                     
  4269                           ;maincode02.c: 290:     LATFbits.LATF3 = !LATFbits.LATF3;
  4270   0036FE  A6C3               	btfss	195,3,c	;volatile
  4271   003700  EF84  F01B         	goto	i2u74_41
  4272   003704  EF88  F01B         	goto	i2u74_40
  4273   003708                     i2u74_41:
  4274   003708  6A01               	clrf	??_TMR0_ISR^(0+1280),c
  4275   00370A  2A01               	incf	??_TMR0_ISR^(0+1280),f,c
  4276   00370C  EF89  F01B         	goto	i2u75_48
  4277   003710                     i2u74_40:
  4278   003710  6A01               	clrf	??_TMR0_ISR^(0+1280),c
  4279   003712                     i2u75_48:
  4280   003712  4601               	rlncf	??_TMR0_ISR^(0+1280),f,c
  4281   003714  4601               	rlncf	??_TMR0_ISR^(0+1280),f,c
  4282   003716  4601               	rlncf	??_TMR0_ISR^(0+1280),f,c
  4283   003718  50C3               	movf	195,w,c	;volatile
  4284   00371A  1801               	xorwf	??_TMR0_ISR^(0+1280),w,c
  4285   00371C  0BF7               	andlw	-9
  4286   00371E  1801               	xorwf	??_TMR0_ISR^(0+1280),w,c
  4287   003720  6EC3               	movwf	195,c	;volatile
  4288                           
  4289                           ;maincode02.c: 291:     if(desplazamiento < 40){
  4290   003722  0E28               	movlw	40
  4291   003724  6056               	cpfslt	_desplazamiento^(0+1280),c
  4292   003726  EF97  F01B         	goto	i2u76_41
  4293   00372A  EF99  F01B         	goto	i2u76_40
  4294   00372E                     i2u76_41:
  4295   00372E  EF9C  F01B         	goto	i2l2057
  4296   003732                     i2u76_40:
  4297   003732                     
  4298                           ;maincode02.c: 292:         desplazamiento++;
  4299   003732  2A56               	incf	_desplazamiento^(0+1280),f,c
  4300                           
  4301                           ;maincode02.c: 293:     }
  4302   003734  EF9E  F01B         	goto	i2l394
  4303   003738                     i2l2057:
  4304                           
  4305                           ;maincode02.c: 295:         desplazamiento = 0;
  4306   003738  0E00               	movlw	0
  4307   00373A  6E56               	movwf	_desplazamiento^(0+1280),c
  4308   00373C                     i2l394:
  4309   00373C  0011               	retfie		f
  4310   00373E                     __end_of_TMR0_ISR:
  4311                           	callstack 0
  4312                           
  4313 ;; *************** function _default_ISR *****************
  4314 ;; Defined at:
  4315 ;;		line 299 in file "maincode02.c"
  4316 ;; Parameters:    Size  Location     Type
  4317 ;;		None
  4318 ;; Auto vars:     Size  Location     Type
  4319 ;;		None
  4320 ;; Return value:  Size  Location     Type
  4321 ;;                  1    wreg      void 
  4322 ;; Registers used:
  4323 ;;		None
  4324 ;; Tracked objects:
  4325 ;;		On entry : 0/0
  4326 ;;		On exit  : 0/0
  4327 ;;		Unchanged: 0/0
  4328 ;; Data sizes:     COMRAM   BANK5   BANK6   BANK7   BANK8   BANK9  BANK10  BANK11  BANK12  BANK13  BANK14  BANK15  BANK1
      +6  BANK17  BANK18  BANK19  BANK20  BANK21  BANK22  BANK23  BANK24  BANK25  BANK26  BANK27  BANK28  BANK29  BANK30  BANK3
      +1  BANK32  BANK33  BANK34  BANK35  BANK36
  4329 ;;      Params:         0       0       0       0       0       0       0       0       0       0       0       0       
      +0       0       0       0       0       0       0       0       0       0       0       0       0       0       0       
      +0       0       0       0       0       0
  4330 ;;      Locals:         0       0       0       0       0       0       0       0       0       0       0       0       
      +0       0       0       0       0       0       0       0       0       0       0       0       0       0       0       
      +0       0       0       0       0       0
  4331 ;;      Temps:          0       0       0       0       0       0       0       0       0       0       0       0       
      +0       0       0       0       0       0       0       0       0       0       0       0       0       0       0       
      +0       0       0       0       0       0
  4332 ;;      Totals:         0       0       0       0       0       0       0       0       0       0       0       0       
      +0       0       0       0       0       0       0       0       0       0       0       0       0       0       0       
      +0       0       0       0       0       0
  4333 ;;Total ram usage:        0 bytes
  4334 ;; Hardware stack levels used: 1
  4335 ;; This function calls:
  4336 ;;		Nothing
  4337 ;; This function is called by:
  4338 ;;		Interrupt level 2
  4339 ;; This function uses a non-reentrant model
  4340 ;;
  4341                           
  4342                           	psect	text20
  4343   003838                     __ptext20:
  4344                           	callstack 0
  4345   003838                     _default_ISR:
  4346                           	callstack 121
  4347   003838  0011               	retfie		f
  4348   00383A                     __end_of_default_ISR:
  4349                           	callstack 0
  4350                           
  4351                           ;
  4352                           ; H/W Interrupt Vector Table @ 0x8
  4353                           ;
  4354                           
  4355                           	psect	ivt0x8
  4356   000008                     __pivt0x8:
  4357                           	callstack 0
  4358   000008                     ivt0x8_base:
  4359                           	callstack 0
  4360                           
  4361                           ; Vector 0 : SWINT
  4362   000008  0E0E               	dw	_default_ISR shr (0+2)
  4363                           
  4364                           ; Vector 1 : HLVD
  4365   00000A  0E0E               	dw	_default_ISR shr (0+2)
  4366                           
  4367                           ; Vector 2 : OSF
  4368   00000C  0E0E               	dw	_default_ISR shr (0+2)
  4369                           
  4370                           ; Vector 3 : CSW
  4371   00000E  0E0E               	dw	_default_ISR shr (0+2)
  4372                           
  4373                           ; Vector 4 : Undefined
  4374   000010  0040               	dw	ivt0x8_undefint shr (0+2)
  4375                           
  4376                           ; Vector 5 : CLC1
  4377   000012  0E0E               	dw	_default_ISR shr (0+2)
  4378                           
  4379                           ; Vector 6 : Undefined
  4380   000014  0040               	dw	ivt0x8_undefint shr (0+2)
  4381                           
  4382                           ; Vector 7 : IOC
  4383   000016  0E0E               	dw	_default_ISR shr (0+2)
  4384                           
  4385                           ; Vector 8 : INT0
  4386   000018  0E0E               	dw	_default_ISR shr (0+2)
  4387                           
  4388                           ; Vector 9 : ZCD
  4389   00001A  0E0E               	dw	_default_ISR shr (0+2)
  4390                           
  4391                           ; Vector 10 : AD
  4392   00001C  0E0E               	dw	_default_ISR shr (0+2)
  4393                           
  4394                           ; Vector 11 : ACT
  4395   00001E  0E0E               	dw	_default_ISR shr (0+2)
  4396                           
  4397                           ; Vector 12 : CMP1
  4398   000020  0E0E               	dw	_default_ISR shr (0+2)
  4399                           
  4400                           ; Vector 13 : SMT1
  4401   000022  0E0E               	dw	_default_ISR shr (0+2)
  4402                           
  4403                           ; Vector 14 : SMT1PRA
  4404   000024  0E0E               	dw	_default_ISR shr (0+2)
  4405                           
  4406                           ; Vector 15 : SMT1PRW
  4407   000026  0E0E               	dw	_default_ISR shr (0+2)
  4408                           
  4409                           ; Vector 16 : ADT
  4410   000028  0E0E               	dw	_default_ISR shr (0+2)
  4411                           
  4412                           ; Vector 17 : Undefined
  4413   00002A  0040               	dw	ivt0x8_undefint shr (0+2)
  4414                           
  4415                           ; Vector 18 : Undefined
  4416   00002C  0040               	dw	ivt0x8_undefint shr (0+2)
  4417                           
  4418                           ; Vector 19 : Undefined
  4419   00002E  0040               	dw	ivt0x8_undefint shr (0+2)
  4420                           
  4421                           ; Vector 20 : DMA1SCNT
  4422   000030  0E0E               	dw	_default_ISR shr (0+2)
  4423                           
  4424                           ; Vector 21 : DMA1DCNT
  4425   000032  0E0E               	dw	_default_ISR shr (0+2)
  4426                           
  4427                           ; Vector 22 : DMA1OR
  4428   000034  0E0E               	dw	_default_ISR shr (0+2)
  4429                           
  4430                           ; Vector 23 : DMA1A
  4431   000036  0E0E               	dw	_default_ISR shr (0+2)
  4432                           
  4433                           ; Vector 24 : SPI1RX
  4434   000038  0E0E               	dw	_default_ISR shr (0+2)
  4435                           
  4436                           ; Vector 25 : SPI1TX
  4437   00003A  0E0E               	dw	_default_ISR shr (0+2)
  4438                           
  4439                           ; Vector 26 : SPI1
  4440   00003C  0E0E               	dw	_default_ISR shr (0+2)
  4441                           
  4442                           ; Vector 27 : TMR2
  4443   00003E  0E0E               	dw	_default_ISR shr (0+2)
  4444                           
  4445                           ; Vector 28 : TMR1
  4446   000040  0E0E               	dw	_default_ISR shr (0+2)
  4447                           
  4448                           ; Vector 29 : TMR1G
  4449   000042  0E0E               	dw	_default_ISR shr (0+2)
  4450                           
  4451                           ; Vector 30 : CCP1
  4452   000044  0E0E               	dw	_default_ISR shr (0+2)
  4453                           
  4454                           ; Vector 31 : TMR0
  4455   000046  0DBF               	dw	_TMR0_ISR shr (0+2)
  4456                           
  4457                           ; Vector 32 : U1RX
  4458   000048  0E0E               	dw	_default_ISR shr (0+2)
  4459                           
  4460                           ; Vector 33 : U1TX
  4461   00004A  0E0E               	dw	_default_ISR shr (0+2)
  4462                           
  4463                           ; Vector 34 : U1E
  4464   00004C  0E0E               	dw	_default_ISR shr (0+2)
  4465                           
  4466                           ; Vector 35 : U1
  4467   00004E  0E0E               	dw	_default_ISR shr (0+2)
  4468                           
  4469                           ; Vector 36 : Undefined
  4470   000050  0040               	dw	ivt0x8_undefint shr (0+2)
  4471                           
  4472                           ; Vector 37 : Undefined
  4473   000052  0040               	dw	ivt0x8_undefint shr (0+2)
  4474                           
  4475                           ; Vector 38 : PWM1PR
  4476   000054  0E0E               	dw	_default_ISR shr (0+2)
  4477                           
  4478                           ; Vector 39 : PWM1
  4479   000056  0E0E               	dw	_default_ISR shr (0+2)
  4480                           
  4481                           ; Vector 40 : SPI2RX
  4482   000058  0E0E               	dw	_default_ISR shr (0+2)
  4483                           
  4484                           ; Vector 41 : SPI2TX
  4485   00005A  0E0E               	dw	_default_ISR shr (0+2)
  4486                           
  4487                           ; Vector 42 : SPI2
  4488   00005C  0E0E               	dw	_default_ISR shr (0+2)
  4489                           
  4490                           ; Vector 43 : Undefined
  4491   00005E  0040               	dw	ivt0x8_undefint shr (0+2)
  4492                           
  4493                           ; Vector 44 : TMR3
  4494   000060  0E0E               	dw	_default_ISR shr (0+2)
  4495                           
  4496                           ; Vector 45 : TMR3G
  4497   000062  0E0E               	dw	_default_ISR shr (0+2)
  4498                           
  4499                           ; Vector 46 : PWM2PR
  4500   000064  0E0E               	dw	_default_ISR shr (0+2)
  4501                           
  4502                           ; Vector 47 : PWM2
  4503   000066  0E0E               	dw	_default_ISR shr (0+2)
  4504                           
  4505                           ; Vector 48 : INT1
  4506   000068  0E0E               	dw	_default_ISR shr (0+2)
  4507                           
  4508                           ; Vector 49 : CLC2
  4509   00006A  0E0E               	dw	_default_ISR shr (0+2)
  4510                           
  4511                           ; Vector 50 : CWG1
  4512   00006C  0E0E               	dw	_default_ISR shr (0+2)
  4513                           
  4514                           ; Vector 51 : NCO1
  4515   00006E  0E0E               	dw	_default_ISR shr (0+2)
  4516                           
  4517                           ; Vector 52 : DMA2SCNT
  4518   000070  0E0E               	dw	_default_ISR shr (0+2)
  4519                           
  4520                           ; Vector 53 : DMA2DCNT
  4521   000072  0E0E               	dw	_default_ISR shr (0+2)
  4522                           
  4523                           ; Vector 54 : DMA2OR
  4524   000074  0E0E               	dw	_default_ISR shr (0+2)
  4525                           
  4526                           ; Vector 55 : DMA2A
  4527   000076  0E0E               	dw	_default_ISR shr (0+2)
  4528                           
  4529                           ; Vector 56 : I2C1RX
  4530   000078  0E0E               	dw	_default_ISR shr (0+2)
  4531                           
  4532                           ; Vector 57 : I2C1TX
  4533   00007A  0E0E               	dw	_default_ISR shr (0+2)
  4534                           
  4535                           ; Vector 58 : I2C1
  4536   00007C  0E0E               	dw	_default_ISR shr (0+2)
  4537                           
  4538                           ; Vector 59 : I2C1E
  4539   00007E  0E0E               	dw	_default_ISR shr (0+2)
  4540                           
  4541                           ; Vector 60 : Undefined
  4542   000080  0040               	dw	ivt0x8_undefint shr (0+2)
  4543                           
  4544                           ; Vector 61 : CLC3
  4545   000082  0E0E               	dw	_default_ISR shr (0+2)
  4546                           
  4547                           ; Vector 62 : PWM3PR
  4548   000084  0E0E               	dw	_default_ISR shr (0+2)
  4549                           
  4550                           ; Vector 63 : PWM3
  4551   000086  0E0E               	dw	_default_ISR shr (0+2)
  4552                           
  4553                           ; Vector 64 : U2RX
  4554   000088  0E0E               	dw	_default_ISR shr (0+2)
  4555                           
  4556                           ; Vector 65 : U2TX
  4557   00008A  0E0E               	dw	_default_ISR shr (0+2)
  4558                           
  4559                           ; Vector 66 : U2E
  4560   00008C  0E0E               	dw	_default_ISR shr (0+2)
  4561                           
  4562                           ; Vector 67 : U2
  4563   00008E  0E0E               	dw	_default_ISR shr (0+2)
  4564                           
  4565                           ; Vector 68 : TMR5
  4566   000090  0E0E               	dw	_default_ISR shr (0+2)
  4567                           
  4568                           ; Vector 69 : TMR5G
  4569   000092  0E0E               	dw	_default_ISR shr (0+2)
  4570                           
  4571                           ; Vector 70 : CCP2
  4572   000094  0E0E               	dw	_default_ISR shr (0+2)
  4573                           
  4574                           ; Vector 71 : SCAN
  4575   000096  0E0E               	dw	_default_ISR shr (0+2)
  4576                           
  4577                           ; Vector 72 : U3RX
  4578   000098  0E0E               	dw	_default_ISR shr (0+2)
  4579                           
  4580                           ; Vector 73 : U3TX
  4581   00009A  0E0E               	dw	_default_ISR shr (0+2)
  4582                           
  4583                           ; Vector 74 : U3E
  4584   00009C  0E0E               	dw	_default_ISR shr (0+2)
  4585                           
  4586                           ; Vector 75 : U3
  4587   00009E  0E0E               	dw	_default_ISR shr (0+2)
  4588                           
  4589                           ; Vector 76 : Undefined
  4590   0000A0  0040               	dw	ivt0x8_undefint shr (0+2)
  4591                           
  4592                           ; Vector 77 : CLC4
  4593   0000A2  0E0E               	dw	_default_ISR shr (0+2)
  4594                           
  4595                           ; Vector 78 : Undefined
  4596   0000A4  0040               	dw	ivt0x8_undefint shr (0+2)
  4597                           
  4598                           ; Vector 79 : Undefined
  4599   0000A6  0040               	dw	ivt0x8_undefint shr (0+2)
  4600                           
  4601                           ; Vector 80 : INT2
  4602   0000A8  0E0E               	dw	_default_ISR shr (0+2)
  4603                           
  4604                           ; Vector 81 : CLC5
  4605   0000AA  0E0E               	dw	_default_ISR shr (0+2)
  4606                           
  4607                           ; Vector 82 : CWG2
  4608   0000AC  0E0E               	dw	_default_ISR shr (0+2)
  4609                           
  4610                           ; Vector 83 : NCO2
  4611   0000AE  0E0E               	dw	_default_ISR shr (0+2)
  4612                           
  4613                           ; Vector 84 : DMA3SCNT
  4614   0000B0  0E0E               	dw	_default_ISR shr (0+2)
  4615                           
  4616                           ; Vector 85 : DMA3DCNT
  4617   0000B2  0E0E               	dw	_default_ISR shr (0+2)
  4618                           
  4619                           ; Vector 86 : DMA3OR
  4620   0000B4  0E0E               	dw	_default_ISR shr (0+2)
  4621                           
  4622                           ; Vector 87 : DMA3A
  4623   0000B6  0E0E               	dw	_default_ISR shr (0+2)
  4624                           
  4625                           ; Vector 88 : CCP3
  4626   0000B8  0E0E               	dw	_default_ISR shr (0+2)
  4627                           
  4628                           ; Vector 89 : CLC6
  4629   0000BA  0E0E               	dw	_default_ISR shr (0+2)
  4630                           
  4631                           ; Vector 90 : CWG3
  4632   0000BC  0E0E               	dw	_default_ISR shr (0+2)
  4633                           
  4634                           ; Vector 91 : TMR4
  4635   0000BE  0E0E               	dw	_default_ISR shr (0+2)
  4636                           
  4637                           ; Vector 92 : DMA4SCNT
  4638   0000C0  0E0E               	dw	_default_ISR shr (0+2)
  4639                           
  4640                           ; Vector 93 : DMA4DCNT
  4641   0000C2  0E0E               	dw	_default_ISR shr (0+2)
  4642                           
  4643                           ; Vector 94 : DMA4OR
  4644   0000C4  0E0E               	dw	_default_ISR shr (0+2)
  4645                           
  4646                           ; Vector 95 : DMA4A
  4647   0000C6  0E0E               	dw	_default_ISR shr (0+2)
  4648                           
  4649                           ; Vector 96 : U4RX
  4650   0000C8  0E0E               	dw	_default_ISR shr (0+2)
  4651                           
  4652                           ; Vector 97 : U4TX
  4653   0000CA  0E0E               	dw	_default_ISR shr (0+2)
  4654                           
  4655                           ; Vector 98 : U4E
  4656   0000CC  0E0E               	dw	_default_ISR shr (0+2)
  4657                           
  4658                           ; Vector 99 : U4
  4659   0000CE  0E0E               	dw	_default_ISR shr (0+2)
  4660                           
  4661                           ; Vector 100 : DMA5SCNT
  4662   0000D0  0E0E               	dw	_default_ISR shr (0+2)
  4663                           
  4664                           ; Vector 101 : DMA5DCNT
  4665   0000D2  0E0E               	dw	_default_ISR shr (0+2)
  4666                           
  4667                           ; Vector 102 : DMA5OR
  4668   0000D4  0E0E               	dw	_default_ISR shr (0+2)
  4669                           
  4670                           ; Vector 103 : DMA5A
  4671   0000D6  0E0E               	dw	_default_ISR shr (0+2)
  4672                           
  4673                           ; Vector 104 : U5RX
  4674   0000D8  0E0E               	dw	_default_ISR shr (0+2)
  4675                           
  4676                           ; Vector 105 : U5TX
  4677   0000DA  0E0E               	dw	_default_ISR shr (0+2)
  4678                           
  4679                           ; Vector 106 : U5E
  4680   0000DC  0E0E               	dw	_default_ISR shr (0+2)
  4681                           
  4682                           ; Vector 107 : U5
  4683   0000DE  0E0E               	dw	_default_ISR shr (0+2)
  4684                           
  4685                           ; Vector 108 : DMA6SCNT
  4686   0000E0  0E0E               	dw	_default_ISR shr (0+2)
  4687                           
  4688                           ; Vector 109 : DMA6DCNT
  4689   0000E2  0E0E               	dw	_default_ISR shr (0+2)
  4690                           
  4691                           ; Vector 110 : DMA6OR
  4692   0000E4  0E0E               	dw	_default_ISR shr (0+2)
  4693                           
  4694                           ; Vector 111 : DMA6A
  4695   0000E6  0E0E               	dw	_default_ISR shr (0+2)
  4696                           
  4697                           ; Vector 112 : Undefined
  4698   0000E8  0040               	dw	ivt0x8_undefint shr (0+2)
  4699                           
  4700                           ; Vector 113 : CLC7
  4701   0000EA  0E0E               	dw	_default_ISR shr (0+2)
  4702                           
  4703                           ; Vector 114 : CMP2
  4704   0000EC  0E0E               	dw	_default_ISR shr (0+2)
  4705                           
  4706                           ; Vector 115 : NCO3
  4707   0000EE  0E0E               	dw	_default_ISR shr (0+2)
  4708                           
  4709                           ; Vector 116 : Undefined
  4710   0000F0  0040               	dw	ivt0x8_undefint shr (0+2)
  4711                           
  4712                           ; Vector 117 : Undefined
  4713   0000F2  0040               	dw	ivt0x8_undefint shr (0+2)
  4714                           
  4715                           ; Vector 118 : Undefined
  4716   0000F4  0040               	dw	ivt0x8_undefint shr (0+2)
  4717                           
  4718                           ; Vector 119 : Undefined
  4719   0000F6  0040               	dw	ivt0x8_undefint shr (0+2)
  4720                           
  4721                           ; Vector 120 : NVM
  4722   0000F8  0E0E               	dw	_default_ISR shr (0+2)
  4723                           
  4724                           ; Vector 121 : CLC8
  4725   0000FA  0E0E               	dw	_default_ISR shr (0+2)
  4726                           
  4727                           ; Vector 122 : CRC
  4728   0000FC  0E0E               	dw	_default_ISR shr (0+2)
  4729                           
  4730                           ; Vector 123 : TMR6
  4731   0000FE  0E0E               	dw	_default_ISR shr (0+2)
  4732   000100                     ivt0x8_undefint:
  4733                           	callstack 0
  4734   000100  00FF               	reset	
  4735                           
  4736                           	psect	rparam
  4737   000000                     
  4738                           	psect	config
  4739                           
  4740                           ;Config register CONFIG1 @ 0x300000
  4741                           ;	External Oscillator Selection
  4742                           ;	FEXTOSC = OFF, Oscillator not enabled
  4743                           ;	Reset Oscillator Selection
  4744                           ;	RSTOSC = EXTOSC, EXTOSC operating per FEXTOSC bits (device manufacturing default)
  4745   300000                     	org	3145728
  4746   300000  FC                 	db	252
  4747                           
  4748                           ;Config register CONFIG2 @ 0x300001
  4749                           ;	Clock out Enable bit
  4750                           ;	CLKOUTEN = OFF, CLKOUT function is disabled
  4751                           ;	PRLOCKED One-Way Set Enable bit
  4752                           ;	PR1WAY = ON, PRLOCKED bit can be cleared and set only once
  4753                           ;	Clock Switch Enable bit
  4754                           ;	CSWEN = ON, Writing to NOSC and NDIV is allowed
  4755                           ;	Fail-Safe Clock Monitor Enable bit
  4756                           ;	FCMEN = ON, Fail-Safe Clock Monitor enabled
  4757   300001                     	org	3145729
  4758   300001  FF                 	db	255
  4759                           
  4760                           ;Config register CONFIG3 @ 0x300002
  4761                           ;	MCLR Enable bit
  4762                           ;	MCLRE = EXTMCLR, If LVP = 0, MCLR pin is MCLR; If LVP = 1, RE3 pin function is MCLR
  4763                           ;	Power-up timer selection bits
  4764                           ;	PWRTS = PWRT_64, PWRT set at 64ms
  4765                           ;	Multi-vector enable bit
  4766                           ;	MVECEN = ON, Multi-vector enabled, Vector table used for interrupts
  4767                           ;	IVTLOCK bit One-way set enable bit
  4768                           ;	IVT1WAY = ON, IVTLOCKED bit can be cleared and set only once
  4769                           ;	Low Power BOR Enable bit
  4770                           ;	LPBOREN = OFF, Low-Power BOR disabled
  4771                           ;	Brown-out Reset Enable bits
  4772                           ;	BOREN = OFF, Brown-out Reset disabled
  4773   300002                     	org	3145730
  4774   300002  3D                 	db	61
  4775                           
  4776                           ;Config register CONFIG4 @ 0x300003
  4777                           ;	Brown-out Reset Voltage Selection bits
  4778                           ;	BORV = VBOR_1P9, Brown-out Reset Voltage (VBOR) set to 1.9V
  4779                           ;	ZCD Disable bit
  4780                           ;	ZCD = OFF, ZCD module is disabled. ZCD can be enabled by setting the ZCDSEN bit of ZCD
      +                          CON
  4781                           ;	PPSLOCK bit One-Way Set Enable bit
  4782                           ;	PPS1WAY = ON, PPSLOCKED bit can be cleared and set only once; PPS registers remain loc
      +                          ked after one clear/set cycle
  4783                           ;	Stack Full/Underflow Reset Enable bit
  4784                           ;	STVREN = ON, Stack full/underflow will cause Reset
  4785                           ;	Low Voltage Programming Enable bit
  4786                           ;	LVP = OFF, HV on MCLR/VPP must be used for programming
  4787                           ;	Extended Instruction Set Enable bit
  4788                           ;	XINST = OFF, Extended Instruction Set and Indexed Addressing Mode disabled
  4789   300003                     	org	3145731
  4790   300003  DF                 	db	223
  4791                           
  4792                           ;Config register CONFIG5 @ 0x300004
  4793                           ;	WDT Period selection bits
  4794                           ;	WDTCPS = WDTCPS_31, Divider ratio 1:65536; software control of WDTPS
  4795                           ;	WDT operating mode
  4796                           ;	WDTE = OFF, WDT Disabled; SWDTEN is ignored
  4797   300004                     	org	3145732
  4798   300004  9F                 	db	159
  4799                           
  4800                           ;Config register CONFIG6 @ 0x300005
  4801                           ;	WDT Window Select bits
  4802                           ;	WDTCWS = WDTCWS_7, window always open (100%); software control; keyed access not requi
      +                          red
  4803                           ;	WDT input clock selector
  4804                           ;	WDTCCS = SC, Software Control
  4805   300005                     	org	3145733
  4806   300005  FF                 	db	255
  4807                           
  4808                           ;Config register CONFIG7 @ 0x300006
  4809                           ;	Boot Block Size selection bits
  4810                           ;	BBSIZE = BBSIZE_512, Boot Block size is 512 words
  4811                           ;	Boot Block enable bit
  4812                           ;	BBEN = OFF, Boot block disabled
  4813                           ;	Storage Area Flash enable bit
  4814                           ;	SAFEN = OFF, SAF disabled
  4815                           ;	Background Debugger
  4816                           ;	DEBUG = OFF, Background Debugger disabled
  4817   300006                     	org	3145734
  4818   300006  FF                 	db	255
  4819                           
  4820                           ;Config register CONFIG8 @ 0x300007
  4821                           ;	Boot Block Write Protection bit
  4822                           ;	WRTB = OFF, Boot Block not Write protected
  4823                           ;	Configuration Register Write Protection bit
  4824                           ;	WRTC = OFF, Configuration registers not Write protected
  4825                           ;	Data EEPROM Write Protection bit
  4826                           ;	WRTD = OFF, Data EEPROM not Write protected
  4827                           ;	SAF Write protection bit
  4828                           ;	WRTSAF = OFF, SAF not Write Protected
  4829                           ;	Application Block write protection bit
  4830                           ;	WRTAPP = OFF, Application Block not write protected
  4831   300007                     	org	3145735
  4832   300007  FF                 	db	255
  4833                           
  4834                           ;Config register CONFIG10 @ 0x300009
  4835                           ;	PFM and Data EEPROM Code Protection bit
  4836                           ;	CP = OFF, PFM and Data EEPROM code protection disabled
  4837   300009                     	org	3145737
  4838   300009  FF                 	db	255
  4839                           tosu	equ	0x4FF
  4840                           tosh	equ	0x4FE
  4841                           tosl	equ	0x4FD
  4842                           stkptr	equ	0x4FC
  4843                           pclatu	equ	0x4FB
  4844                           pclath	equ	0x4FA
  4845                           pcl	equ	0x4F9
  4846                           tblptru	equ	0x4F8
  4847                           tblptrh	equ	0x4F7
  4848                           tblptrl	equ	0x4F6
  4849                           tablat	equ	0x4F5
  4850                           prodh	equ	0x4F4
  4851                           prodl	equ	0x4F3
  4852                           indf0	equ	0x4EF
  4853                           postinc0	equ	0x4EE
  4854                           postdec0	equ	0x4ED
  4855                           preinc0	equ	0x4EC
  4856                           plusw0	equ	0x4EB
  4857                           fsr0h	equ	0x4EA
  4858                           fsr0l	equ	0x4E9
  4859                           wreg	equ	0x4E8
  4860                           indf1	equ	0x4E7
  4861                           postinc1	equ	0x4E6
  4862                           postdec1	equ	0x4E5
  4863                           preinc1	equ	0x4E4
  4864                           plusw1	equ	0x4E3
  4865                           fsr1h	equ	0x4E2
  4866                           fsr1l	equ	0x4E1
  4867                           bsr	equ	0x4E0
  4868                           indf2	equ	0x4DF
  4869                           postinc2	equ	0x4DE
  4870                           postdec2	equ	0x4DD
  4871                           preinc2	equ	0x4DC
  4872                           plusw2	equ	0x4DB
  4873                           fsr2h	equ	0x4DA
  4874                           fsr2l	equ	0x4D9
  4875                           status	equ	0x4D8

Data Sizes:
    Strings     26
    Constant    0
    Data        88
    BSS         14
    Persistent  0
    Stack       0

Auto Spaces:
    Space          Size  Autos    Used
    COMRAM           95     82      88
    BANK5           160      0      96
    BANK6           256      0       0
    BANK7           256      0       0
    BANK8           256      0       0
    BANK9           256      0       0
    BANK10          256      0       0
    BANK11          256      0       0
    BANK12          256      0       0
    BANK13          256      0       0
    BANK14          256      0       0
    BANK15          256      0       0
    BANK16          256      0       0
    BANK17          256      0       0
    BANK18          256      0       0
    BANK19          256      0       0
    BANK20          256      0       0
    BANK21          256      0       0
    BANK22          256      0       0
    BANK23          256      0       0
    BANK24          256      0       0
    BANK25          256      0       0
    BANK26          256      0       0
    BANK27          256      0       0
    BANK28          256      0       0
    BANK29          256      0       0
    BANK30          256      0       0
    BANK31          256      0       0
    BANK32          256      0       0
    BANK33          256      0       0
    BANK34          256      0       0
    BANK35          256      0       0
    BANK36          256      0       0

Pointer List with Targets:

    ESCRIBE_MENSAJE2@cadena	PTR const unsigned char  size(1) Largest target is 15
		 -> STR_1(CODE[15]), STR_2(CODE[11]), 

    strlen@a	PTR const unsigned char  size(1) Largest target is 15
		 -> STR_1(CODE[15]), STR_2(CODE[11]), 

    strlen@s	PTR const unsigned char  size(1) Largest target is 15
		 -> STR_1(CODE[15]), STR_2(CODE[11]), 


Critical Paths under _main in COMRAM

    _main->_decodificacion
    _decodificacion->___awdiv
    ___awdiv->___awmod
    _configuro->_LCD_INIT
    _MAX7219_Init->_MAX7219_WriteData2
    _LCD_INIT->_CURSOR_ONOFF
    _LCD_INIT->_LCD_CONFIG
    _LCD_CONFIG->_ENVIA_LCD_CMD
    _CURSOR_ONOFF->_ENVIA_LCD_CMD
    _CURSOR_HOME->_ENVIA_LCD_CMD
    _BORRAR_LCD->_ENVIA_LCD_CMD
    _POS_CURSOR->_ENVIA_LCD_CMD
    _ENVIA_LCD_CMD->_ENVIA_NIBBLE
    _ENVIA_LCD_CMD->_LEER_LCD
    _ESCRIBE_MENSAJE2->_ENVIA_CHAR
    _ENVIA_CHAR->_ENVIA_NIBBLE

Critical Paths under _TMR0_ISR in COMRAM

    None.

Critical Paths under _default_ISR in COMRAM

    None.

Critical Paths under _main in BANK5

    None.

Critical Paths under _TMR0_ISR in BANK5

    None.

Critical Paths under _default_ISR in BANK5

    None.

Critical Paths under _main in BANK6

    None.

Critical Paths under _TMR0_ISR in BANK6

    None.

Critical Paths under _default_ISR in BANK6

    None.

Critical Paths under _main in BANK7

    None.

Critical Paths under _TMR0_ISR in BANK7

    None.

Critical Paths under _default_ISR in BANK7

    None.

Critical Paths under _main in BANK8

    None.

Critical Paths under _TMR0_ISR in BANK8

    None.

Critical Paths under _default_ISR in BANK8

    None.

Critical Paths under _main in BANK9

    None.

Critical Paths under _TMR0_ISR in BANK9

    None.

Critical Paths under _default_ISR in BANK9

    None.

Critical Paths under _main in BANK10

    None.

Critical Paths under _TMR0_ISR in BANK10

    None.

Critical Paths under _default_ISR in BANK10

    None.

Critical Paths under _main in BANK11

    None.

Critical Paths under _TMR0_ISR in BANK11

    None.

Critical Paths under _default_ISR in BANK11

    None.

Critical Paths under _main in BANK12

    None.

Critical Paths under _TMR0_ISR in BANK12

    None.

Critical Paths under _default_ISR in BANK12

    None.

Critical Paths under _main in BANK13

    None.

Critical Paths under _TMR0_ISR in BANK13

    None.

Critical Paths under _default_ISR in BANK13

    None.

Critical Paths under _main in BANK14

    None.

Critical Paths under _TMR0_ISR in BANK14

    None.

Critical Paths under _default_ISR in BANK14

    None.

Critical Paths under _main in BANK15

    None.

Critical Paths under _TMR0_ISR in BANK15

    None.

Critical Paths under _default_ISR in BANK15

    None.

Critical Paths under _main in BANK16

    None.

Critical Paths under _TMR0_ISR in BANK16

    None.

Critical Paths under _default_ISR in BANK16

    None.

Critical Paths under _main in BANK17

    None.

Critical Paths under _TMR0_ISR in BANK17

    None.

Critical Paths under _default_ISR in BANK17

    None.

Critical Paths under _main in BANK18

    None.

Critical Paths under _TMR0_ISR in BANK18

    None.

Critical Paths under _default_ISR in BANK18

    None.

Critical Paths under _main in BANK19

    None.

Critical Paths under _TMR0_ISR in BANK19

    None.

Critical Paths under _default_ISR in BANK19

    None.

Critical Paths under _main in BANK20

    None.

Critical Paths under _TMR0_ISR in BANK20

    None.

Critical Paths under _default_ISR in BANK20

    None.

Critical Paths under _main in BANK21

    None.

Critical Paths under _TMR0_ISR in BANK21

    None.

Critical Paths under _default_ISR in BANK21

    None.

Critical Paths under _main in BANK22

    None.

Critical Paths under _TMR0_ISR in BANK22

    None.

Critical Paths under _default_ISR in BANK22

    None.

Critical Paths under _main in BANK23

    None.

Critical Paths under _TMR0_ISR in BANK23

    None.

Critical Paths under _default_ISR in BANK23

    None.

Critical Paths under _main in BANK24

    None.

Critical Paths under _TMR0_ISR in BANK24

    None.

Critical Paths under _default_ISR in BANK24

    None.

Critical Paths under _main in BANK25

    None.

Critical Paths under _TMR0_ISR in BANK25

    None.

Critical Paths under _default_ISR in BANK25

    None.

Critical Paths under _main in BANK26

    None.

Critical Paths under _TMR0_ISR in BANK26

    None.

Critical Paths under _default_ISR in BANK26

    None.

Critical Paths under _main in BANK27

    None.

Critical Paths under _TMR0_ISR in BANK27

    None.

Critical Paths under _default_ISR in BANK27

    None.

Critical Paths under _main in BANK28

    None.

Critical Paths under _TMR0_ISR in BANK28

    None.

Critical Paths under _default_ISR in BANK28

    None.

Critical Paths under _main in BANK29

    None.

Critical Paths under _TMR0_ISR in BANK29

    None.

Critical Paths under _default_ISR in BANK29

    None.

Critical Paths under _main in BANK30

    None.

Critical Paths under _TMR0_ISR in BANK30

    None.

Critical Paths under _default_ISR in BANK30

    None.

Critical Paths under _main in BANK31

    None.

Critical Paths under _TMR0_ISR in BANK31

    None.

Critical Paths under _default_ISR in BANK31

    None.

Critical Paths under _main in BANK32

    None.

Critical Paths under _TMR0_ISR in BANK32

    None.

Critical Paths under _default_ISR in BANK32

    None.

Critical Paths under _main in BANK33

    None.

Critical Paths under _TMR0_ISR in BANK33

    None.

Critical Paths under _default_ISR in BANK33

    None.

Critical Paths under _main in BANK34

    None.

Critical Paths under _TMR0_ISR in BANK34

    None.

Critical Paths under _default_ISR in BANK34

    None.

Critical Paths under _main in BANK35

    None.

Critical Paths under _TMR0_ISR in BANK35

    None.

Critical Paths under _default_ISR in BANK35

    None.

Critical Paths under _main in BANK36

    None.

Critical Paths under _TMR0_ISR in BANK36

    None.

Critical Paths under _default_ISR in BANK36

    None.

Call Graph Tables:

 ---------------------------------------------------------------------------------
 (Depth) Function   	        Calls       Base Space   Used Autos Params    Refs
 ---------------------------------------------------------------------------------
 (0) _main                                                 3     3      0   16007
                                             79 COMRAM     3     3      0
                   _ESCRIBE_MENSAJE2
                 _MAX7219_WriteData2
                         _POS_CURSOR
                          _configuro
                     _decodificacion
 ---------------------------------------------------------------------------------
 (1) _decodificacion                                      64    64      0    4799
                                             15 COMRAM    64    64      0
                            ___awdiv
                            ___awmod
 ---------------------------------------------------------------------------------
 (2) ___awmod                                              6     2      4    1056
                                              1 COMRAM     6     2      4
 ---------------------------------------------------------------------------------
 (2) ___awdiv                                              8     4      4     908
                                              7 COMRAM     8     4      4
                            ___awmod (ARG)
 ---------------------------------------------------------------------------------
 (1) _configuro                                            2     2      0    6965
                                              7 COMRAM     2     2      0
                           _LCD_INIT
                       _MAX7219_Init
                 _MAX7219_WriteData2
 ---------------------------------------------------------------------------------
 (2) _MAX7219_Init                                         0     0      0    3220
                 _MAX7219_WriteData2
 ---------------------------------------------------------------------------------
 (2) _MAX7219_WriteData2                                   5     4      1    3220
                                              1 COMRAM     5     4      1
 ---------------------------------------------------------------------------------
 (2) _LCD_INIT                                             2     2      0     525
                                              5 COMRAM     2     2      0
                         _BORRAR_LCD
                        _CURSOR_HOME
                       _CURSOR_ONOFF
                         _LCD_CONFIG
 ---------------------------------------------------------------------------------
 (3) _LCD_CONFIG                                           1     1      0     135
                                              4 COMRAM     1     1      0
                      _ENVIA_LCD_CMD
                       _ENVIA_NIBBLE
 ---------------------------------------------------------------------------------
 (3) _CURSOR_ONOFF                                         1     1      0     150
                                              4 COMRAM     1     1      0
                      _ENVIA_LCD_CMD
 ---------------------------------------------------------------------------------
 (3) _CURSOR_HOME                                          0     0      0     120
                      _ENVIA_LCD_CMD
 ---------------------------------------------------------------------------------
 (3) _BORRAR_LCD                                           0     0      0     120
                      _ENVIA_LCD_CMD
 ---------------------------------------------------------------------------------
 (1) _POS_CURSOR                                           2     1      1     448
                                              4 COMRAM     2     1      1
                      _ENVIA_LCD_CMD
 ---------------------------------------------------------------------------------
 (4) _ENVIA_LCD_CMD                                        2     2      0     120
                                              2 COMRAM     2     2      0
                       _ENVIA_NIBBLE
                           _LEER_LCD
 ---------------------------------------------------------------------------------
 (5) _LEER_LCD                                             1     1      0      45
                                              1 COMRAM     1     1      0
 ---------------------------------------------------------------------------------
 (1) _ESCRIBE_MENSAJE2                                     4     3      1     507
                                              5 COMRAM     4     3      1
                         _ENVIA_CHAR
                             _strlen
 ---------------------------------------------------------------------------------
 (2) _strlen                                               3     1      2     166
                                              1 COMRAM     3     1      2
 ---------------------------------------------------------------------------------
 (2) _ENVIA_CHAR                                           3     3      0      75
                                              2 COMRAM     3     3      0
                       _ENVIA_NIBBLE
 ---------------------------------------------------------------------------------
 (4) _ENVIA_NIBBLE                                         1     1      0      15
                                              1 COMRAM     1     1      0
 ---------------------------------------------------------------------------------
 Estimated maximum stack depth 5
 ---------------------------------------------------------------------------------
 (Depth) Function   	        Calls       Base Space   Used Autos Params    Refs
 ---------------------------------------------------------------------------------
 (6) _TMR0_ISR                                             1     1      0       0
                                              0 COMRAM     1     1      0
 ---------------------------------------------------------------------------------
 Estimated maximum stack depth 6
 ---------------------------------------------------------------------------------
 (Depth) Function   	        Calls       Base Space   Used Autos Params    Refs
 ---------------------------------------------------------------------------------
 (6) _default_ISR                                          0     0      0       0
 ---------------------------------------------------------------------------------
 Estimated maximum stack depth 6
 ---------------------------------------------------------------------------------

 Call Graph Graphs:

 _main (ROOT)
   _ESCRIBE_MENSAJE2
     _ENVIA_CHAR
       _ENVIA_NIBBLE
     _strlen
   _MAX7219_WriteData2
   _POS_CURSOR
     _ENVIA_LCD_CMD
       _ENVIA_NIBBLE
       _LEER_LCD
   _configuro
     _LCD_INIT
       _BORRAR_LCD
         _ENVIA_LCD_CMD
       _CURSOR_HOME
         _ENVIA_LCD_CMD
       _CURSOR_ONOFF
         _ENVIA_LCD_CMD
       _LCD_CONFIG
         _ENVIA_LCD_CMD
         _ENVIA_NIBBLE
     _MAX7219_Init
       _MAX7219_WriteData2
     _MAX7219_WriteData2
   _decodificacion
     ___awdiv
       ___awmod (ARG)
     ___awmod

 _TMR0_ISR (ROOT)

 _default_ISR (ROOT)

 Address spaces:
Name               Size   Autos  Total    Cost      Usage
BIGRAM            1FFF      0       0      69        0.0%
EEDATA             400      0       0       0        0.0%
BITBIGSFRlllhhh    265      0       0      81        0.0%
BITBIGSFR_1        100      0       0      68        0.0%
BITBANK36          100      0       0      66        0.0%
BANK36             100      0       0      67        0.0%
BITBANK35          100      0       0      64        0.0%
BANK35             100      0       0      65        0.0%
BITBANK34          100      0       0      62        0.0%
BANK34             100      0       0      63        0.0%
BITBANK33          100      0       0      60        0.0%
BANK33             100      0       0      61        0.0%
BITBANK32          100      0       0      58        0.0%
BANK32             100      0       0      59        0.0%
BITBANK31          100      0       0      56        0.0%
BANK31             100      0       0      57        0.0%
BITBANK30          100      0       0      54        0.0%
BANK30             100      0       0      55        0.0%
BITBANK29          100      0       0      52        0.0%
BANK29             100      0       0      53        0.0%
BITBANK28          100      0       0      50        0.0%
BANK28             100      0       0      51        0.0%
BITBANK27          100      0       0      48        0.0%
BANK27             100      0       0      49        0.0%
BITBANK26          100      0       0      46        0.0%
BANK26             100      0       0      47        0.0%
BITBANK25          100      0       0      44        0.0%
BANK25             100      0       0      45        0.0%
BITBANK24          100      0       0      42        0.0%
BANK24             100      0       0      43        0.0%
BITBANK23          100      0       0      40        0.0%
BANK23             100      0       0      41        0.0%
BITBANK22          100      0       0      38        0.0%
BANK22             100      0       0      39        0.0%
BITBANK21          100      0       0      36        0.0%
BANK21             100      0       0      37        0.0%
BITBANK20          100      0       0      34        0.0%
BANK20             100      0       0      35        0.0%
BITBANK19          100      0       0      32        0.0%
BANK19             100      0       0      33        0.0%
BITBANK18          100      0       0      30        0.0%
BANK18             100      0       0      31        0.0%
BITBANK17          100      0       0      28        0.0%
BANK17             100      0       0      29        0.0%
BITBANK16          100      0       0      26        0.0%
BANK16             100      0       0      27        0.0%
BITBANK15          100      0       0      24        0.0%
BANK15             100      0       0      25        0.0%
BITBANK14          100      0       0      22        0.0%
BANK14             100      0       0      23        0.0%
BITBANK13          100      0       0      20        0.0%
BANK13             100      0       0      21        0.0%
BITBANK12          100      0       0      18        0.0%
BANK12             100      0       0      19        0.0%
BITBANK11          100      0       0      16        0.0%
BANK11             100      0       0      17        0.0%
BITBANK10          100      0       0      14        0.0%
BANK10             100      0       0      15        0.0%
BITBANK9           100      0       0      12        0.0%
BANK9              100      0       0      13        0.0%
BITBANK8           100      0       0      10        0.0%
BANK8              100      0       0      11        0.0%
BITBANK7           100      0       0       8        0.0%
BANK7              100      0       0       9        0.0%
BITBANK6           100      0       0       6        0.0%
BANK6              100      0       0       7        0.0%
BITBIGSFRlllhhh     F4      0       0      80        0.0%
BITBIGSFRllll       AD      0       0      84        0.0%
BITBANK5            A0      0       0       4        0.0%
BANK5               A0      0      60       5       60.0%
BITBIGSFRlhhhl      78      0       0      76        0.0%
BITCOMRAM           5F      0       0       0        0.0%
COMRAM              5F     52      58       1       92.6%
BITBIGSFRhhhh       29      0       0      70        0.0%
BITBIGSFRlhhhhl      F      0       0      75        0.0%
BITBIGSFRlhhhhh      E      0       0      74        0.0%
BITBIGSFRlhhl        7      0       0      77        0.0%
BITBIGSFRllh         7      0       0      79        0.0%
BITBIGSFRlhl         7      0       0      78        0.0%
BITBIGSFRhhl         5      0       0      72        0.0%
BITBIGSFRhhhl        4      0       0      71        0.0%
BITBIGSFRhl          4      0       0      73        0.0%
BITBIGSFRlllhl       3      0       0      83        0.0%
BITBIGSFRlllhhl      1      0       0      82        0.0%
BIGSFR_1             0      0       0     200        0.0%
BIGSFR               0      0       0     200        0.0%
BITSFR_6             0      0       0     200        0.0%
SFR_6                0      0       0     200        0.0%
BITSFR_5             0      0       0     200        0.0%
SFR_5                0      0       0     200        0.0%
BITSFR_4             0      0       0     200        0.0%
SFR_4                0      0       0     200        0.0%
BITSFR_3             0      0       0     200        0.0%
SFR_3                0      0       0     200        0.0%
BITSFR_2             0      0       0     200        0.0%
SFR_2                0      0       0     200        0.0%
BITSFR_1             0      0       0     200        0.0%
SFR_1                0      0       0     200        0.0%
BITSFR               0      0       0     200        0.0%
SFR                  0      0       0     200        0.0%
STACK                0      0       0       2        0.0%
NULL                 0      0       0       0        0.0%
ABS                  0      0      B8      85        0.0%
DATA                 0      0      B8       3        0.0%
CODE                 0      0       0       0        0.0%


Microchip Technology PIC18 Macro Assembler V2.46 build 20240104201356 
Symbol Table                                                                                   Mon Oct 21 11:27:56 2024

                        l32 3446                          l28 3446                          l45 382E  
                        l62 380A                          l80 3836                          l74 36F8  
                        l83 361C                          l77 37DA                          l93 347E  
                        l86 3826                          l95 34B8                          l89 37A8  
                        u10 34B8                          u11 34B4                          u20 37EE  
                        u21 37EA                          u30 3804                          u31 3800  
              ___awdiv@sign 050D               ENVIA_CHAR@aux 0505                         l103 351E  
                       l180 36B4                         l190 332E                         l192 3364  
                       l193 3366                         l273 35CA                         l194 337E  
                       l195 33CA                         l196 33B4                         l197 33B6  
                       l198 33CC                         l633 326E                         l377 2F62  
                       l646 331E                         u810 33AE                         u811 33AA  
                       u820 33CA                         u804 3394                         u900 3282  
                       u821 33C6                         u805 3390                         u901 327E  
                       u830 3768                         u910 329C                         u831 3764  
                       u911 3298                         u840 31BE                         u920 32B6  
                       u841 31BA                         u921 32B2                         u850 31D8  
                       u930 32D4                         u851 31D4                         u931 32D0  
                       u780 335E                         u860 31FE                         u940 32EA  
                       u781 335A                         u861 31FA                         u941 32E6  
                       u790 337A                         u774 3344                         u870 321C  
                       u950 330E                         u791 3376                         u775 3340  
                       u871 3218                         u951 330A                         u960 33E0  
                       u880 3238                         u961 33DC                         u881 3234  
                       u970 33FE                         u890 325E                         u971 33FA  
                       u891 325A                         u980 341C                         u981 3418  
                       u990 343A                         u991 3436                ___awmod@sign 0507  
               LEER_LCD@aux 0502                         wreg 04E8                ?_CURSOR_HOME 0501  
            ??_ENVIA_NIBBLE 0502              ENVIA_CHAR@dato 0504                        l1101 345E  
                      l1111 3474                        l1103 3460                        l1121 34A0  
                      l1113 3480                        l1105 3468                        l1115 3488  
                      l1107 346A                        l1131 377E                        l1221 37C0  
                      l1213 37AC                        l1117 348C                        l1125 34A6  
                      l1109 3472                        l1141 3790                        l1133 3782  
                      l2101 3670                        l1223 37C2                        l1215 37AE  
                      l1119 3496                        l1143 3796                        l1135 378A  
                      l1127 3778                        l1151 37DE                        l2111 36A0  
                      l2103 3678                        l1081 380E                        l1225 37C8  
                      l1217 37BC                        l1145 379C                        l1137 378C  
                      l1129 377A                        l2201 33FE                        l1153 37EE  
                      l1161 35CC                        l1241 34BA                        l2113 36AA  
                      l2105 3682                        l2121 31C6                        l1083 381A  
                      l1227 37CE                        l1219 37BE                        l2211 36B6  
                      l1091 344C                        l1147 37A2                        l1139 378E  
                      l2203 340A                        l1155 37F4                        l1171 35F8  
                      l1163 35D0                        l1243 34D2                        l2107 368C  
                      l2131 31EC                        l2123 31CA                        l2115 31AC  
                      l1085 381C                        l1229 37D4                        l2221 36E6  
                      l2213 36C2                        l1093 344E                        l2205 341C  
                      l1149 3828                        l1157 3804                        l1181 3616  
                      l1173 35FE                        l1165 35D6                        l1245 34D6  
                      l2061 332A                        l2109 3696                        l2141 3222  
                      l2133 31FE                        l2125 31D8                        l2117 31B0  
                      l2301 26EC                        l1087 3824                        l1079 3774  
                      l2215 36C2                        l1095 3450                        l2207 3428  
                      l1159 3830                        l1175 3604                        l1167 35E4  
                      l1247 34F4                        l2071 3368                        l2231 359C  
                      l2223 3578                        l2143 3238                        l2135 3206  
                      l2151 324E                        l2127 31E0                        l2119 31BE  
                      l2311 271C                        l2217 36CA                        l1097 3452  
                      l1089 3448                        l2209 343A                        l1177 360A  
                      l1169 35F2                        l1249 34F8                        l2081 3380  
                      l2073 336A                        l2241 35B2                        l2233 359E  
                      l2225 3586                        l2153 325E                        l2145 3240  
                      l2137 320E                        l2129 31E4                        l2161 3274  
                      l2401 29A2                        l2313 2738                        l2305 26F4  
                      l2091 3746                        l2219 36E4                        l1099 345A  
                      l1179 3610                        l2083 33AE                        l2075 337A  
                      l2067 3330                        l2059 3322                        l2235 35A0  
                      l2227 3588                        l2155 3266                        l2147 3242  
                      l2139 321C                        l2171 32A4                        l2163 3282  
                      l2411 29D2                        l2331 2794                        l2323 2768  
                      l2307 26FC                        l2251 25A0                        l2243 251E  
                      l2093 3748                        l2085 33B8                        l2069 335E  
                      l2237 35A4                        l2229 359A                        l2149 3248  
                      l2181 32EA                        l2173 32B6                        l2165 328A  
                      l2501 2C58                        l2413 29EE                        l2405 29AA  
                      l2341 27D8                        l2325 2784                        l2317 2740  
                      l2253 25BC                        l2245 2578                        l2095 3768  
                      l2087 33BA                        l2239 35A8                        l2191 3316  
                      l2183 32F2                        l2175 32BE                        l2167 328E  
                      l2159 3270                        l2511 2C88                        l2431 2A4A  
                      l2423 2A1E                        l2407 29B2                        l2343 27E0  
                      l2335 27B4                        l2319 2748                        l2271 2618  
                      l2263 25EC                        l2247 2580                        l2089 373E  
                      l2185 32F8                        l2177 32C6                        l2169 329C  
                      l2601 2EC0                        l2513 2CA4                        l2505 2C60  
                      l2441 2A8E                        l2425 2A3A                        l2417 29F6  
                      l2361 2868                        l2353 2824                        l2337 27D0  
                      l2329 278C                        l2281 265C                        l2265 2608  
                      l2257 25C4                        l2195 33D0                        l2099 366A  
                      l2179 32D4                        l2187 32FE                        l2603 2EC8  
                      l2531 2D00                        l2523 2CD4                        l2507 2C68  
                      l2443 2A96                        l2435 2A6A                        l2419 29FE  
                      l2371 28CE                        l2355 282C                        l2347 2800  
                      l2283 2664                        l2275 2638                        l2259 25CC  
                      l2197 33E0                        l2189 330E                        l2541 2D44  
                      l2525 2CF0                        l2517 2CAC                        l2461 2B1E  
                      l2453 2ADA                        l2437 2A86                        l2429 2A42  
                      l2381 2912                        l2349 281C                        l2293 26A8  
                      l2277 2654                        l2269 2610                        l2701 30BE  
                      l2199 33EC                        l2607 2EE8                        l2543 2D4C  
                      l2535 2D20                        l2519 2CB4                        l2471 2B4E  
                      l2455 2AE2                        l2447 2AB6                        l2383 291A  
                      l2615 2F0C                        l2375 28EE                        l2359 284C  
                      l2295 26B0                        l2287 2684                        l2367 2870  
                      l2711 30CA                        l2703 30C0                        l2609 2F04  
                      l2561 2DD4                        l2553 2D90                        l2537 2D3C  
                      l2529 2CF8                        l2473 2B6A                        l2465 2B26  
                      l2449 2AD2                        l2393 295E                        l2377 290A  
                      l2369 28C6                        l2289 26A0                        l2721 3138  
                      l2713 30E0                        l2641 2F64                        l2571 2E04  
                      l2555 2D98                        l2547 2D6C                        l2483 2B9A  
                      l2467 2B2E                        l2459 2B02                        l2395 2966  
                      l2387 293A                        l2299 26D0                        l2491 2BBE  
                      l2731 3194                        l2723 314E                        l2715 30F6  
                      l2651 2FA0                        l2643 2F72                        l2573 2E20  
                      l2565 2DDC                        l2549 2D88                        l2493 2C14  
                      l2485 2BB6                        l2477 2B72                        l2389 2956  
                      l2725 3164                        l2717 310C                        l2709 30C4  
                      l2661 2FD2                        l2653 2FAA                        l2645 2F7A  
                      l2591 2E7C                        l2583 2E50                        l2567 2DE4  
                      l2559 2DB8                        l2495 2C1C                        l2479 2B7A  
                      l2399 2986                        l2727 317A                        l2719 3122  
                      l2671 3010                        l2663 2FDC                        l2655 2FB4  
                      l2647 2F8C                        l2585 2E6C                        l2577 2E28  
                      l2729 3192                        l2681 3042                        l2673 301A  
                      l2665 2FF2                        l2657 2FBE                        l2649 2F96  
                      l2595 2E9C                        l2579 2E30                        l2499 2C3C  
                      l2691 3080                        l2683 3058                        l2675 3024  
                      l2667 2FFC                        l2659 2FC8                        l2597 2EB8  
                      l2589 2E74                        l2693 308A                        l2685 3062  
                      l2677 302E                        l2669 3006                        l2695 3094  
                      l2687 306C                        l2679 3038                        l2697 309E  
                      l2689 3076                        l2699 30A8                        STR_1 2501  
                      STR_2 2510                        u1000 36F8                        u1001 36F4  
                      u1010 259C                        u1011 2598                        u1100 2848  
                      u1020 25E8                        u1101 2844                        u1021 25E4  
                      u1110 28EA                        u1030 2634                        u1111 28E6  
                      u1031 2630                        u1200 2B96                        u1120 2936  
                      u1040 2680                        u1201 2B92                        u1121 2932  
                      u1041 267C                        u1210 2C38                        u1130 2982  
                      u1050 26CC                        u1211 2C34                        u1131 297E  
                      u1051 26C8                        u1300 2EE4                        u1220 2C84  
                      u1140 29CE                        u1060 2718                        u1301 2EE0  
                      u1221 2C80                        u1141 29CA                        u1061 2714  
                      u1230 2CD0                        u1150 2A1A                        u1070 2764  
                      u1231 2CCC                        u1151 2A16                        u1071 2760  
                      u1240 2D1C                        u1160 2A66                        u1080 27B0  
                      u1320 31A4                        u1241 2D18                        u1161 2A62  
                      u1081 27AC                        u1321 31A0                        u1250 2D68  
                      u1170 2AB2                        u1090 27FC                        u1251 2D64  
                      u1171 2AAE                        u1091 27F8                        u1260 2DB4  
                      u1180 2AFE                        u1261 2DB0                        u1181 2AFA  
                      u1270 2E00                        u1190 2B4A                        u1407 3502  
                      u1271 2DFC                        u1191 2B46                        u1280 2E4C  
                      _LATD 04C1                        u1417 35DC                        u1281 2E48  
                      u1337 2FE6                        u1290 2E98                        u1507 37B4  
                      u1427 35EC                        u1291 2E94                        u1347 304C  
                      u1517 381E                        u1437 3784                        u1357 30B2  
                      u1447 3454                        u1367 3184                        u1457 3462  
                      u1377 35BC                        u1467 346C                        u1387 34C4  
                      u1477 3482                        u1397 34E6                        u1487 3490  
                      u1497 349A                        _main 2F64                        indf1 04E7  
                      indf2 04DF                        fsr1l 04E1                        fsr2l 04D9  
                      start 0102               ?_CURSOR_ONOFF 0501              _decodificacion 251C  
              ___param_bank 0000             ??_ENVIA_LCD_CMD 0503            __end_of_LCD_INIT 3520  
          __end_of_LEER_LCD 34BA                       ?_main 0501             __end_of___awdiv 3270  
           __end_of___awmod 3320             ___awdiv@divisor 050A                       i2l394 373C  
                     i2l399 3838             ___awdiv@counter 050C                       _OSCEN 00B3  
                     _TMR0H 0319                       _PORTD 04D1                       _TRISD 04C9  
                     _TRISE 04CA            __end_of_TMR0_ISR 373E                       _num_0 05A8  
                     _num_1 05A0                       _num_2 0598                       _num_3 0590  
                     _num_4 0588                       _num_5 0580                       _num_6 0578  
                     _num_7 0570                       _num_8 0568                       _num_9 0560  
                     _vacio 05B8                 ?_POS_CURSOR 0505                       tablat 04F5  
      __end_of_MAX7219_Init 36B6                       status 04D8      __end_of_decodificacion 2F64  
            ??_CURSOR_ONOFF 0505             __initialization 361E                __end_of_main 31AC  
                    ??_main 0550               __activetblptr 0003            ___awdiv@dividend 0508  
                    _ANSELD 0418                      _ANSELE 0420                      _T0CON0 031A  
                    _T0CON1 031B                      i2l2051 36FC                      i2l2053 36FE  
                    i2l2055 3732                      i2l2057 3738                      _OSCFRQ 00B1  
           ?_decodificacion 0501                   ??___awdiv 050C                   ??___awmod 0506  
      __end_of_ENVIA_NIBBLE 3828                      clear_0 3644            ___awdiv@quotient 050E  
           ___awmod@divisor 0504                      isa$std 0001             ___awmod@counter 0506  
                    _strlen 373E                __mediumconst 0000                      tblptrh 04F7  
                    tblptrl 04F6                      tblptru 04F8                ??_BORRAR_LCD 0505  
                 ?_LCD_INIT 0501                   ?_LEER_LCD 0501                  __accesstop 0560  
   __end_of__initialization 3664                _deco_centena 0555                ??_LCD_CONFIG 0505  
             ___rparam_used 0001                ??_ENVIA_CHAR 0503              __pcstackCOMRAM 0501  
              __pidataBANK5 3520                   ?_TMR0_ISR 0501              ivt0x8_undefint 0100  
        __end_of_BORRAR_LCD 3838            _ESCRIBE_MENSAJE2 36B6            ENVIA_LCD_CMD@aux 0504  
      __end_of_CURSOR_ONOFF 380C          __end_of_LCD_CONFIG 361E          __end_of_ENVIA_CHAR 37DC  
                __pbssBANK5 05B8                  ??_LCD_INIT 0506                  ??_LEER_LCD 0502  
          ENVIA_NIBBLE@dato 0502                     IVTBASEH 045E                     IVTBASEL 045D  
                   IVTBASEU 045F             decodificacion@i 0514                  ??_TMR0_ISR 0501  
              _MAX7219_Init 366A                     ?_strlen 0502                     _OSCCON1 00AD  
                   i2u74_40 3710                     i2u74_41 3708                     i2u76_40 3732  
                   i2u75_48 3712                     i2u76_41 372E         decodificacion@i_500 0532  
       decodificacion@i_501 0534         decodificacion@i_510 0546         decodificacion@i_502 0536  
       decodificacion@i_511 0548         decodificacion@i_503 0538         decodificacion@i_512 054A  
       decodificacion@i_504 053A         decodificacion@i_513 054C         decodificacion@i_505 053C  
       decodificacion@i_514 054E         decodificacion@i_506 053E         decodificacion@i_507 0540  
       decodificacion@i_508 0542         decodificacion@i_509 0544         decodificacion@i_490 051E  
       decodificacion@i_491 0520         decodificacion@i_492 0522         decodificacion@i_493 0524  
       decodificacion@i_494 0526         decodificacion@i_486 0516         decodificacion@i_495 0528  
       decodificacion@i_487 0518         decodificacion@i_496 052A         decodificacion@i_488 051A  
       decodificacion@i_497 052C         decodificacion@i_489 051C         decodificacion@i_498 052E  
       decodificacion@i_499 0530                ??_POS_CURSOR 0506                     __Hparam 0000  
                   __Lparam 0000           __end_of_configuro 35CC                     ___awdiv 31AC  
                   ___awmod 3270                __psmallconst 2500       __end_of_ENVIA_LCD_CMD 37AA  
                   __pcinit 361E          __end_of_POS_CURSOR 3448                     __ramtop 2500  
                   __ptext0 2F64                     __ptext1 251C                     __ptext2 3270  
                   __ptext3 31AC                     __ptext4 3578                     __ptext5 366A  
                   __ptext6 3320                     __ptext7 34BA                     __ptext8 35CC  
                   __ptext9 37DC                     _letra_a 05B0            ___awmod@dividend 0502  
             ??_default_ISR 0502            ??_decodificacion 0510                _ENVIA_NIBBLE 380C  
      end_of_initialization 3664                     postdec1 04E5                     postinc0 04EE  
                _variablazo 0558                     strlen@a 0504                     strlen@s 0502  
    MAX7219_WriteData2@dato 0502   MAX7219_WriteData2@comando 0505           ESCRIBE_MENSAJE2@i 0509  
__end_of_MAX7219_WriteData2 33CE                   _TRISCbits 04C8                   _TRISFbits 04CB  
     decodificacion@centena 0510         __end_of_default_ISR 383A                  main@cuenta 0552  
  __end_of_ESCRIBE_MENSAJE2 36FA                _CURSOR_ONOFF 37DC          CURSOR_ONOFF@estado 0505  
            __end_of_strlen 3776               ??_CURSOR_HOME 0505         start_initialization 361E  
                ivt0x8_base 0008           ENVIA_LCD_CMD@dato 0503                 __pdataBANK5 0560  
                  ??_strlen 0504                 _deco_decena 0554                 __pbssCOMRAM 0553  
               _default_ISR 3838                 _deco_unidad 0553         __end_of_CURSOR_HOME 3830  
                  ?___awdiv 0508                    ?___awmod 0502                   _configuro 3578  
               __smallconst 2500              _desplazamiento 0556                    _LCD_INIT 34BA  
                  _LEER_LCD 3448                    _LATCbits 04C0                    _LATDbits 04C1  
                  _LATEbits 04C2                    _LATFbits 04C3                 _concatenado 0557  
                  _PIE3bits 04A1                    _PIR3bits 04B1                    _TMR0_ISR 36FC  
      decodificacion@decena 0511              POS_CURSOR@fila 0506                  ?_configuro 0501  
    ESCRIBE_MENSAJE2@cadena 0506        decodificacion@numero 0513        decodificacion@unidad 0512  
               _CURSOR_HOME 3828                 _INTCON0bits 04D6                   copy_data0 3632  
        _MAX7219_WriteData2 3320                    __Hrparam 0000           ?_ESCRIBE_MENSAJE2 0506  
                  __Lrparam 0000         ?_MAX7219_WriteData2 0502          ??_ESCRIBE_MENSAJE2 0507  
                _ANSELCbits 0410                  _ANSELFbits 0428                    __pivt0x8 0008  
      ??_MAX7219_WriteData2 0503                    __ptext10 3828                    __ptext11 3830  
                  __ptext20 3838                    __ptext12 33CE                    __ptext13 3776  
                  __ptext14 3448                    __ptext15 36B6                    __ptext16 373E  
                  __ptext17 37AA                    __ptext18 380C                    __ptext19 36FC  
                _BORRAR_LCD 3830                  _LCD_CONFIG 35CC                  _ENVIA_CHAR 37AA  
                  isa$xinst 0000               _ENVIA_LCD_CMD 3776                 ??_configuro 0508  
             ?_MAX7219_Init 0501                ?_default_ISR 0501                    intlevel2 0000  
            ?_ENVIA_LCD_CMD 0501              ??_MAX7219_Init 0507         ESCRIBE_MENSAJE2@tam 0508  
               ?_BORRAR_LCD 0501               ?_ENVIA_NIBBLE 0501                  _POS_CURSOR 33CE  
   MAX7219_WriteData2@var_x 0506                 ?_LCD_CONFIG 0501                 ?_ENVIA_CHAR 0501  
         POS_CURSOR@columna 0505  
