

Microchip MPLAB XC8 Assembler V2.46 build 20240104201356 
                                                                                               Mon Nov 04 12:03:00 2024

Microchip MPLAB XC8 C Compiler v2.46 (Free license) build 20240104201356 Og1 
     1                           	processor	18F57Q43
     2                           	fnconf	rparam,??,?,0
     3                           	pagewidth 120
     4                           	opt	flic
     5                           	psect	idataCOMRAM,global,class=CODE,delta=1,noexec
     6                           	psect	smallconst,global,reloc=2,class=SMALLCONST,delta=1,noexec
     7                           	psect	cinit,global,reloc=2,class=CODE,delta=1
     8                           	psect	bssCOMRAM,global,class=COMRAM,space=1,delta=1,lowdata,noexec
     9                           	psect	dataCOMRAM,global,class=COMRAM,space=1,delta=1,lowdata,noexec
    10                           	psect	cstackCOMRAM,global,class=COMRAM,space=1,delta=1,lowdata,noexec
    11                           	psect	text0,global,reloc=2,class=CODE,delta=1
    12                           	psect	text1,global,reloc=2,class=CODE,delta=1
    13                           	psect	text2,global,reloc=2,class=CODE,delta=1
    14                           	psect	text3,global,reloc=2,class=CODE,delta=1
    15                           	psect	text4,global,reloc=2,class=CODE,delta=1,group=2
    16                           	psect	text5,global,reloc=2,class=CODE,delta=1
    17                           	psect	text6,global,reloc=2,class=CODE,delta=1
    18                           	psect	text7,global,reloc=2,class=CODE,delta=1
    19                           	psect	text8,global,reloc=2,class=CODE,delta=1
    20                           	psect	text9,global,reloc=2,class=CODE,delta=1
    21                           	psect	text10,global,reloc=2,class=CODE,delta=1
    22                           	psect	text11,global,reloc=2,class=CODE,delta=1
    23                           	psect	text12,global,reloc=2,class=CODE,delta=1
    24                           	psect	text13,global,reloc=2,class=CODE,delta=1,group=1
    25                           	psect	text14,global,reloc=2,class=CODE,delta=1,group=1
    26                           	psect	text15,global,reloc=2,class=CODE,delta=1,group=1
    27                           	psect	text16,global,reloc=2,class=CODE,delta=1
    28                           	psect	text17,global,reloc=2,class=CODE,delta=1,group=1
    29                           	psect	text18,global,reloc=2,class=CODE,delta=1,group=1
    30                           	psect	text19,global,reloc=2,class=CODE,delta=1
    31                           	psect	text20,global,reloc=2,class=CODE,delta=1
    32                           	psect	intsave_regs,global,class=BIGRAM,space=1,delta=1,noexec
    33                           	psect	rparam,global,class=COMRAM,space=1,delta=1,noexec
    34                           	psect	config,global,abs,ovrld,class=CONFIG,space=4,delta=1,noexec
    35   000000                     
    36                           ; Generated 18/12/2023 GMT
    37                           ; 
    38                           ; Copyright © 2023, Microchip Technology Inc. and its subsidiaries ("Microchip")
    39                           ; All rights reserved.
    40                           ; 
    41                           ; This software is developed by Microchip Technology Inc. and its subsidiaries ("Microch
      +                          ip").
    42                           ; 
    43                           ; Redistribution and use in source and binary forms, with or without modification, are
    44                           ; permitted provided that the following conditions are met:
    45                           ; 
    46                           ;     1. Redistributions of source code must retain the above copyright notice, this lis
      +                          t of
    47                           ;        conditions and the following disclaimer.
    48                           ; 
    49                           ;     2. Redistributions in binary form must reproduce the above copyright notice, this 
      +                          list
    50                           ;        of conditions and the following disclaimer in the documentation and/or other
    51                           ;        materials provided with the distribution. Publication is not required when
    52                           ;        this file is used in an embedded application.
    53                           ; 
    54                           ;     3. Microchip's name may not be used to endorse or promote products derived from th
      +                          is
    55                           ;        software without specific prior written permission.
    56                           ; 
    57                           ; THIS SOFTWARE IS PROVIDED BY MICROCHIP "AS IS" AND ANY EXPRESS OR IMPLIED WARRANTIES,
    58                           ; INCLUDING, BUT NOT LIMITED TO, THE IMPLIED WARRANTIES OF MERCHANTABILITY AND FITNESS F
      +                          OR
    59                           ; PURPOSE ARE DISCLAIMED.  IN NO EVENT SHALL MICROCHIP BE LIABLE FOR ANY DIRECT, INDIREC
      +                          T,
    60                           ; INCIDENTAL, SPECIAL, EXEMPLARY, OR CONSEQUENTIAL DAMAGES (INCLUDING BUT NOT LIMITED TO
    61                           ; PROCUREMENT OF SUBSTITUTE GOODS OR SERVICES; LOSS OF USE, DATA OR PROFITS; OR BUSINESS
    62                           ; INTERRUPTION) HOWSOEVER CAUSED AND ON ANY THEORY OF LIABILITY, WHETHER IN CONTRACT, ST
      +                          RICT
    63                           ; LIABILITY, OR TORT (INCLUDING NEGLIGENCE OR OTHERWISE) ARISING IN ANY WAY OUT OF THE U
      +                          SE OF
    64                           ; THIS SOFTWARE, EVEN IF ADVISED OF THE POSSIBILITY OF SUCH DAMAGE.
    65                           ; 
    66                           ; 
    67                           ; Code-generator required, PIC18F57Q43 Definitions
    68                           ; 
    69                           ; SFR Addresses
    70   000000                     
    71                           	psect	idataCOMRAM
    72   0038F8                     __pidataCOMRAM:
    73                           	callstack 0
    74                           
    75                           ;initializer for _I2C_LCD_ADDR
    76   0038F8  27                 	db	39
    77   000000                     _I2C1CON1bits	set	661
    78   000000                     _I2C1CON2bits	set	662
    79   000000                     _I2C1CLKbits	set	668
    80   000000                     _ADCON0bits	set	1011
    81   000000                     _OSCCON1	set	173
    82   000000                     _RC3PPS	set	532
    83   000000                     _ANSELCbits	set	1040
    84   000000                     _TRISCbits	set	1224
    85   000000                     _PORTBbits	set	1231
    86   000000                     _ODCONCbits	set	1042
    87   000000                     _LATBbits	set	1215
    88   000000                     _TRISAbits	set	1222
    89   000000                     _TRISBbits	set	1223
    90   000000                     _RC4I2Cbits	set	646
    91   000000                     _RC3I2Cbits	set	647
    92   000000                     _RC4PPS	set	533
    93   000000                     _I2C1TXB	set	652
    94   000000                     _I2C1CNT	set	653
    95   000000                     _I2C1CON0bits	set	660
    96   000000                     _ADRESL	set	1002
    97   000000                     _ADRESH	set	1003
    98   000000                     _ADPCH	set	1004
    99   000000                     _ADCON0	set	1011
   100   000000                     _ANSELAbits	set	1024
   101   000000                     _ANSELBbits	set	1032
   102   000000                     _I2C1STAT1bits	set	665
   103   000000                     _I2C1ADB1	set	655
   104   000000                     _I2C1PIRbits	set	666
   105   000000                     _OSCFRQ	set	177
   106   000000                     _OSCEN	set	179
   107                           
   108                           	psect	smallconst
   109   002500                     __psmallconst:
   110                           	callstack 0
   111   002500  00                 	db	0
   112   002501                     STR_1:
   113                           
   114                           ; BSR set to: 2
   115   002501  54                 	db	84	;'T'
   116   002502  61                 	db	97	;'a'
   117   002503  6C                 	db	108	;'l'
   118   002504  6C                 	db	108	;'l'
   119   002505  65                 	db	101	;'e'
   120   002506  72                 	db	114	;'r'
   121   002507  20                 	db	32
   122   002508  64                 	db	100	;'d'
   123   002509  65                 	db	101	;'e'
   124   00250A  20                 	db	32
   125   00250B  4D                 	db	77	;'M'
   126   00250C  69                 	db	105	;'i'
   127   00250D  63                 	db	99	;'c'
   128   00250E  72                 	db	114	;'r'
   129   00250F  6F                 	db	111	;'o'
   130   002510  00                 	db	0
   131   002511                     STR_3:
   132                           
   133                           ; BSR set to: 2
   134   002511  54                 	db	84	;'T'
   135   002512  65                 	db	101	;'e'
   136   002513  73                 	db	115	;'s'
   137   002514  74                 	db	116	;'t'
   138   002515  20                 	db	32
   139   002516  48                 	db	72	;'H'
   140   002517  43                 	db	67	;'C'
   141   002518  53                 	db	83	;'S'
   142   002519  52                 	db	82	;'R'
   143   00251A  30                 	db	48	;'0'
   144   00251B  34                 	db	52	;'4'
   145   00251C  00                 	db	0
   146   00251D                     STR_2:
   147                           
   148                           ; BSR set to: 2
   149   00251D  53                 	db	83	;'S'
   150   00251E  65                 	db	101	;'e'
   151   00251F  6D                 	db	109	;'m'
   152   002520  61                 	db	97	;'a'
   153   002521  6E                 	db	110	;'n'
   154   002522  61                 	db	97	;'a'
   155   002523  20                 	db	32
   156   002524  31                 	db	49	;'1'
   157   002525  32                 	db	50	;'2'
   158   002526  00                 	db	0
   159   002527                     STR_4:
   160                           
   161                           ; BSR set to: 2
   162   002527  49                 	db	73	;'I'
   163   002528  32                 	db	50	;'2'
   164   002529  43                 	db	67	;'C'
   165   00252A  20                 	db	32
   166   00252B  4C                 	db	76	;'L'
   167   00252C  43                 	db	67	;'C'
   168   00252D  44                 	db	68	;'D'
   169   00252E  00                 	db	0
   170   00252F                     STR_6:
   171                           
   172                           ; BSR set to: 2
   173   00252F  54                 	db	84	;'T'
   174   002530  65                 	db	101	;'e'
   175   002531  72                 	db	114	;'r'
   176   002532  6D                 	db	109	;'m'
   177   002533  3A                 	db	58	;':'
   178   002534  20                 	db	32
   179   002535  00                 	db	0
   180   002536                     STR_5:
   181                           
   182                           ; BSR set to: 2
   183   002536  44                 	db	68	;'D'
   184   002537  69                 	db	105	;'i'
   185   002538  73                 	db	115	;'s'
   186   002539  74                 	db	116	;'t'
   187   00253A  3A                 	db	58	;':'
   188   00253B  20                 	db	32
   189   00253C  00                 	db	0
   190   00253D  00                 	db	0	; dummy byte at the end
   191   000000                     
   192                           ; #config settings
   193                           
   194                           	psect	cinit
   195   0038C4                     __pcinit:
   196                           	callstack 0
   197   0038C4                     start_initialization:
   198                           	callstack 0
   199   0038C4                     __initialization:
   200                           	callstack 0
   201                           
   202                           ; Initialize objects allocated to COMRAM (1 bytes)
   203                           ; load TBLPTR registers with __pidataCOMRAM
   204   0038C4  0EF8               	movlw	low __pidataCOMRAM
   205   0038C6  6EF6               	movwf	tblptrl,c
   206   0038C8  0E38               	movlw	high __pidataCOMRAM
   207   0038CA  6EF7               	movwf	tblptrh,c
   208   0038CC  0E00               	movlw	low (__pidataCOMRAM shr (0+16))
   209   0038CE  6EF8               	movwf	tblptru,c
   210   0038D0  0009               	tblrd		*+	;fetch initializer
   211   0038D2  C4F5 F534          	movff	tablat,__pdataCOMRAM
   212                           
   213                           ; Clear objects allocated to COMRAM (10 bytes)
   214   0038D6  EE01  F12A         	lfsr	0,__pbssCOMRAM
   215   0038DA  0E0A               	movlw	10
   216   0038DC                     clear_0:
   217   0038DC  6AEE               	clrf	postinc0,c
   218   0038DE  06E8               	decf	wreg,f,c
   219   0038E0  E1FD               	bnz	clear_0
   220   0038E2                     end_of_initialization:
   221                           	callstack 0
   222   0038E2                     __end_of__initialization:
   223                           	callstack 0
   224   0038E2  0100               	movlb	0
   225   0038E4  EF20  F019         	goto	_main	;jump to C main() function
   226                           
   227                           	psect	bssCOMRAM
   228   00052A                     __pbssCOMRAM:
   229                           	callstack 0
   230   00052A                     _temporal:
   231                           	callstack 0
   232   00052A                     	ds	4
   233   00052E                     _termistor:
   234                           	callstack 0
   235   00052E                     	ds	2
   236   000530                     _final:
   237                           	callstack 0
   238   000530                     	ds	2
   239   000532                     _tiempo:
   240                           	callstack 0
   241   000532                     	ds	2
   242                           
   243                           	psect	dataCOMRAM
   244   000534                     __pdataCOMRAM:
   245                           	callstack 0
   246   000534                     _I2C_LCD_ADDR:
   247                           	callstack 0
   248   000534                     	ds	1
   249                           
   250                           	psect	cstackCOMRAM
   251   000501                     __pcstackCOMRAM:
   252                           	callstack 0
   253   000501                     ?_strlen:
   254                           	callstack 0
   255   000501                     ?_leer_ADC:
   256                           	callstack 0
   257   000501                     ?___lwmod:
   258                           	callstack 0
   259   000501                     ?___fltol:
   260                           	callstack 0
   261   000501                     ?___xxtofl:
   262                           	callstack 0
   263   000501                     I2C1_WRITESINGLEBYTE@dato:
   264                           	callstack 0
   265   000501                     strlen@s:
   266                           	callstack 0
   267   000501                     ___lwmod@dividend:
   268                           	callstack 0
   269   000501                     ___fltol@f1:
   270                           	callstack 0
   271   000501                     ___xxtofl@val:
   272                           	callstack 0
   273                           
   274                           ; 4 bytes @ 0x0
   275   000501                     	ds	1
   276   000502                     I2C1_WRITESINGLEBYTE@direccion:
   277                           	callstack 0
   278                           
   279                           ; 1 bytes @ 0x1
   280   000502                     	ds	1
   281   000503                     ??_I2C_ENVIA_LCD_CMD:
   282   000503                     ??_I2C_ENVIA_LCD_DATA:
   283   000503                     ??_leer_ADC:
   284   000503                     strlen@a:
   285                           	callstack 0
   286   000503                     ___lwmod@divisor:
   287                           	callstack 0
   288                           
   289                           ; 2 bytes @ 0x2
   290   000503                     	ds	1
   291   000504                     I2C_ENVIA_LCD_DATA@data:
   292                           	callstack 0
   293   000504                     I2C_ENVIA_LCD_CMD@command:
   294                           	callstack 0
   295                           
   296                           ; 1 bytes @ 0x3
   297   000504                     	ds	1
   298   000505                     ??___fltol:
   299   000505                     ??___xxtofl:
   300   000505                     I2C_ENVIA_LCD_DATA@highnibble:
   301                           	callstack 0
   302   000505                     I2C_ENVIA_LCD_CMD@highnibble:
   303                           	callstack 0
   304   000505                     leer_ADC@canal:
   305                           	callstack 0
   306   000505                     ___lwmod@counter:
   307                           	callstack 0
   308                           
   309                           ; 1 bytes @ 0x4
   310   000505                     	ds	1
   311   000506                     ?___lwdiv:
   312                           	callstack 0
   313   000506                     I2C_ENVIA_LCD_DATA@lownibble:
   314                           	callstack 0
   315   000506                     I2C_ENVIA_LCD_CMD@lownibble:
   316                           	callstack 0
   317   000506                     ___lwdiv@dividend:
   318                           	callstack 0
   319                           
   320                           ; 2 bytes @ 0x5
   321   000506                     	ds	1
   322   000507                     I2C_POS_CURSOR@columna:
   323                           	callstack 0
   324   000507                     I2C_CURSOR_ONOFF@estado:
   325                           	callstack 0
   326   000507                     I2C_ESCRIBE_MENSAJE2@cadena:
   327                           	callstack 0
   328                           
   329                           ; 1 bytes @ 0x6
   330   000507                     	ds	1
   331   000508                     ??_I2C_POS_CURSOR:
   332   000508                     ??_I2C_ESCRIBE_MENSAJE2:
   333   000508                     ??_I2C_LCD_INIT:
   334   000508                     ___lwdiv@divisor:
   335                           	callstack 0
   336                           
   337                           ; 2 bytes @ 0x7
   338   000508                     	ds	1
   339   000509                     I2C_POS_CURSOR@fila:
   340                           	callstack 0
   341   000509                     I2C_ESCRIBE_MENSAJE2@tam:
   342                           	callstack 0
   343   000509                     ___fltol@sign1:
   344                           	callstack 0
   345   000509                     ___xxtofl@sign:
   346                           	callstack 0
   347                           
   348                           ; 1 bytes @ 0x8
   349   000509                     	ds	1
   350   00050A                     I2C_ESCRIBE_MENSAJE2@i:
   351                           	callstack 0
   352   00050A                     ___fltol@exp1:
   353                           	callstack 0
   354   00050A                     ___xxtofl@exp:
   355                           	callstack 0
   356   00050A                     ___lwdiv@quotient:
   357                           	callstack 0
   358                           
   359                           ; 2 bytes @ 0x9
   360   00050A                     	ds	1
   361   00050B                     ??_pantallazo:
   362   00050B                     ___xxtofl@arg:
   363                           	callstack 0
   364                           
   365                           ; 4 bytes @ 0xA
   366   00050B                     	ds	1
   367   00050C                     ___lwdiv@counter:
   368                           	callstack 0
   369                           
   370                           ; 1 bytes @ 0xB
   371   00050C                     	ds	1
   372   00050D                     I2C_LCD_ESCRIBE_VAR_INT@numero:
   373                           	callstack 0
   374                           
   375                           ; 2 bytes @ 0xC
   376   00050D                     	ds	2
   377   00050F                     ?___flmul:
   378                           	callstack 0
   379   00050F                     I2C_LCD_ESCRIBE_VAR_INT@n_digitos:
   380                           	callstack 0
   381   00050F                     ___flmul@b:
   382                           	callstack 0
   383                           
   384                           ; 4 bytes @ 0xE
   385   00050F                     	ds	1
   386   000510                     I2C_LCD_ESCRIBE_VAR_INT@punto:
   387                           	callstack 0
   388                           
   389                           ; 1 bytes @ 0xF
   390   000510                     	ds	1
   391   000511                     I2C_LCD_ESCRIBE_VAR_INT@d_millar:
   392                           	callstack 0
   393                           
   394                           ; 1 bytes @ 0x10
   395   000511                     	ds	1
   396   000512                     I2C_LCD_ESCRIBE_VAR_INT@millar:
   397                           	callstack 0
   398                           
   399                           ; 1 bytes @ 0x11
   400   000512                     	ds	1
   401   000513                     I2C_LCD_ESCRIBE_VAR_INT@centena:
   402                           	callstack 0
   403   000513                     ___flmul@a:
   404                           	callstack 0
   405                           
   406                           ; 4 bytes @ 0x12
   407   000513                     	ds	1
   408   000514                     I2C_LCD_ESCRIBE_VAR_INT@decena:
   409                           	callstack 0
   410                           
   411                           ; 1 bytes @ 0x13
   412   000514                     	ds	1
   413   000515                     I2C_LCD_ESCRIBE_VAR_INT@unidad:
   414                           	callstack 0
   415                           
   416                           ; 1 bytes @ 0x14
   417   000515                     	ds	2
   418   000517                     ??___flmul:
   419                           
   420                           ; 1 bytes @ 0x16
   421   000517                     	ds	4
   422   00051B                     ___flmul@sign:
   423                           	callstack 0
   424                           
   425                           ; 1 bytes @ 0x1A
   426   00051B                     	ds	1
   427   00051C                     ___flmul@grs:
   428                           	callstack 0
   429                           
   430                           ; 4 bytes @ 0x1B
   431   00051C                     	ds	4
   432   000520                     ___flmul@aexp:
   433                           	callstack 0
   434                           
   435                           ; 1 bytes @ 0x1F
   436   000520                     	ds	1
   437   000521                     ___flmul@bexp:
   438                           	callstack 0
   439                           
   440                           ; 1 bytes @ 0x20
   441   000521                     	ds	1
   442   000522                     ___flmul@prod:
   443                           	callstack 0
   444                           
   445                           ; 4 bytes @ 0x21
   446   000522                     	ds	4
   447   000526                     ___flmul@temp:
   448                           	callstack 0
   449                           
   450                           ; 2 bytes @ 0x25
   451   000526                     	ds	2
   452   000528                     ??_main:
   453                           
   454                           ; 1 bytes @ 0x27
   455   000528                     	ds	2
   456                           
   457 ;;
   458 ;;Main: autosize = 0, tempsize = 2, incstack = 0, save=0
   459 ;;
   460 ;; *************** function _main *****************
   461 ;; Defined at:
   462 ;;		line 59 in file "maincode01.c"
   463 ;; Parameters:    Size  Location     Type
   464 ;;		None
   465 ;; Auto vars:     Size  Location     Type
   466 ;;		None
   467 ;; Return value:  Size  Location     Type
   468 ;;                  1    wreg      void 
   469 ;; Registers used:
   470 ;;		wreg, status,2, status,0, tblptrl, tblptrh, tblptru, prodl, prodh, cstack
   471 ;; Tracked objects:
   472 ;;		On entry : 0/0
   473 ;;		On exit  : 0/0
   474 ;;		Unchanged: 0/0
   475 ;; Data sizes:     COMRAM   BANK5   BANK6   BANK7   BANK8   BANK9  BANK10  BANK11  BANK12  BANK13  BANK14  BANK15  BANK1
      +6  BANK17  BANK18  BANK19  BANK20  BANK21  BANK22  BANK23  BANK24  BANK25  BANK26  BANK27  BANK28  BANK29  BANK30  BANK3
      +1  BANK32  BANK33  BANK34  BANK35  BANK36
   476 ;;      Params:         0       0       0       0       0       0       0       0       0       0       0       0       
      +0       0       0       0       0       0       0       0       0       0       0       0       0       0       0       
      +0       0       0       0       0       0
   477 ;;      Locals:         0       0       0       0       0       0       0       0       0       0       0       0       
      +0       0       0       0       0       0       0       0       0       0       0       0       0       0       0       
      +0       0       0       0       0       0
   478 ;;      Temps:          2       0       0       0       0       0       0       0       0       0       0       0       
      +0       0       0       0       0       0       0       0       0       0       0       0       0       0       0       
      +0       0       0       0       0       0
   479 ;;      Totals:         2       0       0       0       0       0       0       0       0       0       0       0       
      +0       0       0       0       0       0       0       0       0       0       0       0       0       0       0       
      +0       0       0       0       0       0
   480 ;;Total ram usage:        2 bytes
   481 ;; Hardware stack levels required when called: 5
   482 ;; This function calls:
   483 ;;		_I2C_ENVIA_LCD_DATA
   484 ;;		_I2C_ESCRIBE_MENSAJE2
   485 ;;		_I2C_LCD_ESCRIBE_VAR_INT
   486 ;;		_I2C_POS_CURSOR
   487 ;;		___flmul
   488 ;;		___fltol
   489 ;;		___xxtofl
   490 ;;		_configuro
   491 ;;		_leer_ADC
   492 ;;		_pantallazo
   493 ;; This function is called by:
   494 ;;		Startup code after reset
   495 ;; This function uses a non-reentrant model
   496 ;;
   497                           
   498                           	psect	text0
   499   003240                     __ptext0:
   500                           	callstack 0
   501   003240                     _main:
   502                           	callstack 122
   503   003240                     
   504                           ;maincode01.c: 60:     configuro();
   505   003240  EC4E  F01C         	call	_configuro	;wreg free
   506   003244                     
   507                           ;maincode01.c: 61:     pantallazo();
   508   003244  EC34  F01A         	call	_pantallazo	;wreg free
   509   003248                     l2477:
   510                           
   511                           ;maincode01.c: 63:         LATBbits.LATB0 = 1;
   512   003248  80BF               	bsf	191,0,c	;volatile
   513   00324A                     
   514                           ;maincode01.c: 64:         _delay((unsigned long)((10)*(64000000UL/4000000.0)));
   515   00324A  0E35               	movlw	53
   516   00324C                     u1357:
   517   00324C  2EE8               	decfsz	wreg,f,c
   518   00324E  D7FE               	bra	u1357
   519   003250  0000               	nop	
   520   003252                     
   521                           ;maincode01.c: 65:         LATBbits.LATB0 = 0;
   522   003252  90BF               	bcf	191,0,c	;volatile
   523   003254                     l257:
   524   003254  A2CF               	btfss	207,1,c	;volatile
   525   003256  EF2F  F019         	goto	u1331
   526   00325A  EF31  F019         	goto	u1330
   527   00325E                     u1331:
   528   00325E  EF2A  F019         	goto	l257
   529   003262                     u1330:
   530   003262                     
   531                           ;maincode01.c: 67:         tiempo = 0;
   532   003262  0E00               	movlw	0
   533   003264  6E33               	movwf	(_tiempo+1)^(0+1280),c
   534   003266  0E00               	movlw	0
   535   003268  6E32               	movwf	_tiempo^(0+1280),c
   536                           
   537                           ;maincode01.c: 68:         while(PORTBbits.RB1 == 1){
   538   00326A  EF3D  F019         	goto	l2489
   539   00326E                     l2485:
   540                           
   541                           ;maincode01.c: 69:             tiempo++;
   542   00326E  4A32               	infsnz	_tiempo^(0+1280),f,c
   543   003270  2A33               	incf	(_tiempo+1)^(0+1280),f,c
   544   003272                     
   545                           ;maincode01.c: 70:             _delay((unsigned long)((1)*(64000000UL/4000000.0)));
   546   003272  0E05               	movlw	5
   547   003274                     u1367:
   548   003274  2EE8               	decfsz	wreg,f,c
   549   003276  D7FE               	bra	u1367
   550   003278  0000               	nop	
   551   00327A                     l2489:
   552                           
   553                           ;maincode01.c: 68:         while(PORTBbits.RB1 == 1){
   554   00327A  B2CF               	btfsc	207,1,c	;volatile
   555   00327C  EF42  F019         	goto	u1341
   556   003280  EF44  F019         	goto	u1340
   557   003284                     u1341:
   558   003284  EF37  F019         	goto	l2485
   559   003288                     u1340:
   560   003288                     
   561                           ;maincode01.c: 73:      temporal = 0.034 * (tiempo / 2);
   562   003288  90D8               	bcf	status,0,c
   563   00328A  3033               	rrcf	(_tiempo+1)^(0+1280),w,c
   564   00328C  6E29               	movwf	(??_main+1)^(0+1280),c
   565   00328E  3032               	rrcf	_tiempo^(0+1280),w,c
   566   003290  6E28               	movwf	??_main^(0+1280),c
   567   003292  C528  F501         	movff	??_main,___xxtofl@val
   568   003296  C529  F502         	movff	??_main+1,___xxtofl@val+1
   569   00329A  6A03               	clrf	(___xxtofl@val+2)^(0+1280),c
   570   00329C  6A04               	clrf	(___xxtofl@val+3)^(0+1280),c
   571   00329E  0E00               	movlw	0
   572   0032A0  EC46  F018         	call	___xxtofl
   573   0032A4  C501  F50F         	movff	?___xxtofl,___flmul@b
   574   0032A8  C502  F510         	movff	?___xxtofl+1,___flmul@b+1
   575   0032AC  C503  F511         	movff	?___xxtofl+2,___flmul@b+2
   576   0032B0  C504  F512         	movff	?___xxtofl+3,___flmul@b+3
   577   0032B4  0E96               	movlw	150
   578   0032B6  6E13               	movwf	___flmul@a^(0+1280),c
   579   0032B8  0E43               	movlw	67
   580   0032BA  6E14               	movwf	(___flmul@a+1)^(0+1280),c
   581   0032BC  0E0B               	movlw	11
   582   0032BE  6E15               	movwf	(___flmul@a+2)^(0+1280),c
   583   0032C0  0E3D               	movlw	61
   584   0032C2  6E16               	movwf	(___flmul@a+3)^(0+1280),c
   585   0032C4  EC9F  F012         	call	___flmul	;wreg free
   586   0032C8  C50F  F52A         	movff	?___flmul,_temporal
   587   0032CC  C510  F52B         	movff	?___flmul+1,_temporal+1
   588   0032D0  C511  F52C         	movff	?___flmul+2,_temporal+2
   589   0032D4  C512  F52D         	movff	?___flmul+3,_temporal+3
   590   0032D8                     
   591                           ;maincode01.c: 74:         final = temporal;
   592   0032D8  C52A  F501         	movff	_temporal,___fltol@f1
   593   0032DC  C52B  F502         	movff	_temporal+1,___fltol@f1+1
   594   0032E0  C52C  F503         	movff	_temporal+2,___fltol@f1+2
   595   0032E4  C52D  F504         	movff	_temporal+3,___fltol@f1+3
   596   0032E8  ECB1  F019         	call	___fltol	;wreg free
   597   0032EC  C501  F530         	movff	?___fltol,_final
   598   0032F0  C502  F531         	movff	?___fltol+1,_final+1
   599   0032F4                     
   600                           ;maincode01.c: 76:         termistor = leer_ADC(1);
   601   0032F4  0E01               	movlw	1
   602   0032F6  EC38  F01C         	call	_leer_ADC
   603   0032FA  C501  F52E         	movff	?_leer_ADC,_termistor
   604   0032FE  C502  F52F         	movff	?_leer_ADC+1,_termistor+1
   605   003302                     
   606                           ;maincode01.c: 78:         I2C_POS_CURSOR(1,0);
   607   003302  0E00               	movlw	0
   608   003304  6E07               	movwf	I2C_POS_CURSOR@columna^(0+1280),c
   609   003306  0E01               	movlw	1
   610   003308  EC81  F01A         	call	_I2C_POS_CURSOR
   611   00330C                     
   612                           ;maincode01.c: 79:         I2C_ESCRIBE_MENSAJE2("Dist: ");
   613   00330C  0E36               	movlw	low STR_5
   614   00330E  6E07               	movwf	I2C_ESCRIBE_MENSAJE2@cadena^(0+1280),c
   615   003310  ECC1  F01B         	call	_I2C_ESCRIBE_MENSAJE2	;wreg free
   616   003314                     
   617                           ;maincode01.c: 80:         I2C_LCD_ESCRIBE_VAR_INT(final, 5, 0);
   618   003314  C530  F50D         	movff	_final,I2C_LCD_ESCRIBE_VAR_INT@numero
   619   003318  C531  F50E         	movff	_final+1,I2C_LCD_ESCRIBE_VAR_INT@numero+1
   620   00331C  0E05               	movlw	5
   621   00331E  6E0F               	movwf	I2C_LCD_ESCRIBE_VAR_INT@n_digitos^(0+1280),c
   622   003320  0E00               	movlw	0
   623   003322  6E10               	movwf	I2C_LCD_ESCRIBE_VAR_INT@punto^(0+1280),c
   624   003324  ECB4  F014         	call	_I2C_LCD_ESCRIBE_VAR_INT	;wreg free
   625   003328                     
   626                           ;maincode01.c: 81:         I2C_ENVIA_LCD_DATA('c');
   627   003328  0E63               	movlw	99
   628   00332A  EC00  F01B         	call	_I2C_ENVIA_LCD_DATA
   629   00332E                     
   630                           ;maincode01.c: 82:         I2C_ENVIA_LCD_DATA('m');
   631   00332E  0E6D               	movlw	109
   632   003330  EC00  F01B         	call	_I2C_ENVIA_LCD_DATA
   633   003334                     
   634                           ;maincode01.c: 83:         I2C_POS_CURSOR(2,0);
   635   003334  0E00               	movlw	0
   636   003336  6E07               	movwf	I2C_POS_CURSOR@columna^(0+1280),c
   637   003338  0E02               	movlw	2
   638   00333A  EC81  F01A         	call	_I2C_POS_CURSOR
   639   00333E                     
   640                           ;maincode01.c: 84:         I2C_ESCRIBE_MENSAJE2("Term: ");
   641   00333E  0E2F               	movlw	low STR_6
   642   003340  6E07               	movwf	I2C_ESCRIBE_MENSAJE2@cadena^(0+1280),c
   643   003342  ECC1  F01B         	call	_I2C_ESCRIBE_MENSAJE2	;wreg free
   644   003346                     
   645                           ;maincode01.c: 85:         I2C_LCD_ESCRIBE_VAR_INT(termistor, 4, 0);
   646   003346  C52E  F50D         	movff	_termistor,I2C_LCD_ESCRIBE_VAR_INT@numero
   647   00334A  C52F  F50E         	movff	_termistor+1,I2C_LCD_ESCRIBE_VAR_INT@numero+1
   648   00334E  0E04               	movlw	4
   649   003350  6E0F               	movwf	I2C_LCD_ESCRIBE_VAR_INT@n_digitos^(0+1280),c
   650   003352  0E00               	movlw	0
   651   003354  6E10               	movwf	I2C_LCD_ESCRIBE_VAR_INT@punto^(0+1280),c
   652   003356  ECB4  F014         	call	_I2C_LCD_ESCRIBE_VAR_INT	;wreg free
   653   00335A  EF24  F019         	goto	l2477
   654   00335E  EFFE  F0FF         	goto	start
   655   003362                     __end_of_main:
   656                           	callstack 0
   657                           
   658 ;; *************** function _pantallazo *****************
   659 ;; Defined at:
   660 ;;		line 36 in file "maincode01.c"
   661 ;; Parameters:    Size  Location     Type
   662 ;;		None
   663 ;; Auto vars:     Size  Location     Type
   664 ;;		None
   665 ;; Return value:  Size  Location     Type
   666 ;;                  1    wreg      void 
   667 ;; Registers used:
   668 ;;		wreg, status,2, status,0, tblptrl, tblptrh, tblptru, cstack
   669 ;; Tracked objects:
   670 ;;		On entry : 0/0
   671 ;;		On exit  : 0/0
   672 ;;		Unchanged: 0/0
   673 ;; Data sizes:     COMRAM   BANK5   BANK6   BANK7   BANK8   BANK9  BANK10  BANK11  BANK12  BANK13  BANK14  BANK15  BANK1
      +6  BANK17  BANK18  BANK19  BANK20  BANK21  BANK22  BANK23  BANK24  BANK25  BANK26  BANK27  BANK28  BANK29  BANK30  BANK3
      +1  BANK32  BANK33  BANK34  BANK35  BANK36
   674 ;;      Params:         0       0       0       0       0       0       0       0       0       0       0       0       
      +0       0       0       0       0       0       0       0       0       0       0       0       0       0       0       
      +0       0       0       0       0       0
   675 ;;      Locals:         0       0       0       0       0       0       0       0       0       0       0       0       
      +0       0       0       0       0       0       0       0       0       0       0       0       0       0       0       
      +0       0       0       0       0       0
   676 ;;      Temps:          2       0       0       0       0       0       0       0       0       0       0       0       
      +0       0       0       0       0       0       0       0       0       0       0       0       0       0       0       
      +0       0       0       0       0       0
   677 ;;      Totals:         2       0       0       0       0       0       0       0       0       0       0       0       
      +0       0       0       0       0       0       0       0       0       0       0       0       0       0       0       
      +0       0       0       0       0       0
   678 ;;Total ram usage:        2 bytes
   679 ;; Hardware stack levels used: 1
   680 ;; Hardware stack levels required when called: 3
   681 ;; This function calls:
   682 ;;		_I2C_BORRAR_LCD
   683 ;;		_I2C_ESCRIBE_MENSAJE2
   684 ;;		_I2C_POS_CURSOR
   685 ;; This function is called by:
   686 ;;		_main
   687 ;; This function uses a non-reentrant model
   688 ;;
   689                           
   690                           	psect	text1
   691   003468                     __ptext1:
   692                           	callstack 0
   693   003468                     _pantallazo:
   694                           	callstack 123
   695   003468                     
   696                           ;maincode01.c: 37:     _delay((unsigned long)((500)*(64000000UL/4000.0)));
   697   003468  0E29               	movlw	41
   698   00346A  6E0C               	movwf	(??_pantallazo+1)^(0+1280),c
   699   00346C  0E96               	movlw	150
   700   00346E  6E0B               	movwf	??_pantallazo^(0+1280),c
   701   003470  0E7F               	movlw	127
   702   003472                     u1377:
   703   003472  2EE8               	decfsz	wreg,f,c
   704   003474  D7FE               	bra	u1377
   705   003476  2E0B               	decfsz	??_pantallazo^(0+1280),f,c
   706   003478  D7FC               	bra	u1377
   707   00347A  2E0C               	decfsz	(??_pantallazo+1)^(0+1280),f,c
   708   00347C  D7FA               	bra	u1377
   709   00347E  0000               	nop	
   710   003480                     
   711                           ;maincode01.c: 38:     I2C_POS_CURSOR(1,0);
   712   003480  0E00               	movlw	0
   713   003482  6E07               	movwf	I2C_POS_CURSOR@columna^(0+1280),c
   714   003484  0E01               	movlw	1
   715   003486  EC81  F01A         	call	_I2C_POS_CURSOR
   716   00348A                     
   717                           ;maincode01.c: 39:     I2C_ESCRIBE_MENSAJE2("Taller de Micro");
   718   00348A  0E01               	movlw	low STR_1
   719   00348C  6E07               	movwf	I2C_ESCRIBE_MENSAJE2@cadena^(0+1280),c
   720   00348E  ECC1  F01B         	call	_I2C_ESCRIBE_MENSAJE2	;wreg free
   721   003492                     
   722                           ;maincode01.c: 40:     I2C_POS_CURSOR(2,0);
   723   003492  0E00               	movlw	0
   724   003494  6E07               	movwf	I2C_POS_CURSOR@columna^(0+1280),c
   725   003496  0E02               	movlw	2
   726   003498  EC81  F01A         	call	_I2C_POS_CURSOR
   727   00349C                     
   728                           ;maincode01.c: 41:     I2C_ESCRIBE_MENSAJE2("Semana 12");
   729   00349C  0E1D               	movlw	low STR_2
   730   00349E  6E07               	movwf	I2C_ESCRIBE_MENSAJE2@cadena^(0+1280),c
   731   0034A0  ECC1  F01B         	call	_I2C_ESCRIBE_MENSAJE2	;wreg free
   732                           
   733                           ;maincode01.c: 42:     _delay((unsigned long)((2000)*(64000000UL/4000.0)));
   734   0034A4  0EA3               	movlw	163
   735   0034A6  6E0C               	movwf	(??_pantallazo+1)^(0+1280),c
   736   0034A8  0E57               	movlw	87
   737   0034AA  6E0B               	movwf	??_pantallazo^(0+1280),c
   738   0034AC  0E02               	movlw	2
   739   0034AE                     u1387:
   740   0034AE  2EE8               	decfsz	wreg,f,c
   741   0034B0  D7FE               	bra	u1387
   742   0034B2  2E0B               	decfsz	??_pantallazo^(0+1280),f,c
   743   0034B4  D7FC               	bra	u1387
   744   0034B6  2E0C               	decfsz	(??_pantallazo+1)^(0+1280),f,c
   745   0034B8  D7FA               	bra	u1387
   746   0034BA  D000               	nop2	
   747   0034BC                     
   748                           ;maincode01.c: 43:     I2C_POS_CURSOR(1,0);
   749   0034BC  0E00               	movlw	0
   750   0034BE  6E07               	movwf	I2C_POS_CURSOR@columna^(0+1280),c
   751   0034C0  0E01               	movlw	1
   752   0034C2  EC81  F01A         	call	_I2C_POS_CURSOR
   753   0034C6                     
   754                           ;maincode01.c: 44:     I2C_BORRAR_LCD();
   755   0034C6  EC78  F01C         	call	_I2C_BORRAR_LCD	;wreg free
   756   0034CA                     
   757                           ;maincode01.c: 45:     I2C_ESCRIBE_MENSAJE2("Test HCSR04");
   758   0034CA  0E11               	movlw	low STR_3
   759   0034CC  6E07               	movwf	I2C_ESCRIBE_MENSAJE2@cadena^(0+1280),c
   760   0034CE  ECC1  F01B         	call	_I2C_ESCRIBE_MENSAJE2	;wreg free
   761   0034D2                     
   762                           ;maincode01.c: 46:     I2C_POS_CURSOR(2,0);
   763   0034D2  0E00               	movlw	0
   764   0034D4  6E07               	movwf	I2C_POS_CURSOR@columna^(0+1280),c
   765   0034D6  0E02               	movlw	2
   766   0034D8  EC81  F01A         	call	_I2C_POS_CURSOR
   767   0034DC                     
   768                           ;maincode01.c: 47:     I2C_ESCRIBE_MENSAJE2("I2C LCD");
   769   0034DC  0E27               	movlw	low STR_4
   770   0034DE  6E07               	movwf	I2C_ESCRIBE_MENSAJE2@cadena^(0+1280),c
   771   0034E0  ECC1  F01B         	call	_I2C_ESCRIBE_MENSAJE2	;wreg free
   772   0034E4                     
   773                           ;maincode01.c: 48:     _delay((unsigned long)((2000)*(64000000UL/4000.0)));
   774   0034E4  0EA3               	movlw	163
   775   0034E6  6E0C               	movwf	(??_pantallazo+1)^(0+1280),c
   776   0034E8  0E57               	movlw	87
   777   0034EA  6E0B               	movwf	??_pantallazo^(0+1280),c
   778   0034EC  0E02               	movlw	2
   779   0034EE                     u1397:
   780   0034EE  2EE8               	decfsz	wreg,f,c
   781   0034F0  D7FE               	bra	u1397
   782   0034F2  2E0B               	decfsz	??_pantallazo^(0+1280),f,c
   783   0034F4  D7FC               	bra	u1397
   784   0034F6  2E0C               	decfsz	(??_pantallazo+1)^(0+1280),f,c
   785   0034F8  D7FA               	bra	u1397
   786   0034FA  D000               	nop2	
   787                           
   788                           ;maincode01.c: 49:     I2C_BORRAR_LCD();
   789   0034FC  EC78  F01C         	call	_I2C_BORRAR_LCD	;wreg free
   790   003500  0012               	return		;funcret
   791   003502                     __end_of_pantallazo:
   792                           	callstack 0
   793                           
   794 ;; *************** function _I2C_POS_CURSOR *****************
   795 ;; Defined at:
   796 ;;		line 70 in file "I2C_LCD.c"
   797 ;; Parameters:    Size  Location     Type
   798 ;;  fila            1    wreg     unsigned char 
   799 ;;  columna         1    6[COMRAM] unsigned char 
   800 ;; Auto vars:     Size  Location     Type
   801 ;;  fila            1    8[COMRAM] unsigned char 
   802 ;; Return value:  Size  Location     Type
   803 ;;                  1    wreg      void 
   804 ;; Registers used:
   805 ;;		wreg, status,2, status,0, cstack
   806 ;; Tracked objects:
   807 ;;		On entry : 0/0
   808 ;;		On exit  : 0/0
   809 ;;		Unchanged: 0/0
   810 ;; Data sizes:     COMRAM   BANK5   BANK6   BANK7   BANK8   BANK9  BANK10  BANK11  BANK12  BANK13  BANK14  BANK15  BANK1
      +6  BANK17  BANK18  BANK19  BANK20  BANK21  BANK22  BANK23  BANK24  BANK25  BANK26  BANK27  BANK28  BANK29  BANK30  BANK3
      +1  BANK32  BANK33  BANK34  BANK35  BANK36
   811 ;;      Params:         1       0       0       0       0       0       0       0       0       0       0       0       
      +0       0       0       0       0       0       0       0       0       0       0       0       0       0       0       
      +0       0       0       0       0       0
   812 ;;      Locals:         1       0       0       0       0       0       0       0       0       0       0       0       
      +0       0       0       0       0       0       0       0       0       0       0       0       0       0       0       
      +0       0       0       0       0       0
   813 ;;      Temps:          1       0       0       0       0       0       0       0       0       0       0       0       
      +0       0       0       0       0       0       0       0       0       0       0       0       0       0       0       
      +0       0       0       0       0       0
   814 ;;      Totals:         3       0       0       0       0       0       0       0       0       0       0       0       
      +0       0       0       0       0       0       0       0       0       0       0       0       0       0       0       
      +0       0       0       0       0       0
   815 ;;Total ram usage:        3 bytes
   816 ;; Hardware stack levels used: 1
   817 ;; Hardware stack levels required when called: 2
   818 ;; This function calls:
   819 ;;		_I2C_ENVIA_LCD_CMD
   820 ;; This function is called by:
   821 ;;		_pantallazo
   822 ;;		_main
   823 ;; This function uses a non-reentrant model
   824 ;;
   825                           
   826                           	psect	text2
   827   003502                     __ptext2:
   828                           	callstack 0
   829   003502                     _I2C_POS_CURSOR:
   830                           	callstack 123
   831                           
   832                           ;incstack = 0
   833                           ;I2C_POS_CURSOR@fila stored from wreg
   834   003502  6E09               	movwf	I2C_POS_CURSOR@fila^(0+1280),c
   835   003504                     
   836                           ;I2C_LCD.c: 71:  if(fila == 1){
   837   003504  0409               	decf	I2C_POS_CURSOR@fila^(0+1280),w,c
   838   003506  A4D8               	btfss	status,2,c
   839   003508  EF88  F01A         	goto	u741
   840   00350C  EF8A  F01A         	goto	u740
   841   003510                     u741:
   842   003510  EF90  F01A         	goto	l1805
   843   003514                     u740:
   844   003514                     
   845                           ;I2C_LCD.c: 72:   I2C_ENVIA_LCD_CMD(0x80+columna);
   846   003514  5007               	movf	I2C_POS_CURSOR@columna^(0+1280),w,c
   847   003516  0F80               	addlw	128
   848   003518  EC36  F01B         	call	_I2C_ENVIA_LCD_CMD
   849                           
   850                           ;I2C_LCD.c: 73:  }
   851   00351C  EFBD  F01A         	goto	l1817
   852   003520                     l1805:
   853   003520  0E02               	movlw	2
   854   003522  1809               	xorwf	I2C_POS_CURSOR@fila^(0+1280),w,c
   855   003524  A4D8               	btfss	status,2,c
   856   003526  EF97  F01A         	goto	u751
   857   00352A  EF99  F01A         	goto	u750
   858   00352E                     u751:
   859   00352E  EF9F  F01A         	goto	l1809
   860   003532                     u750:
   861   003532                     
   862                           ;I2C_LCD.c: 75:   I2C_ENVIA_LCD_CMD(0xC0+columna);
   863   003532  5007               	movf	I2C_POS_CURSOR@columna^(0+1280),w,c
   864   003534  0FC0               	addlw	192
   865   003536  EC36  F01B         	call	_I2C_ENVIA_LCD_CMD
   866                           
   867                           ;I2C_LCD.c: 76:  }
   868   00353A  EFBD  F01A         	goto	l1817
   869   00353E                     l1809:
   870   00353E  0E03               	movlw	3
   871   003540  1809               	xorwf	I2C_POS_CURSOR@fila^(0+1280),w,c
   872   003542  A4D8               	btfss	status,2,c
   873   003544  EFA6  F01A         	goto	u761
   874   003548  EFA8  F01A         	goto	u760
   875   00354C                     u761:
   876   00354C  EFAE  F01A         	goto	l1813
   877   003550                     u760:
   878   003550                     
   879                           ;I2C_LCD.c: 78:   I2C_ENVIA_LCD_CMD(0x94+columna);
   880   003550  5007               	movf	I2C_POS_CURSOR@columna^(0+1280),w,c
   881   003552  0F94               	addlw	148
   882   003554  EC36  F01B         	call	_I2C_ENVIA_LCD_CMD
   883                           
   884                           ;I2C_LCD.c: 79:  }
   885   003558  EFBD  F01A         	goto	l1817
   886   00355C                     l1813:
   887   00355C  0E04               	movlw	4
   888   00355E  1809               	xorwf	I2C_POS_CURSOR@fila^(0+1280),w,c
   889   003560  A4D8               	btfss	status,2,c
   890   003562  EFB5  F01A         	goto	u771
   891   003566  EFB7  F01A         	goto	u770
   892   00356A                     u771:
   893   00356A  EFBD  F01A         	goto	l66
   894   00356E                     u770:
   895   00356E                     
   896                           ;I2C_LCD.c: 81:   I2C_ENVIA_LCD_CMD(0xD4+columna);
   897   00356E  5007               	movf	I2C_POS_CURSOR@columna^(0+1280),w,c
   898   003570  0FD4               	addlw	212
   899   003572  EC36  F01B         	call	_I2C_ENVIA_LCD_CMD
   900   003576  EFBD  F01A         	goto	l1817
   901   00357A                     l66:
   902   00357A                     l1817:
   903                           
   904                           ;I2C_LCD.c: 83:  _delay((unsigned long)((1)*(64000000UL/4000.0)));
   905   00357A  0E15               	movlw	21
   906   00357C  6E08               	movwf	??_I2C_POS_CURSOR^(0+1280),c
   907   00357E  0EC6               	movlw	198
   908   003580                     u1407:
   909   003580  2EE8               	decfsz	wreg,f,c
   910   003582  D7FE               	bra	u1407
   911   003584  2E08               	decfsz	??_I2C_POS_CURSOR^(0+1280),f,c
   912   003586  D7FC               	bra	u1407
   913   003588  D000               	nop2	
   914   00358A  0012               	return		;funcret
   915   00358C                     __end_of_I2C_POS_CURSOR:
   916                           	callstack 0
   917                           
   918 ;; *************** function _I2C_ESCRIBE_MENSAJE2 *****************
   919 ;; Defined at:
   920 ;;		line 128 in file "I2C_LCD.c"
   921 ;; Parameters:    Size  Location     Type
   922 ;;  cadena          1    6[COMRAM] PTR const unsigned char 
   923 ;;		 -> STR_6(7), STR_5(7), STR_4(8), STR_3(12), 
   924 ;;		 -> STR_2(10), STR_1(16), 
   925 ;; Auto vars:     Size  Location     Type
   926 ;;  i               1    9[COMRAM] unsigned char 
   927 ;;  tam             1    8[COMRAM] unsigned char 
   928 ;; Return value:  Size  Location     Type
   929 ;;                  1    wreg      void 
   930 ;; Registers used:
   931 ;;		wreg, status,2, status,0, tblptrl, tblptrh, tblptru, cstack
   932 ;; Tracked objects:
   933 ;;		On entry : 0/0
   934 ;;		On exit  : 0/0
   935 ;;		Unchanged: 0/0
   936 ;; Data sizes:     COMRAM   BANK5   BANK6   BANK7   BANK8   BANK9  BANK10  BANK11  BANK12  BANK13  BANK14  BANK15  BANK1
      +6  BANK17  BANK18  BANK19  BANK20  BANK21  BANK22  BANK23  BANK24  BANK25  BANK26  BANK27  BANK28  BANK29  BANK30  BANK3
      +1  BANK32  BANK33  BANK34  BANK35  BANK36
   937 ;;      Params:         1       0       0       0       0       0       0       0       0       0       0       0       
      +0       0       0       0       0       0       0       0       0       0       0       0       0       0       0       
      +0       0       0       0       0       0
   938 ;;      Locals:         2       0       0       0       0       0       0       0       0       0       0       0       
      +0       0       0       0       0       0       0       0       0       0       0       0       0       0       0       
      +0       0       0       0       0       0
   939 ;;      Temps:          1       0       0       0       0       0       0       0       0       0       0       0       
      +0       0       0       0       0       0       0       0       0       0       0       0       0       0       0       
      +0       0       0       0       0       0
   940 ;;      Totals:         4       0       0       0       0       0       0       0       0       0       0       0       
      +0       0       0       0       0       0       0       0       0       0       0       0       0       0       0       
      +0       0       0       0       0       0
   941 ;;Total ram usage:        4 bytes
   942 ;; Hardware stack levels used: 1
   943 ;; Hardware stack levels required when called: 2
   944 ;; This function calls:
   945 ;;		_I2C_ENVIA_LCD_DATA
   946 ;;		_strlen
   947 ;; This function is called by:
   948 ;;		_pantallazo
   949 ;;		_main
   950 ;; This function uses a non-reentrant model
   951 ;;
   952                           
   953                           	psect	text3
   954   003782                     __ptext3:
   955                           	callstack 0
   956   003782                     _I2C_ESCRIBE_MENSAJE2:
   957                           	callstack 123
   958   003782                     
   959                           ;I2C_LCD.c: 129:     unsigned char tam;;I2C_LCD.c: 130:     tam = strlen(cadena);
   960   003782  C507  F501         	movff	I2C_ESCRIBE_MENSAJE2@cadena,strlen@s
   961   003786  EC04  F01C         	call	_strlen	;wreg free
   962   00378A  5001               	movf	?_strlen^(0+1280),w,c
   963   00378C  6E09               	movwf	I2C_ESCRIBE_MENSAJE2@tam^(0+1280),c
   964   00378E                     
   965                           ;I2C_LCD.c: 132:  for(i = 0; i<tam; i++) {
   966   00378E  0E00               	movlw	0
   967   003790  6E0A               	movwf	I2C_ESCRIBE_MENSAJE2@i^(0+1280),c
   968   003792  EFD9  F01B         	goto	l1829
   969   003796                     l1825:
   970                           
   971                           ;I2C_LCD.c: 133:   I2C_ENVIA_LCD_DATA(cadena[i]);
   972   003796  5007               	movf	I2C_ESCRIBE_MENSAJE2@cadena^(0+1280),w,c
   973   003798  240A               	addwf	I2C_ESCRIBE_MENSAJE2@i^(0+1280),w,c
   974   00379A  6E08               	movwf	??_I2C_ESCRIBE_MENSAJE2^(0+1280),c
   975   00379C  C508  F4F6         	movff	??_I2C_ESCRIBE_MENSAJE2,tblptrl
   976   0037A0                     	if	1	;There is more than 1 active tblptr byte
   977   0037A0  0E25               	movlw	high __smallconst
   978   0037A2  6EF7               	movwf	tblptrh,c
   979   0037A4                     	endif
   980   0037A4                     	if	0	;tblptru may be non-zero
   981   0037A4                     	endif
   982   0037A4                     	if	1	;Program memory is > 0xFFFF, there are 3 active tblptr bytes
   983   0037A4  0E00               	movlw	low (__smallconst shr (0+16))
   984   0037A6  6EF8               	movwf	tblptru,c
   985   0037A8                     	endif
   986   0037A8  0008               	tblrd		*
   987   0037AA  50F5               	movf	tablat,w,c
   988   0037AC  EC00  F01B         	call	_I2C_ENVIA_LCD_DATA
   989   0037B0                     
   990                           ;I2C_LCD.c: 134:  }
   991   0037B0  2A0A               	incf	I2C_ESCRIBE_MENSAJE2@i^(0+1280),f,c
   992   0037B2                     l1829:
   993   0037B2  5009               	movf	I2C_ESCRIBE_MENSAJE2@tam^(0+1280),w,c
   994   0037B4  5C0A               	subwf	I2C_ESCRIBE_MENSAJE2@i^(0+1280),w,c
   995   0037B6  A0D8               	btfss	status,0,c
   996   0037B8  EFE0  F01B         	goto	u781
   997   0037BC  EFE2  F01B         	goto	u780
   998   0037C0                     u781:
   999   0037C0  EFCB  F01B         	goto	l1825
  1000   0037C4                     u780:
  1001   0037C4  0012               	return		;funcret
  1002   0037C6                     __end_of_I2C_ESCRIBE_MENSAJE2:
  1003                           	callstack 0
  1004                           
  1005 ;; *************** function _strlen *****************
  1006 ;; Defined at:
  1007 ;;		line 5 in file "C:\Program Files\Microchip\xc8\v2.46\pic\sources\c99\common\strlen.c"
  1008 ;; Parameters:    Size  Location     Type
  1009 ;;  s               1    0[COMRAM] PTR const unsigned char 
  1010 ;;		 -> STR_6(7), STR_5(7), STR_4(8), STR_3(12), 
  1011 ;;		 -> STR_2(10), STR_1(16), 
  1012 ;; Auto vars:     Size  Location     Type
  1013 ;;  a               1    2[COMRAM] PTR const unsigned char 
  1014 ;;		 -> STR_6(7), STR_5(7), STR_4(8), STR_3(12), 
  1015 ;;		 -> STR_2(10), STR_1(16), 
  1016 ;; Return value:  Size  Location     Type
  1017 ;;                  2    0[COMRAM] unsigned int 
  1018 ;; Registers used:
  1019 ;;		wreg, status,2, status,0, tblptrl, tblptrh, tblptru
  1020 ;; Tracked objects:
  1021 ;;		On entry : 0/0
  1022 ;;		On exit  : 0/0
  1023 ;;		Unchanged: 0/0
  1024 ;; Data sizes:     COMRAM   BANK5   BANK6   BANK7   BANK8   BANK9  BANK10  BANK11  BANK12  BANK13  BANK14  BANK15  BANK1
      +6  BANK17  BANK18  BANK19  BANK20  BANK21  BANK22  BANK23  BANK24  BANK25  BANK26  BANK27  BANK28  BANK29  BANK30  BANK3
      +1  BANK32  BANK33  BANK34  BANK35  BANK36
  1025 ;;      Params:         2       0       0       0       0       0       0       0       0       0       0       0       
      +0       0       0       0       0       0       0       0       0       0       0       0       0       0       0       
      +0       0       0       0       0       0
  1026 ;;      Locals:         1       0       0       0       0       0       0       0       0       0       0       0       
      +0       0       0       0       0       0       0       0       0       0       0       0       0       0       0       
      +0       0       0       0       0       0
  1027 ;;      Temps:          0       0       0       0       0       0       0       0       0       0       0       0       
      +0       0       0       0       0       0       0       0       0       0       0       0       0       0       0       
      +0       0       0       0       0       0
  1028 ;;      Totals:         3       0       0       0       0       0       0       0       0       0       0       0       
      +0       0       0       0       0       0       0       0       0       0       0       0       0       0       0       
      +0       0       0       0       0       0
  1029 ;;Total ram usage:        3 bytes
  1030 ;; Hardware stack levels used: 1
  1031 ;; This function calls:
  1032 ;;		Nothing
  1033 ;; This function is called by:
  1034 ;;		_I2C_ESCRIBE_MENSAJE2
  1035 ;; This function uses a non-reentrant model
  1036 ;;
  1037                           
  1038                           	psect	text4
  1039   003808                     __ptext4:
  1040                           	callstack 0
  1041   003808                     _strlen:
  1042                           	callstack 124
  1043   003808  C501  F503         	movff	strlen@s,strlen@a
  1044   00380C  EF09  F01C         	goto	l1793
  1045   003810                     l1791:
  1046   003810  2A01               	incf	strlen@s^(0+1280),f,c
  1047   003812                     l1793:
  1048   003812  C501  F4F6         	movff	strlen@s,tblptrl
  1049   003816                     	if	1	;There is more than 1 active tblptr byte
  1050   003816  0E25               	movlw	high __smallconst
  1051   003818  6EF7               	movwf	tblptrh,c
  1052   00381A                     	endif
  1053   00381A                     	if	0	;tblptru may be non-zero
  1054   00381A                     	endif
  1055   00381A                     	if	1	;Program memory is > 0xFFFF, there are 3 active tblptr bytes
  1056   00381A  0E00               	movlw	low (__smallconst shr (0+16))
  1057   00381C  6EF8               	movwf	tblptru,c
  1058   00381E                     	endif
  1059   00381E  0008               	tblrd		*
  1060   003820  50F5               	movf	tablat,w,c
  1061   003822  0900               	iorlw	0
  1062   003824  A4D8               	btfss	status,2,c
  1063   003826  EF17  F01C         	goto	u731
  1064   00382A  EF19  F01C         	goto	u730
  1065   00382E                     u731:
  1066   00382E  EF08  F01C         	goto	l1791
  1067   003832                     u730:
  1068   003832  5003               	movf	strlen@a^(0+1280),w,c
  1069   003834  5C01               	subwf	strlen@s^(0+1280),w,c
  1070   003836  6E01               	movwf	?_strlen^(0+1280),c
  1071   003838  6A02               	clrf	(?_strlen+1)^(0+1280),c
  1072   00383A  BE01               	btfsc	?_strlen^(0+1280),7,c
  1073   00383C  0602               	decf	(?_strlen+1)^(0+1280),f,c
  1074   00383E  0012               	return		;funcret
  1075   003840                     __end_of_strlen:
  1076                           	callstack 0
  1077                           
  1078 ;; *************** function _leer_ADC *****************
  1079 ;; Defined at:
  1080 ;;		line 52 in file "maincode01.c"
  1081 ;; Parameters:    Size  Location     Type
  1082 ;;  canal           1    wreg     unsigned char 
  1083 ;; Auto vars:     Size  Location     Type
  1084 ;;  canal           1    4[COMRAM] unsigned char 
  1085 ;; Return value:  Size  Location     Type
  1086 ;;                  2    0[COMRAM] unsigned int 
  1087 ;; Registers used:
  1088 ;;		wreg, status,2, status,0
  1089 ;; Tracked objects:
  1090 ;;		On entry : 0/0
  1091 ;;		On exit  : 0/0
  1092 ;;		Unchanged: 0/0
  1093 ;; Data sizes:     COMRAM   BANK5   BANK6   BANK7   BANK8   BANK9  BANK10  BANK11  BANK12  BANK13  BANK14  BANK15  BANK1
      +6  BANK17  BANK18  BANK19  BANK20  BANK21  BANK22  BANK23  BANK24  BANK25  BANK26  BANK27  BANK28  BANK29  BANK30  BANK3
      +1  BANK32  BANK33  BANK34  BANK35  BANK36
  1094 ;;      Params:         2       0       0       0       0       0       0       0       0       0       0       0       
      +0       0       0       0       0       0       0       0       0       0       0       0       0       0       0       
      +0       0       0       0       0       0
  1095 ;;      Locals:         1       0       0       0       0       0       0       0       0       0       0       0       
      +0       0       0       0       0       0       0       0       0       0       0       0       0       0       0       
      +0       0       0       0       0       0
  1096 ;;      Temps:          2       0       0       0       0       0       0       0       0       0       0       0       
      +0       0       0       0       0       0       0       0       0       0       0       0       0       0       0       
      +0       0       0       0       0       0
  1097 ;;      Totals:         5       0       0       0       0       0       0       0       0       0       0       0       
      +0       0       0       0       0       0       0       0       0       0       0       0       0       0       0       
      +0       0       0       0       0       0
  1098 ;;Total ram usage:        5 bytes
  1099 ;; Hardware stack levels used: 1
  1100 ;; This function calls:
  1101 ;;		Nothing
  1102 ;; This function is called by:
  1103 ;;		_main
  1104 ;; This function uses a non-reentrant model
  1105 ;;
  1106                           
  1107                           	psect	text5
  1108   003870                     __ptext5:
  1109                           	callstack 0
  1110   003870                     _leer_ADC:
  1111                           	callstack 126
  1112                           
  1113                           ;incstack = 0
  1114                           ;leer_ADC@canal stored from wreg
  1115   003870  6E05               	movwf	leer_ADC@canal^(0+1280),c
  1116   003872                     
  1117                           ;maincode01.c: 53:     ADPCH = canal;
  1118   003872  C505  F3EC         	movff	leer_ADC@canal,1004	;volatile
  1119   003876                     
  1120                           ;maincode01.c: 54:     ADCON0bits.GO = 1;
  1121   003876  0103               	movlb	3	; () banked
  1122   003878  81F3               	bsf	243,0,b	;volatile
  1123   00387A                     l248:
  1124                           
  1125                           ; BSR set to: 3
  1126   00387A  B1F3               	btfsc	243,0,b	;volatile
  1127   00387C  EF42  F01C         	goto	u871
  1128   003880  EF44  F01C         	goto	u870
  1129   003884                     u871:
  1130   003884  EF3D  F01C         	goto	l248
  1131   003888                     u870:
  1132   003888                     
  1133                           ; BSR set to: 3
  1134                           ;maincode01.c: 56:     return((ADRESH<<8)+ADRESL);
  1135   003888  51EB               	movf	235,w,b	;volatile
  1136   00388A  6E04               	movwf	(??_leer_ADC+1)^(0+1280),c
  1137   00388C  6A03               	clrf	??_leer_ADC^(0+1280),c
  1138   00388E  51EA               	movf	234,w,b	;volatile
  1139   003890  2403               	addwf	??_leer_ADC^(0+1280),w,c
  1140   003892  6E01               	movwf	?_leer_ADC^(0+1280),c
  1141   003894  0E00               	movlw	0
  1142   003896  2004               	addwfc	(??_leer_ADC+1)^(0+1280),w,c
  1143   003898  6E02               	movwf	(?_leer_ADC+1)^(0+1280),c
  1144   00389A                     
  1145                           ; BSR set to: 3
  1146   00389A  0012               	return		;funcret
  1147   00389C                     __end_of_leer_ADC:
  1148                           	callstack 0
  1149                           
  1150 ;; *************** function _configuro *****************
  1151 ;; Defined at:
  1152 ;;		line 18 in file "maincode01.c"
  1153 ;; Parameters:    Size  Location     Type
  1154 ;;		None
  1155 ;; Auto vars:     Size  Location     Type
  1156 ;;		None
  1157 ;; Return value:  Size  Location     Type
  1158 ;;                  1    wreg      void 
  1159 ;; Registers used:
  1160 ;;		wreg, status,2, status,0, cstack
  1161 ;; Tracked objects:
  1162 ;;		On entry : 0/0
  1163 ;;		On exit  : 0/0
  1164 ;;		Unchanged: 0/0
  1165 ;; Data sizes:     COMRAM   BANK5   BANK6   BANK7   BANK8   BANK9  BANK10  BANK11  BANK12  BANK13  BANK14  BANK15  BANK1
      +6  BANK17  BANK18  BANK19  BANK20  BANK21  BANK22  BANK23  BANK24  BANK25  BANK26  BANK27  BANK28  BANK29  BANK30  BANK3
      +1  BANK32  BANK33  BANK34  BANK35  BANK36
  1166 ;;      Params:         0       0       0       0       0       0       0       0       0       0       0       0       
      +0       0       0       0       0       0       0       0       0       0       0       0       0       0       0       
      +0       0       0       0       0       0
  1167 ;;      Locals:         0       0       0       0       0       0       0       0       0       0       0       0       
      +0       0       0       0       0       0       0       0       0       0       0       0       0       0       0       
      +0       0       0       0       0       0
  1168 ;;      Temps:          0       0       0       0       0       0       0       0       0       0       0       0       
      +0       0       0       0       0       0       0       0       0       0       0       0       0       0       0       
      +0       0       0       0       0       0
  1169 ;;      Totals:         0       0       0       0       0       0       0       0       0       0       0       0       
      +0       0       0       0       0       0       0       0       0       0       0       0       0       0       0       
      +0       0       0       0       0       0
  1170 ;;Total ram usage:        0 bytes
  1171 ;; Hardware stack levels used: 1
  1172 ;; Hardware stack levels required when called: 4
  1173 ;; This function calls:
  1174 ;;		_I2C_LCD_INIT
  1175 ;; This function is called by:
  1176 ;;		_main
  1177 ;; This function uses a non-reentrant model
  1178 ;;
  1179                           
  1180                           	psect	text6
  1181   00389C                     __ptext6:
  1182                           	callstack 0
  1183   00389C                     _configuro:
  1184                           	callstack 122
  1185   00389C                     
  1186                           ;maincode01.c: 20:     OSCCON1 = 0x60;
  1187   00389C  0E60               	movlw	96
  1188   00389E  0100               	movlb	0	; () banked
  1189   0038A0  6FAD               	movwf	173,b	;volatile
  1190                           
  1191                           ;maincode01.c: 21:     OSCFRQ = 0x08;
  1192   0038A2  0E08               	movlw	8
  1193   0038A4  6FB1               	movwf	177,b	;volatile
  1194                           
  1195                           ;maincode01.c: 22:     OSCEN = 0x40;
  1196   0038A6  0E40               	movlw	64
  1197   0038A8  6FB3               	movwf	179,b	;volatile
  1198   0038AA                     
  1199                           ; BSR set to: 0
  1200                           ;maincode01.c: 24:     TRISBbits.TRISB0 = 0;
  1201   0038AA  90C7               	bcf	199,0,c	;volatile
  1202   0038AC                     
  1203                           ; BSR set to: 0
  1204                           ;maincode01.c: 25:     ANSELBbits.ANSELB0 = 0;
  1205   0038AC  0104               	movlb	4	; () banked
  1206   0038AE  9108               	bcf	8,0,b	;volatile
  1207   0038B0                     
  1208                           ; BSR set to: 4
  1209                           ;maincode01.c: 26:     TRISBbits.TRISB1 = 1;
  1210   0038B0  82C7               	bsf	199,1,c	;volatile
  1211   0038B2                     
  1212                           ; BSR set to: 4
  1213                           ;maincode01.c: 27:     ANSELBbits.ANSELB1 = 0;
  1214   0038B2  9308               	bcf	8,1,b	;volatile
  1215   0038B4                     
  1216                           ; BSR set to: 4
  1217                           ;maincode01.c: 29:     TRISAbits.TRISA1 = 1;
  1218   0038B4  82C6               	bsf	198,1,c	;volatile
  1219   0038B6                     
  1220                           ; BSR set to: 4
  1221                           ;maincode01.c: 30:     ANSELAbits.ANSELA1 = 1;
  1222   0038B6  8300               	bsf	0,1,b	;volatile
  1223                           
  1224                           ;maincode01.c: 31:     ADCON0 = 0x94;
  1225   0038B8  0E94               	movlw	148
  1226   0038BA  0103               	movlb	3	; () banked
  1227   0038BC  6FF3               	movwf	243,b	;volatile
  1228   0038BE                     
  1229                           ; BSR set to: 3
  1230                           ;maincode01.c: 33:     I2C_LCD_INIT();
  1231   0038BE  EC89  F016         	call	_I2C_LCD_INIT	;wreg free
  1232   0038C2  0012               	return		;funcret
  1233   0038C4                     __end_of_configuro:
  1234                           	callstack 0
  1235                           
  1236 ;; *************** function _I2C_LCD_INIT *****************
  1237 ;; Defined at:
  1238 ;;		line 187 in file "I2C_LCD.c"
  1239 ;; Parameters:    Size  Location     Type
  1240 ;;		None
  1241 ;; Auto vars:     Size  Location     Type
  1242 ;;		None
  1243 ;; Return value:  Size  Location     Type
  1244 ;;                  1    wreg      void 
  1245 ;; Registers used:
  1246 ;;		wreg, status,2, status,0, cstack
  1247 ;; Tracked objects:
  1248 ;;		On entry : 0/0
  1249 ;;		On exit  : 0/0
  1250 ;;		Unchanged: 0/0
  1251 ;; Data sizes:     COMRAM   BANK5   BANK6   BANK7   BANK8   BANK9  BANK10  BANK11  BANK12  BANK13  BANK14  BANK15  BANK1
      +6  BANK17  BANK18  BANK19  BANK20  BANK21  BANK22  BANK23  BANK24  BANK25  BANK26  BANK27  BANK28  BANK29  BANK30  BANK3
      +1  BANK32  BANK33  BANK34  BANK35  BANK36
  1252 ;;      Params:         0       0       0       0       0       0       0       0       0       0       0       0       
      +0       0       0       0       0       0       0       0       0       0       0       0       0       0       0       
      +0       0       0       0       0       0
  1253 ;;      Locals:         0       0       0       0       0       0       0       0       0       0       0       0       
      +0       0       0       0       0       0       0       0       0       0       0       0       0       0       0       
      +0       0       0       0       0       0
  1254 ;;      Temps:          2       0       0       0       0       0       0       0       0       0       0       0       
      +0       0       0       0       0       0       0       0       0       0       0       0       0       0       0       
      +0       0       0       0       0       0
  1255 ;;      Totals:         2       0       0       0       0       0       0       0       0       0       0       0       
      +0       0       0       0       0       0       0       0       0       0       0       0       0       0       0       
      +0       0       0       0       0       0
  1256 ;;Total ram usage:        2 bytes
  1257 ;; Hardware stack levels used: 1
  1258 ;; Hardware stack levels required when called: 3
  1259 ;; This function calls:
  1260 ;;		_I2C1_INIT
  1261 ;;		_I2C1_WRITESINGLEBYTE
  1262 ;;		_I2C_BORRAR_LCD
  1263 ;;		_I2C_CURSOR_HOME
  1264 ;;		_I2C_CURSOR_ONOFF
  1265 ;; This function is called by:
  1266 ;;		_configuro
  1267 ;; This function uses a non-reentrant model
  1268 ;;
  1269                           
  1270                           	psect	text7
  1271   002D12                     __ptext7:
  1272                           	callstack 0
  1273   002D12                     _I2C_LCD_INIT:
  1274                           	callstack 122
  1275   002D12                     
  1276                           ;I2C_LCD.c: 188:     I2C1_INIT();
  1277   002D12  EC9C  F01B         	call	_I2C1_INIT	;wreg free
  1278   002D16                     
  1279                           ;I2C_LCD.c: 189:     _delay((unsigned long)((15)*(64000000UL/4000.0)));
  1280   002D16  0E02               	movlw	2
  1281   002D18  6E09               	movwf	(??_I2C_LCD_INIT+1)^(0+1280),c
  1282   002D1A  0E38               	movlw	56
  1283   002D1C  6E08               	movwf	??_I2C_LCD_INIT^(0+1280),c
  1284   002D1E  0EAD               	movlw	173
  1285   002D20                     u1417:
  1286   002D20  2EE8               	decfsz	wreg,f,c
  1287   002D22  D7FE               	bra	u1417
  1288   002D24  2E08               	decfsz	??_I2C_LCD_INIT^(0+1280),f,c
  1289   002D26  D7FC               	bra	u1417
  1290   002D28  2E09               	decfsz	(??_I2C_LCD_INIT+1)^(0+1280),f,c
  1291   002D2A  D7FA               	bra	u1417
  1292   002D2C  0000               	nop	
  1293   002D2E                     
  1294                           ;I2C_LCD.c: 191:     I2C1_WRITESINGLEBYTE(I2C_LCD_ADDR,0x00);
  1295   002D2E  0E00               	movlw	0
  1296   002D30  6E01               	movwf	I2C1_WRITESINGLEBYTE@dato^(0+1280),c
  1297   002D32  5034               	movf	_I2C_LCD_ADDR^(0+1280),w,c
  1298   002D34  ECE3  F01B         	call	_I2C1_WRITESINGLEBYTE
  1299   002D38                     
  1300                           ;I2C_LCD.c: 192:     _delay((unsigned long)((1000)*(64000000UL/4000.0)));
  1301   002D38  0E52               	movlw	82
  1302   002D3A  6E09               	movwf	(??_I2C_LCD_INIT+1)^(0+1280),c
  1303   002D3C  0E2B               	movlw	43
  1304   002D3E  6E08               	movwf	??_I2C_LCD_INIT^(0+1280),c
  1305   002D40  0E00               	movlw	0
  1306   002D42                     u1427:
  1307   002D42  2EE8               	decfsz	wreg,f,c
  1308   002D44  D7FE               	bra	u1427
  1309   002D46  2E08               	decfsz	??_I2C_LCD_INIT^(0+1280),f,c
  1310   002D48  D7FC               	bra	u1427
  1311   002D4A  2E09               	decfsz	(??_I2C_LCD_INIT+1)^(0+1280),f,c
  1312   002D4C  D7FA               	bra	u1427
  1313   002D4E  D000               	nop2	
  1314   002D50                     
  1315                           ;I2C_LCD.c: 195:     I2C1_WRITESINGLEBYTE(I2C_LCD_ADDR,0x30);
  1316   002D50  0E30               	movlw	48
  1317   002D52  6E01               	movwf	I2C1_WRITESINGLEBYTE@dato^(0+1280),c
  1318   002D54  5034               	movf	_I2C_LCD_ADDR^(0+1280),w,c
  1319   002D56  ECE3  F01B         	call	_I2C1_WRITESINGLEBYTE
  1320   002D5A                     
  1321                           ;I2C_LCD.c: 196:     I2C1_WRITESINGLEBYTE(I2C_LCD_ADDR,0x30);
  1322   002D5A  0E30               	movlw	48
  1323   002D5C  6E01               	movwf	I2C1_WRITESINGLEBYTE@dato^(0+1280),c
  1324   002D5E  5034               	movf	_I2C_LCD_ADDR^(0+1280),w,c
  1325   002D60  ECE3  F01B         	call	_I2C1_WRITESINGLEBYTE
  1326   002D64                     
  1327                           ;I2C_LCD.c: 197:     _delay((unsigned long)((20)*(64000000UL/4000000.0)));
  1328   002D64  0E6A               	movlw	106
  1329   002D66                     u1437:
  1330   002D66  2EE8               	decfsz	wreg,f,c
  1331   002D68  D7FE               	bra	u1437
  1332   002D6A  D000               	nop2	
  1333   002D6C                     
  1334                           ;I2C_LCD.c: 198:     I2C1_WRITESINGLEBYTE(I2C_LCD_ADDR,0x34);
  1335   002D6C  0E34               	movlw	52
  1336   002D6E  6E01               	movwf	I2C1_WRITESINGLEBYTE@dato^(0+1280),c
  1337   002D70  5034               	movf	_I2C_LCD_ADDR^(0+1280),w,c
  1338   002D72  ECE3  F01B         	call	_I2C1_WRITESINGLEBYTE
  1339   002D76                     
  1340                           ;I2C_LCD.c: 199:     _delay((unsigned long)((20)*(64000000UL/4000000.0)));
  1341   002D76  0E6A               	movlw	106
  1342   002D78                     u1447:
  1343   002D78  2EE8               	decfsz	wreg,f,c
  1344   002D7A  D7FE               	bra	u1447
  1345   002D7C  D000               	nop2	
  1346   002D7E                     
  1347                           ;I2C_LCD.c: 200:     I2C1_WRITESINGLEBYTE(I2C_LCD_ADDR,0x30);
  1348   002D7E  0E30               	movlw	48
  1349   002D80  6E01               	movwf	I2C1_WRITESINGLEBYTE@dato^(0+1280),c
  1350   002D82  5034               	movf	_I2C_LCD_ADDR^(0+1280),w,c
  1351   002D84  ECE3  F01B         	call	_I2C1_WRITESINGLEBYTE
  1352   002D88                     
  1353                           ;I2C_LCD.c: 201:     _delay((unsigned long)((5)*(64000000UL/4000.0)));
  1354   002D88  0E68               	movlw	104
  1355   002D8A  6E08               	movwf	??_I2C_LCD_INIT^(0+1280),c
  1356   002D8C  0EE4               	movlw	228
  1357   002D8E                     u1457:
  1358   002D8E  2EE8               	decfsz	wreg,f,c
  1359   002D90  D7FE               	bra	u1457
  1360   002D92  2E08               	decfsz	??_I2C_LCD_INIT^(0+1280),f,c
  1361   002D94  D7FC               	bra	u1457
  1362   002D96  D000               	nop2	
  1363   002D98                     
  1364                           ;I2C_LCD.c: 203:     I2C1_WRITESINGLEBYTE(I2C_LCD_ADDR,0x30);
  1365   002D98  0E30               	movlw	48
  1366   002D9A  6E01               	movwf	I2C1_WRITESINGLEBYTE@dato^(0+1280),c
  1367   002D9C  5034               	movf	_I2C_LCD_ADDR^(0+1280),w,c
  1368   002D9E  ECE3  F01B         	call	_I2C1_WRITESINGLEBYTE
  1369   002DA2                     
  1370                           ;I2C_LCD.c: 204:     _delay((unsigned long)((20)*(64000000UL/4000000.0)));
  1371   002DA2  0E6A               	movlw	106
  1372   002DA4                     u1467:
  1373   002DA4  2EE8               	decfsz	wreg,f,c
  1374   002DA6  D7FE               	bra	u1467
  1375   002DA8  D000               	nop2	
  1376   002DAA                     
  1377                           ;I2C_LCD.c: 205:     I2C1_WRITESINGLEBYTE(I2C_LCD_ADDR,0x34);
  1378   002DAA  0E34               	movlw	52
  1379   002DAC  6E01               	movwf	I2C1_WRITESINGLEBYTE@dato^(0+1280),c
  1380   002DAE  5034               	movf	_I2C_LCD_ADDR^(0+1280),w,c
  1381   002DB0  ECE3  F01B         	call	_I2C1_WRITESINGLEBYTE
  1382   002DB4                     
  1383                           ;I2C_LCD.c: 206:     _delay((unsigned long)((20)*(64000000UL/4000000.0)));
  1384   002DB4  0E6A               	movlw	106
  1385   002DB6                     u1477:
  1386   002DB6  2EE8               	decfsz	wreg,f,c
  1387   002DB8  D7FE               	bra	u1477
  1388   002DBA  D000               	nop2	
  1389   002DBC                     
  1390                           ;I2C_LCD.c: 207:     I2C1_WRITESINGLEBYTE(I2C_LCD_ADDR,0x30);
  1391   002DBC  0E30               	movlw	48
  1392   002DBE  6E01               	movwf	I2C1_WRITESINGLEBYTE@dato^(0+1280),c
  1393   002DC0  5034               	movf	_I2C_LCD_ADDR^(0+1280),w,c
  1394   002DC2  ECE3  F01B         	call	_I2C1_WRITESINGLEBYTE
  1395   002DC6                     
  1396                           ;I2C_LCD.c: 209:     _delay((unsigned long)((5)*(64000000UL/4000.0)));
  1397   002DC6  0E68               	movlw	104
  1398   002DC8  6E08               	movwf	??_I2C_LCD_INIT^(0+1280),c
  1399   002DCA  0EE4               	movlw	228
  1400   002DCC                     u1487:
  1401   002DCC  2EE8               	decfsz	wreg,f,c
  1402   002DCE  D7FE               	bra	u1487
  1403   002DD0  2E08               	decfsz	??_I2C_LCD_INIT^(0+1280),f,c
  1404   002DD2  D7FC               	bra	u1487
  1405   002DD4  D000               	nop2	
  1406   002DD6                     
  1407                           ;I2C_LCD.c: 211:     I2C1_WRITESINGLEBYTE(I2C_LCD_ADDR,0x30);
  1408   002DD6  0E30               	movlw	48
  1409   002DD8  6E01               	movwf	I2C1_WRITESINGLEBYTE@dato^(0+1280),c
  1410   002DDA  5034               	movf	_I2C_LCD_ADDR^(0+1280),w,c
  1411   002DDC  ECE3  F01B         	call	_I2C1_WRITESINGLEBYTE
  1412   002DE0                     
  1413                           ;I2C_LCD.c: 212:     _delay((unsigned long)((20)*(64000000UL/4000000.0)));
  1414   002DE0  0E6A               	movlw	106
  1415   002DE2                     u1497:
  1416   002DE2  2EE8               	decfsz	wreg,f,c
  1417   002DE4  D7FE               	bra	u1497
  1418   002DE6  D000               	nop2	
  1419   002DE8                     
  1420                           ;I2C_LCD.c: 213:     I2C1_WRITESINGLEBYTE(I2C_LCD_ADDR,0x34);
  1421   002DE8  0E34               	movlw	52
  1422   002DEA  6E01               	movwf	I2C1_WRITESINGLEBYTE@dato^(0+1280),c
  1423   002DEC  5034               	movf	_I2C_LCD_ADDR^(0+1280),w,c
  1424   002DEE  ECE3  F01B         	call	_I2C1_WRITESINGLEBYTE
  1425   002DF2                     
  1426                           ;I2C_LCD.c: 214:     _delay((unsigned long)((20)*(64000000UL/4000000.0)));
  1427   002DF2  0E6A               	movlw	106
  1428   002DF4                     u1507:
  1429   002DF4  2EE8               	decfsz	wreg,f,c
  1430   002DF6  D7FE               	bra	u1507
  1431   002DF8  D000               	nop2	
  1432   002DFA                     
  1433                           ;I2C_LCD.c: 215:     I2C1_WRITESINGLEBYTE(I2C_LCD_ADDR,0x30);
  1434   002DFA  0E30               	movlw	48
  1435   002DFC  6E01               	movwf	I2C1_WRITESINGLEBYTE@dato^(0+1280),c
  1436   002DFE  5034               	movf	_I2C_LCD_ADDR^(0+1280),w,c
  1437   002E00  ECE3  F01B         	call	_I2C1_WRITESINGLEBYTE
  1438   002E04                     
  1439                           ;I2C_LCD.c: 217:     _delay((unsigned long)((250)*(64000000UL/4000000.0)));
  1440   002E04  0E06               	movlw	6
  1441   002E06  6E08               	movwf	??_I2C_LCD_INIT^(0+1280),c
  1442   002E08  0E30               	movlw	48
  1443   002E0A                     u1517:
  1444   002E0A  2EE8               	decfsz	wreg,f,c
  1445   002E0C  D7FE               	bra	u1517
  1446   002E0E  2E08               	decfsz	??_I2C_LCD_INIT^(0+1280),f,c
  1447   002E10  D7FC               	bra	u1517
  1448   002E12  D000               	nop2	
  1449   002E14                     
  1450                           ;I2C_LCD.c: 219:     I2C1_WRITESINGLEBYTE(I2C_LCD_ADDR,0x20);
  1451   002E14  0E20               	movlw	32
  1452   002E16  6E01               	movwf	I2C1_WRITESINGLEBYTE@dato^(0+1280),c
  1453   002E18  5034               	movf	_I2C_LCD_ADDR^(0+1280),w,c
  1454   002E1A  ECE3  F01B         	call	_I2C1_WRITESINGLEBYTE
  1455   002E1E                     
  1456                           ;I2C_LCD.c: 220:     _delay((unsigned long)((20)*(64000000UL/4000000.0)));
  1457   002E1E  0E6A               	movlw	106
  1458   002E20                     u1527:
  1459   002E20  2EE8               	decfsz	wreg,f,c
  1460   002E22  D7FE               	bra	u1527
  1461   002E24  D000               	nop2	
  1462   002E26                     
  1463                           ;I2C_LCD.c: 221:     I2C1_WRITESINGLEBYTE(I2C_LCD_ADDR,0x24);
  1464   002E26  0E24               	movlw	36
  1465   002E28  6E01               	movwf	I2C1_WRITESINGLEBYTE@dato^(0+1280),c
  1466   002E2A  5034               	movf	_I2C_LCD_ADDR^(0+1280),w,c
  1467   002E2C  ECE3  F01B         	call	_I2C1_WRITESINGLEBYTE
  1468   002E30                     
  1469                           ;I2C_LCD.c: 222:     _delay((unsigned long)((20)*(64000000UL/4000000.0)));
  1470   002E30  0E6A               	movlw	106
  1471   002E32                     u1537:
  1472   002E32  2EE8               	decfsz	wreg,f,c
  1473   002E34  D7FE               	bra	u1537
  1474   002E36  D000               	nop2	
  1475   002E38                     
  1476                           ;I2C_LCD.c: 223:     I2C1_WRITESINGLEBYTE(I2C_LCD_ADDR,0x20);
  1477   002E38  0E20               	movlw	32
  1478   002E3A  6E01               	movwf	I2C1_WRITESINGLEBYTE@dato^(0+1280),c
  1479   002E3C  5034               	movf	_I2C_LCD_ADDR^(0+1280),w,c
  1480   002E3E  ECE3  F01B         	call	_I2C1_WRITESINGLEBYTE
  1481   002E42                     
  1482                           ;I2C_LCD.c: 225:     _delay((unsigned long)((75)*(64000000UL/4000000.0)));
  1483   002E42  0EF0               	movlw	240
  1484   002E44                     u1547:
  1485   002E44  D000               	nop2	
  1486   002E46  2EE8               	decfsz	wreg,f,c
  1487   002E48  D7FD               	bra	u1547
  1488   002E4A                     
  1489                           ;I2C_LCD.c: 227:     I2C1_WRITESINGLEBYTE(I2C_LCD_ADDR,0x20);
  1490   002E4A  0E20               	movlw	32
  1491   002E4C  6E01               	movwf	I2C1_WRITESINGLEBYTE@dato^(0+1280),c
  1492   002E4E  5034               	movf	_I2C_LCD_ADDR^(0+1280),w,c
  1493   002E50  ECE3  F01B         	call	_I2C1_WRITESINGLEBYTE
  1494   002E54                     
  1495                           ;I2C_LCD.c: 228:     _delay((unsigned long)((20)*(64000000UL/4000000.0)));
  1496   002E54  0E6A               	movlw	106
  1497   002E56                     u1557:
  1498   002E56  2EE8               	decfsz	wreg,f,c
  1499   002E58  D7FE               	bra	u1557
  1500   002E5A  D000               	nop2	
  1501   002E5C                     
  1502                           ;I2C_LCD.c: 229:     I2C1_WRITESINGLEBYTE(I2C_LCD_ADDR,0x24);
  1503   002E5C  0E24               	movlw	36
  1504   002E5E  6E01               	movwf	I2C1_WRITESINGLEBYTE@dato^(0+1280),c
  1505   002E60  5034               	movf	_I2C_LCD_ADDR^(0+1280),w,c
  1506   002E62  ECE3  F01B         	call	_I2C1_WRITESINGLEBYTE
  1507   002E66                     
  1508                           ;I2C_LCD.c: 230:     _delay((unsigned long)((20)*(64000000UL/4000000.0)));
  1509   002E66  0E6A               	movlw	106
  1510   002E68                     u1567:
  1511   002E68  2EE8               	decfsz	wreg,f,c
  1512   002E6A  D7FE               	bra	u1567
  1513   002E6C  D000               	nop2	
  1514   002E6E                     
  1515                           ;I2C_LCD.c: 231:     I2C1_WRITESINGLEBYTE(I2C_LCD_ADDR,0x20);
  1516   002E6E  0E20               	movlw	32
  1517   002E70  6E01               	movwf	I2C1_WRITESINGLEBYTE@dato^(0+1280),c
  1518   002E72  5034               	movf	_I2C_LCD_ADDR^(0+1280),w,c
  1519   002E74  ECE3  F01B         	call	_I2C1_WRITESINGLEBYTE
  1520   002E78                     
  1521                           ;I2C_LCD.c: 233:     _delay((unsigned long)((75)*(64000000UL/4000000.0)));
  1522   002E78  0EF0               	movlw	240
  1523   002E7A                     u1577:
  1524   002E7A  D000               	nop2	
  1525   002E7C  2EE8               	decfsz	wreg,f,c
  1526   002E7E  D7FD               	bra	u1577
  1527   002E80                     
  1528                           ;I2C_LCD.c: 235:     I2C1_WRITESINGLEBYTE(I2C_LCD_ADDR,0x80);
  1529   002E80  0E80               	movlw	128
  1530   002E82  6E01               	movwf	I2C1_WRITESINGLEBYTE@dato^(0+1280),c
  1531   002E84  5034               	movf	_I2C_LCD_ADDR^(0+1280),w,c
  1532   002E86  ECE3  F01B         	call	_I2C1_WRITESINGLEBYTE
  1533   002E8A                     
  1534                           ;I2C_LCD.c: 236:     _delay((unsigned long)((20)*(64000000UL/4000000.0)));
  1535   002E8A  0E6A               	movlw	106
  1536   002E8C                     u1587:
  1537   002E8C  2EE8               	decfsz	wreg,f,c
  1538   002E8E  D7FE               	bra	u1587
  1539   002E90  D000               	nop2	
  1540   002E92                     
  1541                           ;I2C_LCD.c: 237:     I2C1_WRITESINGLEBYTE(I2C_LCD_ADDR,0x84);
  1542   002E92  0E84               	movlw	132
  1543   002E94  6E01               	movwf	I2C1_WRITESINGLEBYTE@dato^(0+1280),c
  1544   002E96  5034               	movf	_I2C_LCD_ADDR^(0+1280),w,c
  1545   002E98  ECE3  F01B         	call	_I2C1_WRITESINGLEBYTE
  1546   002E9C                     
  1547                           ;I2C_LCD.c: 238:     _delay((unsigned long)((20)*(64000000UL/4000000.0)));
  1548   002E9C  0E6A               	movlw	106
  1549   002E9E                     u1597:
  1550   002E9E  2EE8               	decfsz	wreg,f,c
  1551   002EA0  D7FE               	bra	u1597
  1552   002EA2  D000               	nop2	
  1553   002EA4                     
  1554                           ;I2C_LCD.c: 239:     I2C1_WRITESINGLEBYTE(I2C_LCD_ADDR,0x80);
  1555   002EA4  0E80               	movlw	128
  1556   002EA6  6E01               	movwf	I2C1_WRITESINGLEBYTE@dato^(0+1280),c
  1557   002EA8  5034               	movf	_I2C_LCD_ADDR^(0+1280),w,c
  1558   002EAA  ECE3  F01B         	call	_I2C1_WRITESINGLEBYTE
  1559   002EAE                     
  1560                           ;I2C_LCD.c: 241:     _delay((unsigned long)((75)*(64000000UL/4000000.0)));
  1561   002EAE  0EF0               	movlw	240
  1562   002EB0                     u1607:
  1563   002EB0  D000               	nop2	
  1564   002EB2  2EE8               	decfsz	wreg,f,c
  1565   002EB4  D7FD               	bra	u1607
  1566   002EB6                     
  1567                           ;I2C_LCD.c: 243:     I2C1_WRITESINGLEBYTE(I2C_LCD_ADDR,0x00);
  1568   002EB6  0E00               	movlw	0
  1569   002EB8  6E01               	movwf	I2C1_WRITESINGLEBYTE@dato^(0+1280),c
  1570   002EBA  5034               	movf	_I2C_LCD_ADDR^(0+1280),w,c
  1571   002EBC  ECE3  F01B         	call	_I2C1_WRITESINGLEBYTE
  1572   002EC0                     
  1573                           ;I2C_LCD.c: 244:     _delay((unsigned long)((20)*(64000000UL/4000000.0)));
  1574   002EC0  0E6A               	movlw	106
  1575   002EC2                     u1617:
  1576   002EC2  2EE8               	decfsz	wreg,f,c
  1577   002EC4  D7FE               	bra	u1617
  1578   002EC6  D000               	nop2	
  1579   002EC8                     
  1580                           ;I2C_LCD.c: 245:     I2C1_WRITESINGLEBYTE(I2C_LCD_ADDR,0x04);
  1581   002EC8  0E04               	movlw	4
  1582   002ECA  6E01               	movwf	I2C1_WRITESINGLEBYTE@dato^(0+1280),c
  1583   002ECC  5034               	movf	_I2C_LCD_ADDR^(0+1280),w,c
  1584   002ECE  ECE3  F01B         	call	_I2C1_WRITESINGLEBYTE
  1585   002ED2                     
  1586                           ;I2C_LCD.c: 246:     _delay((unsigned long)((20)*(64000000UL/4000000.0)));
  1587   002ED2  0E6A               	movlw	106
  1588   002ED4                     u1627:
  1589   002ED4  2EE8               	decfsz	wreg,f,c
  1590   002ED6  D7FE               	bra	u1627
  1591   002ED8  D000               	nop2	
  1592   002EDA                     
  1593                           ;I2C_LCD.c: 247:     I2C1_WRITESINGLEBYTE(I2C_LCD_ADDR,0x00);
  1594   002EDA  0E00               	movlw	0
  1595   002EDC  6E01               	movwf	I2C1_WRITESINGLEBYTE@dato^(0+1280),c
  1596   002EDE  5034               	movf	_I2C_LCD_ADDR^(0+1280),w,c
  1597   002EE0  ECE3  F01B         	call	_I2C1_WRITESINGLEBYTE
  1598   002EE4                     
  1599                           ;I2C_LCD.c: 249:      _delay((unsigned long)((75)*(64000000UL/4000000.0)));
  1600   002EE4  0EF0               	movlw	240
  1601   002EE6                     u1637:
  1602   002EE6  D000               	nop2	
  1603   002EE8  2EE8               	decfsz	wreg,f,c
  1604   002EEA  D7FD               	bra	u1637
  1605   002EEC                     
  1606                           ;I2C_LCD.c: 251:     I2C1_WRITESINGLEBYTE(I2C_LCD_ADDR,0xC0);
  1607   002EEC  0EC0               	movlw	192
  1608   002EEE  6E01               	movwf	I2C1_WRITESINGLEBYTE@dato^(0+1280),c
  1609   002EF0  5034               	movf	_I2C_LCD_ADDR^(0+1280),w,c
  1610   002EF2  ECE3  F01B         	call	_I2C1_WRITESINGLEBYTE
  1611   002EF6                     
  1612                           ;I2C_LCD.c: 252:     _delay((unsigned long)((20)*(64000000UL/4000000.0)));
  1613   002EF6  0E6A               	movlw	106
  1614   002EF8                     u1647:
  1615   002EF8  2EE8               	decfsz	wreg,f,c
  1616   002EFA  D7FE               	bra	u1647
  1617   002EFC  D000               	nop2	
  1618   002EFE                     
  1619                           ;I2C_LCD.c: 253:     I2C1_WRITESINGLEBYTE(I2C_LCD_ADDR,0xC4);
  1620   002EFE  0EC4               	movlw	196
  1621   002F00  6E01               	movwf	I2C1_WRITESINGLEBYTE@dato^(0+1280),c
  1622   002F02  5034               	movf	_I2C_LCD_ADDR^(0+1280),w,c
  1623   002F04  ECE3  F01B         	call	_I2C1_WRITESINGLEBYTE
  1624   002F08                     
  1625                           ;I2C_LCD.c: 254:     _delay((unsigned long)((20)*(64000000UL/4000000.0)));
  1626   002F08  0E6A               	movlw	106
  1627   002F0A                     u1657:
  1628   002F0A  2EE8               	decfsz	wreg,f,c
  1629   002F0C  D7FE               	bra	u1657
  1630   002F0E  D000               	nop2	
  1631   002F10                     
  1632                           ;I2C_LCD.c: 255:     I2C1_WRITESINGLEBYTE(I2C_LCD_ADDR,0xC0);
  1633   002F10  0EC0               	movlw	192
  1634   002F12  6E01               	movwf	I2C1_WRITESINGLEBYTE@dato^(0+1280),c
  1635   002F14  5034               	movf	_I2C_LCD_ADDR^(0+1280),w,c
  1636   002F16  ECE3  F01B         	call	_I2C1_WRITESINGLEBYTE
  1637   002F1A                     
  1638                           ;I2C_LCD.c: 257:      _delay((unsigned long)((75)*(64000000UL/4000000.0)));
  1639   002F1A  0EF0               	movlw	240
  1640   002F1C                     u1667:
  1641   002F1C  D000               	nop2	
  1642   002F1E  2EE8               	decfsz	wreg,f,c
  1643   002F20  D7FD               	bra	u1667
  1644   002F22                     
  1645                           ;I2C_LCD.c: 259:     I2C1_WRITESINGLEBYTE(I2C_LCD_ADDR,0x00);
  1646   002F22  0E00               	movlw	0
  1647   002F24  6E01               	movwf	I2C1_WRITESINGLEBYTE@dato^(0+1280),c
  1648   002F26  5034               	movf	_I2C_LCD_ADDR^(0+1280),w,c
  1649   002F28  ECE3  F01B         	call	_I2C1_WRITESINGLEBYTE
  1650   002F2C                     
  1651                           ;I2C_LCD.c: 260:     _delay((unsigned long)((20)*(64000000UL/4000000.0)));
  1652   002F2C  0E6A               	movlw	106
  1653   002F2E                     u1677:
  1654   002F2E  2EE8               	decfsz	wreg,f,c
  1655   002F30  D7FE               	bra	u1677
  1656   002F32  D000               	nop2	
  1657   002F34                     
  1658                           ;I2C_LCD.c: 261:     I2C1_WRITESINGLEBYTE(I2C_LCD_ADDR,0x04);
  1659   002F34  0E04               	movlw	4
  1660   002F36  6E01               	movwf	I2C1_WRITESINGLEBYTE@dato^(0+1280),c
  1661   002F38  5034               	movf	_I2C_LCD_ADDR^(0+1280),w,c
  1662   002F3A  ECE3  F01B         	call	_I2C1_WRITESINGLEBYTE
  1663   002F3E                     
  1664                           ;I2C_LCD.c: 262:     _delay((unsigned long)((20)*(64000000UL/4000000.0)));
  1665   002F3E  0E6A               	movlw	106
  1666   002F40                     u1687:
  1667   002F40  2EE8               	decfsz	wreg,f,c
  1668   002F42  D7FE               	bra	u1687
  1669   002F44  D000               	nop2	
  1670   002F46                     
  1671                           ;I2C_LCD.c: 263:     I2C1_WRITESINGLEBYTE(I2C_LCD_ADDR,0x00);
  1672   002F46  0E00               	movlw	0
  1673   002F48  6E01               	movwf	I2C1_WRITESINGLEBYTE@dato^(0+1280),c
  1674   002F4A  5034               	movf	_I2C_LCD_ADDR^(0+1280),w,c
  1675   002F4C  ECE3  F01B         	call	_I2C1_WRITESINGLEBYTE
  1676   002F50                     
  1677                           ;I2C_LCD.c: 265:      _delay((unsigned long)((75)*(64000000UL/4000000.0)));
  1678   002F50  0EF0               	movlw	240
  1679   002F52                     u1697:
  1680   002F52  D000               	nop2	
  1681   002F54  2EE8               	decfsz	wreg,f,c
  1682   002F56  D7FD               	bra	u1697
  1683   002F58                     
  1684                           ;I2C_LCD.c: 267:     I2C1_WRITESINGLEBYTE(I2C_LCD_ADDR,0x10);
  1685   002F58  0E10               	movlw	16
  1686   002F5A  6E01               	movwf	I2C1_WRITESINGLEBYTE@dato^(0+1280),c
  1687   002F5C  5034               	movf	_I2C_LCD_ADDR^(0+1280),w,c
  1688   002F5E  ECE3  F01B         	call	_I2C1_WRITESINGLEBYTE
  1689   002F62                     
  1690                           ;I2C_LCD.c: 268:     _delay((unsigned long)((20)*(64000000UL/4000000.0)));
  1691   002F62  0E6A               	movlw	106
  1692   002F64                     u1707:
  1693   002F64  2EE8               	decfsz	wreg,f,c
  1694   002F66  D7FE               	bra	u1707
  1695   002F68  D000               	nop2	
  1696   002F6A                     
  1697                           ;I2C_LCD.c: 269:     I2C1_WRITESINGLEBYTE(I2C_LCD_ADDR,0x14);
  1698   002F6A  0E14               	movlw	20
  1699   002F6C  6E01               	movwf	I2C1_WRITESINGLEBYTE@dato^(0+1280),c
  1700   002F6E  5034               	movf	_I2C_LCD_ADDR^(0+1280),w,c
  1701   002F70  ECE3  F01B         	call	_I2C1_WRITESINGLEBYTE
  1702   002F74                     
  1703                           ;I2C_LCD.c: 270:     _delay((unsigned long)((20)*(64000000UL/4000000.0)));
  1704   002F74  0E6A               	movlw	106
  1705   002F76                     u1717:
  1706   002F76  2EE8               	decfsz	wreg,f,c
  1707   002F78  D7FE               	bra	u1717
  1708   002F7A  D000               	nop2	
  1709   002F7C                     
  1710                           ;I2C_LCD.c: 271:     I2C1_WRITESINGLEBYTE(I2C_LCD_ADDR,0x10);
  1711   002F7C  0E10               	movlw	16
  1712   002F7E  6E01               	movwf	I2C1_WRITESINGLEBYTE@dato^(0+1280),c
  1713   002F80  5034               	movf	_I2C_LCD_ADDR^(0+1280),w,c
  1714   002F82  ECE3  F01B         	call	_I2C1_WRITESINGLEBYTE
  1715   002F86                     
  1716                           ;I2C_LCD.c: 273:      _delay((unsigned long)((2)*(64000000UL/4000.0)));
  1717   002F86  0E2A               	movlw	42
  1718   002F88  6E08               	movwf	??_I2C_LCD_INIT^(0+1280),c
  1719   002F8A  0E8E               	movlw	142
  1720   002F8C                     u1727:
  1721   002F8C  2EE8               	decfsz	wreg,f,c
  1722   002F8E  D7FE               	bra	u1727
  1723   002F90  2E08               	decfsz	??_I2C_LCD_INIT^(0+1280),f,c
  1724   002F92  D7FC               	bra	u1727
  1725   002F94                     
  1726                           ;I2C_LCD.c: 275:     I2C1_WRITESINGLEBYTE(I2C_LCD_ADDR,0x00);
  1727   002F94  0E00               	movlw	0
  1728   002F96  6E01               	movwf	I2C1_WRITESINGLEBYTE@dato^(0+1280),c
  1729   002F98  5034               	movf	_I2C_LCD_ADDR^(0+1280),w,c
  1730   002F9A  ECE3  F01B         	call	_I2C1_WRITESINGLEBYTE
  1731   002F9E                     
  1732                           ;I2C_LCD.c: 276:     _delay((unsigned long)((02)*(64000000UL/4000000.0)));
  1733   002F9E  0E0A               	movlw	10
  1734   002FA0                     u1737:
  1735   002FA0  2EE8               	decfsz	wreg,f,c
  1736   002FA2  D7FE               	bra	u1737
  1737   002FA4  D000               	nop2	
  1738   002FA6                     
  1739                           ;I2C_LCD.c: 277:     I2C1_WRITESINGLEBYTE(I2C_LCD_ADDR,0x04);
  1740   002FA6  0E04               	movlw	4
  1741   002FA8  6E01               	movwf	I2C1_WRITESINGLEBYTE@dato^(0+1280),c
  1742   002FAA  5034               	movf	_I2C_LCD_ADDR^(0+1280),w,c
  1743   002FAC  ECE3  F01B         	call	_I2C1_WRITESINGLEBYTE
  1744   002FB0                     
  1745                           ;I2C_LCD.c: 278:     _delay((unsigned long)((20)*(64000000UL/4000000.0)));
  1746   002FB0  0E6A               	movlw	106
  1747   002FB2                     u1747:
  1748   002FB2  2EE8               	decfsz	wreg,f,c
  1749   002FB4  D7FE               	bra	u1747
  1750   002FB6  D000               	nop2	
  1751   002FB8                     
  1752                           ;I2C_LCD.c: 279:     I2C1_WRITESINGLEBYTE(I2C_LCD_ADDR,0x00);
  1753   002FB8  0E00               	movlw	0
  1754   002FBA  6E01               	movwf	I2C1_WRITESINGLEBYTE@dato^(0+1280),c
  1755   002FBC  5034               	movf	_I2C_LCD_ADDR^(0+1280),w,c
  1756   002FBE  ECE3  F01B         	call	_I2C1_WRITESINGLEBYTE
  1757   002FC2                     
  1758                           ;I2C_LCD.c: 281:      _delay((unsigned long)((75)*(64000000UL/4000000.0)));
  1759   002FC2  0EF0               	movlw	240
  1760   002FC4                     u1757:
  1761   002FC4  D000               	nop2	
  1762   002FC6  2EE8               	decfsz	wreg,f,c
  1763   002FC8  D7FD               	bra	u1757
  1764   002FCA                     
  1765                           ;I2C_LCD.c: 283:     I2C1_WRITESINGLEBYTE(I2C_LCD_ADDR,0x60);
  1766   002FCA  0E60               	movlw	96
  1767   002FCC  6E01               	movwf	I2C1_WRITESINGLEBYTE@dato^(0+1280),c
  1768   002FCE  5034               	movf	_I2C_LCD_ADDR^(0+1280),w,c
  1769   002FD0  ECE3  F01B         	call	_I2C1_WRITESINGLEBYTE
  1770   002FD4                     
  1771                           ;I2C_LCD.c: 284:     _delay((unsigned long)((02)*(64000000UL/4000000.0)));
  1772   002FD4  0E0A               	movlw	10
  1773   002FD6                     u1767:
  1774   002FD6  2EE8               	decfsz	wreg,f,c
  1775   002FD8  D7FE               	bra	u1767
  1776   002FDA  D000               	nop2	
  1777   002FDC                     
  1778                           ;I2C_LCD.c: 285:     I2C1_WRITESINGLEBYTE(I2C_LCD_ADDR,0x64);
  1779   002FDC  0E64               	movlw	100
  1780   002FDE  6E01               	movwf	I2C1_WRITESINGLEBYTE@dato^(0+1280),c
  1781   002FE0  5034               	movf	_I2C_LCD_ADDR^(0+1280),w,c
  1782   002FE2  ECE3  F01B         	call	_I2C1_WRITESINGLEBYTE
  1783   002FE6                     
  1784                           ;I2C_LCD.c: 286:     _delay((unsigned long)((20)*(64000000UL/4000000.0)));
  1785   002FE6  0E6A               	movlw	106
  1786   002FE8                     u1777:
  1787   002FE8  2EE8               	decfsz	wreg,f,c
  1788   002FEA  D7FE               	bra	u1777
  1789   002FEC  D000               	nop2	
  1790   002FEE                     
  1791                           ;I2C_LCD.c: 287:     I2C1_WRITESINGLEBYTE(I2C_LCD_ADDR,0x60);
  1792   002FEE  0E60               	movlw	96
  1793   002FF0  6E01               	movwf	I2C1_WRITESINGLEBYTE@dato^(0+1280),c
  1794   002FF2  5034               	movf	_I2C_LCD_ADDR^(0+1280),w,c
  1795   002FF4  ECE3  F01B         	call	_I2C1_WRITESINGLEBYTE
  1796   002FF8                     
  1797                           ;I2C_LCD.c: 289:      _delay((unsigned long)((75)*(64000000UL/4000000.0)));
  1798   002FF8  0EF0               	movlw	240
  1799   002FFA                     u1787:
  1800   002FFA  D000               	nop2	
  1801   002FFC  2EE8               	decfsz	wreg,f,c
  1802   002FFE  D7FD               	bra	u1787
  1803   003000                     
  1804                           ;I2C_LCD.c: 291:     I2C1_WRITESINGLEBYTE(I2C_LCD_ADDR,0x00);
  1805   003000  0E00               	movlw	0
  1806   003002  6E01               	movwf	I2C1_WRITESINGLEBYTE@dato^(0+1280),c
  1807   003004  5034               	movf	_I2C_LCD_ADDR^(0+1280),w,c
  1808   003006  ECE3  F01B         	call	_I2C1_WRITESINGLEBYTE
  1809   00300A                     
  1810                           ;I2C_LCD.c: 292:     _delay((unsigned long)((20)*(64000000UL/4000000.0)));
  1811   00300A  0E6A               	movlw	106
  1812   00300C                     u1797:
  1813   00300C  2EE8               	decfsz	wreg,f,c
  1814   00300E  D7FE               	bra	u1797
  1815   003010  D000               	nop2	
  1816   003012                     
  1817                           ;I2C_LCD.c: 293:     I2C1_WRITESINGLEBYTE(I2C_LCD_ADDR,0x04);
  1818   003012  0E04               	movlw	4
  1819   003014  6E01               	movwf	I2C1_WRITESINGLEBYTE@dato^(0+1280),c
  1820   003016  5034               	movf	_I2C_LCD_ADDR^(0+1280),w,c
  1821   003018  ECE3  F01B         	call	_I2C1_WRITESINGLEBYTE
  1822   00301C                     
  1823                           ;I2C_LCD.c: 294:     _delay((unsigned long)((20)*(64000000UL/4000000.0)));
  1824   00301C  0E6A               	movlw	106
  1825   00301E                     u1807:
  1826   00301E  2EE8               	decfsz	wreg,f,c
  1827   003020  D7FE               	bra	u1807
  1828   003022  D000               	nop2	
  1829   003024                     
  1830                           ;I2C_LCD.c: 295:     I2C1_WRITESINGLEBYTE(I2C_LCD_ADDR,0x00);
  1831   003024  0E00               	movlw	0
  1832   003026  6E01               	movwf	I2C1_WRITESINGLEBYTE@dato^(0+1280),c
  1833   003028  5034               	movf	_I2C_LCD_ADDR^(0+1280),w,c
  1834   00302A  ECE3  F01B         	call	_I2C1_WRITESINGLEBYTE
  1835   00302E                     
  1836                           ;I2C_LCD.c: 297:     _delay((unsigned long)((75)*(64000000UL/4000000.0)));
  1837   00302E  0EF0               	movlw	240
  1838   003030                     u1817:
  1839   003030  D000               	nop2	
  1840   003032  2EE8               	decfsz	wreg,f,c
  1841   003034  D7FD               	bra	u1817
  1842   003036                     
  1843                           ;I2C_LCD.c: 299:     I2C1_WRITESINGLEBYTE(I2C_LCD_ADDR,0x20);
  1844   003036  0E20               	movlw	32
  1845   003038  6E01               	movwf	I2C1_WRITESINGLEBYTE@dato^(0+1280),c
  1846   00303A  5034               	movf	_I2C_LCD_ADDR^(0+1280),w,c
  1847   00303C  ECE3  F01B         	call	_I2C1_WRITESINGLEBYTE
  1848   003040                     
  1849                           ;I2C_LCD.c: 300:     _delay((unsigned long)((20)*(64000000UL/4000000.0)));
  1850   003040  0E6A               	movlw	106
  1851   003042                     u1827:
  1852   003042  2EE8               	decfsz	wreg,f,c
  1853   003044  D7FE               	bra	u1827
  1854   003046  D000               	nop2	
  1855   003048                     
  1856                           ;I2C_LCD.c: 301:     I2C1_WRITESINGLEBYTE(I2C_LCD_ADDR,0x24);
  1857   003048  0E24               	movlw	36
  1858   00304A  6E01               	movwf	I2C1_WRITESINGLEBYTE@dato^(0+1280),c
  1859   00304C  5034               	movf	_I2C_LCD_ADDR^(0+1280),w,c
  1860   00304E  ECE3  F01B         	call	_I2C1_WRITESINGLEBYTE
  1861   003052                     
  1862                           ;I2C_LCD.c: 302:     _delay((unsigned long)((20)*(64000000UL/4000000.0)));
  1863   003052  0E6A               	movlw	106
  1864   003054                     u1837:
  1865   003054  2EE8               	decfsz	wreg,f,c
  1866   003056  D7FE               	bra	u1837
  1867   003058  D000               	nop2	
  1868   00305A                     
  1869                           ;I2C_LCD.c: 303:     I2C1_WRITESINGLEBYTE(I2C_LCD_ADDR,0x20);
  1870   00305A  0E20               	movlw	32
  1871   00305C  6E01               	movwf	I2C1_WRITESINGLEBYTE@dato^(0+1280),c
  1872   00305E  5034               	movf	_I2C_LCD_ADDR^(0+1280),w,c
  1873   003060  ECE3  F01B         	call	_I2C1_WRITESINGLEBYTE
  1874   003064                     
  1875                           ;I2C_LCD.c: 305:     _delay((unsigned long)((15)*(64000000UL/4000.0)));
  1876   003064  0E02               	movlw	2
  1877   003066  6E09               	movwf	(??_I2C_LCD_INIT+1)^(0+1280),c
  1878   003068  0E38               	movlw	56
  1879   00306A  6E08               	movwf	??_I2C_LCD_INIT^(0+1280),c
  1880   00306C  0EAD               	movlw	173
  1881   00306E                     u1847:
  1882   00306E  2EE8               	decfsz	wreg,f,c
  1883   003070  D7FE               	bra	u1847
  1884   003072  2E08               	decfsz	??_I2C_LCD_INIT^(0+1280),f,c
  1885   003074  D7FC               	bra	u1847
  1886   003076  2E09               	decfsz	(??_I2C_LCD_INIT+1)^(0+1280),f,c
  1887   003078  D7FA               	bra	u1847
  1888   00307A  0000               	nop	
  1889   00307C                     
  1890                           ;I2C_LCD.c: 306:     I2C_BORRAR_LCD();
  1891   00307C  EC78  F01C         	call	_I2C_BORRAR_LCD	;wreg free
  1892   003080                     
  1893                           ;I2C_LCD.c: 307:     I2C_CURSOR_HOME();
  1894   003080  EC74  F01C         	call	_I2C_CURSOR_HOME	;wreg free
  1895   003084                     
  1896                           ;I2C_LCD.c: 308:     I2C_CURSOR_ONOFF(1);
  1897   003084  0E01               	movlw	1
  1898   003086  EC20  F01C         	call	_I2C_CURSOR_ONOFF
  1899   00308A  0012               	return		;funcret
  1900   00308C                     __end_of_I2C_LCD_INIT:
  1901                           	callstack 0
  1902                           
  1903 ;; *************** function _I2C_CURSOR_ONOFF *****************
  1904 ;; Defined at:
  1905 ;;		line 116 in file "I2C_LCD.c"
  1906 ;; Parameters:    Size  Location     Type
  1907 ;;  estado          1    wreg     unsigned char 
  1908 ;; Auto vars:     Size  Location     Type
  1909 ;;  estado          1    6[COMRAM] unsigned char 
  1910 ;; Return value:  Size  Location     Type
  1911 ;;                  1    wreg      void 
  1912 ;; Registers used:
  1913 ;;		wreg, status,2, status,0, cstack
  1914 ;; Tracked objects:
  1915 ;;		On entry : 0/0
  1916 ;;		On exit  : 0/0
  1917 ;;		Unchanged: 0/0
  1918 ;; Data sizes:     COMRAM   BANK5   BANK6   BANK7   BANK8   BANK9  BANK10  BANK11  BANK12  BANK13  BANK14  BANK15  BANK1
      +6  BANK17  BANK18  BANK19  BANK20  BANK21  BANK22  BANK23  BANK24  BANK25  BANK26  BANK27  BANK28  BANK29  BANK30  BANK3
      +1  BANK32  BANK33  BANK34  BANK35  BANK36
  1919 ;;      Params:         0       0       0       0       0       0       0       0       0       0       0       0       
      +0       0       0       0       0       0       0       0       0       0       0       0       0       0       0       
      +0       0       0       0       0       0
  1920 ;;      Locals:         1       0       0       0       0       0       0       0       0       0       0       0       
      +0       0       0       0       0       0       0       0       0       0       0       0       0       0       0       
      +0       0       0       0       0       0
  1921 ;;      Temps:          0       0       0       0       0       0       0       0       0       0       0       0       
      +0       0       0       0       0       0       0       0       0       0       0       0       0       0       0       
      +0       0       0       0       0       0
  1922 ;;      Totals:         1       0       0       0       0       0       0       0       0       0       0       0       
      +0       0       0       0       0       0       0       0       0       0       0       0       0       0       0       
      +0       0       0       0       0       0
  1923 ;;Total ram usage:        1 bytes
  1924 ;; Hardware stack levels used: 1
  1925 ;; Hardware stack levels required when called: 2
  1926 ;; This function calls:
  1927 ;;		_I2C_ENVIA_LCD_CMD
  1928 ;; This function is called by:
  1929 ;;		_I2C_LCD_INIT
  1930 ;; This function uses a non-reentrant model
  1931 ;;
  1932                           
  1933                           	psect	text8
  1934   003840                     __ptext8:
  1935                           	callstack 0
  1936   003840                     _I2C_CURSOR_ONOFF:
  1937                           	callstack 122
  1938                           
  1939                           ;incstack = 0
  1940                           ;I2C_CURSOR_ONOFF@estado stored from wreg
  1941   003840  6E07               	movwf	I2C_CURSOR_ONOFF@estado^(0+1280),c
  1942   003842                     
  1943                           ;I2C_LCD.c: 117:  if(estado == 0) I2C_ENVIA_LCD_CMD(0x0E);
  1944   003842  5007               	movf	I2C_CURSOR_ONOFF@estado^(0+1280),w,c
  1945   003844  A4D8               	btfss	status,2,c
  1946   003846  EF27  F01C         	goto	u711
  1947   00384A  EF29  F01C         	goto	u710
  1948   00384E                     u711:
  1949   00384E  EF2C  F01C         	goto	l1767
  1950   003852                     u710:
  1951   003852  0E0E               	movlw	14
  1952   003854  EC36  F01B         	call	_I2C_ENVIA_LCD_CMD
  1953   003858                     l1767:
  1954                           
  1955                           ;I2C_LCD.c: 118:  if(estado == 1) I2C_ENVIA_LCD_CMD(0x0C);
  1956   003858  0407               	decf	I2C_CURSOR_ONOFF@estado^(0+1280),w,c
  1957   00385A  A4D8               	btfss	status,2,c
  1958   00385C  EF32  F01C         	goto	u721
  1959   003860  EF34  F01C         	goto	u720
  1960   003864                     u721:
  1961   003864  EF37  F01C         	goto	l100
  1962   003868                     u720:
  1963   003868  0E0C               	movlw	12
  1964   00386A  EC36  F01B         	call	_I2C_ENVIA_LCD_CMD
  1965   00386E                     l100:
  1966   00386E  0012               	return		;funcret
  1967   003870                     __end_of_I2C_CURSOR_ONOFF:
  1968                           	callstack 0
  1969                           
  1970 ;; *************** function _I2C_CURSOR_HOME *****************
  1971 ;; Defined at:
  1972 ;;		line 96 in file "I2C_LCD.c"
  1973 ;; Parameters:    Size  Location     Type
  1974 ;;		None
  1975 ;; Auto vars:     Size  Location     Type
  1976 ;;		None
  1977 ;; Return value:  Size  Location     Type
  1978 ;;                  1    wreg      void 
  1979 ;; Registers used:
  1980 ;;		wreg, status,2, status,0, cstack
  1981 ;; Tracked objects:
  1982 ;;		On entry : 0/0
  1983 ;;		On exit  : 0/0
  1984 ;;		Unchanged: 0/0
  1985 ;; Data sizes:     COMRAM   BANK5   BANK6   BANK7   BANK8   BANK9  BANK10  BANK11  BANK12  BANK13  BANK14  BANK15  BANK1
      +6  BANK17  BANK18  BANK19  BANK20  BANK21  BANK22  BANK23  BANK24  BANK25  BANK26  BANK27  BANK28  BANK29  BANK30  BANK3
      +1  BANK32  BANK33  BANK34  BANK35  BANK36
  1986 ;;      Params:         0       0       0       0       0       0       0       0       0       0       0       0       
      +0       0       0       0       0       0       0       0       0       0       0       0       0       0       0       
      +0       0       0       0       0       0
  1987 ;;      Locals:         0       0       0       0       0       0       0       0       0       0       0       0       
      +0       0       0       0       0       0       0       0       0       0       0       0       0       0       0       
      +0       0       0       0       0       0
  1988 ;;      Temps:          0       0       0       0       0       0       0       0       0       0       0       0       
      +0       0       0       0       0       0       0       0       0       0       0       0       0       0       0       
      +0       0       0       0       0       0
  1989 ;;      Totals:         0       0       0       0       0       0       0       0       0       0       0       0       
      +0       0       0       0       0       0       0       0       0       0       0       0       0       0       0       
      +0       0       0       0       0       0
  1990 ;;Total ram usage:        0 bytes
  1991 ;; Hardware stack levels used: 1
  1992 ;; Hardware stack levels required when called: 2
  1993 ;; This function calls:
  1994 ;;		_I2C_ENVIA_LCD_CMD
  1995 ;; This function is called by:
  1996 ;;		_I2C_LCD_INIT
  1997 ;; This function uses a non-reentrant model
  1998 ;;
  1999                           
  2000                           	psect	text9
  2001   0038E8                     __ptext9:
  2002                           	callstack 0
  2003   0038E8                     _I2C_CURSOR_HOME:
  2004                           	callstack 122
  2005   0038E8                     
  2006                           ;I2C_LCD.c: 97:  I2C_ENVIA_LCD_CMD(0x02);
  2007   0038E8  0E02               	movlw	2
  2008   0038EA  EC36  F01B         	call	_I2C_ENVIA_LCD_CMD
  2009   0038EE  0012               	return		;funcret
  2010   0038F0                     __end_of_I2C_CURSOR_HOME:
  2011                           	callstack 0
  2012                           
  2013 ;; *************** function _I2C_BORRAR_LCD *****************
  2014 ;; Defined at:
  2015 ;;		line 155 in file "I2C_LCD.c"
  2016 ;; Parameters:    Size  Location     Type
  2017 ;;		None
  2018 ;; Auto vars:     Size  Location     Type
  2019 ;;		None
  2020 ;; Return value:  Size  Location     Type
  2021 ;;                  1    wreg      void 
  2022 ;; Registers used:
  2023 ;;		wreg, status,2, status,0, cstack
  2024 ;; Tracked objects:
  2025 ;;		On entry : 0/0
  2026 ;;		On exit  : 0/0
  2027 ;;		Unchanged: 0/0
  2028 ;; Data sizes:     COMRAM   BANK5   BANK6   BANK7   BANK8   BANK9  BANK10  BANK11  BANK12  BANK13  BANK14  BANK15  BANK1
      +6  BANK17  BANK18  BANK19  BANK20  BANK21  BANK22  BANK23  BANK24  BANK25  BANK26  BANK27  BANK28  BANK29  BANK30  BANK3
      +1  BANK32  BANK33  BANK34  BANK35  BANK36
  2029 ;;      Params:         0       0       0       0       0       0       0       0       0       0       0       0       
      +0       0       0       0       0       0       0       0       0       0       0       0       0       0       0       
      +0       0       0       0       0       0
  2030 ;;      Locals:         0       0       0       0       0       0       0       0       0       0       0       0       
      +0       0       0       0       0       0       0       0       0       0       0       0       0       0       0       
      +0       0       0       0       0       0
  2031 ;;      Temps:          0       0       0       0       0       0       0       0       0       0       0       0       
      +0       0       0       0       0       0       0       0       0       0       0       0       0       0       0       
      +0       0       0       0       0       0
  2032 ;;      Totals:         0       0       0       0       0       0       0       0       0       0       0       0       
      +0       0       0       0       0       0       0       0       0       0       0       0       0       0       0       
      +0       0       0       0       0       0
  2033 ;;Total ram usage:        0 bytes
  2034 ;; Hardware stack levels used: 1
  2035 ;; Hardware stack levels required when called: 2
  2036 ;; This function calls:
  2037 ;;		_I2C_ENVIA_LCD_CMD
  2038 ;; This function is called by:
  2039 ;;		_I2C_LCD_INIT
  2040 ;;		_pantallazo
  2041 ;; This function uses a non-reentrant model
  2042 ;;
  2043                           
  2044                           	psect	text10
  2045   0038F0                     __ptext10:
  2046                           	callstack 0
  2047   0038F0                     _I2C_BORRAR_LCD:
  2048                           	callstack 123
  2049   0038F0                     
  2050                           ;I2C_LCD.c: 156:  I2C_ENVIA_LCD_CMD(0x01);
  2051   0038F0  0E01               	movlw	1
  2052   0038F2  EC36  F01B         	call	_I2C_ENVIA_LCD_CMD
  2053   0038F6  0012               	return		;funcret
  2054   0038F8                     __end_of_I2C_BORRAR_LCD:
  2055                           	callstack 0
  2056                           
  2057 ;; *************** function _I2C_ENVIA_LCD_CMD *****************
  2058 ;; Defined at:
  2059 ;;		line 159 in file "I2C_LCD.c"
  2060 ;; Parameters:    Size  Location     Type
  2061 ;;  command         1    wreg     unsigned char 
  2062 ;; Auto vars:     Size  Location     Type
  2063 ;;  command         1    3[COMRAM] unsigned char 
  2064 ;;  lownibble       1    5[COMRAM] unsigned char 
  2065 ;;  highnibble      1    4[COMRAM] unsigned char 
  2066 ;; Return value:  Size  Location     Type
  2067 ;;                  1    wreg      void 
  2068 ;; Registers used:
  2069 ;;		wreg, status,2, status,0, cstack
  2070 ;; Tracked objects:
  2071 ;;		On entry : 0/0
  2072 ;;		On exit  : 0/0
  2073 ;;		Unchanged: 0/0
  2074 ;; Data sizes:     COMRAM   BANK5   BANK6   BANK7   BANK8   BANK9  BANK10  BANK11  BANK12  BANK13  BANK14  BANK15  BANK1
      +6  BANK17  BANK18  BANK19  BANK20  BANK21  BANK22  BANK23  BANK24  BANK25  BANK26  BANK27  BANK28  BANK29  BANK30  BANK3
      +1  BANK32  BANK33  BANK34  BANK35  BANK36
  2075 ;;      Params:         0       0       0       0       0       0       0       0       0       0       0       0       
      +0       0       0       0       0       0       0       0       0       0       0       0       0       0       0       
      +0       0       0       0       0       0
  2076 ;;      Locals:         3       0       0       0       0       0       0       0       0       0       0       0       
      +0       0       0       0       0       0       0       0       0       0       0       0       0       0       0       
      +0       0       0       0       0       0
  2077 ;;      Temps:          1       0       0       0       0       0       0       0       0       0       0       0       
      +0       0       0       0       0       0       0       0       0       0       0       0       0       0       0       
      +0       0       0       0       0       0
  2078 ;;      Totals:         4       0       0       0       0       0       0       0       0       0       0       0       
      +0       0       0       0       0       0       0       0       0       0       0       0       0       0       0       
      +0       0       0       0       0       0
  2079 ;;Total ram usage:        4 bytes
  2080 ;; Hardware stack levels used: 1
  2081 ;; Hardware stack levels required when called: 1
  2082 ;; This function calls:
  2083 ;;		_I2C1_WRITESINGLEBYTE
  2084 ;; This function is called by:
  2085 ;;		_I2C_POS_CURSOR
  2086 ;;		_I2C_CURSOR_HOME
  2087 ;;		_I2C_CURSOR_ONOFF
  2088 ;;		_I2C_BORRAR_LCD
  2089 ;;		_I2C_BLINK_CURSOR
  2090 ;;		_I2C_DISPLAY_ONOFF
  2091 ;;		_I2C_CURSOR_SHIFTLEFT
  2092 ;;		_I2C_CURSOR_SHIFTRIGHT
  2093 ;;		_I2C_DISPLAY_SHIFTLEFT
  2094 ;;		_I2C_DISPLAY_SHIFTRIGHT
  2095 ;;		_I2C_GENERACARACTER
  2096 ;; This function uses a non-reentrant model
  2097 ;;
  2098                           
  2099                           	psect	text11
  2100   00366C                     __ptext11:
  2101                           	callstack 0
  2102   00366C                     _I2C_ENVIA_LCD_CMD:
  2103                           	callstack 123
  2104                           
  2105                           ;incstack = 0
  2106                           ;I2C_ENVIA_LCD_CMD@command stored from wreg
  2107   00366C  6E04               	movwf	I2C_ENVIA_LCD_CMD@command^(0+1280),c
  2108   00366E                     
  2109                           ;I2C_LCD.c: 160:     unsigned char highnibble;;I2C_LCD.c: 161:     unsigned char lownibb
      +                          le;;I2C_LCD.c: 163:     highnibble = (command & 0xF0) | 0x08;
  2110   00366E  5004               	movf	I2C_ENVIA_LCD_CMD@command^(0+1280),w,c
  2111   003670  0BF0               	andlw	240
  2112   003672  0908               	iorlw	8
  2113   003674  6E05               	movwf	I2C_ENVIA_LCD_CMD@highnibble^(0+1280),c
  2114                           
  2115                           ;I2C_LCD.c: 164:     lownibble = (unsigned char)(((command & 0x0F)<<4)| 0x08);
  2116   003676  C504  F503         	movff	I2C_ENVIA_LCD_CMD@command,??_I2C_ENVIA_LCD_CMD
  2117   00367A  0E0F               	movlw	15
  2118   00367C  1603               	andwf	??_I2C_ENVIA_LCD_CMD^(0+1280),f,c
  2119   00367E  3803               	swapf	??_I2C_ENVIA_LCD_CMD^(0+1280),w,c
  2120   003680  0BF0               	andlw	240
  2121   003682  0908               	iorlw	8
  2122   003684  6E06               	movwf	I2C_ENVIA_LCD_CMD@lownibble^(0+1280),c
  2123   003686                     
  2124                           ;I2C_LCD.c: 166:     I2C1_WRITESINGLEBYTE(I2C_LCD_ADDR,(highnibble | 0x04));
  2125   003686  5005               	movf	I2C_ENVIA_LCD_CMD@highnibble^(0+1280),w,c
  2126   003688  0904               	iorlw	4
  2127   00368A  6E01               	movwf	I2C1_WRITESINGLEBYTE@dato^(0+1280),c
  2128   00368C  5034               	movf	_I2C_LCD_ADDR^(0+1280),w,c
  2129   00368E  ECE3  F01B         	call	_I2C1_WRITESINGLEBYTE
  2130   003692                     
  2131                           ;I2C_LCD.c: 167:     _delay((unsigned long)((20)*(64000000UL/4000000.0)));
  2132   003692  0E6A               	movlw	106
  2133   003694                     u1857:
  2134   003694  2EE8               	decfsz	wreg,f,c
  2135   003696  D7FE               	bra	u1857
  2136   003698  D000               	nop2	
  2137   00369A                     
  2138                           ;I2C_LCD.c: 168:     I2C1_WRITESINGLEBYTE(I2C_LCD_ADDR,highnibble);
  2139   00369A  C505  F501         	movff	I2C_ENVIA_LCD_CMD@highnibble,I2C1_WRITESINGLEBYTE@dato
  2140   00369E  5034               	movf	_I2C_LCD_ADDR^(0+1280),w,c
  2141   0036A0  ECE3  F01B         	call	_I2C1_WRITESINGLEBYTE
  2142   0036A4                     
  2143                           ;I2C_LCD.c: 169:     _delay((unsigned long)((20)*(64000000UL/4000000.0)));
  2144   0036A4  0E6A               	movlw	106
  2145   0036A6                     u1867:
  2146   0036A6  2EE8               	decfsz	wreg,f,c
  2147   0036A8  D7FE               	bra	u1867
  2148   0036AA  D000               	nop2	
  2149   0036AC                     
  2150                           ;I2C_LCD.c: 171:     I2C1_WRITESINGLEBYTE(I2C_LCD_ADDR,(lownibble | 0x04));
  2151   0036AC  5006               	movf	I2C_ENVIA_LCD_CMD@lownibble^(0+1280),w,c
  2152   0036AE  0904               	iorlw	4
  2153   0036B0  6E01               	movwf	I2C1_WRITESINGLEBYTE@dato^(0+1280),c
  2154   0036B2  5034               	movf	_I2C_LCD_ADDR^(0+1280),w,c
  2155   0036B4  ECE3  F01B         	call	_I2C1_WRITESINGLEBYTE
  2156   0036B8                     
  2157                           ;I2C_LCD.c: 172:     _delay((unsigned long)((20)*(64000000UL/4000000.0)));
  2158   0036B8  0E6A               	movlw	106
  2159   0036BA                     u1877:
  2160   0036BA  2EE8               	decfsz	wreg,f,c
  2161   0036BC  D7FE               	bra	u1877
  2162   0036BE  D000               	nop2	
  2163   0036C0                     
  2164                           ;I2C_LCD.c: 173:     I2C1_WRITESINGLEBYTE(I2C_LCD_ADDR,lownibble);
  2165   0036C0  C506  F501         	movff	I2C_ENVIA_LCD_CMD@lownibble,I2C1_WRITESINGLEBYTE@dato
  2166   0036C4  5034               	movf	_I2C_LCD_ADDR^(0+1280),w,c
  2167   0036C6  ECE3  F01B         	call	_I2C1_WRITESINGLEBYTE
  2168   0036CA                     
  2169                           ;I2C_LCD.c: 174:     _delay((unsigned long)((20)*(64000000UL/4000000.0)));
  2170   0036CA  0E6A               	movlw	106
  2171   0036CC                     u1887:
  2172   0036CC  2EE8               	decfsz	wreg,f,c
  2173   0036CE  D7FE               	bra	u1887
  2174   0036D0  D000               	nop2	
  2175   0036D2  0012               	return		;funcret
  2176   0036D4                     __end_of_I2C_ENVIA_LCD_CMD:
  2177                           	callstack 0
  2178                           
  2179 ;; *************** function _I2C1_INIT *****************
  2180 ;; Defined at:
  2181 ;;		line 34 in file "I2C_LCD.c"
  2182 ;; Parameters:    Size  Location     Type
  2183 ;;		None
  2184 ;; Auto vars:     Size  Location     Type
  2185 ;;		None
  2186 ;; Return value:  Size  Location     Type
  2187 ;;                  1    wreg      void 
  2188 ;; Registers used:
  2189 ;;		wreg, status,2
  2190 ;; Tracked objects:
  2191 ;;		On entry : 0/0
  2192 ;;		On exit  : 0/0
  2193 ;;		Unchanged: 0/0
  2194 ;; Data sizes:     COMRAM   BANK5   BANK6   BANK7   BANK8   BANK9  BANK10  BANK11  BANK12  BANK13  BANK14  BANK15  BANK1
      +6  BANK17  BANK18  BANK19  BANK20  BANK21  BANK22  BANK23  BANK24  BANK25  BANK26  BANK27  BANK28  BANK29  BANK30  BANK3
      +1  BANK32  BANK33  BANK34  BANK35  BANK36
  2195 ;;      Params:         0       0       0       0       0       0       0       0       0       0       0       0       
      +0       0       0       0       0       0       0       0       0       0       0       0       0       0       0       
      +0       0       0       0       0       0
  2196 ;;      Locals:         0       0       0       0       0       0       0       0       0       0       0       0       
      +0       0       0       0       0       0       0       0       0       0       0       0       0       0       0       
      +0       0       0       0       0       0
  2197 ;;      Temps:          0       0       0       0       0       0       0       0       0       0       0       0       
      +0       0       0       0       0       0       0       0       0       0       0       0       0       0       0       
      +0       0       0       0       0       0
  2198 ;;      Totals:         0       0       0       0       0       0       0       0       0       0       0       0       
      +0       0       0       0       0       0       0       0       0       0       0       0       0       0       0       
      +0       0       0       0       0       0
  2199 ;;Total ram usage:        0 bytes
  2200 ;; Hardware stack levels used: 1
  2201 ;; This function calls:
  2202 ;;		Nothing
  2203 ;; This function is called by:
  2204 ;;		_I2C_LCD_INIT
  2205 ;; This function uses a non-reentrant model
  2206 ;;
  2207                           
  2208                           	psect	text12
  2209   003738                     __ptext12:
  2210                           	callstack 0
  2211   003738                     _I2C1_INIT:
  2212                           	callstack 124
  2213   003738                     
  2214                           ;I2C_LCD.c: 36:     TRISCbits.TRISC3 = 0;
  2215   003738  96C8               	bcf	200,3,c	;volatile
  2216                           
  2217                           ;I2C_LCD.c: 37:     TRISCbits.TRISC4 = 0;
  2218   00373A  98C8               	bcf	200,4,c	;volatile
  2219                           
  2220                           ;I2C_LCD.c: 38:     ANSELCbits.ANSELC3 = 0;
  2221   00373C  0104               	movlb	4	; () banked
  2222   00373E  9710               	bcf	16,3,b	;volatile
  2223                           
  2224                           ;I2C_LCD.c: 39:     ANSELCbits.ANSELC4 = 0;
  2225   003740  9910               	bcf	16,4,b	;volatile
  2226                           
  2227                           ;I2C_LCD.c: 40:     ODCONCbits.ODCC3 = 1;
  2228   003742  8712               	bsf	18,3,b	;volatile
  2229                           
  2230                           ;I2C_LCD.c: 41:     ODCONCbits.ODCC4 = 1;
  2231   003744  8912               	bsf	18,4,b	;volatile
  2232   003746                     
  2233                           ; BSR set to: 4
  2234                           ;I2C_LCD.c: 43:     RC3PPS = 0x37;
  2235   003746  0E37               	movlw	55
  2236   003748  0102               	movlb	2	; () banked
  2237   00374A  6F14               	movwf	20,b	;volatile
  2238                           
  2239                           ;I2C_LCD.c: 44:     RC4PPS = 0x38;
  2240   00374C  0E38               	movlw	56
  2241   00374E  6F15               	movwf	21,b	;volatile
  2242                           
  2243                           ;I2C_LCD.c: 46:     RC3I2Cbits.PU = 2;
  2244   003750  5187               	movf	135,w,b	;volatile
  2245   003752  0BCF               	andlw	-49
  2246   003754  0920               	iorlw	32
  2247   003756  6F87               	movwf	135,b	;volatile
  2248                           
  2249                           ;I2C_LCD.c: 47:     RC3I2Cbits.TH = 1;
  2250   003758  5187               	movf	135,w,b	;volatile
  2251   00375A  0BFC               	andlw	-4
  2252   00375C  0901               	iorlw	1
  2253   00375E  6F87               	movwf	135,b	;volatile
  2254                           
  2255                           ;I2C_LCD.c: 48:     RC4I2Cbits.PU = 2;
  2256   003760  5186               	movf	134,w,b	;volatile
  2257   003762  0BCF               	andlw	-49
  2258   003764  0920               	iorlw	32
  2259   003766  6F86               	movwf	134,b	;volatile
  2260                           
  2261                           ;I2C_LCD.c: 49:     RC4I2Cbits.TH = 1;
  2262   003768  5186               	movf	134,w,b	;volatile
  2263   00376A  0BFC               	andlw	-4
  2264   00376C  0901               	iorlw	1
  2265   00376E  6F86               	movwf	134,b	;volatile
  2266   003770                     
  2267                           ; BSR set to: 2
  2268                           ;I2C_LCD.c: 50:     I2C1CON0bits.EN = 1;
  2269   003770  8F94               	bsf	148,7,b	;volatile
  2270                           
  2271                           ;I2C_LCD.c: 51:     I2C1CLKbits.CLK = 3;
  2272   003772  0E03               	movlw	3
  2273   003774  6F9C               	movwf	156,b	;volatile
  2274                           
  2275                           ;I2C_LCD.c: 52:     I2C1CON0bits.MODE = 0x4;
  2276   003776  5194               	movf	148,w,b	;volatile
  2277   003778  0BF8               	andlw	-8
  2278   00377A  0904               	iorlw	4
  2279   00377C  6F94               	movwf	148,b	;volatile
  2280   00377E                     
  2281                           ; BSR set to: 2
  2282                           ;I2C_LCD.c: 53:     I2C1CON2bits.ABD = 0;
  2283   00377E  9996               	bcf	150,4,b	;volatile
  2284   003780                     
  2285                           ; BSR set to: 2
  2286   003780  0012               	return		;funcret
  2287   003782                     __end_of_I2C1_INIT:
  2288                           	callstack 0
  2289                           
  2290 ;; *************** function ___xxtofl *****************
  2291 ;; Defined at:
  2292 ;;		line 10 in file "C:\Program Files\Microchip\xc8\v2.46\pic\sources\c99\common\xxtofl.c"
  2293 ;; Parameters:    Size  Location     Type
  2294 ;;  sign            1    wreg     unsigned char 
  2295 ;;  val             4    0[COMRAM] long 
  2296 ;; Auto vars:     Size  Location     Type
  2297 ;;  sign            1    8[COMRAM] unsigned char 
  2298 ;;  arg             4   10[COMRAM] unsigned long 
  2299 ;;  exp             1    9[COMRAM] unsigned char 
  2300 ;; Return value:  Size  Location     Type
  2301 ;;                  4    0[COMRAM] unsigned char 
  2302 ;; Registers used:
  2303 ;;		wreg, status,2, status,0
  2304 ;; Tracked objects:
  2305 ;;		On entry : 0/0
  2306 ;;		On exit  : 0/0
  2307 ;;		Unchanged: 0/0
  2308 ;; Data sizes:     COMRAM   BANK5   BANK6   BANK7   BANK8   BANK9  BANK10  BANK11  BANK12  BANK13  BANK14  BANK15  BANK1
      +6  BANK17  BANK18  BANK19  BANK20  BANK21  BANK22  BANK23  BANK24  BANK25  BANK26  BANK27  BANK28  BANK29  BANK30  BANK3
      +1  BANK32  BANK33  BANK34  BANK35  BANK36
  2309 ;;      Params:         4       0       0       0       0       0       0       0       0       0       0       0       
      +0       0       0       0       0       0       0       0       0       0       0       0       0       0       0       
      +0       0       0       0       0       0
  2310 ;;      Locals:         6       0       0       0       0       0       0       0       0       0       0       0       
      +0       0       0       0       0       0       0       0       0       0       0       0       0       0       0       
      +0       0       0       0       0       0
  2311 ;;      Temps:          4       0       0       0       0       0       0       0       0       0       0       0       
      +0       0       0       0       0       0       0       0       0       0       0       0       0       0       0       
      +0       0       0       0       0       0
  2312 ;;      Totals:        14       0       0       0       0       0       0       0       0       0       0       0       
      +0       0       0       0       0       0       0       0       0       0       0       0       0       0       0       
      +0       0       0       0       0       0
  2313 ;;Total ram usage:       14 bytes
  2314 ;; Hardware stack levels used: 1
  2315 ;; This function calls:
  2316 ;;		Nothing
  2317 ;; This function is called by:
  2318 ;;		_main
  2319 ;; This function uses a non-reentrant model
  2320 ;;
  2321                           
  2322                           	psect	text13
  2323   00308C                     __ptext13:
  2324                           	callstack 0
  2325   00308C                     ___xxtofl:
  2326                           	callstack 126
  2327                           
  2328                           ; BSR set to: 2
  2329                           ;incstack = 0
  2330                           ;___xxtofl@sign stored from wreg
  2331   00308C  6E09               	movwf	___xxtofl@sign^(0+1280),c
  2332   00308E  5009               	movf	___xxtofl@sign^(0+1280),w,c
  2333   003090  B4D8               	btfsc	status,2,c
  2334   003092  EF4D  F018         	goto	u1141
  2335   003096  EF4F  F018         	goto	u1140
  2336   00309A                     u1141:
  2337   00309A  EF71  F018         	goto	l923
  2338   00309E                     u1140:
  2339   00309E  BE04               	btfsc	(___xxtofl@val+3)^(0+1280),7,c
  2340   0030A0  EF56  F018         	goto	u1150
  2341   0030A4  EF54  F018         	goto	u1151
  2342   0030A8                     u1151:
  2343   0030A8  EF71  F018         	goto	l923
  2344   0030AC                     u1150:
  2345   0030AC  C501  F505         	movff	___xxtofl@val,??___xxtofl
  2346   0030B0  C502  F506         	movff	___xxtofl@val+1,??___xxtofl+1
  2347   0030B4  C503  F507         	movff	___xxtofl@val+2,??___xxtofl+2
  2348   0030B8  C504  F508         	movff	___xxtofl@val+3,??___xxtofl+3
  2349   0030BC  1E05               	comf	??___xxtofl^(0+1280),f,c
  2350   0030BE  1E06               	comf	(??___xxtofl+1)^(0+1280),f,c
  2351   0030C0  1E07               	comf	(??___xxtofl+2)^(0+1280),f,c
  2352   0030C2  1E08               	comf	(??___xxtofl+3)^(0+1280),f,c
  2353   0030C4  2A05               	incf	??___xxtofl^(0+1280),f,c
  2354   0030C6  0E00               	movlw	0
  2355   0030C8  2206               	addwfc	(??___xxtofl+1)^(0+1280),f,c
  2356   0030CA  2207               	addwfc	(??___xxtofl+2)^(0+1280),f,c
  2357   0030CC  2208               	addwfc	(??___xxtofl+3)^(0+1280),f,c
  2358   0030CE  C505  F50B         	movff	??___xxtofl,___xxtofl@arg
  2359   0030D2  C506  F50C         	movff	??___xxtofl+1,___xxtofl@arg+1
  2360   0030D6  C507  F50D         	movff	??___xxtofl+2,___xxtofl@arg+2
  2361   0030DA  C508  F50E         	movff	??___xxtofl+3,___xxtofl@arg+3
  2362   0030DE  EF79  F018         	goto	l2331
  2363   0030E2                     l923:
  2364   0030E2  C501  F50B         	movff	___xxtofl@val,___xxtofl@arg
  2365   0030E6  C502  F50C         	movff	___xxtofl@val+1,___xxtofl@arg+1
  2366   0030EA  C503  F50D         	movff	___xxtofl@val+2,___xxtofl@arg+2
  2367   0030EE  C504  F50E         	movff	___xxtofl@val+3,___xxtofl@arg+3
  2368   0030F2                     l2331:
  2369   0030F2  5001               	movf	___xxtofl@val^(0+1280),w,c
  2370   0030F4  1002               	iorwf	(___xxtofl@val+1)^(0+1280),w,c
  2371   0030F6  1003               	iorwf	(___xxtofl@val+2)^(0+1280),w,c
  2372   0030F8  1004               	iorwf	(___xxtofl@val+3)^(0+1280),w,c
  2373   0030FA  A4D8               	btfss	status,2,c
  2374   0030FC  EF82  F018         	goto	u1161
  2375   003100  EF84  F018         	goto	u1160
  2376   003104                     u1161:
  2377   003104  EF8E  F018         	goto	l2337
  2378   003108                     u1160:
  2379   003108  0E00               	movlw	0
  2380   00310A  6E01               	movwf	?___xxtofl^(0+1280),c
  2381   00310C  0E00               	movlw	0
  2382   00310E  6E02               	movwf	(?___xxtofl+1)^(0+1280),c
  2383   003110  0E00               	movlw	0
  2384   003112  6E03               	movwf	(?___xxtofl+2)^(0+1280),c
  2385   003114  0E00               	movlw	0
  2386   003116  6E04               	movwf	(?___xxtofl+3)^(0+1280),c
  2387   003118  EF1F  F019         	goto	l926
  2388   00311C                     l2337:
  2389   00311C  0E96               	movlw	150
  2390   00311E  6E0A               	movwf	___xxtofl@exp^(0+1280),c
  2391   003120  EF98  F018         	goto	l2341
  2392   003124                     l2339:
  2393   003124  2A0A               	incf	___xxtofl@exp^(0+1280),f,c
  2394   003126  90D8               	bcf	status,0,c
  2395   003128  320E               	rrcf	(___xxtofl@arg+3)^(0+1280),f,c
  2396   00312A  320D               	rrcf	(___xxtofl@arg+2)^(0+1280),f,c
  2397   00312C  320C               	rrcf	(___xxtofl@arg+1)^(0+1280),f,c
  2398   00312E  320B               	rrcf	___xxtofl@arg^(0+1280),f,c
  2399   003130                     l2341:
  2400   003130  0E00               	movlw	0
  2401   003132  140B               	andwf	___xxtofl@arg^(0+1280),w,c
  2402   003134  6E05               	movwf	??___xxtofl^(0+1280),c
  2403   003136  0E00               	movlw	0
  2404   003138  140C               	andwf	(___xxtofl@arg+1)^(0+1280),w,c
  2405   00313A  6E06               	movwf	(??___xxtofl+1)^(0+1280),c
  2406   00313C  0E00               	movlw	0
  2407   00313E  140D               	andwf	(___xxtofl@arg+2)^(0+1280),w,c
  2408   003140  6E07               	movwf	(??___xxtofl+2)^(0+1280),c
  2409   003142  0EFE               	movlw	254
  2410   003144  140E               	andwf	(___xxtofl@arg+3)^(0+1280),w,c
  2411   003146  6E08               	movwf	(??___xxtofl+3)^(0+1280),c
  2412   003148  5005               	movf	??___xxtofl^(0+1280),w,c
  2413   00314A  1006               	iorwf	(??___xxtofl+1)^(0+1280),w,c
  2414   00314C  1007               	iorwf	(??___xxtofl+2)^(0+1280),w,c
  2415   00314E  1008               	iorwf	(??___xxtofl+3)^(0+1280),w,c
  2416   003150  A4D8               	btfss	status,2,c
  2417   003152  EFAD  F018         	goto	u1171
  2418   003156  EFAF  F018         	goto	u1170
  2419   00315A                     u1171:
  2420   00315A  EF92  F018         	goto	l2339
  2421   00315E                     u1170:
  2422   00315E  EFBD  F018         	goto	l930
  2423   003162                     l2343:
  2424   003162  2A0A               	incf	___xxtofl@exp^(0+1280),f,c
  2425   003164  0E01               	movlw	1
  2426   003166  260B               	addwf	___xxtofl@arg^(0+1280),f,c
  2427   003168  0E00               	movlw	0
  2428   00316A  220C               	addwfc	(___xxtofl@arg+1)^(0+1280),f,c
  2429   00316C  220D               	addwfc	(___xxtofl@arg+2)^(0+1280),f,c
  2430   00316E  220E               	addwfc	(___xxtofl@arg+3)^(0+1280),f,c
  2431   003170  90D8               	bcf	status,0,c
  2432   003172  320E               	rrcf	(___xxtofl@arg+3)^(0+1280),f,c
  2433   003174  320D               	rrcf	(___xxtofl@arg+2)^(0+1280),f,c
  2434   003176  320C               	rrcf	(___xxtofl@arg+1)^(0+1280),f,c
  2435   003178  320B               	rrcf	___xxtofl@arg^(0+1280),f,c
  2436   00317A                     l930:
  2437   00317A  0E00               	movlw	0
  2438   00317C  140B               	andwf	___xxtofl@arg^(0+1280),w,c
  2439   00317E  6E05               	movwf	??___xxtofl^(0+1280),c
  2440   003180  0E00               	movlw	0
  2441   003182  140C               	andwf	(___xxtofl@arg+1)^(0+1280),w,c
  2442   003184  6E06               	movwf	(??___xxtofl+1)^(0+1280),c
  2443   003186  0E00               	movlw	0
  2444   003188  140D               	andwf	(___xxtofl@arg+2)^(0+1280),w,c
  2445   00318A  6E07               	movwf	(??___xxtofl+2)^(0+1280),c
  2446   00318C  0EFF               	movlw	255
  2447   00318E  140E               	andwf	(___xxtofl@arg+3)^(0+1280),w,c
  2448   003190  6E08               	movwf	(??___xxtofl+3)^(0+1280),c
  2449   003192  5005               	movf	??___xxtofl^(0+1280),w,c
  2450   003194  1006               	iorwf	(??___xxtofl+1)^(0+1280),w,c
  2451   003196  1007               	iorwf	(??___xxtofl+2)^(0+1280),w,c
  2452   003198  1008               	iorwf	(??___xxtofl+3)^(0+1280),w,c
  2453   00319A  A4D8               	btfss	status,2,c
  2454   00319C  EFD2  F018         	goto	u1181
  2455   0031A0  EFD4  F018         	goto	u1180
  2456   0031A4                     u1181:
  2457   0031A4  EFB1  F018         	goto	l2343
  2458   0031A8                     u1180:
  2459   0031A8  EFDC  F018         	goto	l2351
  2460   0031AC                     l2349:
  2461   0031AC  060A               	decf	___xxtofl@exp^(0+1280),f,c
  2462   0031AE  90D8               	bcf	status,0,c
  2463   0031B0  360B               	rlcf	___xxtofl@arg^(0+1280),f,c
  2464   0031B2  360C               	rlcf	(___xxtofl@arg+1)^(0+1280),f,c
  2465   0031B4  360D               	rlcf	(___xxtofl@arg+2)^(0+1280),f,c
  2466   0031B6  360E               	rlcf	(___xxtofl@arg+3)^(0+1280),f,c
  2467   0031B8                     l2351:
  2468   0031B8  BE0D               	btfsc	(___xxtofl@arg+2)^(0+1280),7,c
  2469   0031BA  EFE1  F018         	goto	u1191
  2470   0031BE  EFE3  F018         	goto	u1190
  2471   0031C2                     u1191:
  2472   0031C2  EFEB  F018         	goto	l937
  2473   0031C6                     u1190:
  2474   0031C6  0E02               	movlw	2
  2475   0031C8  600A               	cpfslt	___xxtofl@exp^(0+1280),c
  2476   0031CA  EFE9  F018         	goto	u1201
  2477   0031CE  EFEB  F018         	goto	u1200
  2478   0031D2                     u1201:
  2479   0031D2  EFD6  F018         	goto	l2349
  2480   0031D6                     u1200:
  2481   0031D6                     l937:
  2482   0031D6  B00A               	btfsc	___xxtofl@exp^(0+1280),0,c
  2483   0031D8  EFF0  F018         	goto	u1211
  2484   0031DC  EFF2  F018         	goto	u1210
  2485   0031E0                     u1211:
  2486   0031E0  EFF3  F018         	goto	l2357
  2487   0031E4                     u1210:
  2488   0031E4  9E0D               	bcf	(___xxtofl@arg+2)^(0+1280),7,c
  2489   0031E6                     l2357:
  2490   0031E6  90D8               	bcf	status,0,c
  2491   0031E8  320A               	rrcf	___xxtofl@exp^(0+1280),f,c
  2492   0031EA  C50A  F505         	movff	___xxtofl@exp,??___xxtofl
  2493   0031EE  6A06               	clrf	(??___xxtofl+1)^(0+1280),c
  2494   0031F0  6A07               	clrf	(??___xxtofl+2)^(0+1280),c
  2495   0031F2  6A08               	clrf	(??___xxtofl+3)^(0+1280),c
  2496   0031F4  C505  F508         	movff	??___xxtofl,??___xxtofl+3
  2497   0031F8  6A07               	clrf	(??___xxtofl+2)^(0+1280),c
  2498   0031FA  6A06               	clrf	(??___xxtofl+1)^(0+1280),c
  2499   0031FC  6A05               	clrf	??___xxtofl^(0+1280),c
  2500   0031FE  5005               	movf	??___xxtofl^(0+1280),w,c
  2501   003200  120B               	iorwf	___xxtofl@arg^(0+1280),f,c
  2502   003202  5006               	movf	(??___xxtofl+1)^(0+1280),w,c
  2503   003204  120C               	iorwf	(___xxtofl@arg+1)^(0+1280),f,c
  2504   003206  5007               	movf	(??___xxtofl+2)^(0+1280),w,c
  2505   003208  120D               	iorwf	(___xxtofl@arg+2)^(0+1280),f,c
  2506   00320A  5008               	movf	(??___xxtofl+3)^(0+1280),w,c
  2507   00320C  120E               	iorwf	(___xxtofl@arg+3)^(0+1280),f,c
  2508   00320E  5009               	movf	___xxtofl@sign^(0+1280),w,c
  2509   003210  B4D8               	btfsc	status,2,c
  2510   003212  EF0D  F019         	goto	u1221
  2511   003216  EF0F  F019         	goto	u1220
  2512   00321A                     u1221:
  2513   00321A  EF17  F019         	goto	l2367
  2514   00321E                     u1220:
  2515   00321E  BE04               	btfsc	(___xxtofl@val+3)^(0+1280),7,c
  2516   003220  EF16  F019         	goto	u1230
  2517   003224  EF14  F019         	goto	u1231
  2518   003228                     u1231:
  2519   003228  EF17  F019         	goto	l2367
  2520   00322C                     u1230:
  2521   00322C  8E0E               	bsf	(___xxtofl@arg+3)^(0+1280),7,c
  2522   00322E                     l2367:
  2523   00322E  C50B  F501         	movff	___xxtofl@arg,?___xxtofl
  2524   003232  C50C  F502         	movff	___xxtofl@arg+1,?___xxtofl+1
  2525   003236  C50D  F503         	movff	___xxtofl@arg+2,?___xxtofl+2
  2526   00323A  C50E  F504         	movff	___xxtofl@arg+3,?___xxtofl+3
  2527   00323E                     l926:
  2528   00323E  0012               	return		;funcret
  2529   003240                     __end_of___xxtofl:
  2530                           	callstack 0
  2531                           
  2532 ;; *************** function ___fltol *****************
  2533 ;; Defined at:
  2534 ;;		line 43 in file "C:\Program Files\Microchip\xc8\v2.46\pic\sources\c99\common\fltol.c"
  2535 ;; Parameters:    Size  Location     Type
  2536 ;;  f1              4    0[COMRAM] unsigned char 
  2537 ;; Auto vars:     Size  Location     Type
  2538 ;;  exp1            1    9[COMRAM] unsigned char 
  2539 ;;  sign1           1    8[COMRAM] unsigned char 
  2540 ;; Return value:  Size  Location     Type
  2541 ;;                  4    0[COMRAM] long 
  2542 ;; Registers used:
  2543 ;;		wreg, status,2, status,0
  2544 ;; Tracked objects:
  2545 ;;		On entry : 0/0
  2546 ;;		On exit  : 0/0
  2547 ;;		Unchanged: 0/0
  2548 ;; Data sizes:     COMRAM   BANK5   BANK6   BANK7   BANK8   BANK9  BANK10  BANK11  BANK12  BANK13  BANK14  BANK15  BANK1
      +6  BANK17  BANK18  BANK19  BANK20  BANK21  BANK22  BANK23  BANK24  BANK25  BANK26  BANK27  BANK28  BANK29  BANK30  BANK3
      +1  BANK32  BANK33  BANK34  BANK35  BANK36
  2549 ;;      Params:         4       0       0       0       0       0       0       0       0       0       0       0       
      +0       0       0       0       0       0       0       0       0       0       0       0       0       0       0       
      +0       0       0       0       0       0
  2550 ;;      Locals:         2       0       0       0       0       0       0       0       0       0       0       0       
      +0       0       0       0       0       0       0       0       0       0       0       0       0       0       0       
      +0       0       0       0       0       0
  2551 ;;      Temps:          4       0       0       0       0       0       0       0       0       0       0       0       
      +0       0       0       0       0       0       0       0       0       0       0       0       0       0       0       
      +0       0       0       0       0       0
  2552 ;;      Totals:        10       0       0       0       0       0       0       0       0       0       0       0       
      +0       0       0       0       0       0       0       0       0       0       0       0       0       0       0       
      +0       0       0       0       0       0
  2553 ;;Total ram usage:       10 bytes
  2554 ;; Hardware stack levels used: 1
  2555 ;; This function calls:
  2556 ;;		Nothing
  2557 ;; This function is called by:
  2558 ;;		_main
  2559 ;; This function uses a non-reentrant model
  2560 ;;
  2561                           
  2562                           	psect	text14
  2563   003362                     __ptext14:
  2564                           	callstack 0
  2565   003362                     ___fltol:
  2566                           	callstack 126
  2567   003362  3403               	rlcf	(___fltol@f1+2)^(0+1280),w,c
  2568   003364  3404               	rlcf	(___fltol@f1+3)^(0+1280),w,c
  2569   003366  6E0A               	movwf	___fltol@exp1^(0+1280),c
  2570   003368  500A               	movf	___fltol@exp1^(0+1280),w,c
  2571   00336A  A4D8               	btfss	status,2,c
  2572   00336C  EFBA  F019         	goto	u1071
  2573   003370  EFBC  F019         	goto	u1070
  2574   003374                     u1071:
  2575   003374  EFC6  F019         	goto	l2287
  2576   003378                     u1070:
  2577   003378                     l2283:
  2578   003378  0E00               	movlw	0
  2579   00337A  6E01               	movwf	?___fltol^(0+1280),c
  2580   00337C  0E00               	movlw	0
  2581   00337E  6E02               	movwf	(?___fltol+1)^(0+1280),c
  2582   003380  0E00               	movlw	0
  2583   003382  6E03               	movwf	(?___fltol+2)^(0+1280),c
  2584   003384  0E00               	movlw	0
  2585   003386  6E04               	movwf	(?___fltol+3)^(0+1280),c
  2586   003388  EF33  F01A         	goto	l565
  2587   00338C                     l2287:
  2588   00338C  C501  F505         	movff	___fltol@f1,??___fltol
  2589   003390  C502  F506         	movff	___fltol@f1+1,??___fltol+1
  2590   003394  C503  F507         	movff	___fltol@f1+2,??___fltol+2
  2591   003398  C504  F508         	movff	___fltol@f1+3,??___fltol+3
  2592   00339C  0E20               	movlw	32
  2593   00339E  EFD6  F019         	goto	u1080
  2594   0033A2                     u1085:
  2595   0033A2  90D8               	bcf	status,0,c
  2596   0033A4  3208               	rrcf	(??___fltol+3)^(0+1280),f,c
  2597   0033A6  3207               	rrcf	(??___fltol+2)^(0+1280),f,c
  2598   0033A8  3206               	rrcf	(??___fltol+1)^(0+1280),f,c
  2599   0033AA  3205               	rrcf	??___fltol^(0+1280),f,c
  2600   0033AC                     u1080:
  2601   0033AC  2EE8               	decfsz	wreg,f,c
  2602   0033AE  EFD1  F019         	goto	u1085
  2603   0033B2  5005               	movf	??___fltol^(0+1280),w,c
  2604   0033B4  6E09               	movwf	___fltol@sign1^(0+1280),c
  2605   0033B6  8E03               	bsf	(___fltol@f1+2)^(0+1280),7,c
  2606   0033B8  0EFF               	movlw	255
  2607   0033BA  1601               	andwf	___fltol@f1^(0+1280),f,c
  2608   0033BC  0EFF               	movlw	255
  2609   0033BE  1602               	andwf	(___fltol@f1+1)^(0+1280),f,c
  2610   0033C0  0EFF               	movlw	255
  2611   0033C2  1603               	andwf	(___fltol@f1+2)^(0+1280),f,c
  2612   0033C4  0E00               	movlw	0
  2613   0033C6  1604               	andwf	(___fltol@f1+3)^(0+1280),f,c
  2614   0033C8  0E96               	movlw	150
  2615   0033CA  5E0A               	subwf	___fltol@exp1^(0+1280),f,c
  2616   0033CC  BE0A               	btfsc	___fltol@exp1^(0+1280),7,c
  2617   0033CE  EFED  F019         	goto	u1090
  2618   0033D2  EFEB  F019         	goto	u1091
  2619   0033D6                     u1091:
  2620   0033D6  EF03  F01A         	goto	l2307
  2621   0033DA                     u1090:
  2622   0033DA  500A               	movf	___fltol@exp1^(0+1280),w,c
  2623   0033DC  0A80               	xorlw	128
  2624   0033DE  0F97               	addlw	151
  2625   0033E0  B0D8               	btfsc	status,0,c
  2626   0033E2  EFF5  F019         	goto	u1101
  2627   0033E6  EFF7  F019         	goto	u1100
  2628   0033EA                     u1101:
  2629   0033EA  EFF9  F019         	goto	l2303
  2630   0033EE                     u1100:
  2631   0033EE  EFBC  F019         	goto	l2283
  2632   0033F2                     l2303:
  2633   0033F2  90D8               	bcf	status,0,c
  2634   0033F4  3204               	rrcf	(___fltol@f1+3)^(0+1280),f,c
  2635   0033F6  3203               	rrcf	(___fltol@f1+2)^(0+1280),f,c
  2636   0033F8  3202               	rrcf	(___fltol@f1+1)^(0+1280),f,c
  2637   0033FA  3201               	rrcf	___fltol@f1^(0+1280),f,c
  2638   0033FC  3E0A               	incfsz	___fltol@exp1^(0+1280),f,c
  2639   0033FE  EFF9  F019         	goto	l2303
  2640   003402  EF1B  F01A         	goto	l2317
  2641   003406                     l2307:
  2642   003406  0E1F               	movlw	31
  2643   003408  640A               	cpfsgt	___fltol@exp1^(0+1280),c
  2644   00340A  EF09  F01A         	goto	u1111
  2645   00340E  EF0B  F01A         	goto	u1110
  2646   003412                     u1111:
  2647   003412  EF13  F01A         	goto	l2315
  2648   003416                     u1110:
  2649   003416  EFBC  F019         	goto	l2283
  2650   00341A                     l2313:
  2651   00341A  90D8               	bcf	status,0,c
  2652   00341C  3601               	rlcf	___fltol@f1^(0+1280),f,c
  2653   00341E  3602               	rlcf	(___fltol@f1+1)^(0+1280),f,c
  2654   003420  3603               	rlcf	(___fltol@f1+2)^(0+1280),f,c
  2655   003422  3604               	rlcf	(___fltol@f1+3)^(0+1280),f,c
  2656   003424  060A               	decf	___fltol@exp1^(0+1280),f,c
  2657   003426                     l2315:
  2658   003426  500A               	movf	___fltol@exp1^(0+1280),w,c
  2659   003428  A4D8               	btfss	status,2,c
  2660   00342A  EF19  F01A         	goto	u1121
  2661   00342E  EF1B  F01A         	goto	u1120
  2662   003432                     u1121:
  2663   003432  EF0D  F01A         	goto	l2313
  2664   003436                     u1120:
  2665   003436                     l2317:
  2666   003436  5009               	movf	___fltol@sign1^(0+1280),w,c
  2667   003438  B4D8               	btfsc	status,2,c
  2668   00343A  EF21  F01A         	goto	u1131
  2669   00343E  EF23  F01A         	goto	u1130
  2670   003442                     u1131:
  2671   003442  EF2B  F01A         	goto	l2321
  2672   003446                     u1130:
  2673   003446  1E04               	comf	(___fltol@f1+3)^(0+1280),f,c
  2674   003448  1E03               	comf	(___fltol@f1+2)^(0+1280),f,c
  2675   00344A  1E02               	comf	(___fltol@f1+1)^(0+1280),f,c
  2676   00344C  6C01               	negf	___fltol@f1^(0+1280),c
  2677   00344E  0E00               	movlw	0
  2678   003450  2202               	addwfc	(___fltol@f1+1)^(0+1280),f,c
  2679   003452  2203               	addwfc	(___fltol@f1+2)^(0+1280),f,c
  2680   003454  2204               	addwfc	(___fltol@f1+3)^(0+1280),f,c
  2681   003456                     l2321:
  2682   003456  C501  F501         	movff	___fltol@f1,?___fltol
  2683   00345A  C502  F502         	movff	___fltol@f1+1,?___fltol+1
  2684   00345E  C503  F503         	movff	___fltol@f1+2,?___fltol+2
  2685   003462  C504  F504         	movff	___fltol@f1+3,?___fltol+3
  2686   003466                     l565:
  2687   003466  0012               	return		;funcret
  2688   003468                     __end_of___fltol:
  2689                           	callstack 0
  2690                           
  2691 ;; *************** function ___flmul *****************
  2692 ;; Defined at:
  2693 ;;		line 8 in file "C:\Program Files\Microchip\xc8\v2.46\pic\sources\c99\common\sprcmul.c"
  2694 ;; Parameters:    Size  Location     Type
  2695 ;;  b               4   14[COMRAM] long 
  2696 ;;  a               4   18[COMRAM] long 
  2697 ;; Auto vars:     Size  Location     Type
  2698 ;;  prod            4   33[COMRAM] struct .
  2699 ;;  grs             4   27[COMRAM] unsigned long 
  2700 ;;  temp            2   37[COMRAM] struct .
  2701 ;;  bexp            1   32[COMRAM] unsigned char 
  2702 ;;  aexp            1   31[COMRAM] unsigned char 
  2703 ;;  sign            1   26[COMRAM] unsigned char 
  2704 ;; Return value:  Size  Location     Type
  2705 ;;                  4   14[COMRAM] unsigned char 
  2706 ;; Registers used:
  2707 ;;		wreg, status,2, status,0, prodl, prodh
  2708 ;; Tracked objects:
  2709 ;;		On entry : 0/0
  2710 ;;		On exit  : 0/0
  2711 ;;		Unchanged: 0/0
  2712 ;; Data sizes:     COMRAM   BANK5   BANK6   BANK7   BANK8   BANK9  BANK10  BANK11  BANK12  BANK13  BANK14  BANK15  BANK1
      +6  BANK17  BANK18  BANK19  BANK20  BANK21  BANK22  BANK23  BANK24  BANK25  BANK26  BANK27  BANK28  BANK29  BANK30  BANK3
      +1  BANK32  BANK33  BANK34  BANK35  BANK36
  2713 ;;      Params:         8       0       0       0       0       0       0       0       0       0       0       0       
      +0       0       0       0       0       0       0       0       0       0       0       0       0       0       0       
      +0       0       0       0       0       0
  2714 ;;      Locals:        13       0       0       0       0       0       0       0       0       0       0       0       
      +0       0       0       0       0       0       0       0       0       0       0       0       0       0       0       
      +0       0       0       0       0       0
  2715 ;;      Temps:          4       0       0       0       0       0       0       0       0       0       0       0       
      +0       0       0       0       0       0       0       0       0       0       0       0       0       0       0       
      +0       0       0       0       0       0
  2716 ;;      Totals:        25       0       0       0       0       0       0       0       0       0       0       0       
      +0       0       0       0       0       0       0       0       0       0       0       0       0       0       0       
      +0       0       0       0       0       0
  2717 ;;Total ram usage:       25 bytes
  2718 ;; Hardware stack levels used: 1
  2719 ;; This function calls:
  2720 ;;		Nothing
  2721 ;; This function is called by:
  2722 ;;		_main
  2723 ;; This function uses a non-reentrant model
  2724 ;;
  2725                           
  2726                           	psect	text15
  2727   00253E                     __ptext15:
  2728                           	callstack 0
  2729   00253E                     ___flmul:
  2730                           	callstack 126
  2731   00253E  5012               	movf	(___flmul@b+3)^(0+1280),w,c
  2732   002540  0B80               	andlw	128
  2733   002542  6E1B               	movwf	___flmul@sign^(0+1280),c
  2734   002544  5012               	movf	(___flmul@b+3)^(0+1280),w,c
  2735   002546  2412               	addwf	(___flmul@b+3)^(0+1280),w,c
  2736   002548  6E21               	movwf	___flmul@bexp^(0+1280),c
  2737   00254A  AE11               	btfss	(___flmul@b+2)^(0+1280),7,c
  2738   00254C  EFAA  F012         	goto	u881
  2739   002550  EFAC  F012         	goto	u880
  2740   002554                     u881:
  2741   002554  EFAD  F012         	goto	l2157
  2742   002558                     u880:
  2743   002558  8021               	bsf	___flmul@bexp^(0+1280),0,c
  2744   00255A                     l2157:
  2745   00255A  5021               	movf	___flmul@bexp^(0+1280),w,c
  2746   00255C  B4D8               	btfsc	status,2,c
  2747   00255E  EFB3  F012         	goto	u891
  2748   002562  EFB5  F012         	goto	u890
  2749   002566                     u891:
  2750   002566  EFC8  F012         	goto	l2165
  2751   00256A                     u890:
  2752   00256A  2821               	incf	___flmul@bexp^(0+1280),w,c
  2753   00256C  A4D8               	btfss	status,2,c
  2754   00256E  EFBB  F012         	goto	u901
  2755   002572  EFBD  F012         	goto	u900
  2756   002576                     u901:
  2757   002576  EFC5  F012         	goto	l2163
  2758   00257A                     u900:
  2759   00257A  0E00               	movlw	0
  2760   00257C  6E0F               	movwf	___flmul@b^(0+1280),c
  2761   00257E  0E00               	movlw	0
  2762   002580  6E10               	movwf	(___flmul@b+1)^(0+1280),c
  2763   002582  0E00               	movlw	0
  2764   002584  6E11               	movwf	(___flmul@b+2)^(0+1280),c
  2765   002586  0E00               	movlw	0
  2766   002588  6E12               	movwf	(___flmul@b+3)^(0+1280),c
  2767   00258A                     l2163:
  2768   00258A  8E11               	bsf	(___flmul@b+2)^(0+1280),7,c
  2769   00258C  EFD0  F012         	goto	l2167
  2770   002590                     l2165:
  2771   002590  0E00               	movlw	0
  2772   002592  6E0F               	movwf	___flmul@b^(0+1280),c
  2773   002594  0E00               	movlw	0
  2774   002596  6E10               	movwf	(___flmul@b+1)^(0+1280),c
  2775   002598  0E00               	movlw	0
  2776   00259A  6E11               	movwf	(___flmul@b+2)^(0+1280),c
  2777   00259C  0E00               	movlw	0
  2778   00259E  6E12               	movwf	(___flmul@b+3)^(0+1280),c
  2779   0025A0                     l2167:
  2780   0025A0  5016               	movf	(___flmul@a+3)^(0+1280),w,c
  2781   0025A2  0B80               	andlw	128
  2782   0025A4  1A1B               	xorwf	___flmul@sign^(0+1280),f,c
  2783   0025A6  5016               	movf	(___flmul@a+3)^(0+1280),w,c
  2784   0025A8  2416               	addwf	(___flmul@a+3)^(0+1280),w,c
  2785   0025AA  6E20               	movwf	___flmul@aexp^(0+1280),c
  2786   0025AC  AE15               	btfss	(___flmul@a+2)^(0+1280),7,c
  2787   0025AE  EFDB  F012         	goto	u911
  2788   0025B2  EFDD  F012         	goto	u910
  2789   0025B6                     u911:
  2790   0025B6  EFDE  F012         	goto	l2175
  2791   0025BA                     u910:
  2792   0025BA  8020               	bsf	___flmul@aexp^(0+1280),0,c
  2793   0025BC                     l2175:
  2794   0025BC  5020               	movf	___flmul@aexp^(0+1280),w,c
  2795   0025BE  B4D8               	btfsc	status,2,c
  2796   0025C0  EFE4  F012         	goto	u921
  2797   0025C4  EFE6  F012         	goto	u920
  2798   0025C8                     u921:
  2799   0025C8  EFF9  F012         	goto	l2183
  2800   0025CC                     u920:
  2801   0025CC  2820               	incf	___flmul@aexp^(0+1280),w,c
  2802   0025CE  A4D8               	btfss	status,2,c
  2803   0025D0  EFEC  F012         	goto	u931
  2804   0025D4  EFEE  F012         	goto	u930
  2805   0025D8                     u931:
  2806   0025D8  EFF6  F012         	goto	l2181
  2807   0025DC                     u930:
  2808   0025DC  0E00               	movlw	0
  2809   0025DE  6E13               	movwf	___flmul@a^(0+1280),c
  2810   0025E0  0E00               	movlw	0
  2811   0025E2  6E14               	movwf	(___flmul@a+1)^(0+1280),c
  2812   0025E4  0E00               	movlw	0
  2813   0025E6  6E15               	movwf	(___flmul@a+2)^(0+1280),c
  2814   0025E8  0E00               	movlw	0
  2815   0025EA  6E16               	movwf	(___flmul@a+3)^(0+1280),c
  2816   0025EC                     l2181:
  2817   0025EC  8E15               	bsf	(___flmul@a+2)^(0+1280),7,c
  2818   0025EE  EF01  F013         	goto	l882
  2819   0025F2                     l2183:
  2820   0025F2  0E00               	movlw	0
  2821   0025F4  6E13               	movwf	___flmul@a^(0+1280),c
  2822   0025F6  0E00               	movlw	0
  2823   0025F8  6E14               	movwf	(___flmul@a+1)^(0+1280),c
  2824   0025FA  0E00               	movlw	0
  2825   0025FC  6E15               	movwf	(___flmul@a+2)^(0+1280),c
  2826   0025FE  0E00               	movlw	0
  2827   002600  6E16               	movwf	(___flmul@a+3)^(0+1280),c
  2828   002602                     l882:
  2829   002602  5020               	movf	___flmul@aexp^(0+1280),w,c
  2830   002604  B4D8               	btfsc	status,2,c
  2831   002606  EF07  F013         	goto	u941
  2832   00260A  EF09  F013         	goto	u940
  2833   00260E                     u941:
  2834   00260E  EF11  F013         	goto	l2187
  2835   002612                     u940:
  2836   002612  5021               	movf	___flmul@bexp^(0+1280),w,c
  2837   002614  A4D8               	btfss	status,2,c
  2838   002616  EF0F  F013         	goto	u951
  2839   00261A  EF11  F013         	goto	u950
  2840   00261E                     u951:
  2841   00261E  EF1B  F013         	goto	l2191
  2842   002622                     u950:
  2843   002622                     l2187:
  2844   002622  0E00               	movlw	0
  2845   002624  6E0F               	movwf	?___flmul^(0+1280),c
  2846   002626  0E00               	movlw	0
  2847   002628  6E10               	movwf	(?___flmul+1)^(0+1280),c
  2848   00262A  0E00               	movlw	0
  2849   00262C  6E11               	movwf	(?___flmul+2)^(0+1280),c
  2850   00262E  0E00               	movlw	0
  2851   002630  6E12               	movwf	(?___flmul+3)^(0+1280),c
  2852   002632  EFB3  F014         	goto	l886
  2853   002636                     l2191:
  2854   002636  5015               	movf	(___flmul@a+2)^(0+1280),w,c
  2855   002638  020F               	mulwf	___flmul@b^(0+1280),c
  2856   00263A  C4F3 F526          	movff	prodl,___flmul@temp
  2857   00263E  C4F4 F527          	movff	prodh,___flmul@temp+1
  2858   002642  5026               	movf	___flmul@temp^(0+1280),w,c
  2859   002644  6E1C               	movwf	___flmul@grs^(0+1280),c
  2860   002646  6A1D               	clrf	(___flmul@grs+1)^(0+1280),c
  2861   002648  6A1E               	clrf	(___flmul@grs+2)^(0+1280),c
  2862   00264A  6A1F               	clrf	(___flmul@grs+3)^(0+1280),c
  2863   00264C  5027               	movf	(___flmul@temp+1)^(0+1280),w,c
  2864   00264E  6E22               	movwf	___flmul@prod^(0+1280),c
  2865   002650  6A23               	clrf	(___flmul@prod+1)^(0+1280),c
  2866   002652  6A24               	clrf	(___flmul@prod+2)^(0+1280),c
  2867   002654  6A25               	clrf	(___flmul@prod+3)^(0+1280),c
  2868   002656  5014               	movf	(___flmul@a+1)^(0+1280),w,c
  2869   002658  0210               	mulwf	(___flmul@b+1)^(0+1280),c
  2870   00265A  C4F3 F526          	movff	prodl,___flmul@temp
  2871   00265E  C4F4 F527          	movff	prodh,___flmul@temp+1
  2872   002662  5026               	movf	___flmul@temp^(0+1280),w,c
  2873   002664  261C               	addwf	___flmul@grs^(0+1280),f,c
  2874   002666  0E00               	movlw	0
  2875   002668  221D               	addwfc	(___flmul@grs+1)^(0+1280),f,c
  2876   00266A  221E               	addwfc	(___flmul@grs+2)^(0+1280),f,c
  2877   00266C  221F               	addwfc	(___flmul@grs+3)^(0+1280),f,c
  2878   00266E  5027               	movf	(___flmul@temp+1)^(0+1280),w,c
  2879   002670  2622               	addwf	___flmul@prod^(0+1280),f,c
  2880   002672  0E00               	movlw	0
  2881   002674  2223               	addwfc	(___flmul@prod+1)^(0+1280),f,c
  2882   002676  2224               	addwfc	(___flmul@prod+2)^(0+1280),f,c
  2883   002678  2225               	addwfc	(___flmul@prod+3)^(0+1280),f,c
  2884   00267A  5013               	movf	___flmul@a^(0+1280),w,c
  2885   00267C  0211               	mulwf	(___flmul@b+2)^(0+1280),c
  2886   00267E  C4F3 F526          	movff	prodl,___flmul@temp
  2887   002682  C4F4 F527          	movff	prodh,___flmul@temp+1
  2888   002686  5026               	movf	___flmul@temp^(0+1280),w,c
  2889   002688  261C               	addwf	___flmul@grs^(0+1280),f,c
  2890   00268A  0E00               	movlw	0
  2891   00268C  221D               	addwfc	(___flmul@grs+1)^(0+1280),f,c
  2892   00268E  221E               	addwfc	(___flmul@grs+2)^(0+1280),f,c
  2893   002690  221F               	addwfc	(___flmul@grs+3)^(0+1280),f,c
  2894   002692  5027               	movf	(___flmul@temp+1)^(0+1280),w,c
  2895   002694  2622               	addwf	___flmul@prod^(0+1280),f,c
  2896   002696  0E00               	movlw	0
  2897   002698  2223               	addwfc	(___flmul@prod+1)^(0+1280),f,c
  2898   00269A  2224               	addwfc	(___flmul@prod+2)^(0+1280),f,c
  2899   00269C  2225               	addwfc	(___flmul@prod+3)^(0+1280),f,c
  2900   00269E  C51E  F51F         	movff	___flmul@grs+2,___flmul@grs+3
  2901   0026A2  C51D  F51E         	movff	___flmul@grs+1,___flmul@grs+2
  2902   0026A6  C51C  F51D         	movff	___flmul@grs,___flmul@grs+1
  2903   0026AA  6A1C               	clrf	___flmul@grs^(0+1280),c
  2904   0026AC  5013               	movf	___flmul@a^(0+1280),w,c
  2905   0026AE  0210               	mulwf	(___flmul@b+1)^(0+1280),c
  2906   0026B0  C4F3 F526          	movff	prodl,___flmul@temp
  2907   0026B4  C4F4 F527          	movff	prodh,___flmul@temp+1
  2908   0026B8  5026               	movf	___flmul@temp^(0+1280),w,c
  2909   0026BA  261C               	addwf	___flmul@grs^(0+1280),f,c
  2910   0026BC  5027               	movf	(___flmul@temp+1)^(0+1280),w,c
  2911   0026BE  221D               	addwfc	(___flmul@grs+1)^(0+1280),f,c
  2912   0026C0  0E00               	movlw	0
  2913   0026C2  221E               	addwfc	(___flmul@grs+2)^(0+1280),f,c
  2914   0026C4  0E00               	movlw	0
  2915   0026C6  221F               	addwfc	(___flmul@grs+3)^(0+1280),f,c
  2916   0026C8  5014               	movf	(___flmul@a+1)^(0+1280),w,c
  2917   0026CA  020F               	mulwf	___flmul@b^(0+1280),c
  2918   0026CC  C4F3 F526          	movff	prodl,___flmul@temp
  2919   0026D0  C4F4 F527          	movff	prodh,___flmul@temp+1
  2920   0026D4  5026               	movf	___flmul@temp^(0+1280),w,c
  2921   0026D6  261C               	addwf	___flmul@grs^(0+1280),f,c
  2922   0026D8  5027               	movf	(___flmul@temp+1)^(0+1280),w,c
  2923   0026DA  221D               	addwfc	(___flmul@grs+1)^(0+1280),f,c
  2924   0026DC  0E00               	movlw	0
  2925   0026DE  221E               	addwfc	(___flmul@grs+2)^(0+1280),f,c
  2926   0026E0  0E00               	movlw	0
  2927   0026E2  221F               	addwfc	(___flmul@grs+3)^(0+1280),f,c
  2928   0026E4  C51E  F51F         	movff	___flmul@grs+2,___flmul@grs+3
  2929   0026E8  C51D  F51E         	movff	___flmul@grs+1,___flmul@grs+2
  2930   0026EC  C51C  F51D         	movff	___flmul@grs,___flmul@grs+1
  2931   0026F0  6A1C               	clrf	___flmul@grs^(0+1280),c
  2932   0026F2  5013               	movf	___flmul@a^(0+1280),w,c
  2933   0026F4  020F               	mulwf	___flmul@b^(0+1280),c
  2934   0026F6  C4F3 F526          	movff	prodl,___flmul@temp
  2935   0026FA  C4F4 F527          	movff	prodh,___flmul@temp+1
  2936   0026FE  5026               	movf	___flmul@temp^(0+1280),w,c
  2937   002700  261C               	addwf	___flmul@grs^(0+1280),f,c
  2938   002702  5027               	movf	(___flmul@temp+1)^(0+1280),w,c
  2939   002704  221D               	addwfc	(___flmul@grs+1)^(0+1280),f,c
  2940   002706  0E00               	movlw	0
  2941   002708  221E               	addwfc	(___flmul@grs+2)^(0+1280),f,c
  2942   00270A  0E00               	movlw	0
  2943   00270C  221F               	addwfc	(___flmul@grs+3)^(0+1280),f,c
  2944   00270E  5015               	movf	(___flmul@a+2)^(0+1280),w,c
  2945   002710  0210               	mulwf	(___flmul@b+1)^(0+1280),c
  2946   002712  C4F3 F526          	movff	prodl,___flmul@temp
  2947   002716  C4F4 F527          	movff	prodh,___flmul@temp+1
  2948   00271A  5026               	movf	___flmul@temp^(0+1280),w,c
  2949   00271C  2622               	addwf	___flmul@prod^(0+1280),f,c
  2950   00271E  5027               	movf	(___flmul@temp+1)^(0+1280),w,c
  2951   002720  2223               	addwfc	(___flmul@prod+1)^(0+1280),f,c
  2952   002722  0E00               	movlw	0
  2953   002724  2224               	addwfc	(___flmul@prod+2)^(0+1280),f,c
  2954   002726  0E00               	movlw	0
  2955   002728  2225               	addwfc	(___flmul@prod+3)^(0+1280),f,c
  2956   00272A  5014               	movf	(___flmul@a+1)^(0+1280),w,c
  2957   00272C  0211               	mulwf	(___flmul@b+2)^(0+1280),c
  2958   00272E  C4F3 F526          	movff	prodl,___flmul@temp
  2959   002732  C4F4 F527          	movff	prodh,___flmul@temp+1
  2960   002736  5026               	movf	___flmul@temp^(0+1280),w,c
  2961   002738  2622               	addwf	___flmul@prod^(0+1280),f,c
  2962   00273A  5027               	movf	(___flmul@temp+1)^(0+1280),w,c
  2963   00273C  2223               	addwfc	(___flmul@prod+1)^(0+1280),f,c
  2964   00273E  0E00               	movlw	0
  2965   002740  2224               	addwfc	(___flmul@prod+2)^(0+1280),f,c
  2966   002742  0E00               	movlw	0
  2967   002744  2225               	addwfc	(___flmul@prod+3)^(0+1280),f,c
  2968   002746  5015               	movf	(___flmul@a+2)^(0+1280),w,c
  2969   002748  0211               	mulwf	(___flmul@b+2)^(0+1280),c
  2970   00274A  C4F3 F526          	movff	prodl,___flmul@temp
  2971   00274E  C4F4 F527          	movff	prodh,___flmul@temp+1
  2972   002752  5026               	movf	___flmul@temp^(0+1280),w,c
  2973   002754  6E17               	movwf	??___flmul^(0+1280),c
  2974   002756  5027               	movf	(___flmul@temp+1)^(0+1280),w,c
  2975   002758  6E18               	movwf	(??___flmul+1)^(0+1280),c
  2976   00275A  6A19               	clrf	(??___flmul+2)^(0+1280),c
  2977   00275C  6A1A               	clrf	(??___flmul+3)^(0+1280),c
  2978   00275E  C519  F51A         	movff	??___flmul+2,??___flmul+3
  2979   002762  C518  F519         	movff	??___flmul+1,??___flmul+2
  2980   002766  C517  F518         	movff	??___flmul,??___flmul+1
  2981   00276A  6A17               	clrf	??___flmul^(0+1280),c
  2982   00276C  5017               	movf	??___flmul^(0+1280),w,c
  2983   00276E  2622               	addwf	___flmul@prod^(0+1280),f,c
  2984   002770  5018               	movf	(??___flmul+1)^(0+1280),w,c
  2985   002772  2223               	addwfc	(___flmul@prod+1)^(0+1280),f,c
  2986   002774  5019               	movf	(??___flmul+2)^(0+1280),w,c
  2987   002776  2224               	addwfc	(___flmul@prod+2)^(0+1280),f,c
  2988   002778  501A               	movf	(??___flmul+3)^(0+1280),w,c
  2989   00277A  2225               	addwfc	(___flmul@prod+3)^(0+1280),f,c
  2990   00277C  C51C  F517         	movff	___flmul@grs,??___flmul
  2991   002780  C51D  F518         	movff	___flmul@grs+1,??___flmul+1
  2992   002784  C51E  F519         	movff	___flmul@grs+2,??___flmul+2
  2993   002788  C51F  F51A         	movff	___flmul@grs+3,??___flmul+3
  2994   00278C  0E19               	movlw	25
  2995   00278E  EFCE  F013         	goto	u960
  2996   002792                     u965:
  2997   002792  90D8               	bcf	status,0,c
  2998   002794  321A               	rrcf	(??___flmul+3)^(0+1280),f,c
  2999   002796  3219               	rrcf	(??___flmul+2)^(0+1280),f,c
  3000   002798  3218               	rrcf	(??___flmul+1)^(0+1280),f,c
  3001   00279A  3217               	rrcf	??___flmul^(0+1280),f,c
  3002   00279C                     u960:
  3003   00279C  2EE8               	decfsz	wreg,f,c
  3004   00279E  EFC9  F013         	goto	u965
  3005   0027A2  5017               	movf	??___flmul^(0+1280),w,c
  3006   0027A4  2622               	addwf	___flmul@prod^(0+1280),f,c
  3007   0027A6  5018               	movf	(??___flmul+1)^(0+1280),w,c
  3008   0027A8  2223               	addwfc	(___flmul@prod+1)^(0+1280),f,c
  3009   0027AA  5019               	movf	(??___flmul+2)^(0+1280),w,c
  3010   0027AC  2224               	addwfc	(___flmul@prod+2)^(0+1280),f,c
  3011   0027AE  501A               	movf	(??___flmul+3)^(0+1280),w,c
  3012   0027B0  2225               	addwfc	(___flmul@prod+3)^(0+1280),f,c
  3013   0027B2  C51E  F51F         	movff	___flmul@grs+2,___flmul@grs+3
  3014   0027B6  C51D  F51E         	movff	___flmul@grs+1,___flmul@grs+2
  3015   0027BA  C51C  F51D         	movff	___flmul@grs,___flmul@grs+1
  3016   0027BE  6A1C               	clrf	___flmul@grs^(0+1280),c
  3017   0027C0  5020               	movf	___flmul@aexp^(0+1280),w,c
  3018   0027C2  C521  F517         	movff	___flmul@bexp,??___flmul
  3019   0027C6  6A18               	clrf	(??___flmul+1)^(0+1280),c
  3020   0027C8  2617               	addwf	??___flmul^(0+1280),f,c
  3021   0027CA  0E00               	movlw	0
  3022   0027CC  2218               	addwfc	(??___flmul+1)^(0+1280),f,c
  3023   0027CE  0E82               	movlw	130
  3024   0027D0  2417               	addwf	??___flmul^(0+1280),w,c
  3025   0027D2  6E26               	movwf	___flmul@temp^(0+1280),c
  3026   0027D4  0EFF               	movlw	255
  3027   0027D6  2018               	addwfc	(??___flmul+1)^(0+1280),w,c
  3028   0027D8  6E27               	movwf	(___flmul@temp+1)^(0+1280),c
  3029   0027DA  EF04  F014         	goto	l2239
  3030   0027DE                     l2233:
  3031   0027DE  90D8               	bcf	status,0,c
  3032   0027E0  3622               	rlcf	___flmul@prod^(0+1280),f,c
  3033   0027E2  3623               	rlcf	(___flmul@prod+1)^(0+1280),f,c
  3034   0027E4  3624               	rlcf	(___flmul@prod+2)^(0+1280),f,c
  3035   0027E6  3625               	rlcf	(___flmul@prod+3)^(0+1280),f,c
  3036   0027E8  AE1F               	btfss	(___flmul@grs+3)^(0+1280),7,c
  3037   0027EA  EFF9  F013         	goto	u971
  3038   0027EE  EFFB  F013         	goto	u970
  3039   0027F2                     u971:
  3040   0027F2  EFFC  F013         	goto	l889
  3041   0027F6                     u970:
  3042   0027F6  8022               	bsf	___flmul@prod^(0+1280),0,c
  3043   0027F8                     l889:
  3044   0027F8  90D8               	bcf	status,0,c
  3045   0027FA  361C               	rlcf	___flmul@grs^(0+1280),f,c
  3046   0027FC  361D               	rlcf	(___flmul@grs+1)^(0+1280),f,c
  3047   0027FE  361E               	rlcf	(___flmul@grs+2)^(0+1280),f,c
  3048   002800  361F               	rlcf	(___flmul@grs+3)^(0+1280),f,c
  3049   002802  0626               	decf	___flmul@temp^(0+1280),f,c
  3050   002804  A0D8               	btfss	status,0,c
  3051   002806  0627               	decf	(___flmul@temp+1)^(0+1280),f,c
  3052   002808                     l2239:
  3053   002808  AE24               	btfss	(___flmul@prod+2)^(0+1280),7,c
  3054   00280A  EF09  F014         	goto	u981
  3055   00280E  EF0B  F014         	goto	u980
  3056   002812                     u981:
  3057   002812  EFEF  F013         	goto	l2233
  3058   002816                     u980:
  3059   002816  0E00               	movlw	0
  3060   002818  6E20               	movwf	___flmul@aexp^(0+1280),c
  3061   00281A  AE1F               	btfss	(___flmul@grs+3)^(0+1280),7,c
  3062   00281C  EF12  F014         	goto	u991
  3063   002820  EF14  F014         	goto	u990
  3064   002824                     u991:
  3065   002824  EF38  F014         	goto	l891
  3066   002828                     u990:
  3067   002828  0EFF               	movlw	255
  3068   00282A  141C               	andwf	___flmul@grs^(0+1280),w,c
  3069   00282C  6E17               	movwf	??___flmul^(0+1280),c
  3070   00282E  0EFF               	movlw	255
  3071   002830  141D               	andwf	(___flmul@grs+1)^(0+1280),w,c
  3072   002832  6E18               	movwf	(??___flmul+1)^(0+1280),c
  3073   002834  0EFF               	movlw	255
  3074   002836  141E               	andwf	(___flmul@grs+2)^(0+1280),w,c
  3075   002838  6E19               	movwf	(??___flmul+2)^(0+1280),c
  3076   00283A  0E7F               	movlw	127
  3077   00283C  141F               	andwf	(___flmul@grs+3)^(0+1280),w,c
  3078   00283E  6E1A               	movwf	(??___flmul+3)^(0+1280),c
  3079   002840  5017               	movf	??___flmul^(0+1280),w,c
  3080   002842  1018               	iorwf	(??___flmul+1)^(0+1280),w,c
  3081   002844  1019               	iorwf	(??___flmul+2)^(0+1280),w,c
  3082   002846  101A               	iorwf	(??___flmul+3)^(0+1280),w,c
  3083   002848  B4D8               	btfsc	status,2,c
  3084   00284A  EF29  F014         	goto	u1001
  3085   00284E  EF2B  F014         	goto	u1000
  3086   002852                     u1001:
  3087   002852  EF2F  F014         	goto	l892
  3088   002856                     u1000:
  3089   002856                     l2247:
  3090   002856  0E01               	movlw	1
  3091   002858  6E20               	movwf	___flmul@aexp^(0+1280),c
  3092   00285A  EF38  F014         	goto	l891
  3093   00285E                     l892:
  3094   00285E  A022               	btfss	___flmul@prod^(0+1280),0,c
  3095   002860  EF34  F014         	goto	u1011
  3096   002864  EF36  F014         	goto	u1010
  3097   002868                     u1011:
  3098   002868  EF38  F014         	goto	l891
  3099   00286C                     u1010:
  3100   00286C  EF2B  F014         	goto	l2247
  3101   002870                     l891:
  3102   002870  5020               	movf	___flmul@aexp^(0+1280),w,c
  3103   002872  B4D8               	btfsc	status,2,c
  3104   002874  EF3E  F014         	goto	u1021
  3105   002878  EF40  F014         	goto	u1020
  3106   00287C                     u1021:
  3107   00287C  EF64  F014         	goto	l2259
  3108   002880                     u1020:
  3109   002880  0E01               	movlw	1
  3110   002882  2622               	addwf	___flmul@prod^(0+1280),f,c
  3111   002884  0E00               	movlw	0
  3112   002886  2223               	addwfc	(___flmul@prod+1)^(0+1280),f,c
  3113   002888  2224               	addwfc	(___flmul@prod+2)^(0+1280),f,c
  3114   00288A  2225               	addwfc	(___flmul@prod+3)^(0+1280),f,c
  3115   00288C  A025               	btfss	(___flmul@prod+3)^(0+1280),0,c
  3116   00288E  EF4B  F014         	goto	u1031
  3117   002892  EF4D  F014         	goto	u1030
  3118   002896                     u1031:
  3119   002896  EF64  F014         	goto	l2259
  3120   00289A                     u1030:
  3121   00289A  C522  F517         	movff	___flmul@prod,??___flmul
  3122   00289E  C523  F518         	movff	___flmul@prod+1,??___flmul+1
  3123   0028A2  C524  F519         	movff	___flmul@prod+2,??___flmul+2
  3124   0028A6  C525  F51A         	movff	___flmul@prod+3,??___flmul+3
  3125   0028AA  341A               	rlcf	(??___flmul+3)^(0+1280),w,c
  3126   0028AC  321A               	rrcf	(??___flmul+3)^(0+1280),f,c
  3127   0028AE  3219               	rrcf	(??___flmul+2)^(0+1280),f,c
  3128   0028B0  3218               	rrcf	(??___flmul+1)^(0+1280),f,c
  3129   0028B2  3217               	rrcf	??___flmul^(0+1280),f,c
  3130   0028B4  C517  F522         	movff	??___flmul,___flmul@prod
  3131   0028B8  C518  F523         	movff	??___flmul+1,___flmul@prod+1
  3132   0028BC  C519  F524         	movff	??___flmul+2,___flmul@prod+2
  3133   0028C0  C51A  F525         	movff	??___flmul+3,___flmul@prod+3
  3134   0028C4  4A26               	infsnz	___flmul@temp^(0+1280),f,c
  3135   0028C6  2A27               	incf	(___flmul@temp+1)^(0+1280),f,c
  3136   0028C8                     l2259:
  3137   0028C8  BE27               	btfsc	(___flmul@temp+1)^(0+1280),7,c
  3138   0028CA  EF6F  F014         	goto	u1041
  3139   0028CE  5027               	movf	(___flmul@temp+1)^(0+1280),w,c
  3140   0028D0  E108               	bnz	u1040
  3141   0028D2  2826               	incf	___flmul@temp^(0+1280),w,c
  3142   0028D4  A0D8               	btfss	status,0,c
  3143   0028D6  EF6F  F014         	goto	u1041
  3144   0028DA  EF71  F014         	goto	u1040
  3145   0028DE                     u1041:
  3146   0028DE  EF7B  F014         	goto	l2263
  3147   0028E2                     u1040:
  3148   0028E2  0E00               	movlw	0
  3149   0028E4  6E22               	movwf	___flmul@prod^(0+1280),c
  3150   0028E6  0E00               	movlw	0
  3151   0028E8  6E23               	movwf	(___flmul@prod+1)^(0+1280),c
  3152   0028EA  0E80               	movlw	128
  3153   0028EC  6E24               	movwf	(___flmul@prod+2)^(0+1280),c
  3154   0028EE  0E7F               	movlw	127
  3155   0028F0  6E25               	movwf	(___flmul@prod+3)^(0+1280),c
  3156   0028F2  EFA9  F014         	goto	l2275
  3157   0028F6                     l2263:
  3158   0028F6  BE27               	btfsc	(___flmul@temp+1)^(0+1280),7,c
  3159   0028F8  EF88  F014         	goto	u1050
  3160   0028FC  5027               	movf	(___flmul@temp+1)^(0+1280),w,c
  3161   0028FE  E106               	bnz	u1051
  3162   002900  0426               	decf	___flmul@temp^(0+1280),w,c
  3163   002902  B0D8               	btfsc	status,0,c
  3164   002904  EF86  F014         	goto	u1051
  3165   002908  EF88  F014         	goto	u1050
  3166   00290C                     u1051:
  3167   00290C  EF94  F014         	goto	l899
  3168   002910                     u1050:
  3169   002910  0E00               	movlw	0
  3170   002912  6E22               	movwf	___flmul@prod^(0+1280),c
  3171   002914  0E00               	movlw	0
  3172   002916  6E23               	movwf	(___flmul@prod+1)^(0+1280),c
  3173   002918  0E00               	movlw	0
  3174   00291A  6E24               	movwf	(___flmul@prod+2)^(0+1280),c
  3175   00291C  0E00               	movlw	0
  3176   00291E  6E25               	movwf	(___flmul@prod+3)^(0+1280),c
  3177   002920  0E00               	movlw	0
  3178   002922  6E1B               	movwf	___flmul@sign^(0+1280),c
  3179   002924  EFA9  F014         	goto	l2275
  3180   002928                     l899:
  3181   002928  C526  F521         	movff	___flmul@temp,___flmul@bexp
  3182   00292C  0EFF               	movlw	255
  3183   00292E  1622               	andwf	___flmul@prod^(0+1280),f,c
  3184   002930  0EFF               	movlw	255
  3185   002932  1623               	andwf	(___flmul@prod+1)^(0+1280),f,c
  3186   002934  0E7F               	movlw	127
  3187   002936  1624               	andwf	(___flmul@prod+2)^(0+1280),f,c
  3188   002938  0E00               	movlw	0
  3189   00293A  1625               	andwf	(___flmul@prod+3)^(0+1280),f,c
  3190   00293C  A021               	btfss	___flmul@bexp^(0+1280),0,c
  3191   00293E  EFA3  F014         	goto	u1061
  3192   002942  EFA5  F014         	goto	u1060
  3193   002946                     u1061:
  3194   002946  EFA6  F014         	goto	l2273
  3195   00294A                     u1060:
  3196   00294A  8E24               	bsf	(___flmul@prod+2)^(0+1280),7,c
  3197   00294C                     l2273:
  3198   00294C  90D8               	bcf	status,0,c
  3199   00294E  3021               	rrcf	___flmul@bexp^(0+1280),w,c
  3200   002950  6E25               	movwf	(___flmul@prod+3)^(0+1280),c
  3201   002952                     l2275:
  3202   002952  501B               	movf	___flmul@sign^(0+1280),w,c
  3203   002954  1225               	iorwf	(___flmul@prod+3)^(0+1280),f,c
  3204   002956  C522  F50F         	movff	___flmul@prod,?___flmul
  3205   00295A  C523  F510         	movff	___flmul@prod+1,?___flmul+1
  3206   00295E  C524  F511         	movff	___flmul@prod+2,?___flmul+2
  3207   002962  C525  F512         	movff	___flmul@prod+3,?___flmul+3
  3208   002966                     l886:
  3209   002966  0012               	return		;funcret
  3210   002968                     __end_of___flmul:
  3211                           	callstack 0
  3212                           
  3213 ;; *************** function _I2C_LCD_ESCRIBE_VAR_INT *****************
  3214 ;; Defined at:
  3215 ;;		line 333 in file "I2C_LCD.c"
  3216 ;; Parameters:    Size  Location     Type
  3217 ;;  numero          2   12[COMRAM] unsigned int 
  3218 ;;  n_digitos       1   14[COMRAM] unsigned char 
  3219 ;;  punto           1   15[COMRAM] unsigned char 
  3220 ;; Auto vars:     Size  Location     Type
  3221 ;;  unidad          1   20[COMRAM] unsigned char 
  3222 ;;  decena          1   19[COMRAM] unsigned char 
  3223 ;;  centena         1   18[COMRAM] unsigned char 
  3224 ;;  millar          1   17[COMRAM] unsigned char 
  3225 ;;  d_millar        1   16[COMRAM] unsigned char 
  3226 ;; Return value:  Size  Location     Type
  3227 ;;                  1    wreg      void 
  3228 ;; Registers used:
  3229 ;;		wreg, status,2, status,0, cstack
  3230 ;; Tracked objects:
  3231 ;;		On entry : 0/0
  3232 ;;		On exit  : 0/0
  3233 ;;		Unchanged: 0/0
  3234 ;; Data sizes:     COMRAM   BANK5   BANK6   BANK7   BANK8   BANK9  BANK10  BANK11  BANK12  BANK13  BANK14  BANK15  BANK1
      +6  BANK17  BANK18  BANK19  BANK20  BANK21  BANK22  BANK23  BANK24  BANK25  BANK26  BANK27  BANK28  BANK29  BANK30  BANK3
      +1  BANK32  BANK33  BANK34  BANK35  BANK36
  3235 ;;      Params:         4       0       0       0       0       0       0       0       0       0       0       0       
      +0       0       0       0       0       0       0       0       0       0       0       0       0       0       0       
      +0       0       0       0       0       0
  3236 ;;      Locals:         5       0       0       0       0       0       0       0       0       0       0       0       
      +0       0       0       0       0       0       0       0       0       0       0       0       0       0       0       
      +0       0       0       0       0       0
  3237 ;;      Temps:          0       0       0       0       0       0       0       0       0       0       0       0       
      +0       0       0       0       0       0       0       0       0       0       0       0       0       0       0       
      +0       0       0       0       0       0
  3238 ;;      Totals:         9       0       0       0       0       0       0       0       0       0       0       0       
      +0       0       0       0       0       0       0       0       0       0       0       0       0       0       0       
      +0       0       0       0       0       0
  3239 ;;Total ram usage:        9 bytes
  3240 ;; Hardware stack levels used: 1
  3241 ;; Hardware stack levels required when called: 2
  3242 ;; This function calls:
  3243 ;;		_I2C_ENVIA_LCD_DATA
  3244 ;;		___lwdiv
  3245 ;;		___lwmod
  3246 ;; This function is called by:
  3247 ;;		_main
  3248 ;; This function uses a non-reentrant model
  3249 ;;
  3250                           
  3251                           	psect	text16
  3252   002968                     __ptext16:
  3253                           	callstack 0
  3254   002968                     _I2C_LCD_ESCRIBE_VAR_INT:
  3255                           	callstack 124
  3256   002968                     
  3257                           ;I2C_LCD.c: 334:     unsigned char d_millar, millar, centena, decena, unidad;;I2C_LCD.c:
      +                           335:     d_millar = numero / 10000;
  3258   002968  C50D  F506         	movff	I2C_LCD_ESCRIBE_VAR_INT@numero,___lwdiv@dividend
  3259   00296C  C50E  F507         	movff	I2C_LCD_ESCRIBE_VAR_INT@numero+1,___lwdiv@dividend+1
  3260   002970  0E27               	movlw	39
  3261   002972  6E09               	movwf	(___lwdiv@divisor+1)^(0+1280),c
  3262   002974  0E10               	movlw	16
  3263   002976  6E08               	movwf	___lwdiv@divisor^(0+1280),c
  3264   002978  ECC6  F01A         	call	___lwdiv	;wreg free
  3265   00297C  5006               	movf	?___lwdiv^(0+1280),w,c
  3266   00297E  6E11               	movwf	I2C_LCD_ESCRIBE_VAR_INT@d_millar^(0+1280),c
  3267                           
  3268                           ;I2C_LCD.c: 336:     millar = (numero % 10000) / 1000;
  3269   002980  0E27               	movlw	39
  3270   002982  6E04               	movwf	(___lwmod@divisor+1)^(0+1280),c
  3271   002984  0E10               	movlw	16
  3272   002986  6E03               	movwf	___lwmod@divisor^(0+1280),c
  3273   002988  C50D  F501         	movff	I2C_LCD_ESCRIBE_VAR_INT@numero,___lwmod@dividend
  3274   00298C  C50E  F502         	movff	I2C_LCD_ESCRIBE_VAR_INT@numero+1,___lwmod@dividend+1
  3275   002990  EC6A  F01B         	call	___lwmod	;wreg free
  3276   002994  C501  F506         	movff	?___lwmod,___lwdiv@dividend
  3277   002998  C502  F507         	movff	?___lwmod+1,___lwdiv@dividend+1
  3278   00299C  0E03               	movlw	3
  3279   00299E  6E09               	movwf	(___lwdiv@divisor+1)^(0+1280),c
  3280   0029A0  0EE8               	movlw	232
  3281   0029A2  6E08               	movwf	___lwdiv@divisor^(0+1280),c
  3282   0029A4  ECC6  F01A         	call	___lwdiv	;wreg free
  3283   0029A8  5006               	movf	?___lwdiv^(0+1280),w,c
  3284   0029AA  6E12               	movwf	I2C_LCD_ESCRIBE_VAR_INT@millar^(0+1280),c
  3285                           
  3286                           ;I2C_LCD.c: 337:     centena = (numero % 1000) / 100;
  3287   0029AC  0E03               	movlw	3
  3288   0029AE  6E04               	movwf	(___lwmod@divisor+1)^(0+1280),c
  3289   0029B0  0EE8               	movlw	232
  3290   0029B2  6E03               	movwf	___lwmod@divisor^(0+1280),c
  3291   0029B4  C50D  F501         	movff	I2C_LCD_ESCRIBE_VAR_INT@numero,___lwmod@dividend
  3292   0029B8  C50E  F502         	movff	I2C_LCD_ESCRIBE_VAR_INT@numero+1,___lwmod@dividend+1
  3293   0029BC  EC6A  F01B         	call	___lwmod	;wreg free
  3294   0029C0  C501  F506         	movff	?___lwmod,___lwdiv@dividend
  3295   0029C4  C502  F507         	movff	?___lwmod+1,___lwdiv@dividend+1
  3296   0029C8  0E00               	movlw	0
  3297   0029CA  6E09               	movwf	(___lwdiv@divisor+1)^(0+1280),c
  3298   0029CC  0E64               	movlw	100
  3299   0029CE  6E08               	movwf	___lwdiv@divisor^(0+1280),c
  3300   0029D0  ECC6  F01A         	call	___lwdiv	;wreg free
  3301   0029D4  5006               	movf	?___lwdiv^(0+1280),w,c
  3302   0029D6  6E13               	movwf	I2C_LCD_ESCRIBE_VAR_INT@centena^(0+1280),c
  3303                           
  3304                           ;I2C_LCD.c: 338:     decena = (numero % 100) / 10;
  3305   0029D8  0E00               	movlw	0
  3306   0029DA  6E04               	movwf	(___lwmod@divisor+1)^(0+1280),c
  3307   0029DC  0E64               	movlw	100
  3308   0029DE  6E03               	movwf	___lwmod@divisor^(0+1280),c
  3309   0029E0  C50D  F501         	movff	I2C_LCD_ESCRIBE_VAR_INT@numero,___lwmod@dividend
  3310   0029E4  C50E  F502         	movff	I2C_LCD_ESCRIBE_VAR_INT@numero+1,___lwmod@dividend+1
  3311   0029E8  EC6A  F01B         	call	___lwmod	;wreg free
  3312   0029EC  C501  F506         	movff	?___lwmod,___lwdiv@dividend
  3313   0029F0  C502  F507         	movff	?___lwmod+1,___lwdiv@dividend+1
  3314   0029F4  0E00               	movlw	0
  3315   0029F6  6E09               	movwf	(___lwdiv@divisor+1)^(0+1280),c
  3316   0029F8  0E0A               	movlw	10
  3317   0029FA  6E08               	movwf	___lwdiv@divisor^(0+1280),c
  3318   0029FC  ECC6  F01A         	call	___lwdiv	;wreg free
  3319   002A00  5006               	movf	?___lwdiv^(0+1280),w,c
  3320   002A02  6E14               	movwf	I2C_LCD_ESCRIBE_VAR_INT@decena^(0+1280),c
  3321                           
  3322                           ;I2C_LCD.c: 339:     unidad = numero % 10;
  3323   002A04  C50D  F501         	movff	I2C_LCD_ESCRIBE_VAR_INT@numero,___lwmod@dividend
  3324   002A08  C50E  F502         	movff	I2C_LCD_ESCRIBE_VAR_INT@numero+1,___lwmod@dividend+1
  3325   002A0C  0E00               	movlw	0
  3326   002A0E  6E04               	movwf	(___lwmod@divisor+1)^(0+1280),c
  3327   002A10  0E0A               	movlw	10
  3328   002A12  6E03               	movwf	___lwmod@divisor^(0+1280),c
  3329   002A14  EC6A  F01B         	call	___lwmod	;wreg free
  3330   002A18  5001               	movf	?___lwmod^(0+1280),w,c
  3331   002A1A  6E15               	movwf	I2C_LCD_ESCRIBE_VAR_INT@unidad^(0+1280),c
  3332                           
  3333                           ;I2C_LCD.c: 340:     switch(n_digitos){
  3334   002A1C  EF71  F016         	goto	l2103
  3335   002A20                     l2055:
  3336                           
  3337                           ;I2C_LCD.c: 342:             I2C_ENVIA_LCD_DATA(unidad+0x30);
  3338   002A20  5015               	movf	I2C_LCD_ESCRIBE_VAR_INT@unidad^(0+1280),w,c
  3339   002A22  0F30               	addlw	48
  3340   002A24  EC00  F01B         	call	_I2C_ENVIA_LCD_DATA
  3341                           
  3342                           ;I2C_LCD.c: 343:             break;
  3343   002A28  EF88  F016         	goto	l168
  3344   002A2C                     l2057:
  3345                           
  3346                           ;I2C_LCD.c: 345:             if(punto == 0){
  3347   002A2C  5010               	movf	I2C_LCD_ESCRIBE_VAR_INT@punto^(0+1280),w,c
  3348   002A2E  A4D8               	btfss	status,2,c
  3349   002A30  EF1C  F015         	goto	u851
  3350   002A34  EF1E  F015         	goto	u850
  3351   002A38                     u851:
  3352   002A38  EF28  F015         	goto	l2061
  3353   002A3C                     u850:
  3354   002A3C                     
  3355                           ;I2C_LCD.c: 346:                 I2C_ENVIA_LCD_DATA(decena+0x30);
  3356   002A3C  5014               	movf	I2C_LCD_ESCRIBE_VAR_INT@decena^(0+1280),w,c
  3357   002A3E  0F30               	addlw	48
  3358   002A40  EC00  F01B         	call	_I2C_ENVIA_LCD_DATA
  3359                           
  3360                           ;I2C_LCD.c: 347:                 I2C_ENVIA_LCD_DATA(unidad+0x30);
  3361   002A44  5015               	movf	I2C_LCD_ESCRIBE_VAR_INT@unidad^(0+1280),w,c
  3362   002A46  0F30               	addlw	48
  3363   002A48  EC00  F01B         	call	_I2C_ENVIA_LCD_DATA
  3364                           
  3365                           ;I2C_LCD.c: 348:             }
  3366   002A4C  EF88  F016         	goto	l168
  3367   002A50                     l2061:
  3368   002A50  0410               	decf	I2C_LCD_ESCRIBE_VAR_INT@punto^(0+1280),w,c
  3369   002A52  A4D8               	btfss	status,2,c
  3370   002A54  EF2E  F015         	goto	u861
  3371   002A58  EF30  F015         	goto	u860
  3372   002A5C                     u861:
  3373   002A5C  EF88  F016         	goto	l168
  3374   002A60                     u860:
  3375   002A60                     
  3376                           ;I2C_LCD.c: 350:                 I2C_ENVIA_LCD_DATA(decena+0x30);
  3377   002A60  5014               	movf	I2C_LCD_ESCRIBE_VAR_INT@decena^(0+1280),w,c
  3378   002A62  0F30               	addlw	48
  3379   002A64  EC00  F01B         	call	_I2C_ENVIA_LCD_DATA
  3380                           
  3381                           ;I2C_LCD.c: 351:                 I2C_ENVIA_LCD_DATA('.');
  3382   002A68  0E2E               	movlw	46
  3383   002A6A  EC00  F01B         	call	_I2C_ENVIA_LCD_DATA
  3384                           
  3385                           ;I2C_LCD.c: 352:                 I2C_ENVIA_LCD_DATA(unidad+0x30);
  3386   002A6E  5015               	movf	I2C_LCD_ESCRIBE_VAR_INT@unidad^(0+1280),w,c
  3387   002A70  0F30               	addlw	48
  3388   002A72  EC00  F01B         	call	_I2C_ENVIA_LCD_DATA
  3389   002A76  EF88  F016         	goto	l168
  3390   002A7A                     l2065:
  3391                           
  3392                           ;I2C_LCD.c: 358:                     I2C_ENVIA_LCD_DATA(centena+0x30);
  3393   002A7A  5013               	movf	I2C_LCD_ESCRIBE_VAR_INT@centena^(0+1280),w,c
  3394   002A7C  0F30               	addlw	48
  3395   002A7E  EC00  F01B         	call	_I2C_ENVIA_LCD_DATA
  3396                           
  3397                           ;I2C_LCD.c: 359:                     I2C_ENVIA_LCD_DATA(decena+0x30);
  3398   002A82  5014               	movf	I2C_LCD_ESCRIBE_VAR_INT@decena^(0+1280),w,c
  3399   002A84  0F30               	addlw	48
  3400   002A86  EC00  F01B         	call	_I2C_ENVIA_LCD_DATA
  3401                           
  3402                           ;I2C_LCD.c: 360:                     I2C_ENVIA_LCD_DATA(unidad+0x30);
  3403   002A8A  5015               	movf	I2C_LCD_ESCRIBE_VAR_INT@unidad^(0+1280),w,c
  3404   002A8C  0F30               	addlw	48
  3405   002A8E  EC00  F01B         	call	_I2C_ENVIA_LCD_DATA
  3406                           
  3407                           ;I2C_LCD.c: 361:                     break;
  3408   002A92  EF88  F016         	goto	l168
  3409   002A96                     l2067:
  3410                           
  3411                           ;I2C_LCD.c: 363:                     I2C_ENVIA_LCD_DATA(centena+0x30);
  3412   002A96  5013               	movf	I2C_LCD_ESCRIBE_VAR_INT@centena^(0+1280),w,c
  3413   002A98  0F30               	addlw	48
  3414   002A9A  EC00  F01B         	call	_I2C_ENVIA_LCD_DATA
  3415                           
  3416                           ;I2C_LCD.c: 364:                     I2C_ENVIA_LCD_DATA(decena+0x30);
  3417   002A9E  5014               	movf	I2C_LCD_ESCRIBE_VAR_INT@decena^(0+1280),w,c
  3418   002AA0  0F30               	addlw	48
  3419   002AA2  EC00  F01B         	call	_I2C_ENVIA_LCD_DATA
  3420                           
  3421                           ;I2C_LCD.c: 365:                     I2C_ENVIA_LCD_DATA('.');
  3422   002AA6  0E2E               	movlw	46
  3423   002AA8  EC00  F01B         	call	_I2C_ENVIA_LCD_DATA
  3424                           
  3425                           ;I2C_LCD.c: 366:                     I2C_ENVIA_LCD_DATA(unidad+0x30);
  3426   002AAC  5015               	movf	I2C_LCD_ESCRIBE_VAR_INT@unidad^(0+1280),w,c
  3427   002AAE  0F30               	addlw	48
  3428   002AB0  EC00  F01B         	call	_I2C_ENVIA_LCD_DATA
  3429                           
  3430                           ;I2C_LCD.c: 367:                     break;
  3431   002AB4  EF88  F016         	goto	l168
  3432   002AB8                     l2069:
  3433                           
  3434                           ;I2C_LCD.c: 369:                     I2C_ENVIA_LCD_DATA(centena+0x30);
  3435   002AB8  5013               	movf	I2C_LCD_ESCRIBE_VAR_INT@centena^(0+1280),w,c
  3436   002ABA  0F30               	addlw	48
  3437   002ABC  EC00  F01B         	call	_I2C_ENVIA_LCD_DATA
  3438                           
  3439                           ;I2C_LCD.c: 370:                     I2C_ENVIA_LCD_DATA('.');
  3440   002AC0  0E2E               	movlw	46
  3441   002AC2  EC00  F01B         	call	_I2C_ENVIA_LCD_DATA
  3442                           
  3443                           ;I2C_LCD.c: 371:                     I2C_ENVIA_LCD_DATA(decena+0x30);
  3444   002AC6  5014               	movf	I2C_LCD_ESCRIBE_VAR_INT@decena^(0+1280),w,c
  3445   002AC8  0F30               	addlw	48
  3446   002ACA  EC00  F01B         	call	_I2C_ENVIA_LCD_DATA
  3447                           
  3448                           ;I2C_LCD.c: 372:                     I2C_ENVIA_LCD_DATA(unidad+0x30);
  3449   002ACE  5015               	movf	I2C_LCD_ESCRIBE_VAR_INT@unidad^(0+1280),w,c
  3450   002AD0  0F30               	addlw	48
  3451   002AD2  EC00  F01B         	call	_I2C_ENVIA_LCD_DATA
  3452                           
  3453                           ;I2C_LCD.c: 373:                     break;
  3454   002AD6  EF88  F016         	goto	l168
  3455   002ADA                     l2073:
  3456   002ADA  5010               	movf	I2C_LCD_ESCRIBE_VAR_INT@punto^(0+1280),w,c
  3457                           
  3458                           ; Switch size 1, requested type "simple"
  3459                           ; Number of cases is 3, Range of values is 0 to 2
  3460                           ; switch strategies available:
  3461                           ; Name         Instructions Cycles
  3462                           ; simple_byte           10     6 (average)
  3463                           ;	Chosen strategy is simple_byte
  3464   002ADC  0A00               	xorlw	0	; case 0
  3465   002ADE  B4D8               	btfsc	status,2,c
  3466   002AE0  EF3D  F015         	goto	l2065
  3467   002AE4  0A01               	xorlw	1	; case 1
  3468   002AE6  B4D8               	btfsc	status,2,c
  3469   002AE8  EF4B  F015         	goto	l2067
  3470   002AEC  0A03               	xorlw	3	; case 2
  3471   002AEE  B4D8               	btfsc	status,2,c
  3472   002AF0  EF5C  F015         	goto	l2069
  3473   002AF4  EF88  F016         	goto	l168
  3474   002AF8                     l2075:
  3475                           
  3476                           ;I2C_LCD.c: 379:                     I2C_ENVIA_LCD_DATA(millar+0x30);
  3477   002AF8  5012               	movf	I2C_LCD_ESCRIBE_VAR_INT@millar^(0+1280),w,c
  3478   002AFA  0F30               	addlw	48
  3479   002AFC  EC00  F01B         	call	_I2C_ENVIA_LCD_DATA
  3480                           
  3481                           ;I2C_LCD.c: 380:                     I2C_ENVIA_LCD_DATA(centena+0x30);
  3482   002B00  5013               	movf	I2C_LCD_ESCRIBE_VAR_INT@centena^(0+1280),w,c
  3483   002B02  0F30               	addlw	48
  3484   002B04  EC00  F01B         	call	_I2C_ENVIA_LCD_DATA
  3485                           
  3486                           ;I2C_LCD.c: 381:                     I2C_ENVIA_LCD_DATA(decena+0x30);
  3487   002B08  5014               	movf	I2C_LCD_ESCRIBE_VAR_INT@decena^(0+1280),w,c
  3488   002B0A  0F30               	addlw	48
  3489   002B0C  EC00  F01B         	call	_I2C_ENVIA_LCD_DATA
  3490                           
  3491                           ;I2C_LCD.c: 382:                     I2C_ENVIA_LCD_DATA(unidad+0x30);
  3492   002B10  5015               	movf	I2C_LCD_ESCRIBE_VAR_INT@unidad^(0+1280),w,c
  3493   002B12  0F30               	addlw	48
  3494   002B14  EC00  F01B         	call	_I2C_ENVIA_LCD_DATA
  3495                           
  3496                           ;I2C_LCD.c: 383:                     break;
  3497   002B18  EF88  F016         	goto	l168
  3498   002B1C                     l2077:
  3499                           
  3500                           ;I2C_LCD.c: 385:                     I2C_ENVIA_LCD_DATA(millar+0x30);
  3501   002B1C  5012               	movf	I2C_LCD_ESCRIBE_VAR_INT@millar^(0+1280),w,c
  3502   002B1E  0F30               	addlw	48
  3503   002B20  EC00  F01B         	call	_I2C_ENVIA_LCD_DATA
  3504                           
  3505                           ;I2C_LCD.c: 386:                     I2C_ENVIA_LCD_DATA(centena+0x30);
  3506   002B24  5013               	movf	I2C_LCD_ESCRIBE_VAR_INT@centena^(0+1280),w,c
  3507   002B26  0F30               	addlw	48
  3508   002B28  EC00  F01B         	call	_I2C_ENVIA_LCD_DATA
  3509                           
  3510                           ;I2C_LCD.c: 387:                     I2C_ENVIA_LCD_DATA(decena+0x30);
  3511   002B2C  5014               	movf	I2C_LCD_ESCRIBE_VAR_INT@decena^(0+1280),w,c
  3512   002B2E  0F30               	addlw	48
  3513   002B30  EC00  F01B         	call	_I2C_ENVIA_LCD_DATA
  3514                           
  3515                           ;I2C_LCD.c: 388:                     I2C_ENVIA_LCD_DATA('.');
  3516   002B34  0E2E               	movlw	46
  3517   002B36  EC00  F01B         	call	_I2C_ENVIA_LCD_DATA
  3518                           
  3519                           ;I2C_LCD.c: 389:                     I2C_ENVIA_LCD_DATA(unidad+0x30);
  3520   002B3A  5015               	movf	I2C_LCD_ESCRIBE_VAR_INT@unidad^(0+1280),w,c
  3521   002B3C  0F30               	addlw	48
  3522   002B3E  EC00  F01B         	call	_I2C_ENVIA_LCD_DATA
  3523                           
  3524                           ;I2C_LCD.c: 390:                     break;
  3525   002B42  EF88  F016         	goto	l168
  3526   002B46                     l2079:
  3527                           
  3528                           ;I2C_LCD.c: 392:                     I2C_ENVIA_LCD_DATA(millar+0x30);
  3529   002B46  5012               	movf	I2C_LCD_ESCRIBE_VAR_INT@millar^(0+1280),w,c
  3530   002B48  0F30               	addlw	48
  3531   002B4A  EC00  F01B         	call	_I2C_ENVIA_LCD_DATA
  3532                           
  3533                           ;I2C_LCD.c: 393:                     I2C_ENVIA_LCD_DATA(centena+0x30);
  3534   002B4E  5013               	movf	I2C_LCD_ESCRIBE_VAR_INT@centena^(0+1280),w,c
  3535   002B50  0F30               	addlw	48
  3536   002B52  EC00  F01B         	call	_I2C_ENVIA_LCD_DATA
  3537                           
  3538                           ;I2C_LCD.c: 394:                     I2C_ENVIA_LCD_DATA('.');
  3539   002B56  0E2E               	movlw	46
  3540   002B58  EC00  F01B         	call	_I2C_ENVIA_LCD_DATA
  3541                           
  3542                           ;I2C_LCD.c: 395:                     I2C_ENVIA_LCD_DATA(decena+0x30);
  3543   002B5C  5014               	movf	I2C_LCD_ESCRIBE_VAR_INT@decena^(0+1280),w,c
  3544   002B5E  0F30               	addlw	48
  3545   002B60  EC00  F01B         	call	_I2C_ENVIA_LCD_DATA
  3546                           
  3547                           ;I2C_LCD.c: 396:                     I2C_ENVIA_LCD_DATA(unidad+0x30);
  3548   002B64  5015               	movf	I2C_LCD_ESCRIBE_VAR_INT@unidad^(0+1280),w,c
  3549   002B66  0F30               	addlw	48
  3550   002B68  EC00  F01B         	call	_I2C_ENVIA_LCD_DATA
  3551                           
  3552                           ;I2C_LCD.c: 397:                     break;
  3553   002B6C  EF88  F016         	goto	l168
  3554   002B70                     l2081:
  3555                           
  3556                           ;I2C_LCD.c: 399:                     I2C_ENVIA_LCD_DATA(millar+0x30);
  3557   002B70  5012               	movf	I2C_LCD_ESCRIBE_VAR_INT@millar^(0+1280),w,c
  3558   002B72  0F30               	addlw	48
  3559   002B74  EC00  F01B         	call	_I2C_ENVIA_LCD_DATA
  3560                           
  3561                           ;I2C_LCD.c: 400:                     I2C_ENVIA_LCD_DATA('.');
  3562   002B78  0E2E               	movlw	46
  3563   002B7A  EC00  F01B         	call	_I2C_ENVIA_LCD_DATA
  3564                           
  3565                           ;I2C_LCD.c: 401:                     I2C_ENVIA_LCD_DATA(centena+0x30);
  3566   002B7E  5013               	movf	I2C_LCD_ESCRIBE_VAR_INT@centena^(0+1280),w,c
  3567   002B80  0F30               	addlw	48
  3568   002B82  EC00  F01B         	call	_I2C_ENVIA_LCD_DATA
  3569                           
  3570                           ;I2C_LCD.c: 402:                     I2C_ENVIA_LCD_DATA(decena+0x30);
  3571   002B86  5014               	movf	I2C_LCD_ESCRIBE_VAR_INT@decena^(0+1280),w,c
  3572   002B88  0F30               	addlw	48
  3573   002B8A  EC00  F01B         	call	_I2C_ENVIA_LCD_DATA
  3574                           
  3575                           ;I2C_LCD.c: 403:                     I2C_ENVIA_LCD_DATA(unidad+0x30);
  3576   002B8E  5015               	movf	I2C_LCD_ESCRIBE_VAR_INT@unidad^(0+1280),w,c
  3577   002B90  0F30               	addlw	48
  3578   002B92  EC00  F01B         	call	_I2C_ENVIA_LCD_DATA
  3579                           
  3580                           ;I2C_LCD.c: 404:                     break;
  3581   002B96  EF88  F016         	goto	l168
  3582   002B9A                     l2085:
  3583   002B9A  5010               	movf	I2C_LCD_ESCRIBE_VAR_INT@punto^(0+1280),w,c
  3584                           
  3585                           ; Switch size 1, requested type "simple"
  3586                           ; Number of cases is 4, Range of values is 0 to 3
  3587                           ; switch strategies available:
  3588                           ; Name         Instructions Cycles
  3589                           ; simple_byte           13     7 (average)
  3590                           ;	Chosen strategy is simple_byte
  3591   002B9C  0A00               	xorlw	0	; case 0
  3592   002B9E  B4D8               	btfsc	status,2,c
  3593   002BA0  EF7C  F015         	goto	l2075
  3594   002BA4  0A01               	xorlw	1	; case 1
  3595   002BA6  B4D8               	btfsc	status,2,c
  3596   002BA8  EF8E  F015         	goto	l2077
  3597   002BAC  0A03               	xorlw	3	; case 2
  3598   002BAE  B4D8               	btfsc	status,2,c
  3599   002BB0  EFA3  F015         	goto	l2079
  3600   002BB4  0A01               	xorlw	1	; case 3
  3601   002BB6  B4D8               	btfsc	status,2,c
  3602   002BB8  EFB8  F015         	goto	l2081
  3603   002BBC  EF88  F016         	goto	l168
  3604   002BC0                     l2087:
  3605                           
  3606                           ;I2C_LCD.c: 410:                     I2C_ENVIA_LCD_DATA(d_millar+0x30);
  3607   002BC0  5011               	movf	I2C_LCD_ESCRIBE_VAR_INT@d_millar^(0+1280),w,c
  3608   002BC2  0F30               	addlw	48
  3609   002BC4  EC00  F01B         	call	_I2C_ENVIA_LCD_DATA
  3610                           
  3611                           ;I2C_LCD.c: 411:                     I2C_ENVIA_LCD_DATA(millar+0x30);
  3612   002BC8  5012               	movf	I2C_LCD_ESCRIBE_VAR_INT@millar^(0+1280),w,c
  3613   002BCA  0F30               	addlw	48
  3614   002BCC  EC00  F01B         	call	_I2C_ENVIA_LCD_DATA
  3615                           
  3616                           ;I2C_LCD.c: 412:                     I2C_ENVIA_LCD_DATA(centena+0x30);
  3617   002BD0  5013               	movf	I2C_LCD_ESCRIBE_VAR_INT@centena^(0+1280),w,c
  3618   002BD2  0F30               	addlw	48
  3619   002BD4  EC00  F01B         	call	_I2C_ENVIA_LCD_DATA
  3620                           
  3621                           ;I2C_LCD.c: 413:                     I2C_ENVIA_LCD_DATA(decena+0x30);
  3622   002BD8  5014               	movf	I2C_LCD_ESCRIBE_VAR_INT@decena^(0+1280),w,c
  3623   002BDA  0F30               	addlw	48
  3624   002BDC  EC00  F01B         	call	_I2C_ENVIA_LCD_DATA
  3625                           
  3626                           ;I2C_LCD.c: 414:                     I2C_ENVIA_LCD_DATA(unidad+0x30);
  3627   002BE0  5015               	movf	I2C_LCD_ESCRIBE_VAR_INT@unidad^(0+1280),w,c
  3628   002BE2  0F30               	addlw	48
  3629   002BE4  EC00  F01B         	call	_I2C_ENVIA_LCD_DATA
  3630                           
  3631                           ;I2C_LCD.c: 415:                     break;
  3632   002BE8  EF88  F016         	goto	l168
  3633   002BEC                     l2089:
  3634                           
  3635                           ;I2C_LCD.c: 417:                     I2C_ENVIA_LCD_DATA(d_millar+0x30);
  3636   002BEC  5011               	movf	I2C_LCD_ESCRIBE_VAR_INT@d_millar^(0+1280),w,c
  3637   002BEE  0F30               	addlw	48
  3638   002BF0  EC00  F01B         	call	_I2C_ENVIA_LCD_DATA
  3639                           
  3640                           ;I2C_LCD.c: 418:                     I2C_ENVIA_LCD_DATA(millar+0x30);
  3641   002BF4  5012               	movf	I2C_LCD_ESCRIBE_VAR_INT@millar^(0+1280),w,c
  3642   002BF6  0F30               	addlw	48
  3643   002BF8  EC00  F01B         	call	_I2C_ENVIA_LCD_DATA
  3644                           
  3645                           ;I2C_LCD.c: 419:                     I2C_ENVIA_LCD_DATA(centena+0x30);
  3646   002BFC  5013               	movf	I2C_LCD_ESCRIBE_VAR_INT@centena^(0+1280),w,c
  3647   002BFE  0F30               	addlw	48
  3648   002C00  EC00  F01B         	call	_I2C_ENVIA_LCD_DATA
  3649                           
  3650                           ;I2C_LCD.c: 420:                     I2C_ENVIA_LCD_DATA(decena+0x30);
  3651   002C04  5014               	movf	I2C_LCD_ESCRIBE_VAR_INT@decena^(0+1280),w,c
  3652   002C06  0F30               	addlw	48
  3653   002C08  EC00  F01B         	call	_I2C_ENVIA_LCD_DATA
  3654                           
  3655                           ;I2C_LCD.c: 421:                     I2C_ENVIA_LCD_DATA('.');
  3656   002C0C  0E2E               	movlw	46
  3657   002C0E  EC00  F01B         	call	_I2C_ENVIA_LCD_DATA
  3658                           
  3659                           ;I2C_LCD.c: 422:                     I2C_ENVIA_LCD_DATA(unidad+0x30);
  3660   002C12  5015               	movf	I2C_LCD_ESCRIBE_VAR_INT@unidad^(0+1280),w,c
  3661   002C14  0F30               	addlw	48
  3662   002C16  EC00  F01B         	call	_I2C_ENVIA_LCD_DATA
  3663                           
  3664                           ;I2C_LCD.c: 423:                     break;
  3665   002C1A  EF88  F016         	goto	l168
  3666   002C1E                     l2091:
  3667                           
  3668                           ;I2C_LCD.c: 425:                     I2C_ENVIA_LCD_DATA(d_millar+0x30);
  3669   002C1E  5011               	movf	I2C_LCD_ESCRIBE_VAR_INT@d_millar^(0+1280),w,c
  3670   002C20  0F30               	addlw	48
  3671   002C22  EC00  F01B         	call	_I2C_ENVIA_LCD_DATA
  3672                           
  3673                           ;I2C_LCD.c: 426:                     I2C_ENVIA_LCD_DATA(millar+0x30);
  3674   002C26  5012               	movf	I2C_LCD_ESCRIBE_VAR_INT@millar^(0+1280),w,c
  3675   002C28  0F30               	addlw	48
  3676   002C2A  EC00  F01B         	call	_I2C_ENVIA_LCD_DATA
  3677                           
  3678                           ;I2C_LCD.c: 427:                     I2C_ENVIA_LCD_DATA(centena+0x30);
  3679   002C2E  5013               	movf	I2C_LCD_ESCRIBE_VAR_INT@centena^(0+1280),w,c
  3680   002C30  0F30               	addlw	48
  3681   002C32  EC00  F01B         	call	_I2C_ENVIA_LCD_DATA
  3682                           
  3683                           ;I2C_LCD.c: 428:                     I2C_ENVIA_LCD_DATA('.');
  3684   002C36  0E2E               	movlw	46
  3685   002C38  EC00  F01B         	call	_I2C_ENVIA_LCD_DATA
  3686                           
  3687                           ;I2C_LCD.c: 429:                     I2C_ENVIA_LCD_DATA(decena+0x30);
  3688   002C3C  5014               	movf	I2C_LCD_ESCRIBE_VAR_INT@decena^(0+1280),w,c
  3689   002C3E  0F30               	addlw	48
  3690   002C40  EC00  F01B         	call	_I2C_ENVIA_LCD_DATA
  3691                           
  3692                           ;I2C_LCD.c: 430:                     I2C_ENVIA_LCD_DATA(unidad+0x30);
  3693   002C44  5015               	movf	I2C_LCD_ESCRIBE_VAR_INT@unidad^(0+1280),w,c
  3694   002C46  0F30               	addlw	48
  3695   002C48  EC00  F01B         	call	_I2C_ENVIA_LCD_DATA
  3696                           
  3697                           ;I2C_LCD.c: 431:                     break;
  3698   002C4C  EF88  F016         	goto	l168
  3699   002C50                     l2093:
  3700                           
  3701                           ;I2C_LCD.c: 433:                     I2C_ENVIA_LCD_DATA(d_millar+0x30);
  3702   002C50  5011               	movf	I2C_LCD_ESCRIBE_VAR_INT@d_millar^(0+1280),w,c
  3703   002C52  0F30               	addlw	48
  3704   002C54  EC00  F01B         	call	_I2C_ENVIA_LCD_DATA
  3705                           
  3706                           ;I2C_LCD.c: 434:                     I2C_ENVIA_LCD_DATA(millar+0x30);
  3707   002C58  5012               	movf	I2C_LCD_ESCRIBE_VAR_INT@millar^(0+1280),w,c
  3708   002C5A  0F30               	addlw	48
  3709   002C5C  EC00  F01B         	call	_I2C_ENVIA_LCD_DATA
  3710                           
  3711                           ;I2C_LCD.c: 435:                     I2C_ENVIA_LCD_DATA('.');
  3712   002C60  0E2E               	movlw	46
  3713   002C62  EC00  F01B         	call	_I2C_ENVIA_LCD_DATA
  3714                           
  3715                           ;I2C_LCD.c: 436:                     I2C_ENVIA_LCD_DATA(centena+0x30);
  3716   002C66  5013               	movf	I2C_LCD_ESCRIBE_VAR_INT@centena^(0+1280),w,c
  3717   002C68  0F30               	addlw	48
  3718   002C6A  EC00  F01B         	call	_I2C_ENVIA_LCD_DATA
  3719                           
  3720                           ;I2C_LCD.c: 437:                     I2C_ENVIA_LCD_DATA(decena+0x30);
  3721   002C6E  5014               	movf	I2C_LCD_ESCRIBE_VAR_INT@decena^(0+1280),w,c
  3722   002C70  0F30               	addlw	48
  3723   002C72  EC00  F01B         	call	_I2C_ENVIA_LCD_DATA
  3724                           
  3725                           ;I2C_LCD.c: 438:                     I2C_ENVIA_LCD_DATA(unidad+0x30);
  3726   002C76  5015               	movf	I2C_LCD_ESCRIBE_VAR_INT@unidad^(0+1280),w,c
  3727   002C78  0F30               	addlw	48
  3728   002C7A  EC00  F01B         	call	_I2C_ENVIA_LCD_DATA
  3729                           
  3730                           ;I2C_LCD.c: 439:                     break;
  3731   002C7E  EF88  F016         	goto	l168
  3732   002C82                     l2095:
  3733                           
  3734                           ;I2C_LCD.c: 441:                     I2C_ENVIA_LCD_DATA(d_millar+0x30);
  3735   002C82  5011               	movf	I2C_LCD_ESCRIBE_VAR_INT@d_millar^(0+1280),w,c
  3736   002C84  0F30               	addlw	48
  3737   002C86  EC00  F01B         	call	_I2C_ENVIA_LCD_DATA
  3738                           
  3739                           ;I2C_LCD.c: 442:                     I2C_ENVIA_LCD_DATA('.');
  3740   002C8A  0E2E               	movlw	46
  3741   002C8C  EC00  F01B         	call	_I2C_ENVIA_LCD_DATA
  3742                           
  3743                           ;I2C_LCD.c: 443:                     I2C_ENVIA_LCD_DATA(millar+0x30);
  3744   002C90  5012               	movf	I2C_LCD_ESCRIBE_VAR_INT@millar^(0+1280),w,c
  3745   002C92  0F30               	addlw	48
  3746   002C94  EC00  F01B         	call	_I2C_ENVIA_LCD_DATA
  3747                           
  3748                           ;I2C_LCD.c: 444:                     I2C_ENVIA_LCD_DATA(centena+0x30);
  3749   002C98  5013               	movf	I2C_LCD_ESCRIBE_VAR_INT@centena^(0+1280),w,c
  3750   002C9A  0F30               	addlw	48
  3751   002C9C  EC00  F01B         	call	_I2C_ENVIA_LCD_DATA
  3752                           
  3753                           ;I2C_LCD.c: 445:                     I2C_ENVIA_LCD_DATA(decena+0x30);
  3754   002CA0  5014               	movf	I2C_LCD_ESCRIBE_VAR_INT@decena^(0+1280),w,c
  3755   002CA2  0F30               	addlw	48
  3756   002CA4  EC00  F01B         	call	_I2C_ENVIA_LCD_DATA
  3757                           
  3758                           ;I2C_LCD.c: 446:                     I2C_ENVIA_LCD_DATA(unidad+0x30);
  3759   002CA8  5015               	movf	I2C_LCD_ESCRIBE_VAR_INT@unidad^(0+1280),w,c
  3760   002CAA  0F30               	addlw	48
  3761   002CAC  EC00  F01B         	call	_I2C_ENVIA_LCD_DATA
  3762                           
  3763                           ;I2C_LCD.c: 447:                     break;
  3764   002CB0  EF88  F016         	goto	l168
  3765   002CB4                     l2099:
  3766   002CB4  5010               	movf	I2C_LCD_ESCRIBE_VAR_INT@punto^(0+1280),w,c
  3767                           
  3768                           ; Switch size 1, requested type "simple"
  3769                           ; Number of cases is 5, Range of values is 0 to 4
  3770                           ; switch strategies available:
  3771                           ; Name         Instructions Cycles
  3772                           ; simple_byte           16     9 (average)
  3773                           ;	Chosen strategy is simple_byte
  3774   002CB6  0A00               	xorlw	0	; case 0
  3775   002CB8  B4D8               	btfsc	status,2,c
  3776   002CBA  EFE0  F015         	goto	l2087
  3777   002CBE  0A01               	xorlw	1	; case 1
  3778   002CC0  B4D8               	btfsc	status,2,c
  3779   002CC2  EFF6  F015         	goto	l2089
  3780   002CC6  0A03               	xorlw	3	; case 2
  3781   002CC8  B4D8               	btfsc	status,2,c
  3782   002CCA  EF0F  F016         	goto	l2091
  3783   002CCE  0A01               	xorlw	1	; case 3
  3784   002CD0  B4D8               	btfsc	status,2,c
  3785   002CD2  EF28  F016         	goto	l2093
  3786   002CD6  0A07               	xorlw	7	; case 4
  3787   002CD8  B4D8               	btfsc	status,2,c
  3788   002CDA  EF41  F016         	goto	l2095
  3789   002CDE  EF88  F016         	goto	l168
  3790   002CE2                     l2103:
  3791   002CE2  500F               	movf	I2C_LCD_ESCRIBE_VAR_INT@n_digitos^(0+1280),w,c
  3792                           
  3793                           ; Switch size 1, requested type "simple"
  3794                           ; Number of cases is 5, Range of values is 1 to 5
  3795                           ; switch strategies available:
  3796                           ; Name         Instructions Cycles
  3797                           ; simple_byte           16     9 (average)
  3798                           ;	Chosen strategy is simple_byte
  3799   002CE4  0A01               	xorlw	1	; case 1
  3800   002CE6  B4D8               	btfsc	status,2,c
  3801   002CE8  EF10  F015         	goto	l2055
  3802   002CEC  0A03               	xorlw	3	; case 2
  3803   002CEE  B4D8               	btfsc	status,2,c
  3804   002CF0  EF16  F015         	goto	l2057
  3805   002CF4  0A01               	xorlw	1	; case 3
  3806   002CF6  B4D8               	btfsc	status,2,c
  3807   002CF8  EF6D  F015         	goto	l2073
  3808   002CFC  0A07               	xorlw	7	; case 4
  3809   002CFE  B4D8               	btfsc	status,2,c
  3810   002D00  EFCD  F015         	goto	l2085
  3811   002D04  0A01               	xorlw	1	; case 5
  3812   002D06  B4D8               	btfsc	status,2,c
  3813   002D08  EF5A  F016         	goto	l2099
  3814   002D0C  EF88  F016         	goto	l168
  3815   002D10                     l168:
  3816   002D10  0012               	return		;funcret
  3817   002D12                     __end_of_I2C_LCD_ESCRIBE_VAR_INT:
  3818                           	callstack 0
  3819                           
  3820 ;; *************** function ___lwmod *****************
  3821 ;; Defined at:
  3822 ;;		line 7 in file "C:\Program Files\Microchip\xc8\v2.46\pic\sources\c99\common\lwmod.c"
  3823 ;; Parameters:    Size  Location     Type
  3824 ;;  dividend        2    0[COMRAM] unsigned int 
  3825 ;;  divisor         2    2[COMRAM] unsigned int 
  3826 ;; Auto vars:     Size  Location     Type
  3827 ;;  counter         1    4[COMRAM] unsigned char 
  3828 ;; Return value:  Size  Location     Type
  3829 ;;                  2    0[COMRAM] unsigned int 
  3830 ;; Registers used:
  3831 ;;		wreg, status,2, status,0
  3832 ;; Tracked objects:
  3833 ;;		On entry : 0/0
  3834 ;;		On exit  : 0/0
  3835 ;;		Unchanged: 0/0
  3836 ;; Data sizes:     COMRAM   BANK5   BANK6   BANK7   BANK8   BANK9  BANK10  BANK11  BANK12  BANK13  BANK14  BANK15  BANK1
      +6  BANK17  BANK18  BANK19  BANK20  BANK21  BANK22  BANK23  BANK24  BANK25  BANK26  BANK27  BANK28  BANK29  BANK30  BANK3
      +1  BANK32  BANK33  BANK34  BANK35  BANK36
  3837 ;;      Params:         4       0       0       0       0       0       0       0       0       0       0       0       
      +0       0       0       0       0       0       0       0       0       0       0       0       0       0       0       
      +0       0       0       0       0       0
  3838 ;;      Locals:         1       0       0       0       0       0       0       0       0       0       0       0       
      +0       0       0       0       0       0       0       0       0       0       0       0       0       0       0       
      +0       0       0       0       0       0
  3839 ;;      Temps:          0       0       0       0       0       0       0       0       0       0       0       0       
      +0       0       0       0       0       0       0       0       0       0       0       0       0       0       0       
      +0       0       0       0       0       0
  3840 ;;      Totals:         5       0       0       0       0       0       0       0       0       0       0       0       
      +0       0       0       0       0       0       0       0       0       0       0       0       0       0       0       
      +0       0       0       0       0       0
  3841 ;;Total ram usage:        5 bytes
  3842 ;; Hardware stack levels used: 1
  3843 ;; This function calls:
  3844 ;;		Nothing
  3845 ;; This function is called by:
  3846 ;;		_I2C_LCD_ESCRIBE_VAR_INT
  3847 ;; This function uses a non-reentrant model
  3848 ;;
  3849                           
  3850                           	psect	text17
  3851   0036D4                     __ptext17:
  3852                           	callstack 0
  3853   0036D4                     ___lwmod:
  3854                           	callstack 125
  3855   0036D4  5003               	movf	___lwmod@divisor^(0+1280),w,c
  3856   0036D6  1004               	iorwf	(___lwmod@divisor+1)^(0+1280),w,c
  3857   0036D8  B4D8               	btfsc	status,2,c
  3858   0036DA  EF71  F01B         	goto	u821
  3859   0036DE  EF73  F01B         	goto	u820
  3860   0036E2                     u821:
  3861   0036E2  EF97  F01B         	goto	l769
  3862   0036E6                     u820:
  3863   0036E6  0E01               	movlw	1
  3864   0036E8  6E05               	movwf	___lwmod@counter^(0+1280),c
  3865   0036EA  EF7B  F01B         	goto	l2043
  3866   0036EE                     l2041:
  3867   0036EE  90D8               	bcf	status,0,c
  3868   0036F0  3603               	rlcf	___lwmod@divisor^(0+1280),f,c
  3869   0036F2  3604               	rlcf	(___lwmod@divisor+1)^(0+1280),f,c
  3870   0036F4  2A05               	incf	___lwmod@counter^(0+1280),f,c
  3871   0036F6                     l2043:
  3872   0036F6  AE04               	btfss	(___lwmod@divisor+1)^(0+1280),7,c
  3873   0036F8  EF80  F01B         	goto	u831
  3874   0036FC  EF82  F01B         	goto	u830
  3875   003700                     u831:
  3876   003700  EF77  F01B         	goto	l2041
  3877   003704                     u830:
  3878   003704                     l2045:
  3879   003704  5003               	movf	___lwmod@divisor^(0+1280),w,c
  3880   003706  5C01               	subwf	___lwmod@dividend^(0+1280),w,c
  3881   003708  5004               	movf	(___lwmod@divisor+1)^(0+1280),w,c
  3882   00370A  5802               	subwfb	(___lwmod@dividend+1)^(0+1280),w,c
  3883   00370C  A0D8               	btfss	status,0,c
  3884   00370E  EF8B  F01B         	goto	u841
  3885   003712  EF8D  F01B         	goto	u840
  3886   003716                     u841:
  3887   003716  EF91  F01B         	goto	l2049
  3888   00371A                     u840:
  3889   00371A  5003               	movf	___lwmod@divisor^(0+1280),w,c
  3890   00371C  5E01               	subwf	___lwmod@dividend^(0+1280),f,c
  3891   00371E  5004               	movf	(___lwmod@divisor+1)^(0+1280),w,c
  3892   003720  5A02               	subwfb	(___lwmod@dividend+1)^(0+1280),f,c
  3893   003722                     l2049:
  3894   003722  90D8               	bcf	status,0,c
  3895   003724  3204               	rrcf	(___lwmod@divisor+1)^(0+1280),f,c
  3896   003726  3203               	rrcf	___lwmod@divisor^(0+1280),f,c
  3897   003728  2E05               	decfsz	___lwmod@counter^(0+1280),f,c
  3898   00372A  EF82  F01B         	goto	l2045
  3899   00372E                     l769:
  3900   00372E  C501  F501         	movff	___lwmod@dividend,?___lwmod
  3901   003732  C502  F502         	movff	___lwmod@dividend+1,?___lwmod+1
  3902   003736  0012               	return		;funcret
  3903   003738                     __end_of___lwmod:
  3904                           	callstack 0
  3905                           
  3906 ;; *************** function ___lwdiv *****************
  3907 ;; Defined at:
  3908 ;;		line 7 in file "C:\Program Files\Microchip\xc8\v2.46\pic\sources\c99\common\lwdiv.c"
  3909 ;; Parameters:    Size  Location     Type
  3910 ;;  dividend        2    5[COMRAM] unsigned int 
  3911 ;;  divisor         2    7[COMRAM] unsigned int 
  3912 ;; Auto vars:     Size  Location     Type
  3913 ;;  quotient        2    9[COMRAM] unsigned int 
  3914 ;;  counter         1   11[COMRAM] unsigned char 
  3915 ;; Return value:  Size  Location     Type
  3916 ;;                  2    5[COMRAM] unsigned int 
  3917 ;; Registers used:
  3918 ;;		wreg, status,2, status,0
  3919 ;; Tracked objects:
  3920 ;;		On entry : 0/0
  3921 ;;		On exit  : 0/0
  3922 ;;		Unchanged: 0/0
  3923 ;; Data sizes:     COMRAM   BANK5   BANK6   BANK7   BANK8   BANK9  BANK10  BANK11  BANK12  BANK13  BANK14  BANK15  BANK1
      +6  BANK17  BANK18  BANK19  BANK20  BANK21  BANK22  BANK23  BANK24  BANK25  BANK26  BANK27  BANK28  BANK29  BANK30  BANK3
      +1  BANK32  BANK33  BANK34  BANK35  BANK36
  3924 ;;      Params:         4       0       0       0       0       0       0       0       0       0       0       0       
      +0       0       0       0       0       0       0       0       0       0       0       0       0       0       0       
      +0       0       0       0       0       0
  3925 ;;      Locals:         3       0       0       0       0       0       0       0       0       0       0       0       
      +0       0       0       0       0       0       0       0       0       0       0       0       0       0       0       
      +0       0       0       0       0       0
  3926 ;;      Temps:          0       0       0       0       0       0       0       0       0       0       0       0       
      +0       0       0       0       0       0       0       0       0       0       0       0       0       0       0       
      +0       0       0       0       0       0
  3927 ;;      Totals:         7       0       0       0       0       0       0       0       0       0       0       0       
      +0       0       0       0       0       0       0       0       0       0       0       0       0       0       0       
      +0       0       0       0       0       0
  3928 ;;Total ram usage:        7 bytes
  3929 ;; Hardware stack levels used: 1
  3930 ;; This function calls:
  3931 ;;		Nothing
  3932 ;; This function is called by:
  3933 ;;		_I2C_LCD_ESCRIBE_VAR_INT
  3934 ;; This function uses a non-reentrant model
  3935 ;;
  3936                           
  3937                           	psect	text18
  3938   00358C                     __ptext18:
  3939                           	callstack 0
  3940   00358C                     ___lwdiv:
  3941                           	callstack 125
  3942   00358C  0E00               	movlw	0
  3943   00358E  6E0B               	movwf	(___lwdiv@quotient+1)^(0+1280),c
  3944   003590  0E00               	movlw	0
  3945   003592  6E0A               	movwf	___lwdiv@quotient^(0+1280),c
  3946   003594  5008               	movf	___lwdiv@divisor^(0+1280),w,c
  3947   003596  1009               	iorwf	(___lwdiv@divisor+1)^(0+1280),w,c
  3948   003598  B4D8               	btfsc	status,2,c
  3949   00359A  EFD1  F01A         	goto	u791
  3950   00359E  EFD3  F01A         	goto	u790
  3951   0035A2                     u791:
  3952   0035A2  EFFB  F01A         	goto	l759
  3953   0035A6                     u790:
  3954   0035A6  0E01               	movlw	1
  3955   0035A8  6E0C               	movwf	___lwdiv@counter^(0+1280),c
  3956   0035AA  EFDB  F01A         	goto	l2023
  3957   0035AE                     l2021:
  3958   0035AE  90D8               	bcf	status,0,c
  3959   0035B0  3608               	rlcf	___lwdiv@divisor^(0+1280),f,c
  3960   0035B2  3609               	rlcf	(___lwdiv@divisor+1)^(0+1280),f,c
  3961   0035B4  2A0C               	incf	___lwdiv@counter^(0+1280),f,c
  3962   0035B6                     l2023:
  3963   0035B6  AE09               	btfss	(___lwdiv@divisor+1)^(0+1280),7,c
  3964   0035B8  EFE0  F01A         	goto	u801
  3965   0035BC  EFE2  F01A         	goto	u800
  3966   0035C0                     u801:
  3967   0035C0  EFD7  F01A         	goto	l2021
  3968   0035C4                     u800:
  3969   0035C4                     l2025:
  3970   0035C4  90D8               	bcf	status,0,c
  3971   0035C6  360A               	rlcf	___lwdiv@quotient^(0+1280),f,c
  3972   0035C8  360B               	rlcf	(___lwdiv@quotient+1)^(0+1280),f,c
  3973   0035CA  5008               	movf	___lwdiv@divisor^(0+1280),w,c
  3974   0035CC  5C06               	subwf	___lwdiv@dividend^(0+1280),w,c
  3975   0035CE  5009               	movf	(___lwdiv@divisor+1)^(0+1280),w,c
  3976   0035D0  5807               	subwfb	(___lwdiv@dividend+1)^(0+1280),w,c
  3977   0035D2  A0D8               	btfss	status,0,c
  3978   0035D4  EFEE  F01A         	goto	u811
  3979   0035D8  EFF0  F01A         	goto	u810
  3980   0035DC                     u811:
  3981   0035DC  EFF5  F01A         	goto	l2033
  3982   0035E0                     u810:
  3983   0035E0  5008               	movf	___lwdiv@divisor^(0+1280),w,c
  3984   0035E2  5E06               	subwf	___lwdiv@dividend^(0+1280),f,c
  3985   0035E4  5009               	movf	(___lwdiv@divisor+1)^(0+1280),w,c
  3986   0035E6  5A07               	subwfb	(___lwdiv@dividend+1)^(0+1280),f,c
  3987   0035E8  800A               	bsf	___lwdiv@quotient^(0+1280),0,c
  3988   0035EA                     l2033:
  3989   0035EA  90D8               	bcf	status,0,c
  3990   0035EC  3209               	rrcf	(___lwdiv@divisor+1)^(0+1280),f,c
  3991   0035EE  3208               	rrcf	___lwdiv@divisor^(0+1280),f,c
  3992   0035F0  2E0C               	decfsz	___lwdiv@counter^(0+1280),f,c
  3993   0035F2  EFE2  F01A         	goto	l2025
  3994   0035F6                     l759:
  3995   0035F6  C50A  F506         	movff	___lwdiv@quotient,?___lwdiv
  3996   0035FA  C50B  F507         	movff	___lwdiv@quotient+1,?___lwdiv+1
  3997   0035FE  0012               	return		;funcret
  3998   003600                     __end_of___lwdiv:
  3999                           	callstack 0
  4000                           
  4001 ;; *************** function _I2C_ENVIA_LCD_DATA *****************
  4002 ;; Defined at:
  4003 ;;		line 137 in file "I2C_LCD.c"
  4004 ;; Parameters:    Size  Location     Type
  4005 ;;  data            1    wreg     unsigned char 
  4006 ;; Auto vars:     Size  Location     Type
  4007 ;;  data            1    3[COMRAM] unsigned char 
  4008 ;;  lownibble       1    5[COMRAM] unsigned char 
  4009 ;;  highnibble      1    4[COMRAM] unsigned char 
  4010 ;; Return value:  Size  Location     Type
  4011 ;;                  1    wreg      void 
  4012 ;; Registers used:
  4013 ;;		wreg, status,2, status,0, cstack
  4014 ;; Tracked objects:
  4015 ;;		On entry : 0/0
  4016 ;;		On exit  : 0/0
  4017 ;;		Unchanged: 0/0
  4018 ;; Data sizes:     COMRAM   BANK5   BANK6   BANK7   BANK8   BANK9  BANK10  BANK11  BANK12  BANK13  BANK14  BANK15  BANK1
      +6  BANK17  BANK18  BANK19  BANK20  BANK21  BANK22  BANK23  BANK24  BANK25  BANK26  BANK27  BANK28  BANK29  BANK30  BANK3
      +1  BANK32  BANK33  BANK34  BANK35  BANK36
  4019 ;;      Params:         0       0       0       0       0       0       0       0       0       0       0       0       
      +0       0       0       0       0       0       0       0       0       0       0       0       0       0       0       
      +0       0       0       0       0       0
  4020 ;;      Locals:         3       0       0       0       0       0       0       0       0       0       0       0       
      +0       0       0       0       0       0       0       0       0       0       0       0       0       0       0       
      +0       0       0       0       0       0
  4021 ;;      Temps:          1       0       0       0       0       0       0       0       0       0       0       0       
      +0       0       0       0       0       0       0       0       0       0       0       0       0       0       0       
      +0       0       0       0       0       0
  4022 ;;      Totals:         4       0       0       0       0       0       0       0       0       0       0       0       
      +0       0       0       0       0       0       0       0       0       0       0       0       0       0       0       
      +0       0       0       0       0       0
  4023 ;;Total ram usage:        4 bytes
  4024 ;; Hardware stack levels used: 1
  4025 ;; Hardware stack levels required when called: 1
  4026 ;; This function calls:
  4027 ;;		_I2C1_WRITESINGLEBYTE
  4028 ;; This function is called by:
  4029 ;;		_I2C_ESCRIBE_MENSAJE2
  4030 ;;		_I2C_LCD_ESCRIBE_VAR_INT
  4031 ;;		_main
  4032 ;;		_I2C_ESCRIBE_MENSAJE
  4033 ;;		_I2C_GENERACARACTER
  4034 ;;		_I2C_LCD_ESCRIBE_VAR_CHAR
  4035 ;;		_I2C_LCD_CHAR_GRADO
  4036 ;;		_I2C_LCD_VARCHAR_BITS
  4037 ;;		_I2C_LCD_VARCHAR_HEX
  4038 ;; This function uses a non-reentrant model
  4039 ;;
  4040                           
  4041                           	psect	text19
  4042   003600                     __ptext19:
  4043                           	callstack 0
  4044   003600                     _I2C_ENVIA_LCD_DATA:
  4045                           	callstack 123
  4046                           
  4047                           ;incstack = 0
  4048                           ;I2C_ENVIA_LCD_DATA@data stored from wreg
  4049   003600  6E04               	movwf	I2C_ENVIA_LCD_DATA@data^(0+1280),c
  4050   003602                     
  4051                           ;I2C_LCD.c: 138:     unsigned char highnibble;;I2C_LCD.c: 139:     unsigned char lownibb
      +                          le;;I2C_LCD.c: 141:     highnibble = (data & 0xF0) | 0x08;
  4052   003602  5004               	movf	I2C_ENVIA_LCD_DATA@data^(0+1280),w,c
  4053   003604  0BF0               	andlw	240
  4054   003606  0908               	iorlw	8
  4055   003608  6E05               	movwf	I2C_ENVIA_LCD_DATA@highnibble^(0+1280),c
  4056                           
  4057                           ;I2C_LCD.c: 142:     lownibble = (unsigned char)(((data & 0x0F)<<4)| 0x08);
  4058   00360A  C504  F503         	movff	I2C_ENVIA_LCD_DATA@data,??_I2C_ENVIA_LCD_DATA
  4059   00360E  0E0F               	movlw	15
  4060   003610  1603               	andwf	??_I2C_ENVIA_LCD_DATA^(0+1280),f,c
  4061   003612  3803               	swapf	??_I2C_ENVIA_LCD_DATA^(0+1280),w,c
  4062   003614  0BF0               	andlw	240
  4063   003616  0908               	iorlw	8
  4064   003618  6E06               	movwf	I2C_ENVIA_LCD_DATA@lownibble^(0+1280),c
  4065   00361A                     
  4066                           ;I2C_LCD.c: 144:     I2C1_WRITESINGLEBYTE(I2C_LCD_ADDR,(highnibble | 0x04 | 0x01));
  4067   00361A  5005               	movf	I2C_ENVIA_LCD_DATA@highnibble^(0+1280),w,c
  4068   00361C  0905               	iorlw	5
  4069   00361E  6E01               	movwf	I2C1_WRITESINGLEBYTE@dato^(0+1280),c
  4070   003620  5034               	movf	_I2C_LCD_ADDR^(0+1280),w,c
  4071   003622  ECE3  F01B         	call	_I2C1_WRITESINGLEBYTE
  4072   003626                     
  4073                           ;I2C_LCD.c: 145:     _delay((unsigned long)((20)*(64000000UL/4000000.0)));
  4074   003626  0E6A               	movlw	106
  4075   003628                     u1897:
  4076   003628  2EE8               	decfsz	wreg,f,c
  4077   00362A  D7FE               	bra	u1897
  4078   00362C  D000               	nop2	
  4079   00362E                     
  4080                           ;I2C_LCD.c: 146:     I2C1_WRITESINGLEBYTE(I2C_LCD_ADDR,(highnibble | 0x01));
  4081   00362E  5005               	movf	I2C_ENVIA_LCD_DATA@highnibble^(0+1280),w,c
  4082   003630  0901               	iorlw	1
  4083   003632  6E01               	movwf	I2C1_WRITESINGLEBYTE@dato^(0+1280),c
  4084   003634  5034               	movf	_I2C_LCD_ADDR^(0+1280),w,c
  4085   003636  ECE3  F01B         	call	_I2C1_WRITESINGLEBYTE
  4086   00363A                     
  4087                           ;I2C_LCD.c: 147:     _delay((unsigned long)((20)*(64000000UL/4000000.0)));
  4088   00363A  0E6A               	movlw	106
  4089   00363C                     u1907:
  4090   00363C  2EE8               	decfsz	wreg,f,c
  4091   00363E  D7FE               	bra	u1907
  4092   003640  D000               	nop2	
  4093   003642                     
  4094                           ;I2C_LCD.c: 149:     I2C1_WRITESINGLEBYTE(I2C_LCD_ADDR,(lownibble | 0x04 | 0x01));
  4095   003642  5006               	movf	I2C_ENVIA_LCD_DATA@lownibble^(0+1280),w,c
  4096   003644  0905               	iorlw	5
  4097   003646  6E01               	movwf	I2C1_WRITESINGLEBYTE@dato^(0+1280),c
  4098   003648  5034               	movf	_I2C_LCD_ADDR^(0+1280),w,c
  4099   00364A  ECE3  F01B         	call	_I2C1_WRITESINGLEBYTE
  4100   00364E                     
  4101                           ;I2C_LCD.c: 150:     _delay((unsigned long)((20)*(64000000UL/4000000.0)));
  4102   00364E  0E6A               	movlw	106
  4103   003650                     u1917:
  4104   003650  2EE8               	decfsz	wreg,f,c
  4105   003652  D7FE               	bra	u1917
  4106   003654  D000               	nop2	
  4107   003656                     
  4108                           ;I2C_LCD.c: 151:     I2C1_WRITESINGLEBYTE(I2C_LCD_ADDR,(lownibble | 0x01));
  4109   003656  5006               	movf	I2C_ENVIA_LCD_DATA@lownibble^(0+1280),w,c
  4110   003658  0901               	iorlw	1
  4111   00365A  6E01               	movwf	I2C1_WRITESINGLEBYTE@dato^(0+1280),c
  4112   00365C  5034               	movf	_I2C_LCD_ADDR^(0+1280),w,c
  4113   00365E  ECE3  F01B         	call	_I2C1_WRITESINGLEBYTE
  4114   003662                     
  4115                           ;I2C_LCD.c: 152:     _delay((unsigned long)((20)*(64000000UL/4000000.0)));
  4116   003662  0E6A               	movlw	106
  4117   003664                     u1927:
  4118   003664  2EE8               	decfsz	wreg,f,c
  4119   003666  D7FE               	bra	u1927
  4120   003668  D000               	nop2	
  4121   00366A  0012               	return		;funcret
  4122   00366C                     __end_of_I2C_ENVIA_LCD_DATA:
  4123                           	callstack 0
  4124                           
  4125 ;; *************** function _I2C1_WRITESINGLEBYTE *****************
  4126 ;; Defined at:
  4127 ;;		line 60 in file "I2C_LCD.c"
  4128 ;; Parameters:    Size  Location     Type
  4129 ;;  direccion       1    wreg     unsigned char 
  4130 ;;  dato            1    0[COMRAM] unsigned char 
  4131 ;; Auto vars:     Size  Location     Type
  4132 ;;  direccion       1    1[COMRAM] unsigned char 
  4133 ;; Return value:  Size  Location     Type
  4134 ;;                  1    wreg      void 
  4135 ;; Registers used:
  4136 ;;		wreg, status,2, status,0
  4137 ;; Tracked objects:
  4138 ;;		On entry : 0/0
  4139 ;;		On exit  : 0/0
  4140 ;;		Unchanged: 0/0
  4141 ;; Data sizes:     COMRAM   BANK5   BANK6   BANK7   BANK8   BANK9  BANK10  BANK11  BANK12  BANK13  BANK14  BANK15  BANK1
      +6  BANK17  BANK18  BANK19  BANK20  BANK21  BANK22  BANK23  BANK24  BANK25  BANK26  BANK27  BANK28  BANK29  BANK30  BANK3
      +1  BANK32  BANK33  BANK34  BANK35  BANK36
  4142 ;;      Params:         1       0       0       0       0       0       0       0       0       0       0       0       
      +0       0       0       0       0       0       0       0       0       0       0       0       0       0       0       
      +0       0       0       0       0       0
  4143 ;;      Locals:         1       0       0       0       0       0       0       0       0       0       0       0       
      +0       0       0       0       0       0       0       0       0       0       0       0       0       0       0       
      +0       0       0       0       0       0
  4144 ;;      Temps:          0       0       0       0       0       0       0       0       0       0       0       0       
      +0       0       0       0       0       0       0       0       0       0       0       0       0       0       0       
      +0       0       0       0       0       0
  4145 ;;      Totals:         2       0       0       0       0       0       0       0       0       0       0       0       
      +0       0       0       0       0       0       0       0       0       0       0       0       0       0       0       
      +0       0       0       0       0       0
  4146 ;;Total ram usage:        2 bytes
  4147 ;; Hardware stack levels used: 1
  4148 ;; This function calls:
  4149 ;;		Nothing
  4150 ;; This function is called by:
  4151 ;;		_I2C_ENVIA_LCD_DATA
  4152 ;;		_I2C_ENVIA_LCD_CMD
  4153 ;;		_I2C_LCD_INIT
  4154 ;; This function uses a non-reentrant model
  4155 ;;
  4156                           
  4157                           	psect	text20
  4158   0037C6                     __ptext20:
  4159                           	callstack 0
  4160   0037C6                     _I2C1_WRITESINGLEBYTE:
  4161                           	callstack 123
  4162                           
  4163                           ;incstack = 0
  4164                           ;I2C1_WRITESINGLEBYTE@direccion stored from wreg
  4165   0037C6  6E02               	movwf	I2C1_WRITESINGLEBYTE@direccion^(0+1280),c
  4166   0037C8                     
  4167                           ;I2C_LCD.c: 61:     I2C1CNT = 1;
  4168   0037C8  0E01               	movlw	1
  4169   0037CA  0102               	movlb	2	; () banked
  4170   0037CC  6F8D               	movwf	141,b	;volatile
  4171   0037CE                     
  4172                           ; BSR set to: 2
  4173                           ;I2C_LCD.c: 62:     I2C1ADB1 = (direccion << 1) & 0xFE;
  4174   0037CE  5002               	movf	I2C1_WRITESINGLEBYTE@direccion^(0+1280),w,c
  4175   0037D0  2402               	addwf	I2C1_WRITESINGLEBYTE@direccion^(0+1280),w,c
  4176   0037D2  0BFE               	andlw	254
  4177   0037D4  6F8F               	movwf	143,b	;volatile
  4178   0037D6                     
  4179                           ; BSR set to: 2
  4180                           ;I2C_LCD.c: 63:     I2C1TXB = dato;
  4181   0037D6  C501  F28C         	movff	I2C1_WRITESINGLEBYTE@dato,652	;volatile
  4182   0037DA                     
  4183                           ; BSR set to: 2
  4184                           ;I2C_LCD.c: 64:     I2C1CON0bits.S = 1;
  4185   0037DA  8B94               	bsf	148,5,b	;volatile
  4186   0037DC                     l51:
  4187                           
  4188                           ; BSR set to: 2
  4189   0037DC  AB99               	btfss	153,5,b	;volatile
  4190   0037DE  EFF3  F01B         	goto	u681
  4191   0037E2  EFF5  F01B         	goto	u680
  4192   0037E6                     u681:
  4193   0037E6  EFEE  F01B         	goto	l51
  4194   0037EA                     u680:
  4195   0037EA                     l54:
  4196                           
  4197                           ; BSR set to: 2
  4198   0037EA  BB95               	btfsc	149,5,b	;volatile
  4199   0037EC  EFFA  F01B         	goto	u691
  4200   0037F0  EFFC  F01B         	goto	u690
  4201   0037F4                     u691:
  4202   0037F4  EFF5  F01B         	goto	l54
  4203   0037F8                     u690:
  4204   0037F8                     l57:
  4205                           
  4206                           ; BSR set to: 2
  4207   0037F8  A59A               	btfss	154,2,b	;volatile
  4208   0037FA  EF01  F01C         	goto	u701
  4209   0037FE  EF03  F01C         	goto	u700
  4210   003802                     u701:
  4211   003802  EFFC  F01B         	goto	l57
  4212   003806                     u700:
  4213   003806                     
  4214                           ; BSR set to: 2
  4215   003806  0012               	return		;funcret
  4216   003808                     __end_of_I2C1_WRITESINGLEBYTE:
  4217                           	callstack 0
  4218                           
  4219                           	psect	rparam
  4220   000000                     
  4221                           	psect	config
  4222                           
  4223                           ;Config register CONFIG1 @ 0x300000
  4224                           ;	External Oscillator Selection
  4225                           ;	FEXTOSC = OFF, Oscillator not enabled
  4226                           ;	Reset Oscillator Selection
  4227                           ;	RSTOSC = EXTOSC, EXTOSC operating per FEXTOSC bits (device manufacturing default)
  4228   300000                     	org	3145728
  4229   300000  FC                 	db	252
  4230                           
  4231                           ;Config register CONFIG2 @ 0x300001
  4232                           ;	Clock out Enable bit
  4233                           ;	CLKOUTEN = OFF, CLKOUT function is disabled
  4234                           ;	PRLOCKED One-Way Set Enable bit
  4235                           ;	PR1WAY = ON, PRLOCKED bit can be cleared and set only once
  4236                           ;	Clock Switch Enable bit
  4237                           ;	CSWEN = ON, Writing to NOSC and NDIV is allowed
  4238                           ;	Fail-Safe Clock Monitor Enable bit
  4239                           ;	FCMEN = ON, Fail-Safe Clock Monitor enabled
  4240   300001                     	org	3145729
  4241   300001  FF                 	db	255
  4242                           
  4243                           ;Config register CONFIG3 @ 0x300002
  4244                           ;	MCLR Enable bit
  4245                           ;	MCLRE = EXTMCLR, If LVP = 0, MCLR pin is MCLR; If LVP = 1, RE3 pin function is MCLR
  4246                           ;	Power-up timer selection bits
  4247                           ;	PWRTS = PWRT_64, PWRT set at 64ms
  4248                           ;	Multi-vector enable bit
  4249                           ;	MVECEN = ON, Multi-vector enabled, Vector table used for interrupts
  4250                           ;	IVTLOCK bit One-way set enable bit
  4251                           ;	IVT1WAY = ON, IVTLOCKED bit can be cleared and set only once
  4252                           ;	Low Power BOR Enable bit
  4253                           ;	LPBOREN = OFF, Low-Power BOR disabled
  4254                           ;	Brown-out Reset Enable bits
  4255                           ;	BOREN = OFF, Brown-out Reset disabled
  4256   300002                     	org	3145730
  4257   300002  3D                 	db	61
  4258                           
  4259                           ;Config register CONFIG4 @ 0x300003
  4260                           ;	Brown-out Reset Voltage Selection bits
  4261                           ;	BORV = VBOR_1P9, Brown-out Reset Voltage (VBOR) set to 1.9V
  4262                           ;	ZCD Disable bit
  4263                           ;	ZCD = OFF, ZCD module is disabled. ZCD can be enabled by setting the ZCDSEN bit of ZCD
      +                          CON
  4264                           ;	PPSLOCK bit One-Way Set Enable bit
  4265                           ;	PPS1WAY = ON, PPSLOCKED bit can be cleared and set only once; PPS registers remain loc
      +                          ked after one clear/set cycle
  4266                           ;	Stack Full/Underflow Reset Enable bit
  4267                           ;	STVREN = ON, Stack full/underflow will cause Reset
  4268                           ;	Low Voltage Programming Enable bit
  4269                           ;	LVP = OFF, HV on MCLR/VPP must be used for programming
  4270                           ;	Extended Instruction Set Enable bit
  4271                           ;	XINST = OFF, Extended Instruction Set and Indexed Addressing Mode disabled
  4272   300003                     	org	3145731
  4273   300003  DF                 	db	223
  4274                           
  4275                           ;Config register CONFIG5 @ 0x300004
  4276                           ;	WDT Period selection bits
  4277                           ;	WDTCPS = WDTCPS_31, Divider ratio 1:65536; software control of WDTPS
  4278                           ;	WDT operating mode
  4279                           ;	WDTE = OFF, WDT Disabled; SWDTEN is ignored
  4280   300004                     	org	3145732
  4281   300004  9F                 	db	159
  4282                           
  4283                           ;Config register CONFIG6 @ 0x300005
  4284                           ;	WDT Window Select bits
  4285                           ;	WDTCWS = WDTCWS_7, window always open (100%); software control; keyed access not requi
      +                          red
  4286                           ;	WDT input clock selector
  4287                           ;	WDTCCS = SC, Software Control
  4288   300005                     	org	3145733
  4289   300005  FF                 	db	255
  4290                           
  4291                           ;Config register CONFIG7 @ 0x300006
  4292                           ;	Boot Block Size selection bits
  4293                           ;	BBSIZE = BBSIZE_512, Boot Block size is 512 words
  4294                           ;	Boot Block enable bit
  4295                           ;	BBEN = OFF, Boot block disabled
  4296                           ;	Storage Area Flash enable bit
  4297                           ;	SAFEN = OFF, SAF disabled
  4298                           ;	Background Debugger
  4299                           ;	DEBUG = OFF, Background Debugger disabled
  4300   300006                     	org	3145734
  4301   300006  FF                 	db	255
  4302                           
  4303                           ;Config register CONFIG8 @ 0x300007
  4304                           ;	Boot Block Write Protection bit
  4305                           ;	WRTB = OFF, Boot Block not Write protected
  4306                           ;	Configuration Register Write Protection bit
  4307                           ;	WRTC = OFF, Configuration registers not Write protected
  4308                           ;	Data EEPROM Write Protection bit
  4309                           ;	WRTD = OFF, Data EEPROM not Write protected
  4310                           ;	SAF Write protection bit
  4311                           ;	WRTSAF = OFF, SAF not Write Protected
  4312                           ;	Application Block write protection bit
  4313                           ;	WRTAPP = OFF, Application Block not write protected
  4314   300007                     	org	3145735
  4315   300007  FF                 	db	255
  4316                           
  4317                           ;Config register CONFIG10 @ 0x300009
  4318                           ;	PFM and Data EEPROM Code Protection bit
  4319                           ;	CP = OFF, PFM and Data EEPROM code protection disabled
  4320   300009                     	org	3145737
  4321   300009  FF                 	db	255
  4322                           tosu	equ	0x4FF
  4323                           tosh	equ	0x4FE
  4324                           tosl	equ	0x4FD
  4325                           stkptr	equ	0x4FC
  4326                           pclatu	equ	0x4FB
  4327                           pclath	equ	0x4FA
  4328                           pcl	equ	0x4F9
  4329                           tblptru	equ	0x4F8
  4330                           tblptrh	equ	0x4F7
  4331                           tblptrl	equ	0x4F6
  4332                           tablat	equ	0x4F5
  4333                           prodh	equ	0x4F4
  4334                           prodl	equ	0x4F3
  4335                           indf0	equ	0x4EF
  4336                           postinc0	equ	0x4EE
  4337                           postdec0	equ	0x4ED
  4338                           preinc0	equ	0x4EC
  4339                           plusw0	equ	0x4EB
  4340                           fsr0h	equ	0x4EA
  4341                           fsr0l	equ	0x4E9
  4342                           wreg	equ	0x4E8
  4343                           indf1	equ	0x4E7
  4344                           postinc1	equ	0x4E6
  4345                           postdec1	equ	0x4E5
  4346                           preinc1	equ	0x4E4
  4347                           plusw1	equ	0x4E3
  4348                           fsr1h	equ	0x4E2
  4349                           fsr1l	equ	0x4E1
  4350                           bsr	equ	0x4E0
  4351                           indf2	equ	0x4DF
  4352                           postinc2	equ	0x4DE
  4353                           postdec2	equ	0x4DD
  4354                           preinc2	equ	0x4DC
  4355                           plusw2	equ	0x4DB
  4356                           fsr2h	equ	0x4DA
  4357                           fsr2l	equ	0x4D9
  4358                           status	equ	0x4D8

Data Sizes:
    Strings     60
    Constant    0
    Data        1
    BSS         10
    Persistent  0
    Stack       0

Auto Spaces:
    Space          Size  Autos    Used
    COMRAM           95     41      52
    BANK5           160      0       0
    BANK6           256      0       0
    BANK7           256      0       0
    BANK8           256      0       0
    BANK9           256      0       0
    BANK10          256      0       0
    BANK11          256      0       0
    BANK12          256      0       0
    BANK13          256      0       0
    BANK14          256      0       0
    BANK15          256      0       0
    BANK16          256      0       0
    BANK17          256      0       0
    BANK18          256      0       0
    BANK19          256      0       0
    BANK20          256      0       0
    BANK21          256      0       0
    BANK22          256      0       0
    BANK23          256      0       0
    BANK24          256      0       0
    BANK25          256      0       0
    BANK26          256      0       0
    BANK27          256      0       0
    BANK28          256      0       0
    BANK29          256      0       0
    BANK30          256      0       0
    BANK31          256      0       0
    BANK32          256      0       0
    BANK33          256      0       0
    BANK34          256      0       0
    BANK35          256      0       0
    BANK36          256      0       0

Pointer List with Targets:

    I2C_ESCRIBE_MENSAJE2@cadena	PTR const unsigned char  size(1) Largest target is 16
		 -> STR_1(CODE[16]), STR_2(CODE[10]), STR_3(CODE[12]), STR_4(CODE[8]), 
		 -> STR_5(CODE[7]), STR_6(CODE[7]), 

    strlen@a	PTR const unsigned char  size(1) Largest target is 16
		 -> STR_1(CODE[16]), STR_2(CODE[10]), STR_3(CODE[12]), STR_4(CODE[8]), 
		 -> STR_5(CODE[7]), STR_6(CODE[7]), 

    strlen@s	PTR const unsigned char  size(1) Largest target is 16
		 -> STR_1(CODE[16]), STR_2(CODE[10]), STR_3(CODE[12]), STR_4(CODE[8]), 
		 -> STR_5(CODE[7]), STR_6(CODE[7]), 


Critical Paths under _main in COMRAM

    _main->___flmul
    _pantallazo->_I2C_ESCRIBE_MENSAJE2
    _I2C_POS_CURSOR->_I2C_ENVIA_LCD_CMD
    _I2C_ESCRIBE_MENSAJE2->_I2C_ENVIA_LCD_DATA
    _configuro->_I2C_LCD_INIT
    _I2C_LCD_INIT->_I2C_CURSOR_ONOFF
    _I2C_CURSOR_ONOFF->_I2C_ENVIA_LCD_CMD
    _I2C_CURSOR_HOME->_I2C_ENVIA_LCD_CMD
    _I2C_BORRAR_LCD->_I2C_ENVIA_LCD_CMD
    _I2C_ENVIA_LCD_CMD->_I2C1_WRITESINGLEBYTE
    ___flmul->___xxtofl
    _I2C_LCD_ESCRIBE_VAR_INT->___lwdiv
    ___lwdiv->___lwmod
    _I2C_ENVIA_LCD_DATA->_I2C1_WRITESINGLEBYTE

Critical Paths under _main in BANK5

    None.

Critical Paths under _main in BANK6

    None.

Critical Paths under _main in BANK7

    None.

Critical Paths under _main in BANK8

    None.

Critical Paths under _main in BANK9

    None.

Critical Paths under _main in BANK10

    None.

Critical Paths under _main in BANK11

    None.

Critical Paths under _main in BANK12

    None.

Critical Paths under _main in BANK13

    None.

Critical Paths under _main in BANK14

    None.

Critical Paths under _main in BANK15

    None.

Critical Paths under _main in BANK16

    None.

Critical Paths under _main in BANK17

    None.

Critical Paths under _main in BANK18

    None.

Critical Paths under _main in BANK19

    None.

Critical Paths under _main in BANK20

    None.

Critical Paths under _main in BANK21

    None.

Critical Paths under _main in BANK22

    None.

Critical Paths under _main in BANK23

    None.

Critical Paths under _main in BANK24

    None.

Critical Paths under _main in BANK25

    None.

Critical Paths under _main in BANK26

    None.

Critical Paths under _main in BANK27

    None.

Critical Paths under _main in BANK28

    None.

Critical Paths under _main in BANK29

    None.

Critical Paths under _main in BANK30

    None.

Critical Paths under _main in BANK31

    None.

Critical Paths under _main in BANK32

    None.

Critical Paths under _main in BANK33

    None.

Critical Paths under _main in BANK34

    None.

Critical Paths under _main in BANK35

    None.

Critical Paths under _main in BANK36

    None.

Call Graph Tables:

 ---------------------------------------------------------------------------------
 (Depth) Function   	        Calls       Base Space   Used Autos Params    Refs
 ---------------------------------------------------------------------------------
 (0) _main                                                 2     2      0   53995
                                             39 COMRAM     2     2      0
                 _I2C_ENVIA_LCD_DATA
               _I2C_ESCRIBE_MENSAJE2
            _I2C_LCD_ESCRIBE_VAR_INT
                     _I2C_POS_CURSOR
                            ___flmul
                            ___fltol
                           ___xxtofl
                          _configuro
                           _leer_ADC
                         _pantallazo
 ---------------------------------------------------------------------------------
 (1) _pantallazo                                           2     2      0   13758
                                             10 COMRAM     2     2      0
                     _I2C_BORRAR_LCD
               _I2C_ESCRIBE_MENSAJE2
                     _I2C_POS_CURSOR
 ---------------------------------------------------------------------------------
 (2) _I2C_POS_CURSOR                                       3     2      1    4762
                                              6 COMRAM     3     2      1
                  _I2C_ENVIA_LCD_CMD
 ---------------------------------------------------------------------------------
 (2) _I2C_ESCRIBE_MENSAJE2                                 4     3      1    4866
                                              6 COMRAM     4     3      1
                 _I2C_ENVIA_LCD_DATA
                             _strlen
 ---------------------------------------------------------------------------------
 (3) _strlen                                               3     1      2     166
                                              0 COMRAM     3     1      2
 ---------------------------------------------------------------------------------
 (1) _leer_ADC                                             5     3      2      22
                                              0 COMRAM     5     3      2
 ---------------------------------------------------------------------------------
 (1) _configuro                                            0     0      0   16430
                       _I2C_LCD_INIT
 ---------------------------------------------------------------------------------
 (2) _I2C_LCD_INIT                                         2     2      0   16430
                                              7 COMRAM     2     2      0
                          _I2C1_INIT
               _I2C1_WRITESINGLEBYTE
                     _I2C_BORRAR_LCD
                    _I2C_CURSOR_HOME
                   _I2C_CURSOR_ONOFF
 ---------------------------------------------------------------------------------
 (3) _I2C_CURSOR_ONOFF                                     1     1      0    4174
                                              6 COMRAM     1     1      0
                  _I2C_ENVIA_LCD_CMD
 ---------------------------------------------------------------------------------
 (3) _I2C_CURSOR_HOME                                      0     0      0    4130
                  _I2C_ENVIA_LCD_CMD
 ---------------------------------------------------------------------------------
 (2) _I2C_BORRAR_LCD                                       0     0      0    4130
                  _I2C_ENVIA_LCD_CMD
 ---------------------------------------------------------------------------------
 (3) _I2C_ENVIA_LCD_CMD                                    4     4      0    4130
                                              2 COMRAM     4     4      0
               _I2C1_WRITESINGLEBYTE
 ---------------------------------------------------------------------------------
 (3) _I2C1_INIT                                            0     0      0       0
 ---------------------------------------------------------------------------------
 (1) ___xxtofl                                            14    10      4     398
                                              0 COMRAM    14    10      4
 ---------------------------------------------------------------------------------
 (1) ___fltol                                             10     6      4     305
                                              0 COMRAM    10     6      4
 ---------------------------------------------------------------------------------
 (1) ___flmul                                             25    17      8    1744
                                             14 COMRAM    25    17      8
                           ___xxtofl (ARG)
 ---------------------------------------------------------------------------------
 (1) _I2C_LCD_ESCRIBE_VAR_INT                              9     5      4    7580
                                             12 COMRAM     9     5      4
                 _I2C_ENVIA_LCD_DATA
                            ___lwdiv
                            ___lwmod
 ---------------------------------------------------------------------------------
 (2) ___lwmod                                              5     1      4     767
                                              0 COMRAM     5     1      4
 ---------------------------------------------------------------------------------
 (2) ___lwdiv                                              7     3      4     770
                                              5 COMRAM     7     3      4
                            ___lwmod (ARG)
 ---------------------------------------------------------------------------------
 (3) _I2C_ENVIA_LCD_DATA                                   4     4      0    4130
                                              2 COMRAM     4     4      0
               _I2C1_WRITESINGLEBYTE
 ---------------------------------------------------------------------------------
 (4) _I2C1_WRITESINGLEBYTE                                 2     1      1    3996
                                              0 COMRAM     2     1      1
 ---------------------------------------------------------------------------------
 Estimated maximum stack depth 4
 ---------------------------------------------------------------------------------

 Call Graph Graphs:

 _main (ROOT)
   _I2C_ENVIA_LCD_DATA
     _I2C1_WRITESINGLEBYTE
   _I2C_ESCRIBE_MENSAJE2
     _I2C_ENVIA_LCD_DATA
     _strlen
   _I2C_LCD_ESCRIBE_VAR_INT
     _I2C_ENVIA_LCD_DATA
     ___lwdiv
       ___lwmod (ARG)
     ___lwmod
   _I2C_POS_CURSOR
     _I2C_ENVIA_LCD_CMD
       _I2C1_WRITESINGLEBYTE
   ___flmul
     ___xxtofl (ARG)
   ___fltol
   ___xxtofl
   _configuro
     _I2C_LCD_INIT
       _I2C1_INIT
       _I2C1_WRITESINGLEBYTE
       _I2C_BORRAR_LCD
         _I2C_ENVIA_LCD_CMD
       _I2C_CURSOR_HOME
         _I2C_ENVIA_LCD_CMD
       _I2C_CURSOR_ONOFF
         _I2C_ENVIA_LCD_CMD
   _leer_ADC
   _pantallazo
     _I2C_BORRAR_LCD
     _I2C_ESCRIBE_MENSAJE2
     _I2C_POS_CURSOR

 Address spaces:
Name               Size   Autos  Total    Cost      Usage
BIGRAM            1FFF      0       0      70        0.0%
EEDATA             400      0       0       0        0.0%
BITBIGSFRlllhhh    160      0       0      87        0.0%
BITBIGSFRllhhhh    14D      0       0      80        0.0%
BITBIGSFR_1        100      0       0      69        0.0%
BITBANK36          100      0       0      67        0.0%
BANK36             100      0       0      68        0.0%
BITBANK35          100      0       0      65        0.0%
BANK35             100      0       0      66        0.0%
BITBANK34          100      0       0      63        0.0%
BANK34             100      0       0      64        0.0%
BITBANK33          100      0       0      60        0.0%
BANK33             100      0       0      61        0.0%
BITBANK32          100      0       0      58        0.0%
BANK32             100      0       0      59        0.0%
BITBANK31          100      0       0      56        0.0%
BANK31             100      0       0      57        0.0%
BITBANK30          100      0       0      54        0.0%
BANK30             100      0       0      55        0.0%
BITBANK29          100      0       0      52        0.0%
BANK29             100      0       0      53        0.0%
BITBANK28          100      0       0      50        0.0%
BANK28             100      0       0      51        0.0%
BITBANK27          100      0       0      48        0.0%
BANK27             100      0       0      49        0.0%
BITBANK26          100      0       0      46        0.0%
BANK26             100      0       0      47        0.0%
BITBANK25          100      0       0      44        0.0%
BANK25             100      0       0      45        0.0%
BITBANK24          100      0       0      42        0.0%
BANK24             100      0       0      43        0.0%
BITBANK23          100      0       0      40        0.0%
BANK23             100      0       0      41        0.0%
BITBANK22          100      0       0      38        0.0%
BANK22             100      0       0      39        0.0%
BITBANK21          100      0       0      36        0.0%
BANK21             100      0       0      37        0.0%
BITBANK20          100      0       0      34        0.0%
BANK20             100      0       0      35        0.0%
BITBANK19          100      0       0      32        0.0%
BANK19             100      0       0      33        0.0%
BITBANK18          100      0       0      30        0.0%
BANK18             100      0       0      31        0.0%
BITBANK17          100      0       0      28        0.0%
BANK17             100      0       0      29        0.0%
BITBANK16          100      0       0      26        0.0%
BANK16             100      0       0      27        0.0%
BITBANK15          100      0       0      24        0.0%
BANK15             100      0       0      25        0.0%
BITBANK14          100      0       0      22        0.0%
BANK14             100      0       0      23        0.0%
BITBANK13          100      0       0      20        0.0%
BANK13             100      0       0      21        0.0%
BITBANK12          100      0       0      18        0.0%
BANK12             100      0       0      19        0.0%
BITBANK11          100      0       0      16        0.0%
BANK11             100      0       0      17        0.0%
BITBANK10          100      0       0      14        0.0%
BANK10             100      0       0      15        0.0%
BITBANK9           100      0       0      12        0.0%
BANK9              100      0       0      13        0.0%
BITBANK8           100      0       0      10        0.0%
BANK8              100      0       0      11        0.0%
BITBANK7           100      0       0       8        0.0%
BANK7              100      0       0       9        0.0%
BITBANK6           100      0       0       6        0.0%
BANK6              100      0       0       7        0.0%
BITBIGSFRllll       AD      0       0      90        0.0%
BITBIGSFRlhhl       AC      0       0      74        0.0%
BITBANK5            A0      0       0       4        0.0%
BANK5               A0      0       0       5        0.0%
BITBIGSFRllhl       70      0       0      86        0.0%
BITCOMRAM           5F      0       0       0        0.0%
COMRAM              5F     29      34       1       54.7%
BITBIGSFRhh         30      0       0      71        0.0%
BITBIGSFRllhhhh      C      0       0      78        0.0%
BITBIGSFRllhhhh      7      0       0      77        0.0%
BITBIGSFRllhhhh      7      0       0      76        0.0%
BITBIGSFRlhhh        6      0       0      73        0.0%
BITBIGSFRllhhhh      6      0       0      79        0.0%
BITBIGSFRhl          6      0       0      72        0.0%
BITBIGSFRllhhlh      4      0       0      83        0.0%
BITBIGSFRllhhll      4      0       0      85        0.0%
BITBIGSFRlllhl       3      0       0      89        0.0%
BITBIGSFRllhhhl      2      0       0      82        0.0%
BITBIGSFRlllhhl      1      0       0      88        0.0%
BITBIGSFRllhhhl      1      0       0      81        0.0%
BITBIGSFRllhhlh      1      0       0      84        0.0%
BITBIGSFRlhl         1      0       0      75        0.0%
BIGSFR_1             0      0       0     200        0.0%
BIGSFR               0      0       0     200        0.0%
BITSFR_6             0      0       0     200        0.0%
SFR_6                0      0       0     200        0.0%
BITSFR_5             0      0       0     200        0.0%
SFR_5                0      0       0     200        0.0%
BITSFR_4             0      0       0     200        0.0%
SFR_4                0      0       0     200        0.0%
BITSFR_3             0      0       0     200        0.0%
SFR_3                0      0       0     200        0.0%
BITSFR_2             0      0       0     200        0.0%
SFR_2                0      0       0     200        0.0%
BITSFR_1             0      0       0     200        0.0%
SFR_1                0      0       0     200        0.0%
BITSFR               0      0       0     200        0.0%
SFR                  0      0       0     200        0.0%
STACK                0      0       0       2        0.0%
NULL                 0      0       0       0        0.0%
ABS                  0      0      34      62        0.0%
DATA                 0      0      34       3        0.0%
CODE                 0      0       0       0        0.0%


Microchip Technology PIC18 Macro Assembler V2.46 build 20240104201356 
Symbol Table                                                                                   Mon Nov 04 12:03:00 2024

                              l51 37DC                                l60 3806                                l45 3780  
                              l54 37EA                                l70 358A                                l57 37F8  
                              l66 357A                                l83 38EE                               l100 386E  
                             l112 37C4                               l121 36D2                               l115 366A  
                             l118 38F6                               l129 308A                               l242 38C2  
                             l251 389A                               l245 3500                               l168 2D10  
                             l248 387A                               l257 3254                               l565 3466  
                             l930 317A                               l923 30E2                               l766 35FE  
                             l926 323E                               l759 35F6                               l776 3736  
                             l769 372E                               l937 31D6                               l945 383E  
                             l882 2602                               l891 2870                               l892 285E  
                             l973 3738                               l886 2966                               l975 3746  
                             l889 27F8                               l977 3770                               l899 2928  
                             l979 377E                               u700 3806                               u701 3802  
                             u710 3852                               u711 384E                               u800 35C4  
                             u720 3868                               u801 35C0                               u721 3864  
                             u810 35E0                               u730 3832                               u811 35DC  
                             u731 382E                               u820 36E6                               u900 257A  
                             u740 3514                               u821 36E2                               u901 2576  
                             u741 3510                               u830 3704                               u910 25BA  
                             u750 3532                               u831 3700                               u911 25B6  
                             u751 352E                               u680 37EA                               u840 371A  
                             u920 25CC                               u760 3550                               u681 37E6  
                             u841 3716                               u921 25C8                               u761 354C  
                             u690 37F8                               u850 2A3C                               u930 25DC  
                             u770 356E                               u691 37F4                               u851 2A38  
                             u931 25D8                               u771 356A                               u860 2A60  
                             u940 2612                               u780 37C4                               u861 2A5C  
                             u941 260E                               u781 37C0                               u790 35A6  
                             u950 2622                               u870 3888                               u791 35A2  
                             u951 261E                               u871 3884                               u960 279C  
                             u880 2558                               u881 2554                               u970 27F6  
                             u890 256A                               u971 27F2                               u891 2566  
                             u980 2816                               u981 2812                               u965 2792  
                             u990 2828                               u991 2824                               wreg 04E8  
                    _I2C_LCD_ADDR 0534                      _I2C_LCD_INIT 2D12                      ___flmul@aexp 0520  
                    ___flmul@bexp 0521                      ___flmul@sign 051B                      ___flmul@temp 0526  
                    ___flmul@prod 0522                 _I2C_ENVIA_LCD_CMD 366C                      ___fltol@exp1 050A  
                            l2001 3048                              l2011 3080                              l2003 3052  
                            l2021 35AE                              l2013 3084                              l2005 305A  
                            l2031 35E8                              l2023 35B6                              l2015 358C  
                            l2103 2CE2                              l2007 3064                              l2111 38B0  
                            l2033 35EA                              l2025 35C4                              l2017 3594  
                            l2041 36EE                              l2201 2686                              l2009 307C  
                            l2113 38B2                              l2105 389C                              l2121 3468  
                            l2035 35F0                              l2027 35CA                              l2019 35A6  
                            l2051 3728                              l2043 36F6                              l2211 26C8  
                            l2203 2692                              l2115 38B4                              l2107 38AA  
                            l2131 34BC                              l2123 3480                              l2029 35E0  
                            l2045 3704                              l2037 36D4                              l2061 2A50  
                            l2053 2968                              l2221 272A                              l2213 26D4  
                            l2205 269E                              l2117 38B6                              l2109 38AC  
                            l2141 34E4                              l2133 34C6                              l2125 348A  
                            l2047 371A                              l2039 36E6                              l2063 2A60  
                            l2055 2A20                              l2231 27C0                              l2223 2736  
                            l2215 26E4                              l2207 26AC                              l2151 253E  
                            l2303 33F2                              l2119 38BE                              l2143 3872  
                            l2135 34CA                              l2127 3492                              l2049 3722  
                            l2081 2B70                              l2073 2ADA                              l2065 2A7A  
                            l2057 2A2C                              l2241 2816                              l2233 27DE  
                            l2225 2752                              l2217 26FE                              l2209 26B8  
                            l2161 257A                              l2153 254A                              l2321 3456  
                            l2313 341A                              l2305 33FC                              l2145 3876  
                            l2137 34D2                              l2129 349C                              l2091 2C1E  
                            l2075 2AF8                              l2067 2A96                              l2059 2A3C  
                            l2251 2880                              l2243 281A                              l2235 27E8  
                            l2227 277C                              l2219 270E                              l2171 25AC  
                            l2163 258A                              l2155 2558                              l2315 3426  
                            l2307 3406                              l2331 30F2                              l2147 3888  
                            l2139 34DC                              l2093 2C50                              l2085 2B9A  
                            l2077 2B1C                              l2069 2AB8                              l2261 28E2  
                            l2253 288C                              l2245 2828                              l2237 27F6  
                            l2229 27B2                              l2181 25EC                              l2173 25BA  
                            l2165 2590                              l2157 255A                              l2317 3436  
                            l2341 3130                              l2333 3108                              l2325 308E  
                            l2501 3314                              l2095 2C82                              l2087 2BC0  
                            l2079 2B46                              l2271 294A                              l2263 28F6  
                            l2255 289A                              l2247 2856                              l2239 2808  
                            l2191 2636                              l2183 25F2                              l2175 25BC  
                            l2167 25A0                              l2159 256A                              l2319 3446  
                            l2351 31B8                              l2343 3162                              l2327 309E  
                            l2511 3346                              l2503 3328                              l2089 2BEC  
                            l2273 294C                              l2265 2910                              l2257 28C4  
                            l2193 2642                              l2185 2612                              l2177 25CC  
                            l2169 25A6                              l2281 3362                              l2361 320E  
                            l2353 31C6                              l2345 3164                              l2337 311C  
                            l2329 30AC                              l1801 3504                              l2505 332E  
                            l2099 2CB4                              l2267 292C                              l2275 2952  
                            l2259 28C8                              l2195 264C                              l2187 2622  
                            l2179 25DC                              l2291 33B8                              l2283 3378  
                            l2363 321E                              l2355 31E4                              l2347 3170  
                            l2339 3124                              l1811 3550                              l1803 3514  
                            l2507 3334                              l1741 37DA                              l2277 2956  
                            l2269 293C                              l2197 2662                              l2293 33C8  
                            l2365 322C                              l2357 31E6                              l2349 31AC  
                            l1901 2E80                              l1821 378E                              l1813 355C  
                            l1805 3520                              l2509 333E                              l1735 37C8  
                            l2199 266E                              l2295 33CC                              l2287 338C  
                            l2367 322E                              l2359 31EA                              l1751 36A4  
                            l1743 366E                              l1911 2EAE                              l1903 2E8A  
                            l1831 2D12                              l1823 378E                              l1815 356E  
                            l1807 3532                              l1737 37CE                              l2297 33DA  
                            l2289 33B6                              l1753 36AC                              l1745 3686  
                            l1761 38E8                              l1921 2EDA                              l1913 2EB6  
                            l1905 2E92                              l1841 2D5A                              l1833 2D16  
                            l1825 3796                              l1809 353E                              l1817 357A  
                            l2481 3252                              l2473 3240                              l1739 37D6  
                            l1771 3602                              l1755 36B8                              l1747 3692  
                            l1763 3842                              l1931 2F08                              l1923 2EE4  
                            l1915 2EC0                              l1907 2E9C                              l1851 2D88  
                            l1843 2D64                              l1835 2D2E                              l1827 37B0  
                            l1819 3782                              l2491 3288                              l2483 3262  
                            l2475 3244                              l1781 3642                              l1773 361A  
                            l1757 36C0                              l1749 369A                              l1765 3852  
                            l1941 2F34                              l1933 2F10                              l1925 2EEC  
                            l1917 2EC8                              l1909 2EA4                              l1861 2DBC  
                            l1853 2D98                              l1845 2D6C                              l1837 2D38  
                            l1829 37B2                              l2493 32D8                              l2485 326E  
                            l2477 3248                              l1783 364E                              l1775 3626  
                            l1759 36CA                              l1767 3858                              l1951 2F62  
                            l1943 2F3E                              l1935 2F1A                              l1927 2EF6  
                            l1919 2ED2                              l1871 2DF2                              l1863 2DC6  
                            l1855 2DA2                              l1847 2D76                              l1839 2D50  
                            l1791 3810                              l2495 32F4                              l2487 3272  
                            l2479 324A                              l1785 3656                              l1777 362E  
                            l1769 3868                              l1961 2F94                              l1953 2F6A  
                            l1945 2F46                              l1937 2F22                              l1929 2EFE  
                            l1881 2E26                              l1873 2DFA                              l1865 2DD6  
                            l1857 2DAA                              l1849 2D7E                              l1793 3812  
                            l2497 3302                              l2489 327A                              l1787 3662  
                            l1779 363A                              l1971 2FC2                              l1963 2F9E  
                            l1955 2F74                              l1947 2F50                              l1939 2F2C  
                            l1891 2E54                              l1883 2E30                              l1875 2E04  
                            l1867 2DE0                              l1859 2DB4                              l1795 3832  
                            l2499 330C                              l1981 2FEE                              l1973 2FCA  
                            l1965 2FA6                              l1957 2F7C                              l1949 2F58  
                            l1893 2E5C                              l1885 2E38                              l1877 2E14  
                            l1869 2DE8                              l1789 3808                              l1799 38F0  
                            l1991 301C                              l1983 2FF8                              l1975 2FD4  
                            l1967 2FB0                              l1959 2F86                              l1895 2E66  
                            l1887 2E42                              l1879 2E1E                              l1993 3024  
                            l1985 3000                              l1977 2FDC                              l1969 2FB8  
                            l1897 2E6E                              l1889 2E4A                              l1995 302E  
                            l1987 300A                              l1979 2FE6                              l1899 2E78  
                            l1997 3036                              l1989 3012                              l1999 3040  
                            STR_1 2501                              STR_2 251D                              STR_3 2511  
                            STR_4 2527                              STR_5 2536                              STR_6 252F  
                            u1000 2856                              u1001 2852                              u1010 286C  
                            u1011 2868                              u1020 2880                              u1100 33EE  
                            u1021 287C                              u1101 33EA                              u1030 289A  
                            u1110 3416                              u1031 2896                              u1111 3412  
                            u1040 28E2                              u1120 3436                              u1200 31D6  
                            u1041 28DE                              u1121 3432                              u1201 31D2  
                            u1050 2910                              u1130 3446                              u1210 31E4  
                            u1051 290C                              u1131 3442                              u1211 31E0  
                            u1060 294A                              u1220 321E                              u1140 309E  
                            u1061 2946                              u1221 321A                              u1141 309A  
                            u1070 3378                              u1230 322C                              u1150 30AC  
                            u1071 3374                              u1231 3228                              u1151 30A8  
                            u1080 33AC                              u1160 3108                              u1161 3104  
                            u1090 33DA                              u1170 315E                              u1330 3262  
                            u1091 33D6                              u1171 315A                              u1331 325E  
                            u1180 31A8                              u1340 3288                              u1085 33A2  
                            u1181 31A4                              u1341 3284                              u1190 31C6  
                            u1191 31C2                              u1407 3580                              u1417 2D20  
                            u1507 2DF4                              u1427 2D42                              u1517 2E0A  
                            u1437 2D66                              u1357 324C                              u1607 2EB0  
                            u1527 2E20                              u1447 2D78                              u1367 3274  
                            u1617 2EC2                              u1537 2E32                              u1457 2D8E  
                            u1377 3472                              u1707 2F64                              u1627 2ED4  
                            u1547 2E44                              u1467 2DA4                              u1387 34AE  
                            u1717 2F76                              u1637 2EE6                              u1557 2E56  
                            u1477 2DB6                              u1397 34EE                              u1807 301E  
                            u1727 2F8C                              u1647 2EF8                              u1567 2E68  
                            u1487 2DCC                              u1817 3030                              u1737 2FA0  
                            u1657 2F0A                              u1577 2E7A                              u1497 2DE2  
                            u1907 363C                              u1827 3042                              u1747 2FB2  
                            u1667 2F1C                              u1587 2E8C                              u1917 3650  
                            u1837 3054                              u1757 2FC4                              u1677 2F2E  
                            u1597 2E9E                              u1927 3664                              u1847 306E  
                            u1767 2FD6                              u1687 2F40                              u1857 3694  
                            u1777 2FE8                              u1697 2F52                              u1867 36A6  
                            u1787 2FFA                              u1877 36BA                              u1797 300C  
                            u1887 36CC                              u1897 3628                ?_I2C_ENVIA_LCD_CMD 0501  
        I2C_ENVIA_LCD_CMD@command 0504                              _main 3240                              prodh 04F4  
                            prodl 04F3                 ??_I2C_CURSOR_HOME 0507                              start FFFC  
             ??_I2C_ENVIA_LCD_CMD 0503                      ___param_bank 0000                _I2C_ENVIA_LCD_DATA 3600  
               __end_of_I2C1_INIT 3782                     ___fltol@sign1 0509                             ?_main 0501  
                           _ADPCH 03EC                   __end_of___flmul 2968                   __end_of___fltol 3468  
                 __end_of___lwdiv 3600                   __end_of___lwmod 3738                             _OSCEN 00B3  
             ?_I2C_ENVIA_LCD_DATA 0501         __end_of_I2C_ENVIA_LCD_CMD 36D4                             _final 0530  
                  _I2C_BORRAR_LCD 38F0                 ?_I2C_CURSOR_ONOFF 0501                             tablat 04F5  
                           status 04D8                ??_I2C_CURSOR_ONOFF 0507            I2C_CURSOR_ONOFF@estado 0507  
            ??_I2C_ENVIA_LCD_DATA 0503                   __initialization 38C4                      __end_of_main 3362  
         I2C_ESCRIBE_MENSAJE2@tam 0509                            ??_main 0528                     __activetblptr 0003  
        ?_I2C_LCD_ESCRIBE_VAR_INT 050D            __end_of_I2C_BORRAR_LCD 38F8                            _ADCON0 03F3  
                          _ADRESH 03EB                            _ADRESL 03EA                            _RC3PPS 0214  
                          _RC4PPS 0215                            _OSCFRQ 00B1                  __end_of___xxtofl 3240  
                   leer_ADC@canal 0505     I2C1_WRITESINGLEBYTE@direccion 0502                  __end_of_leer_ADC 389C  
                       ??___flmul 0517                         ??___fltol 0505                         ??___lwdiv 050A  
                       ??___lwmod 0505                            clear_0 38DC                            isa$std 0001  
                          _tiempo 0532                            _strlen 3808                      __pdataCOMRAM 0534  
                    __mediumconst 0000                            tblptrh 04F7                            tblptrl 04F6  
                          tblptru 04F8                   ?_I2C_BORRAR_LCD 0501                    _I2C_POS_CURSOR 3502  
                    ___xxtofl@arg 050B                      ___xxtofl@exp 050A                      ___xxtofl@val 0501  
                      __accesstop 0560           __end_of__initialization 38E2                     ___rparam_used 0001  
                      ___fltol@f1 0501                    __pcstackCOMRAM 0501      I2C_LCD_ESCRIBE_VAR_INT@punto 0510  
 __end_of_I2C_LCD_ESCRIBE_VAR_INT 2D12             I2C_ESCRIBE_MENSAJE2@i 050A                   _I2C_CURSOR_HOME 38E8  
          __end_of_I2C_POS_CURSOR 358C                           _I2C1CNT 028D                           _I2C1TXB 028C  
     I2C_ENVIA_LCD_DATA@lownibble 0506                           ?_strlen 0501                         _I2C1_INIT 3738  
                       ?___xxtofl 0501                           _OSCCON1 00AD      __end_of_I2C_ESCRIBE_MENSAJE2 37C6  
                 ?_I2C_POS_CURSOR 0507                         ?_leer_ADC 0501        I2C_ESCRIBE_MENSAJE2@cadena 0507  
                         __Hparam 0000                           __Lparam 0000                 __end_of_configuro 38C4  
                         ___flmul 253E                           ___fltol 3362                           ___lwdiv 358C  
                         ___lwmod 36D4                      __psmallconst 2500                           __pcinit 38C4  
                         __ramtop 2500                           __ptext0 3240                           __ptext1 3468  
                         __ptext2 3502                           __ptext3 3782                           __ptext4 3808  
                         __ptext5 3870                           __ptext6 389C                           __ptext7 2D12  
                         __ptext8 3840                           __ptext9 38E8           __end_of_I2C_CURSOR_HOME 38F0  
                     _I2C1CLKbits 029C                        ?_I2C1_INIT 0501        I2C_ENVIA_LCD_CMD@lownibble 0506  
                      ??___xxtofl 0505                        _pantallazo 3468                       _I2C1PIRbits 029A  
                      ??_leer_ADC 0503              end_of_initialization 38E2  I2C_LCD_ESCRIBE_VAR_INT@n_digitos 050F  
                         postinc0 04EE                I2C_POS_CURSOR@fila 0509                           strlen@a 0503  
                         strlen@s 0501                         _PORTBbits 04CF                  ??_I2C_BORRAR_LCD 0507  
                   ___xxtofl@sign 0509                         _TRISAbits 04C6                         _TRISBbits 04C7  
                       _TRISCbits 04C8                       ___flmul@grs 051C              _I2C_ESCRIBE_MENSAJE2 3782  
   I2C_LCD_ESCRIBE_VAR_INT@decena 0514     I2C_LCD_ESCRIBE_VAR_INT@millar 0512                     __pidataCOMRAM 38F8  
   I2C_LCD_ESCRIBE_VAR_INT@numero 050D     I2C_LCD_ESCRIBE_VAR_INT@unidad 0515                  ?_I2C_CURSOR_HOME 0501  
                     ??_I2C1_INIT 0501                    __end_of_strlen 3840               start_initialization 38C4  
                     ?_pantallazo 0501                     ?_I2C_LCD_INIT 0501      __end_of_I2C1_WRITESINGLEBYTE 3808  
           ?_I2C_ESCRIBE_MENSAJE2 0507      I2C_ENVIA_LCD_DATA@highnibble 0505                  _I2C_CURSOR_ONOFF 3840  
                        ??_strlen 0503                  ??_I2C_POS_CURSOR 0508                    ??_I2C_LCD_INIT 0508  
                       ___flmul@a 0513                         ___flmul@b 050F                       __pbssCOMRAM 052A  
         _I2C_LCD_ESCRIBE_VAR_INT 2968                  ___lwdiv@dividend 0506    I2C_LCD_ESCRIBE_VAR_INT@centena 0513  
                        ?___flmul 050F                          ?___fltol 0501                          _I2C1ADB1 028F  
                        ?___lwdiv 0506                          ?___lwmod 0501                         _configuro 389C  
                     __smallconst 2500                  ___lwdiv@quotient 050A                          _LATBbits 04BF  
          ??_I2C_ESCRIBE_MENSAJE2 0508                     _I2C1STAT1bits 0299              _I2C1_WRITESINGLEBYTE 37C6  
                       _termistor 052E            I2C_ENVIA_LCD_DATA@data 0504                        ?_configuro 0501  
                      _ADCON0bits 03F3       I2C_ENVIA_LCD_CMD@highnibble 0505         ??_I2C_LCD_ESCRIBE_VAR_INT 0511  
      __end_of_I2C_ENVIA_LCD_DATA 366C             I2C_POS_CURSOR@columna 0507                          __Hrparam 0000  
            __end_of_I2C_LCD_INIT 308C                          __Lrparam 0000             ?_I2C1_WRITESINGLEBYTE 0501  
                      _ANSELAbits 0400                        _ANSELBbits 0408                        _ANSELCbits 0410  
                        ___xxtofl 308C                      ??_pantallazo 050B                      _I2C1CON0bits 0294  
                    _I2C1CON1bits 0295                      _I2C1CON2bits 0296                   ___lwdiv@divisor 0508  
        I2C1_WRITESINGLEBYTE@dato 0501                   ___lwdiv@counter 050C                          __ptext10 38F0  
                        __ptext11 366C                          __ptext20 37C6                          __ptext12 3738  
                        __ptext13 308C                          __ptext14 3362                          __ptext15 253E  
                        __ptext16 2968                          __ptext17 36D4                          __ptext18 358C  
                        __ptext19 3600                        _RC3I2Cbits 0287          __end_of_I2C_CURSOR_ONOFF 3870  
                        _leer_ADC 3870                        _RC4I2Cbits 0286                          isa$xinst 0000  
                        _temporal 052A                __end_of_pantallazo 3502                        _ODCONCbits 0412  
                     ??_configuro 050A                  ___lwmod@dividend 0501   I2C_LCD_ESCRIBE_VAR_INT@d_millar 0511  
          ??_I2C1_WRITESINGLEBYTE 0502                   ___lwmod@divisor 0503                   ___lwmod@counter 0505  
