

Microchip MPLAB XC8 Assembler V2.50 build 20240725155939 
                                                                                               Sun Nov 17 19:14:54 2024

Microchip MPLAB XC8 C Compiler v2.50 (Free license) build 20240725155939 Og1 
     1                           	processor	18F57Q43
     2                           	fnconf	rparam,??,?,0
     3                           	pagewidth 120
     4                           	opt	flic
     5                           	psect	idataCOMRAM,global,class=CODE,space=0,delta=1,noexec
     6                           	psect	smallconst,global,reloc=2,class=SMALLCONST,space=0,delta=1,noexec
     7                           	psect	cinit,global,reloc=2,class=CODE,space=0,delta=1
     8                           	psect	dataCOMRAM,global,class=COMRAM,space=1,delta=1,lowdata,noexec
     9                           	psect	cstackCOMRAM,global,class=COMRAM,space=1,delta=1,lowdata,noexec
    10                           	psect	text0,global,reloc=2,class=CODE,space=0,delta=1
    11                           	psect	text1,global,reloc=2,class=CODE,space=0,delta=1
    12                           	psect	text2,global,reloc=2,class=CODE,space=0,delta=1
    13                           	psect	text3,global,reloc=2,class=CODE,space=0,delta=1
    14                           	psect	text4,global,reloc=2,class=CODE,space=0,delta=1,group=2
    15                           	psect	text5,global,reloc=2,class=CODE,space=0,delta=1
    16                           	psect	text6,global,reloc=2,class=CODE,space=0,delta=1
    17                           	psect	text7,global,reloc=2,class=CODE,space=0,delta=1
    18                           	psect	text8,global,reloc=2,class=CODE,space=0,delta=1
    19                           	psect	text9,global,reloc=2,class=CODE,space=0,delta=1
    20                           	psect	text10,global,reloc=2,class=CODE,space=0,delta=1
    21                           	psect	text11,global,reloc=2,class=CODE,space=0,delta=1
    22                           	psect	text12,global,reloc=2,class=CODE,space=0,delta=1
    23                           	psect	text13,global,reloc=2,class=CODE,space=0,delta=1,group=1
    24                           	psect	text14,global,reloc=2,class=CODE,space=0,delta=1,group=1
    25                           	psect	text15,global,reloc=2,class=CODE,space=0,delta=1
    26                           	psect	text16,global,reloc=2,class=CODE,space=0,delta=1
    27                           	psect	text17,global,reloc=4,class=CODE,space=0,delta=1
    28                           	psect	text18,global,reloc=4,class=CODE,space=0,delta=1
    29                           	psect	text19,global,reloc=4,class=CODE,space=0,delta=1
    30                           	psect	text20,global,reloc=4,class=CODE,space=0,delta=1
    31                           	psect	ivt0x8,global,reloc=2,class=CODE,space=0,delta=1,noexec,keep,optim=
    32                           	psect	intsave_regs,global,class=BIGRAM,space=1,delta=1,noexec
    33                           	psect	rparam,global,class=COMRAM,space=1,delta=1,noexec
    34                           	psect	config,global,abs,ovrld,class=CONFIG,space=4,delta=1,noexec
    35   000000                     
    36                           ; Generated 23/02/2024 GMT
    37                           ; 
    38                           ; Copyright © 2024, Microchip Technology Inc. and its subsidiaries ("Microchip")
    39                           ; All rights reserved.
    40                           ; 
    41                           ; This software is developed by Microchip Technology Inc. and its subsidiaries ("Microch
      +                          ip").
    42                           ; 
    43                           ; Redistribution and use in source and binary forms, with or without modification, are
    44                           ; permitted provided that the following conditions are met:
    45                           ; 
    46                           ;     1. Redistributions of source code must retain the above copyright notice, this lis
      +                          t of
    47                           ;        conditions and the following disclaimer.
    48                           ; 
    49                           ;     2. Redistributions in binary form must reproduce the above copyright notice, this 
      +                          list
    50                           ;        of conditions and the following disclaimer in the documentation and/or other
    51                           ;        materials provided with the distribution. Publication is not required when
    52                           ;        this file is used in an embedded application.
    53                           ; 
    54                           ;     3. Microchip's name may not be used to endorse or promote products derived from th
      +                          is
    55                           ;        software without specific prior written permission.
    56                           ; 
    57                           ; THIS SOFTWARE IS PROVIDED BY MICROCHIP "AS IS" AND ANY EXPRESS OR IMPLIED WARRANTIES,
    58                           ; INCLUDING, BUT NOT LIMITED TO, THE IMPLIED WARRANTIES OF MERCHANTABILITY AND FITNESS F
      +                          OR
    59                           ; PURPOSE ARE DISCLAIMED.  IN NO EVENT SHALL MICROCHIP BE LIABLE FOR ANY DIRECT, INDIREC
      +                          T,
    60                           ; INCIDENTAL, SPECIAL, EXEMPLARY, OR CONSEQUENTIAL DAMAGES (INCLUDING BUT NOT LIMITED TO
    61                           ; PROCUREMENT OF SUBSTITUTE GOODS OR SERVICES; LOSS OF USE, DATA OR PROFITS; OR BUSINESS
    62                           ; INTERRUPTION) HOWSOEVER CAUSED AND ON ANY THEORY OF LIABILITY, WHETHER IN CONTRACT, ST
      +                          RICT
    63                           ; LIABILITY, OR TORT (INCLUDING NEGLIGENCE OR OTHERWISE) ARISING IN ANY WAY OUT OF THE U
      +                          SE OF
    64                           ; THIS SOFTWARE, EVEN IF ADVISED OF THE POSSIBILITY OF SUCH DAMAGE.
    65                           ; 
    66                           ; 
    67                           ; Code-generator required, PIC18F57Q43 Definitions
    68                           ; 
    69                           ; SFR Addresses
    70   0004E0                     bsr             equ	1248
    71   0004E9                     fsr0            equ	1257
    72   0004EA                     fsr0h           equ	1258
    73   0004E9                     fsr0l           equ	1257
    74   0004E1                     fsr1            equ	1249
    75   0004E2                     fsr1h           equ	1250
    76   0004E1                     fsr1l           equ	1249
    77   0004D9                     fsr2            equ	1241
    78   0004DA                     fsr2h           equ	1242
    79   0004D9                     fsr2l           equ	1241
    80   0004EF                     indf0           equ	1263
    81   0004E7                     indf1           equ	1255
    82   0004DF                     indf2           equ	1247
    83   0004D6                     intcon          equ	1238
    84   000041                     nvmcon          equ	65
    85   0004F9                     pcl             equ	1273
    86   0004FA                     pclath          equ	1274
    87   0004FB                     pclatu          equ	1275
    88   0004EB                     plusw0          equ	1259
    89   0004E3                     plusw1          equ	1251
    90   0004DB                     plusw2          equ	1243
    91   0004ED                     postdec0        equ	1261
    92   0004E5                     postdec1        equ	1253
    93   0004DD                     postdec2        equ	1245
    94   0004EE                     postinc0        equ	1262
    95   0004E6                     postinc1        equ	1254
    96   0004DE                     postinc2        equ	1246
    97   0004EC                     preinc0         equ	1260
    98   0004E4                     preinc1         equ	1252
    99   0004DC                     preinc2         equ	1244
   100   0004F3                     prod            equ	1267
   101   0004F4                     prodh           equ	1268
   102   0004F3                     prodl           equ	1267
   103   0004D8                     status          equ	1240
   104   0004F5                     tablat          equ	1269
   105   0004F6                     tblptr          equ	1270
   106   0004F7                     tblptrh         equ	1271
   107   0004F6                     tblptrl         equ	1270
   108   0004F8                     tblptru         equ	1272
   109   0004FD                     tosl            equ	1277
   110   0004E8                     wreg            equ	1256
   111   000039                     CLKRCON         equ	57	;# 
   112   00003A                     CLKRCLK         equ	58	;# 
   113   000040                     NVMCON0         equ	64	;# 
   114   000041                     NVMCON1         equ	65	;# 
   115   000042                     NVMLOCK         equ	66	;# 
   116   000043                     NVMADR          equ	67	;# 
   117   000043                     NVMADRL         equ	67	;# 
   118   000044                     NVMADRH         equ	68	;# 
   119   000045                     NVMADRU         equ	69	;# 
   120   000046                     NVMDAT          equ	70	;# 
   121   000046                     NVMDATL         equ	70	;# 
   122   000047                     NVMDATH         equ	71	;# 
   123   000048                     VREGCON         equ	72	;# 
   124   000049                     BORCON          equ	73	;# 
   125   00004A                     HLVDCON0        equ	74	;# 
   126   00004B                     HLVDCON1        equ	75	;# 
   127   00004C                     ZCDCON          equ	76	;# 
   128   000060                     PMD0            equ	96	;# 
   129   000061                     PMD1            equ	97	;# 
   130   000063                     PMD3            equ	99	;# 
   131   000064                     PMD4            equ	100	;# 
   132   000065                     PMD5            equ	101	;# 
   133   000066                     PMD6            equ	102	;# 
   134   000067                     PMD7            equ	103	;# 
   135   000068                     PMD8            equ	104	;# 
   136   00006A                     MD1CON0         equ	106	;# 
   137   00006B                     MD1CON1         equ	107	;# 
   138   00006C                     MD1SRC          equ	108	;# 
   139   00006D                     MD1CARL         equ	109	;# 
   140   00006E                     MD1CARH         equ	110	;# 
   141   00006F                     CMOUT           equ	111	;# 
   142   000070                     CM1CON0         equ	112	;# 
   143   000071                     CM1CON1         equ	113	;# 
   144   000072                     CM1NCH          equ	114	;# 
   145   000073                     CM1PCH          equ	115	;# 
   146   000074                     CM2CON0         equ	116	;# 
   147   000075                     CM2CON1         equ	117	;# 
   148   000076                     CM2NCH          equ	118	;# 
   149   000077                     CM2PCH          equ	119	;# 
   150   000078                     WDTCON0         equ	120	;# 
   151   000079                     WDTCON1         equ	121	;# 
   152   00007A                     WDTPS           equ	122	;# 
   153   00007A                     WDTPSL          equ	122	;# 
   154   00007B                     WDTPSH          equ	123	;# 
   155   00007C                     WDTTMR          equ	124	;# 
   156   00007D                     DAC1DAT         equ	125	;# 
   157   00007D                     DAC1DATL        equ	125	;# 
   158   00007F                     DAC1CON         equ	127	;# 
   159   000080                     SPI1RXB         equ	128	;# 
   160   000081                     SPI1TXB         equ	129	;# 
   161   000082                     SPI1TCNT        equ	130	;# 
   162   000082                     SPI1TCNTL       equ	130	;# 
   163   000083                     SPI1TCNTH       equ	131	;# 
   164   000084                     SPI1CON0        equ	132	;# 
   165   000085                     SPI1CON1        equ	133	;# 
   166   000086                     SPI1CON2        equ	134	;# 
   167   000087                     SPI1STATUS      equ	135	;# 
   168   000088                     SPI1TWIDTH      equ	136	;# 
   169   000089                     SPI1BAUD        equ	137	;# 
   170   00008A                     SPI1INTF        equ	138	;# 
   171   00008B                     SPI1INTE        equ	139	;# 
   172   00008C                     SPI1CLK         equ	140	;# 
   173   00008D                     SPI2RXB         equ	141	;# 
   174   00008E                     SPI2TXB         equ	142	;# 
   175   00008F                     SPI2TCNT        equ	143	;# 
   176   00008F                     SPI2TCNTL       equ	143	;# 
   177   000090                     SPI2TCNTH       equ	144	;# 
   178   000091                     SPI2CON0        equ	145	;# 
   179   000092                     SPI2CON1        equ	146	;# 
   180   000093                     SPI2CON2        equ	147	;# 
   181   000094                     SPI2STATUS      equ	148	;# 
   182   000095                     SPI2TWIDTH      equ	149	;# 
   183   000096                     SPI2BAUD        equ	150	;# 
   184   000097                     SPI2INTF        equ	151	;# 
   185   000098                     SPI2INTE        equ	152	;# 
   186   000099                     SPI2CLK         equ	153	;# 
   187   0000AC                     ACTCON          equ	172	;# 
   188   0000AD                     OSCCON1         equ	173	;# 
   189   0000AE                     OSCCON2         equ	174	;# 
   190   0000AF                     OSCCON3         equ	175	;# 
   191   0000B0                     OSCTUNE         equ	176	;# 
   192   0000B1                     OSCFRQ          equ	177	;# 
   193   0000B1                     OSCFREQ         equ	177	;# 
   194   0000B2                     OSCSTAT         equ	178	;# 
   195   0000B2                     OSCSTAT1        equ	178	;# 
   196   0000B3                     OSCEN           equ	179	;# 
   197   0000B4                     PRLOCK          equ	180	;# 
   198   0000B5                     SCANPR          equ	181	;# 
   199   0000B6                     DMA1PR          equ	182	;# 
   200   0000B7                     DMA2PR          equ	183	;# 
   201   0000B8                     DMA3PR          equ	184	;# 
   202   0000B9                     DMA4PR          equ	185	;# 
   203   0000BA                     DMA5PR          equ	186	;# 
   204   0000BB                     DMA6PR          equ	187	;# 
   205   0000BE                     MAINPR          equ	190	;# 
   206   0000BF                     ISRPR           equ	191	;# 
   207   0000D4                     CLCDATA         equ	212	;# 
   208   0000D5                     CLCSELECT       equ	213	;# 
   209   0000D6                     CLCnCON         equ	214	;# 
   210   0000D7                     CLCnPOL         equ	215	;# 
   211   0000D8                     CLCnSEL0        equ	216	;# 
   212   0000D9                     CLCnSEL1        equ	217	;# 
   213   0000DA                     CLCnSEL2        equ	218	;# 
   214   0000DB                     CLCnSEL3        equ	219	;# 
   215   0000DC                     CLCnGLS0        equ	220	;# 
   216   0000DD                     CLCnGLS1        equ	221	;# 
   217   0000DE                     CLCnGLS2        equ	222	;# 
   218   0000DF                     CLCnGLS3        equ	223	;# 
   219   0000E8                     DMASELECT       equ	232	;# 
   220   0000E9                     DMAnBUF         equ	233	;# 
   221   0000EA                     DMAnDCNT        equ	234	;# 
   222   0000EA                     DMAnDCNTL       equ	234	;# 
   223   0000EB                     DMAnDCNTH       equ	235	;# 
   224   0000EC                     DMAnDPTR        equ	236	;# 
   225   0000EC                     DMAnDPTRL       equ	236	;# 
   226   0000ED                     DMAnDPTRH       equ	237	;# 
   227   0000EE                     DMAnDSZ         equ	238	;# 
   228   0000EE                     DMAnDSZL        equ	238	;# 
   229   0000EF                     DMAnDSZH        equ	239	;# 
   230   0000F0                     DMAnDSA         equ	240	;# 
   231   0000F0                     DMAnDSAL        equ	240	;# 
   232   0000F1                     DMAnDSAH        equ	241	;# 
   233   0000F2                     DMAnSCNT        equ	242	;# 
   234   0000F2                     DMAnSCNTL       equ	242	;# 
   235   0000F3                     DMAnSCNTH       equ	243	;# 
   236   0000F4                     DMAnSPTR        equ	244	;# 
   237   0000F4                     DMAnSPTRL       equ	244	;# 
   238   0000F5                     DMAnSPTRH       equ	245	;# 
   239   0000F6                     DMAnSPTRU       equ	246	;# 
   240   0000F7                     DMAnSSZ         equ	247	;# 
   241   0000F7                     DMAnSSZL        equ	247	;# 
   242   0000F8                     DMAnSSZH        equ	248	;# 
   243   0000F9                     DMAnSSA         equ	249	;# 
   244   0000F9                     DMAnSSAL        equ	249	;# 
   245   0000FA                     DMAnSSAH        equ	250	;# 
   246   0000FB                     DMAnSSAU        equ	251	;# 
   247   0000FC                     DMAnCON0        equ	252	;# 
   248   0000FD                     DMAnCON1        equ	253	;# 
   249   0000FE                     DMAnAIRQ        equ	254	;# 
   250   0000FF                     DMAnSIRQ        equ	255	;# 
   251   000200                     PPSLOCK         equ	512	;# 
   252   000201                     RA0PPS          equ	513	;# 
   253   000202                     RA1PPS          equ	514	;# 
   254   000203                     RA2PPS          equ	515	;# 
   255   000204                     RA3PPS          equ	516	;# 
   256   000205                     RA4PPS          equ	517	;# 
   257   000206                     RA5PPS          equ	518	;# 
   258   000207                     RA6PPS          equ	519	;# 
   259   000208                     RA7PPS          equ	520	;# 
   260   000209                     RB0PPS          equ	521	;# 
   261   00020A                     RB1PPS          equ	522	;# 
   262   00020B                     RB2PPS          equ	523	;# 
   263   00020C                     RB3PPS          equ	524	;# 
   264   00020D                     RB4PPS          equ	525	;# 
   265   00020E                     RB5PPS          equ	526	;# 
   266   00020F                     RB6PPS          equ	527	;# 
   267   000210                     RB7PPS          equ	528	;# 
   268   000211                     RC0PPS          equ	529	;# 
   269   000212                     RC1PPS          equ	530	;# 
   270   000213                     RC2PPS          equ	531	;# 
   271   000214                     RC3PPS          equ	532	;# 
   272   000215                     RC4PPS          equ	533	;# 
   273   000216                     RC5PPS          equ	534	;# 
   274   000217                     RC6PPS          equ	535	;# 
   275   000218                     RC7PPS          equ	536	;# 
   276   000219                     RD0PPS          equ	537	;# 
   277   00021A                     RD1PPS          equ	538	;# 
   278   00021B                     RD2PPS          equ	539	;# 
   279   00021C                     RD3PPS          equ	540	;# 
   280   00021D                     RD4PPS          equ	541	;# 
   281   00021E                     RD5PPS          equ	542	;# 
   282   00021F                     RD6PPS          equ	543	;# 
   283   000220                     RD7PPS          equ	544	;# 
   284   000221                     RE0PPS          equ	545	;# 
   285   000222                     RE1PPS          equ	546	;# 
   286   000223                     RE2PPS          equ	547	;# 
   287   000229                     RF0PPS          equ	553	;# 
   288   00022A                     RF1PPS          equ	554	;# 
   289   00022B                     RF2PPS          equ	555	;# 
   290   00022C                     RF3PPS          equ	556	;# 
   291   00022D                     RF4PPS          equ	557	;# 
   292   00022E                     RF5PPS          equ	558	;# 
   293   00022F                     RF6PPS          equ	559	;# 
   294   000230                     RF7PPS          equ	560	;# 
   295   00023E                     INT0PPS         equ	574	;# 
   296   00023F                     INT1PPS         equ	575	;# 
   297   000240                     INT2PPS         equ	576	;# 
   298   000241                     T0CKIPPS        equ	577	;# 
   299   000242                     T1CKIPPS        equ	578	;# 
   300   000243                     T1GPPS          equ	579	;# 
   301   000244                     T3CKIPPS        equ	580	;# 
   302   000245                     T3GPPS          equ	581	;# 
   303   000246                     T5CKIPPS        equ	582	;# 
   304   000247                     T5GPPS          equ	583	;# 
   305   000248                     T2INPPS         equ	584	;# 
   306   000249                     T4INPPS         equ	585	;# 
   307   00024A                     T6INPPS         equ	586	;# 
   308   00024F                     CCP1PPS         equ	591	;# 
   309   000250                     CCP2PPS         equ	592	;# 
   310   000251                     CCP3PPS         equ	593	;# 
   311   000253                     PWM1ERSPPS      equ	595	;# 
   312   000254                     PWM2ERSPPS      equ	596	;# 
   313   000255                     PWM3ERSPPS      equ	597	;# 
   314   000257                     PWMIN0PPS       equ	599	;# 
   315   000258                     PWMIN1PPS       equ	600	;# 
   316   000259                     SMT1WINPPS      equ	601	;# 
   317   00025A                     SMT1SIGPPS      equ	602	;# 
   318   00025B                     CWG1PPS         equ	603	;# 
   319   00025B                     CWG1INPPS       equ	603	;# 
   320   00025C                     CWG2PPS         equ	604	;# 
   321   00025C                     CWG2INPPS       equ	604	;# 
   322   00025D                     CWG3PPS         equ	605	;# 
   323   00025D                     CWG3INPPS       equ	605	;# 
   324   00025E                     MD1CARLPPS      equ	606	;# 
   325   00025E                     MDCARLPPS       equ	606	;# 
   326   00025F                     MD1CARHPPS      equ	607	;# 
   327   00025F                     MDCARHPPS       equ	607	;# 
   328   000260                     MD1SRCPPS       equ	608	;# 
   329   000260                     MDSRCPPS        equ	608	;# 
   330   000261                     CLCIN0PPS       equ	609	;# 
   331   000262                     CLCIN1PPS       equ	610	;# 
   332   000263                     CLCIN2PPS       equ	611	;# 
   333   000264                     CLCIN3PPS       equ	612	;# 
   334   000265                     CLCIN4PPS       equ	613	;# 
   335   000266                     CLCIN5PPS       equ	614	;# 
   336   000267                     CLCIN6PPS       equ	615	;# 
   337   000268                     CLCIN7PPS       equ	616	;# 
   338   000269                     ADACTPPS        equ	617	;# 
   339   00026A                     SPI1SCKPPS      equ	618	;# 
   340   00026B                     SPI1SDIPPS      equ	619	;# 
   341   00026C                     SPI1SSPPS       equ	620	;# 
   342   00026D                     SPI2SCKPPS      equ	621	;# 
   343   00026E                     SPI2SDIPPS      equ	622	;# 
   344   00026F                     SPI2SSPPS       equ	623	;# 
   345   000270                     I2C1SDAPPS      equ	624	;# 
   346   000271                     I2C1SCLPPS      equ	625	;# 
   347   000272                     U1RXPPS         equ	626	;# 
   348   000273                     U1CTSPPS        equ	627	;# 
   349   000274                     U2RXPPS         equ	628	;# 
   350   000275                     U2CTSPPS        equ	629	;# 
   351   000276                     U3RXPPS         equ	630	;# 
   352   000277                     U3CTSPPS        equ	631	;# 
   353   000278                     U4RXPPS         equ	632	;# 
   354   000279                     U4CTSPPS        equ	633	;# 
   355   00027A                     U5RXPPS         equ	634	;# 
   356   00027B                     U5CTSPPS        equ	635	;# 
   357   000286                     RC4I2C          equ	646	;# 
   358   000287                     RC3I2C          equ	647	;# 
   359   000288                     RB2I2C          equ	648	;# 
   360   000289                     RB1I2C          equ	649	;# 
   361   00028B                     I2C1RXB         equ	651	;# 
   362   00028C                     I2C1TXB         equ	652	;# 
   363   00028D                     I2C1CNT         equ	653	;# 
   364   00028E                     I2C1ADB0        equ	654	;# 
   365   00028F                     I2C1ADB1        equ	655	;# 
   366   000290                     I2C1ADR0        equ	656	;# 
   367   000291                     I2C1ADR1        equ	657	;# 
   368   000292                     I2C1ADR2        equ	658	;# 
   369   000293                     I2C1ADR3        equ	659	;# 
   370   000294                     I2C1CON0        equ	660	;# 
   371   000295                     I2C1CON1        equ	661	;# 
   372   000296                     I2C1CON2        equ	662	;# 
   373   000297                     I2C1ERR         equ	663	;# 
   374   000298                     I2C1STAT0       equ	664	;# 
   375   000299                     I2C1STAT1       equ	665	;# 
   376   00029A                     I2C1PIR         equ	666	;# 
   377   00029B                     I2C1PIE         equ	667	;# 
   378   00029C                     I2C1CLK         equ	668	;# 
   379   00029D                     I2C1BTO         equ	669	;# 
   380   0002A1                     U1RXB           equ	673	;# 
   381   0002A1                     U1RXBL          equ	673	;# 
   382   0002A2                     U1RXCHK         equ	674	;# 
   383   0002A3                     U1TXB           equ	675	;# 
   384   0002A3                     U1TXBL          equ	675	;# 
   385   0002A4                     U1TXCHK         equ	676	;# 
   386   0002A5                     U1P1            equ	677	;# 
   387   0002A5                     U1P1L           equ	677	;# 
   388   0002A6                     U1P1H           equ	678	;# 
   389   0002A7                     U1P2            equ	679	;# 
   390   0002A7                     U1P2L           equ	679	;# 
   391   0002A8                     U1P2H           equ	680	;# 
   392   0002A9                     U1P3            equ	681	;# 
   393   0002A9                     U1P3L           equ	681	;# 
   394   0002AA                     U1P3H           equ	682	;# 
   395   0002AB                     U1CON0          equ	683	;# 
   396   0002AC                     U1CON1          equ	684	;# 
   397   0002AD                     U1CON2          equ	685	;# 
   398   0002AE                     U1BRG           equ	686	;# 
   399   0002AE                     U1BRGL          equ	686	;# 
   400   0002AF                     U1BRGH          equ	687	;# 
   401   0002B0                     U1FIFO          equ	688	;# 
   402   0002B1                     U1UIR           equ	689	;# 
   403   0002B2                     U1ERRIR         equ	690	;# 
   404   0002B3                     U1ERRIE         equ	691	;# 
   405   0002B4                     U2RXB           equ	692	;# 
   406   0002B4                     U2RXBL          equ	692	;# 
   407   0002B6                     U2TXB           equ	694	;# 
   408   0002B6                     U2TXBL          equ	694	;# 
   409   0002B8                     U2P1            equ	696	;# 
   410   0002B8                     U2P1L           equ	696	;# 
   411   0002BA                     U2P2            equ	698	;# 
   412   0002BA                     U2P2L           equ	698	;# 
   413   0002BC                     U2P3            equ	700	;# 
   414   0002BC                     U2P3L           equ	700	;# 
   415   0002BE                     U2CON0          equ	702	;# 
   416   0002BF                     U2CON1          equ	703	;# 
   417   0002C0                     U2CON2          equ	704	;# 
   418   0002C1                     U2BRG           equ	705	;# 
   419   0002C1                     U2BRGL          equ	705	;# 
   420   0002C2                     U2BRGH          equ	706	;# 
   421   0002C3                     U2FIFO          equ	707	;# 
   422   0002C4                     U2UIR           equ	708	;# 
   423   0002C5                     U2ERRIR         equ	709	;# 
   424   0002C6                     U2ERRIE         equ	710	;# 
   425   0002C7                     U3RXB           equ	711	;# 
   426   0002C7                     U3RXBL          equ	711	;# 
   427   0002C9                     U3TXB           equ	713	;# 
   428   0002C9                     U3TXBL          equ	713	;# 
   429   0002CB                     U3P1            equ	715	;# 
   430   0002CB                     U3P1L           equ	715	;# 
   431   0002CD                     U3P2            equ	717	;# 
   432   0002CD                     U3P2L           equ	717	;# 
   433   0002CF                     U3P3            equ	719	;# 
   434   0002CF                     U3P3L           equ	719	;# 
   435   0002D1                     U3CON0          equ	721	;# 
   436   0002D2                     U3CON1          equ	722	;# 
   437   0002D3                     U3CON2          equ	723	;# 
   438   0002D4                     U3BRG           equ	724	;# 
   439   0002D4                     U3BRGL          equ	724	;# 
   440   0002D5                     U3BRGH          equ	725	;# 
   441   0002D6                     U3FIFO          equ	726	;# 
   442   0002D7                     U3UIR           equ	727	;# 
   443   0002D8                     U3ERRIR         equ	728	;# 
   444   0002D9                     U3ERRIE         equ	729	;# 
   445   0002DA                     U4RXB           equ	730	;# 
   446   0002DA                     U4RXBL          equ	730	;# 
   447   0002DC                     U4TXB           equ	732	;# 
   448   0002DC                     U4TXBL          equ	732	;# 
   449   0002DE                     U4P1            equ	734	;# 
   450   0002DE                     U4P1L           equ	734	;# 
   451   0002E0                     U4P2            equ	736	;# 
   452   0002E0                     U4P2L           equ	736	;# 
   453   0002E2                     U4P3            equ	738	;# 
   454   0002E2                     U4P3L           equ	738	;# 
   455   0002E4                     U4CON0          equ	740	;# 
   456   0002E5                     U4CON1          equ	741	;# 
   457   0002E6                     U4CON2          equ	742	;# 
   458   0002E7                     U4BRG           equ	743	;# 
   459   0002E7                     U4BRGL          equ	743	;# 
   460   0002E8                     U4BRGH          equ	744	;# 
   461   0002E9                     U4FIFO          equ	745	;# 
   462   0002EA                     U4UIR           equ	746	;# 
   463   0002EB                     U4ERRIR         equ	747	;# 
   464   0002EC                     U4ERRIE         equ	748	;# 
   465   0002ED                     U5RXB           equ	749	;# 
   466   0002ED                     U5RXBL          equ	749	;# 
   467   0002EF                     U5TXB           equ	751	;# 
   468   0002EF                     U5TXBL          equ	751	;# 
   469   0002F1                     U5P1            equ	753	;# 
   470   0002F1                     U5P1L           equ	753	;# 
   471   0002F3                     U5P2            equ	755	;# 
   472   0002F3                     U5P2L           equ	755	;# 
   473   0002F5                     U5P3            equ	757	;# 
   474   0002F5                     U5P3L           equ	757	;# 
   475   0002F7                     U5CON0          equ	759	;# 
   476   0002F8                     U5CON1          equ	760	;# 
   477   0002F9                     U5CON2          equ	761	;# 
   478   0002FA                     U5BRG           equ	762	;# 
   479   0002FA                     U5BRGL          equ	762	;# 
   480   0002FB                     U5BRGH          equ	763	;# 
   481   0002FC                     U5FIFO          equ	764	;# 
   482   0002FD                     U5UIR           equ	765	;# 
   483   0002FE                     U5ERRIR         equ	766	;# 
   484   0002FF                     U5ERRIE         equ	767	;# 
   485   000300                     SMT1TMR         equ	768	;# 
   486   000300                     SMT1TMRL        equ	768	;# 
   487   000301                     SMT1TMRH        equ	769	;# 
   488   000302                     SMT1TMRU        equ	770	;# 
   489   000303                     SMT1CPR         equ	771	;# 
   490   000303                     SMT1CPRL        equ	771	;# 
   491   000304                     SMT1CPRH        equ	772	;# 
   492   000305                     SMT1CPRU        equ	773	;# 
   493   000306                     SMT1CPW         equ	774	;# 
   494   000306                     SMT1CPWL        equ	774	;# 
   495   000307                     SMT1CPWH        equ	775	;# 
   496   000308                     SMT1CPWU        equ	776	;# 
   497   000309                     SMT1PR          equ	777	;# 
   498   000309                     SMT1PRL         equ	777	;# 
   499   00030A                     SMT1PRH         equ	778	;# 
   500   00030B                     SMT1PRU         equ	779	;# 
   501   00030C                     SMT1CON0        equ	780	;# 
   502   00030D                     SMT1CON1        equ	781	;# 
   503   00030E                     SMT1STAT        equ	782	;# 
   504   00030F                     SMT1CLK         equ	783	;# 
   505   000310                     SMT1SIG         equ	784	;# 
   506   000311                     SMT1WIN         equ	785	;# 
   507   000318                     TMR0L           equ	792	;# 
   508   000318                     TMR0            equ	792	;# 
   509   000319                     TMR0H           equ	793	;# 
   510   000319                     PR0             equ	793	;# 
   511   00031A                     T0CON0          equ	794	;# 
   512   00031B                     T0CON1          equ	795	;# 
   513   00031C                     TMR1            equ	796	;# 
   514   00031C                     TMR1L           equ	796	;# 
   515   00031D                     TMR1H           equ	797	;# 
   516   00031E                     T1CON           equ	798	;# 
   517   00031E                     TMR1CON         equ	798	;# 
   518   00031F                     T1GCON          equ	799	;# 
   519   00031F                     TMR1GCON        equ	799	;# 
   520   000320                     T1GATE          equ	800	;# 
   521   000320                     TMR1GATE        equ	800	;# 
   522   000321                     T1CLK           equ	801	;# 
   523   000321                     TMR1CLK         equ	801	;# 
   524   000321                     PR1             equ	801	;# 
   525   000322                     T2TMR           equ	802	;# 
   526   000322                     TMR2            equ	802	;# 
   527   000323                     T2PR            equ	803	;# 
   528   000323                     PR2             equ	803	;# 
   529   000324                     T2CON           equ	804	;# 
   530   000325                     T2HLT           equ	805	;# 
   531   000326                     T2CLKCON        equ	806	;# 
   532   000326                     T2CLK           equ	806	;# 
   533   000327                     T2RST           equ	807	;# 
   534   000328                     TMR3            equ	808	;# 
   535   000328                     TMR3L           equ	808	;# 
   536   000329                     TMR3H           equ	809	;# 
   537   00032A                     T3CON           equ	810	;# 
   538   00032A                     TMR3CON         equ	810	;# 
   539   00032B                     T3GCON          equ	811	;# 
   540   00032B                     TMR3GCON        equ	811	;# 
   541   00032C                     T3GATE          equ	812	;# 
   542   00032C                     TMR3GATE        equ	812	;# 
   543   00032D                     T3CLK           equ	813	;# 
   544   00032D                     TMR3CLK         equ	813	;# 
   545   00032D                     PR3             equ	813	;# 
   546   00032E                     T4TMR           equ	814	;# 
   547   00032E                     TMR4            equ	814	;# 
   548   00032F                     T4PR            equ	815	;# 
   549   00032F                     PR4             equ	815	;# 
   550   000330                     T4CON           equ	816	;# 
   551   000331                     T4HLT           equ	817	;# 
   552   000332                     T4CLKCON        equ	818	;# 
   553   000332                     T4CLK           equ	818	;# 
   554   000333                     T4RST           equ	819	;# 
   555   000334                     TMR5            equ	820	;# 
   556   000334                     TMR5L           equ	820	;# 
   557   000335                     TMR5H           equ	821	;# 
   558   000336                     T5CON           equ	822	;# 
   559   000336                     TMR5CON         equ	822	;# 
   560   000337                     T5GCON          equ	823	;# 
   561   000337                     TMR5GCON        equ	823	;# 
   562   000338                     T5GATE          equ	824	;# 
   563   000338                     TMR5GATE        equ	824	;# 
   564   000339                     T5CLK           equ	825	;# 
   565   000339                     TMR5CLK         equ	825	;# 
   566   000339                     PR5             equ	825	;# 
   567   00033A                     T6TMR           equ	826	;# 
   568   00033A                     TMR6            equ	826	;# 
   569   00033B                     T6PR            equ	827	;# 
   570   00033B                     PR6             equ	827	;# 
   571   00033C                     T6CON           equ	828	;# 
   572   00033D                     T6HLT           equ	829	;# 
   573   00033E                     T6CLKCON        equ	830	;# 
   574   00033E                     T6CLK           equ	830	;# 
   575   00033F                     T6RST           equ	831	;# 
   576   000340                     CCPR1           equ	832	;# 
   577   000340                     CCPR1L          equ	832	;# 
   578   000341                     CCPR1H          equ	833	;# 
   579   000342                     CCP1CON         equ	834	;# 
   580   000343                     CCP1CAP         equ	835	;# 
   581   000344                     CCPR2           equ	836	;# 
   582   000344                     CCPR2L          equ	836	;# 
   583   000345                     CCPR2H          equ	837	;# 
   584   000346                     CCP2CON         equ	838	;# 
   585   000347                     CCP2CAP         equ	839	;# 
   586   000348                     CCPR3           equ	840	;# 
   587   000348                     CCPR3L          equ	840	;# 
   588   000349                     CCPR3H          equ	841	;# 
   589   00034A                     CCP3CON         equ	842	;# 
   590   00034B                     CCP3CAP         equ	843	;# 
   591   00034C                     CCPTMRS0        equ	844	;# 
   592   00034F                     CRCDATA         equ	847	;# 
   593   00034F                     CRCDATL         equ	847	;# 
   594   000350                     CRCDATH         equ	848	;# 
   595   000351                     CRCACC          equ	849	;# 
   596   000351                     CRCACCL         equ	849	;# 
   597   000352                     CRCACCH         equ	850	;# 
   598   000353                     CRCSHFT         equ	851	;# 
   599   000353                     CRCSHIFTL       equ	851	;# 
   600   000354                     CRCSHIFTH       equ	852	;# 
   601   000355                     CRCXOR          equ	853	;# 
   602   000355                     CRCXORL         equ	853	;# 
   603   000356                     CRCXORH         equ	854	;# 
   604   000357                     CRCCON0         equ	855	;# 
   605   000358                     CRCCON1         equ	856	;# 
   606   00035A                     SCANLADR        equ	858	;# 
   607   00035A                     SCANLADRL       equ	858	;# 
   608   00035B                     SCANLADRH       equ	859	;# 
   609   00035C                     SCANLADRU       equ	860	;# 
   610   00035D                     SCANHADR        equ	861	;# 
   611   00035D                     SCANHADRL       equ	861	;# 
   612   00035E                     SCANHADRH       equ	862	;# 
   613   00035F                     SCANHADRU       equ	863	;# 
   614   000360                     SCANCON0        equ	864	;# 
   615   000361                     SCANTRIG        equ	865	;# 
   616   000362                     IPR0            equ	866	;# 
   617   000363                     IPR1            equ	867	;# 
   618   000364                     IPR2            equ	868	;# 
   619   000365                     IPR3            equ	869	;# 
   620   000366                     IPR4            equ	870	;# 
   621   000367                     IPR5            equ	871	;# 
   622   000368                     IPR6            equ	872	;# 
   623   000369                     IPR7            equ	873	;# 
   624   00036A                     IPR8            equ	874	;# 
   625   00036B                     IPR9            equ	875	;# 
   626   00036C                     IPR10           equ	876	;# 
   627   00036D                     IPR11           equ	877	;# 
   628   00036E                     IPR12           equ	878	;# 
   629   00036F                     IPR13           equ	879	;# 
   630   000370                     IPR14           equ	880	;# 
   631   000371                     IPR15           equ	881	;# 
   632   000373                     STATUS_CSHAD    equ	883	;# 
   633   000374                     WREG_CSHAD      equ	884	;# 
   634   000375                     BSR_CSHAD       equ	885	;# 
   635   000376                     SHADCON         equ	886	;# 
   636   000377                     STATUS_SHAD     equ	887	;# 
   637   000378                     WREG_SHAD       equ	888	;# 
   638   000379                     BSR_SHAD        equ	889	;# 
   639   00037A                     PCLATH_SHAD     equ	890	;# 
   640   00037B                     PCLATU_SHAD     equ	891	;# 
   641   00037C                     FSR0SH          equ	892	;# 
   642   00037C                     FSR0L_SHAD      equ	892	;# 
   643   00037D                     FSR0H_SHAD      equ	893	;# 
   644   00037E                     FSR1SH          equ	894	;# 
   645   00037E                     FSR1L_SHAD      equ	894	;# 
   646   00037F                     FSR1H_SHAD      equ	895	;# 
   647   000380                     FSR2SH          equ	896	;# 
   648   000380                     FSR2L_SHAD      equ	896	;# 
   649   000381                     FSR2H_SHAD      equ	897	;# 
   650   000382                     PRODSH          equ	898	;# 
   651   000382                     PRODL_SHAD      equ	898	;# 
   652   000383                     PRODH_SHAD      equ	899	;# 
   653   0003BC                     CWG1CLK         equ	956	;# 
   654   0003BC                     CWG1CLKCON      equ	956	;# 
   655   0003BD                     CWG1ISM         equ	957	;# 
   656   0003BD                     CWG1DAT         equ	957	;# 
   657   0003BE                     CWG1DBR         equ	958	;# 
   658   0003BF                     CWG1DBF         equ	959	;# 
   659   0003C0                     CWG1CON0        equ	960	;# 
   660   0003C1                     CWG1CON1        equ	961	;# 
   661   0003C2                     CWG1AS0         equ	962	;# 
   662   0003C3                     CWG1AS1         equ	963	;# 
   663   0003C4                     CWG1STR         equ	964	;# 
   664   0003C5                     CWG2CLK         equ	965	;# 
   665   0003C5                     CWG2CLKCON      equ	965	;# 
   666   0003C6                     CWG2ISM         equ	966	;# 
   667   0003C6                     CWG2DAT         equ	966	;# 
   668   0003C7                     CWG2DBR         equ	967	;# 
   669   0003C8                     CWG2DBF         equ	968	;# 
   670   0003C9                     CWG2CON0        equ	969	;# 
   671   0003CA                     CWG2CON1        equ	970	;# 
   672   0003CB                     CWG2AS0         equ	971	;# 
   673   0003CC                     CWG2AS1         equ	972	;# 
   674   0003CD                     CWG2STR         equ	973	;# 
   675   0003CE                     CWG3CLK         equ	974	;# 
   676   0003CE                     CWG3CLKCON      equ	974	;# 
   677   0003CF                     CWG3ISM         equ	975	;# 
   678   0003CF                     CWG3DAT         equ	975	;# 
   679   0003D0                     CWG3DBR         equ	976	;# 
   680   0003D1                     CWG3DBF         equ	977	;# 
   681   0003D2                     CWG3CON0        equ	978	;# 
   682   0003D3                     CWG3CON1        equ	979	;# 
   683   0003D4                     CWG3AS0         equ	980	;# 
   684   0003D5                     CWG3AS1         equ	981	;# 
   685   0003D6                     CWG3STR         equ	982	;# 
   686   0003D7                     FVRCON          equ	983	;# 
   687   0003D8                     ADCPCON         equ	984	;# 
   688   0003D8                     ADCP            equ	984	;# 
   689   0003D9                     ADLTH           equ	985	;# 
   690   0003D9                     ADLTHL          equ	985	;# 
   691   0003DA                     ADLTHH          equ	986	;# 
   692   0003DB                     ADUTH           equ	987	;# 
   693   0003DB                     ADUTHL          equ	987	;# 
   694   0003DC                     ADUTHH          equ	988	;# 
   695   0003DD                     ADERR           equ	989	;# 
   696   0003DD                     ADERRL          equ	989	;# 
   697   0003DE                     ADERRH          equ	990	;# 
   698   0003DF                     ADSTPT          equ	991	;# 
   699   0003DF                     ADSTPTL         equ	991	;# 
   700   0003E0                     ADSTPTH         equ	992	;# 
   701   0003E1                     ADFLTR          equ	993	;# 
   702   0003E1                     ADFLTRL         equ	993	;# 
   703   0003E2                     ADFLTRH         equ	994	;# 
   704   0003E3                     ADACC           equ	995	;# 
   705   0003E3                     ADACCL          equ	995	;# 
   706   0003E4                     ADACCH          equ	996	;# 
   707   0003E5                     ADACCU          equ	997	;# 
   708   0003E6                     ADCNT           equ	998	;# 
   709   0003E7                     ADRPT           equ	999	;# 
   710   0003E8                     ADPREV          equ	1000	;# 
   711   0003E8                     ADPREVL         equ	1000	;# 
   712   0003E9                     ADPREVH         equ	1001	;# 
   713   0003EA                     ADRES           equ	1002	;# 
   714   0003EA                     ADRESL          equ	1002	;# 
   715   0003EB                     ADRESH          equ	1003	;# 
   716   0003EC                     ADPCH           equ	1004	;# 
   717   0003EE                     ADACQ           equ	1006	;# 
   718   0003EE                     ADACQL          equ	1006	;# 
   719   0003EF                     ADACQH          equ	1007	;# 
   720   0003F0                     ADCAP           equ	1008	;# 
   721   0003F1                     ADPRE           equ	1009	;# 
   722   0003F1                     ADPREL          equ	1009	;# 
   723   0003F2                     ADPREH          equ	1010	;# 
   724   0003F3                     ADCON0          equ	1011	;# 
   725   0003F4                     ADCON1          equ	1012	;# 
   726   0003F5                     ADCON2          equ	1013	;# 
   727   0003F6                     ADCON3          equ	1014	;# 
   728   0003F7                     ADSTAT          equ	1015	;# 
   729   0003F8                     ADREF           equ	1016	;# 
   730   0003F9                     ADACT           equ	1017	;# 
   731   0003FA                     ADCLK           equ	1018	;# 
   732   000400                     ANSELA          equ	1024	;# 
   733   000401                     WPUA            equ	1025	;# 
   734   000402                     ODCONA          equ	1026	;# 
   735   000403                     SLRCONA         equ	1027	;# 
   736   000404                     INLVLA          equ	1028	;# 
   737   000405                     IOCAP           equ	1029	;# 
   738   000406                     IOCAN           equ	1030	;# 
   739   000407                     IOCAF           equ	1031	;# 
   740   000408                     ANSELB          equ	1032	;# 
   741   000409                     WPUB            equ	1033	;# 
   742   00040A                     ODCONB          equ	1034	;# 
   743   00040B                     SLRCONB         equ	1035	;# 
   744   00040C                     INLVLB          equ	1036	;# 
   745   00040D                     IOCBP           equ	1037	;# 
   746   00040E                     IOCBN           equ	1038	;# 
   747   00040F                     IOCBF           equ	1039	;# 
   748   000410                     ANSELC          equ	1040	;# 
   749   000411                     WPUC            equ	1041	;# 
   750   000412                     ODCONC          equ	1042	;# 
   751   000413                     SLRCONC         equ	1043	;# 
   752   000414                     INLVLC          equ	1044	;# 
   753   000415                     IOCCP           equ	1045	;# 
   754   000416                     IOCCN           equ	1046	;# 
   755   000417                     IOCCF           equ	1047	;# 
   756   000418                     ANSELD          equ	1048	;# 
   757   000419                     WPUD            equ	1049	;# 
   758   00041A                     ODCOND          equ	1050	;# 
   759   00041B                     SLRCOND         equ	1051	;# 
   760   00041C                     INLVLD          equ	1052	;# 
   761   000420                     ANSELE          equ	1056	;# 
   762   000421                     WPUE            equ	1057	;# 
   763   000422                     ODCONE          equ	1058	;# 
   764   000423                     SLRCONE         equ	1059	;# 
   765   000424                     INLVLE          equ	1060	;# 
   766   000425                     IOCEP           equ	1061	;# 
   767   000426                     IOCEN           equ	1062	;# 
   768   000427                     IOCEF           equ	1063	;# 
   769   000428                     ANSELF          equ	1064	;# 
   770   000429                     WPUF            equ	1065	;# 
   771   00042A                     ODCONF          equ	1066	;# 
   772   00042B                     SLRCONF         equ	1067	;# 
   773   00042C                     INLVLF          equ	1068	;# 
   774   000440                     NCO1ACC         equ	1088	;# 
   775   000440                     NCO1ACCL        equ	1088	;# 
   776   000441                     NCO1ACCH        equ	1089	;# 
   777   000442                     NCO1ACCU        equ	1090	;# 
   778   000443                     NCO1INC         equ	1091	;# 
   779   000443                     NCO1INCL        equ	1091	;# 
   780   000444                     NCO1INCH        equ	1092	;# 
   781   000445                     NCO1INCU        equ	1093	;# 
   782   000446                     NCO1CON         equ	1094	;# 
   783   000447                     NCO1CLK         equ	1095	;# 
   784   000448                     NCO2ACC         equ	1096	;# 
   785   000448                     NCO2ACCL        equ	1096	;# 
   786   000449                     NCO2ACCH        equ	1097	;# 
   787   00044A                     NCO2ACCU        equ	1098	;# 
   788   00044B                     NCO2INC         equ	1099	;# 
   789   00044B                     NCO2INCL        equ	1099	;# 
   790   00044C                     NCO2INCH        equ	1100	;# 
   791   00044D                     NCO2INCU        equ	1101	;# 
   792   00044E                     NCO2CON         equ	1102	;# 
   793   00044F                     NCO2CLK         equ	1103	;# 
   794   000450                     NCO3ACC         equ	1104	;# 
   795   000450                     NCO3ACCL        equ	1104	;# 
   796   000451                     NCO3ACCH        equ	1105	;# 
   797   000452                     NCO3ACCU        equ	1106	;# 
   798   000453                     NCO3INC         equ	1107	;# 
   799   000453                     NCO3INCL        equ	1107	;# 
   800   000454                     NCO3INCH        equ	1108	;# 
   801   000455                     NCO3INCU        equ	1109	;# 
   802   000456                     NCO3CON         equ	1110	;# 
   803   000457                     NCO3CLK         equ	1111	;# 
   804   000459                     IVTLOCK         equ	1113	;# 
   805   00045A                     IVTAD           equ	1114	;# 
   806   00045A                     IVTADL          equ	1114	;# 
   807   00045B                     IVTADH          equ	1115	;# 
   808   00045C                     IVTADU          equ	1116	;# 
   809   00045D                     IVTBASE         equ	1117	;# 
   810   00045D                     IVTBASEL        equ	1117	;# 
   811   00045E                     IVTBASEH        equ	1118	;# 
   812   00045F                     IVTBASEU        equ	1119	;# 
   813   000460                     PWM1ERS         equ	1120	;# 
   814   000461                     PWM1CLK         equ	1121	;# 
   815   000462                     PWM1LDS         equ	1122	;# 
   816   000463                     PWM1PR          equ	1123	;# 
   817   000463                     PWM1PRL         equ	1123	;# 
   818   000464                     PWM1PRH         equ	1124	;# 
   819   000465                     PWM1CPRE        equ	1125	;# 
   820   000466                     PWM1PIPOS       equ	1126	;# 
   821   000467                     PWM1GIR         equ	1127	;# 
   822   000468                     PWM1GIE         equ	1128	;# 
   823   000469                     PWM1CON         equ	1129	;# 
   824   00046A                     PWM1S1CFG       equ	1130	;# 
   825   00046B                     PWM1S1P1        equ	1131	;# 
   826   00046B                     PWM1S1P1L       equ	1131	;# 
   827   00046C                     PWM1S1P1H       equ	1132	;# 
   828   00046D                     PWM1S1P2        equ	1133	;# 
   829   00046D                     PWM1S1P2L       equ	1133	;# 
   830   00046E                     PWM1S1P2H       equ	1134	;# 
   831   00046F                     PWM2ERS         equ	1135	;# 
   832   000470                     PWM2CLK         equ	1136	;# 
   833   000471                     PWM2LDS         equ	1137	;# 
   834   000472                     PWM2PR          equ	1138	;# 
   835   000472                     PWM2PRL         equ	1138	;# 
   836   000473                     PWM2PRH         equ	1139	;# 
   837   000474                     PWM2CPRE        equ	1140	;# 
   838   000475                     PWM2PIPOS       equ	1141	;# 
   839   000476                     PWM2GIR         equ	1142	;# 
   840   000477                     PWM2GIE         equ	1143	;# 
   841   000478                     PWM2CON         equ	1144	;# 
   842   000479                     PWM2S1CFG       equ	1145	;# 
   843   00047A                     PWM2S1P1        equ	1146	;# 
   844   00047A                     PWM2S1P1L       equ	1146	;# 
   845   00047B                     PWM2S1P1H       equ	1147	;# 
   846   00047C                     PWM2S1P2        equ	1148	;# 
   847   00047C                     PWM2S1P2L       equ	1148	;# 
   848   00047D                     PWM2S1P2H       equ	1149	;# 
   849   00047E                     PWM3ERS         equ	1150	;# 
   850   00047F                     PWM3CLK         equ	1151	;# 
   851   000480                     PWM3LDS         equ	1152	;# 
   852   000481                     PWM3PR          equ	1153	;# 
   853   000481                     PWM3PRL         equ	1153	;# 
   854   000482                     PWM3PRH         equ	1154	;# 
   855   000483                     PWM3CPRE        equ	1155	;# 
   856   000484                     PWM3PIPOS       equ	1156	;# 
   857   000485                     PWM3GIR         equ	1157	;# 
   858   000486                     PWM3GIE         equ	1158	;# 
   859   000487                     PWM3CON         equ	1159	;# 
   860   000488                     PWM3S1CFG       equ	1160	;# 
   861   000489                     PWM3S1P1        equ	1161	;# 
   862   000489                     PWM3S1P1L       equ	1161	;# 
   863   00048A                     PWM3S1P1H       equ	1162	;# 
   864   00048B                     PWM3S1P2        equ	1163	;# 
   865   00048B                     PWM3S1P2L       equ	1163	;# 
   866   00048C                     PWM3S1P2H       equ	1164	;# 
   867   00049C                     PWMLOAD         equ	1180	;# 
   868   00049D                     PWMEN           equ	1181	;# 
   869   00049E                     PIE0            equ	1182	;# 
   870   00049F                     PIE1            equ	1183	;# 
   871   0004A0                     PIE2            equ	1184	;# 
   872   0004A1                     PIE3            equ	1185	;# 
   873   0004A2                     PIE4            equ	1186	;# 
   874   0004A3                     PIE5            equ	1187	;# 
   875   0004A4                     PIE6            equ	1188	;# 
   876   0004A5                     PIE7            equ	1189	;# 
   877   0004A6                     PIE8            equ	1190	;# 
   878   0004A7                     PIE9            equ	1191	;# 
   879   0004A8                     PIE10           equ	1192	;# 
   880   0004A9                     PIE11           equ	1193	;# 
   881   0004AA                     PIE12           equ	1194	;# 
   882   0004AB                     PIE13           equ	1195	;# 
   883   0004AC                     PIE14           equ	1196	;# 
   884   0004AD                     PIE15           equ	1197	;# 
   885   0004AE                     PIR0            equ	1198	;# 
   886   0004AF                     PIR1            equ	1199	;# 
   887   0004B0                     PIR2            equ	1200	;# 
   888   0004B1                     PIR3            equ	1201	;# 
   889   0004B2                     PIR4            equ	1202	;# 
   890   0004B3                     PIR5            equ	1203	;# 
   891   0004B4                     PIR6            equ	1204	;# 
   892   0004B5                     PIR7            equ	1205	;# 
   893   0004B6                     PIR8            equ	1206	;# 
   894   0004B7                     PIR9            equ	1207	;# 
   895   0004B8                     PIR10           equ	1208	;# 
   896   0004B9                     PIR11           equ	1209	;# 
   897   0004BA                     PIR12           equ	1210	;# 
   898   0004BB                     PIR13           equ	1211	;# 
   899   0004BC                     PIR14           equ	1212	;# 
   900   0004BD                     PIR15           equ	1213	;# 
   901   0004BE                     LATA            equ	1214	;# 
   902   0004BF                     LATB            equ	1215	;# 
   903   0004C0                     LATC            equ	1216	;# 
   904   0004C1                     LATD            equ	1217	;# 
   905   0004C2                     LATE            equ	1218	;# 
   906   0004C3                     LATF            equ	1219	;# 
   907   0004C6                     TRISA           equ	1222	;# 
   908   0004C7                     TRISB           equ	1223	;# 
   909   0004C8                     TRISC           equ	1224	;# 
   910   0004C9                     TRISD           equ	1225	;# 
   911   0004CA                     TRISE           equ	1226	;# 
   912   0004CB                     TRISF           equ	1227	;# 
   913   0004CE                     PORTA           equ	1230	;# 
   914   0004CF                     PORTB           equ	1231	;# 
   915   0004D0                     PORTC           equ	1232	;# 
   916   0004D1                     PORTD           equ	1233	;# 
   917   0004D2                     PORTE           equ	1234	;# 
   918   0004D3                     PORTF           equ	1235	;# 
   919   0004D6                     INTCON0         equ	1238	;# 
   920   0004D7                     INTCON1         equ	1239	;# 
   921   0004D8                     STATUS          equ	1240	;# 
   922   0004D9                     FSR2            equ	1241	;# 
   923   0004D9                     FSR2L           equ	1241	;# 
   924   0004DA                     FSR2H           equ	1242	;# 
   925   0004DB                     PLUSW2          equ	1243	;# 
   926   0004DC                     PREINC2         equ	1244	;# 
   927   0004DD                     POSTDEC2        equ	1245	;# 
   928   0004DE                     POSTINC2        equ	1246	;# 
   929   0004DF                     INDF2           equ	1247	;# 
   930   0004E0                     BSR             equ	1248	;# 
   931   0004E1                     FSR1            equ	1249	;# 
   932   0004E1                     FSR1L           equ	1249	;# 
   933   0004E2                     FSR1H           equ	1250	;# 
   934   0004E3                     PLUSW1          equ	1251	;# 
   935   0004E4                     PREINC1         equ	1252	;# 
   936   0004E5                     POSTDEC1        equ	1253	;# 
   937   0004E6                     POSTINC1        equ	1254	;# 
   938   0004E7                     INDF1           equ	1255	;# 
   939   0004E8                     WREG            equ	1256	;# 
   940   0004E9                     FSR0            equ	1257	;# 
   941   0004E9                     FSR0L           equ	1257	;# 
   942   0004EA                     FSR0H           equ	1258	;# 
   943   0004EB                     PLUSW0          equ	1259	;# 
   944   0004EC                     PREINC0         equ	1260	;# 
   945   0004ED                     POSTDEC0        equ	1261	;# 
   946   0004EE                     POSTINC0        equ	1262	;# 
   947   0004EF                     INDF0           equ	1263	;# 
   948   0004F0                     PCON0           equ	1264	;# 
   949   0004F1                     PCON1           equ	1265	;# 
   950   0004F2                     CPUDOZE         equ	1266	;# 
   951   0004F3                     PROD            equ	1267	;# 
   952   0004F3                     PRODL           equ	1267	;# 
   953   0004F4                     PRODH           equ	1268	;# 
   954   0004F5                     TABLAT          equ	1269	;# 
   955   0004F6                     TBLPTR          equ	1270	;# 
   956   0004F6                     TBLPTRL         equ	1270	;# 
   957   0004F7                     TBLPTRH         equ	1271	;# 
   958   0004F8                     TBLPTRU         equ	1272	;# 
   959   0004F9                     PCLAT           equ	1273	;# 
   960   0004F9                     PCL             equ	1273	;# 
   961   0004FA                     PCLATH          equ	1274	;# 
   962   0004FB                     PCLATU          equ	1275	;# 
   963   0004FC                     STKPTR          equ	1276	;# 
   964   0004FD                     TOS             equ	1277	;# 
   965   0004FD                     TOSL            equ	1277	;# 
   966   0004FE                     TOSH            equ	1278	;# 
   967   0004FF                     TOSU            equ	1279	;# 
   968   000039                     CLKRCON         equ	57	;# 
   969   00003A                     CLKRCLK         equ	58	;# 
   970   000040                     NVMCON0         equ	64	;# 
   971   000041                     NVMCON1         equ	65	;# 
   972   000042                     NVMLOCK         equ	66	;# 
   973   000043                     NVMADR          equ	67	;# 
   974   000043                     NVMADRL         equ	67	;# 
   975   000044                     NVMADRH         equ	68	;# 
   976   000045                     NVMADRU         equ	69	;# 
   977   000046                     NVMDAT          equ	70	;# 
   978   000046                     NVMDATL         equ	70	;# 
   979   000047                     NVMDATH         equ	71	;# 
   980   000048                     VREGCON         equ	72	;# 
   981   000049                     BORCON          equ	73	;# 
   982   00004A                     HLVDCON0        equ	74	;# 
   983   00004B                     HLVDCON1        equ	75	;# 
   984   00004C                     ZCDCON          equ	76	;# 
   985   000060                     PMD0            equ	96	;# 
   986   000061                     PMD1            equ	97	;# 
   987   000063                     PMD3            equ	99	;# 
   988   000064                     PMD4            equ	100	;# 
   989   000065                     PMD5            equ	101	;# 
   990   000066                     PMD6            equ	102	;# 
   991   000067                     PMD7            equ	103	;# 
   992   000068                     PMD8            equ	104	;# 
   993   00006A                     MD1CON0         equ	106	;# 
   994   00006B                     MD1CON1         equ	107	;# 
   995   00006C                     MD1SRC          equ	108	;# 
   996   00006D                     MD1CARL         equ	109	;# 
   997   00006E                     MD1CARH         equ	110	;# 
   998   00006F                     CMOUT           equ	111	;# 
   999   000070                     CM1CON0         equ	112	;# 
  1000   000071                     CM1CON1         equ	113	;# 
  1001   000072                     CM1NCH          equ	114	;# 
  1002   000073                     CM1PCH          equ	115	;# 
  1003   000074                     CM2CON0         equ	116	;# 
  1004   000075                     CM2CON1         equ	117	;# 
  1005   000076                     CM2NCH          equ	118	;# 
  1006   000077                     CM2PCH          equ	119	;# 
  1007   000078                     WDTCON0         equ	120	;# 
  1008   000079                     WDTCON1         equ	121	;# 
  1009   00007A                     WDTPS           equ	122	;# 
  1010   00007A                     WDTPSL          equ	122	;# 
  1011   00007B                     WDTPSH          equ	123	;# 
  1012   00007C                     WDTTMR          equ	124	;# 
  1013   00007D                     DAC1DAT         equ	125	;# 
  1014   00007D                     DAC1DATL        equ	125	;# 
  1015   00007F                     DAC1CON         equ	127	;# 
  1016   000080                     SPI1RXB         equ	128	;# 
  1017   000081                     SPI1TXB         equ	129	;# 
  1018   000082                     SPI1TCNT        equ	130	;# 
  1019   000082                     SPI1TCNTL       equ	130	;# 
  1020   000083                     SPI1TCNTH       equ	131	;# 
  1021   000084                     SPI1CON0        equ	132	;# 
  1022   000085                     SPI1CON1        equ	133	;# 
  1023   000086                     SPI1CON2        equ	134	;# 
  1024   000087                     SPI1STATUS      equ	135	;# 
  1025   000088                     SPI1TWIDTH      equ	136	;# 
  1026   000089                     SPI1BAUD        equ	137	;# 
  1027   00008A                     SPI1INTF        equ	138	;# 
  1028   00008B                     SPI1INTE        equ	139	;# 
  1029   00008C                     SPI1CLK         equ	140	;# 
  1030   00008D                     SPI2RXB         equ	141	;# 
  1031   00008E                     SPI2TXB         equ	142	;# 
  1032   00008F                     SPI2TCNT        equ	143	;# 
  1033   00008F                     SPI2TCNTL       equ	143	;# 
  1034   000090                     SPI2TCNTH       equ	144	;# 
  1035   000091                     SPI2CON0        equ	145	;# 
  1036   000092                     SPI2CON1        equ	146	;# 
  1037   000093                     SPI2CON2        equ	147	;# 
  1038   000094                     SPI2STATUS      equ	148	;# 
  1039   000095                     SPI2TWIDTH      equ	149	;# 
  1040   000096                     SPI2BAUD        equ	150	;# 
  1041   000097                     SPI2INTF        equ	151	;# 
  1042   000098                     SPI2INTE        equ	152	;# 
  1043   000099                     SPI2CLK         equ	153	;# 
  1044   0000AC                     ACTCON          equ	172	;# 
  1045   0000AD                     OSCCON1         equ	173	;# 
  1046   0000AE                     OSCCON2         equ	174	;# 
  1047   0000AF                     OSCCON3         equ	175	;# 
  1048   0000B0                     OSCTUNE         equ	176	;# 
  1049   0000B1                     OSCFRQ          equ	177	;# 
  1050   0000B1                     OSCFREQ         equ	177	;# 
  1051   0000B2                     OSCSTAT         equ	178	;# 
  1052   0000B2                     OSCSTAT1        equ	178	;# 
  1053   0000B3                     OSCEN           equ	179	;# 
  1054   0000B4                     PRLOCK          equ	180	;# 
  1055   0000B5                     SCANPR          equ	181	;# 
  1056   0000B6                     DMA1PR          equ	182	;# 
  1057   0000B7                     DMA2PR          equ	183	;# 
  1058   0000B8                     DMA3PR          equ	184	;# 
  1059   0000B9                     DMA4PR          equ	185	;# 
  1060   0000BA                     DMA5PR          equ	186	;# 
  1061   0000BB                     DMA6PR          equ	187	;# 
  1062   0000BE                     MAINPR          equ	190	;# 
  1063   0000BF                     ISRPR           equ	191	;# 
  1064   0000D4                     CLCDATA         equ	212	;# 
  1065   0000D5                     CLCSELECT       equ	213	;# 
  1066   0000D6                     CLCnCON         equ	214	;# 
  1067   0000D7                     CLCnPOL         equ	215	;# 
  1068   0000D8                     CLCnSEL0        equ	216	;# 
  1069   0000D9                     CLCnSEL1        equ	217	;# 
  1070   0000DA                     CLCnSEL2        equ	218	;# 
  1071   0000DB                     CLCnSEL3        equ	219	;# 
  1072   0000DC                     CLCnGLS0        equ	220	;# 
  1073   0000DD                     CLCnGLS1        equ	221	;# 
  1074   0000DE                     CLCnGLS2        equ	222	;# 
  1075   0000DF                     CLCnGLS3        equ	223	;# 
  1076   0000E8                     DMASELECT       equ	232	;# 
  1077   0000E9                     DMAnBUF         equ	233	;# 
  1078   0000EA                     DMAnDCNT        equ	234	;# 
  1079   0000EA                     DMAnDCNTL       equ	234	;# 
  1080   0000EB                     DMAnDCNTH       equ	235	;# 
  1081   0000EC                     DMAnDPTR        equ	236	;# 
  1082   0000EC                     DMAnDPTRL       equ	236	;# 
  1083   0000ED                     DMAnDPTRH       equ	237	;# 
  1084   0000EE                     DMAnDSZ         equ	238	;# 
  1085   0000EE                     DMAnDSZL        equ	238	;# 
  1086   0000EF                     DMAnDSZH        equ	239	;# 
  1087   0000F0                     DMAnDSA         equ	240	;# 
  1088   0000F0                     DMAnDSAL        equ	240	;# 
  1089   0000F1                     DMAnDSAH        equ	241	;# 
  1090   0000F2                     DMAnSCNT        equ	242	;# 
  1091   0000F2                     DMAnSCNTL       equ	242	;# 
  1092   0000F3                     DMAnSCNTH       equ	243	;# 
  1093   0000F4                     DMAnSPTR        equ	244	;# 
  1094   0000F4                     DMAnSPTRL       equ	244	;# 
  1095   0000F5                     DMAnSPTRH       equ	245	;# 
  1096   0000F6                     DMAnSPTRU       equ	246	;# 
  1097   0000F7                     DMAnSSZ         equ	247	;# 
  1098   0000F7                     DMAnSSZL        equ	247	;# 
  1099   0000F8                     DMAnSSZH        equ	248	;# 
  1100   0000F9                     DMAnSSA         equ	249	;# 
  1101   0000F9                     DMAnSSAL        equ	249	;# 
  1102   0000FA                     DMAnSSAH        equ	250	;# 
  1103   0000FB                     DMAnSSAU        equ	251	;# 
  1104   0000FC                     DMAnCON0        equ	252	;# 
  1105   0000FD                     DMAnCON1        equ	253	;# 
  1106   0000FE                     DMAnAIRQ        equ	254	;# 
  1107   0000FF                     DMAnSIRQ        equ	255	;# 
  1108   000200                     PPSLOCK         equ	512	;# 
  1109   000201                     RA0PPS          equ	513	;# 
  1110   000202                     RA1PPS          equ	514	;# 
  1111   000203                     RA2PPS          equ	515	;# 
  1112   000204                     RA3PPS          equ	516	;# 
  1113   000205                     RA4PPS          equ	517	;# 
  1114   000206                     RA5PPS          equ	518	;# 
  1115   000207                     RA6PPS          equ	519	;# 
  1116   000208                     RA7PPS          equ	520	;# 
  1117   000209                     RB0PPS          equ	521	;# 
  1118   00020A                     RB1PPS          equ	522	;# 
  1119   00020B                     RB2PPS          equ	523	;# 
  1120   00020C                     RB3PPS          equ	524	;# 
  1121   00020D                     RB4PPS          equ	525	;# 
  1122   00020E                     RB5PPS          equ	526	;# 
  1123   00020F                     RB6PPS          equ	527	;# 
  1124   000210                     RB7PPS          equ	528	;# 
  1125   000211                     RC0PPS          equ	529	;# 
  1126   000212                     RC1PPS          equ	530	;# 
  1127   000213                     RC2PPS          equ	531	;# 
  1128   000214                     RC3PPS          equ	532	;# 
  1129   000215                     RC4PPS          equ	533	;# 
  1130   000216                     RC5PPS          equ	534	;# 
  1131   000217                     RC6PPS          equ	535	;# 
  1132   000218                     RC7PPS          equ	536	;# 
  1133   000219                     RD0PPS          equ	537	;# 
  1134   00021A                     RD1PPS          equ	538	;# 
  1135   00021B                     RD2PPS          equ	539	;# 
  1136   00021C                     RD3PPS          equ	540	;# 
  1137   00021D                     RD4PPS          equ	541	;# 
  1138   00021E                     RD5PPS          equ	542	;# 
  1139   00021F                     RD6PPS          equ	543	;# 
  1140   000220                     RD7PPS          equ	544	;# 
  1141   000221                     RE0PPS          equ	545	;# 
  1142   000222                     RE1PPS          equ	546	;# 
  1143   000223                     RE2PPS          equ	547	;# 
  1144   000229                     RF0PPS          equ	553	;# 
  1145   00022A                     RF1PPS          equ	554	;# 
  1146   00022B                     RF2PPS          equ	555	;# 
  1147   00022C                     RF3PPS          equ	556	;# 
  1148   00022D                     RF4PPS          equ	557	;# 
  1149   00022E                     RF5PPS          equ	558	;# 
  1150   00022F                     RF6PPS          equ	559	;# 
  1151   000230                     RF7PPS          equ	560	;# 
  1152   00023E                     INT0PPS         equ	574	;# 
  1153   00023F                     INT1PPS         equ	575	;# 
  1154   000240                     INT2PPS         equ	576	;# 
  1155   000241                     T0CKIPPS        equ	577	;# 
  1156   000242                     T1CKIPPS        equ	578	;# 
  1157   000243                     T1GPPS          equ	579	;# 
  1158   000244                     T3CKIPPS        equ	580	;# 
  1159   000245                     T3GPPS          equ	581	;# 
  1160   000246                     T5CKIPPS        equ	582	;# 
  1161   000247                     T5GPPS          equ	583	;# 
  1162   000248                     T2INPPS         equ	584	;# 
  1163   000249                     T4INPPS         equ	585	;# 
  1164   00024A                     T6INPPS         equ	586	;# 
  1165   00024F                     CCP1PPS         equ	591	;# 
  1166   000250                     CCP2PPS         equ	592	;# 
  1167   000251                     CCP3PPS         equ	593	;# 
  1168   000253                     PWM1ERSPPS      equ	595	;# 
  1169   000254                     PWM2ERSPPS      equ	596	;# 
  1170   000255                     PWM3ERSPPS      equ	597	;# 
  1171   000257                     PWMIN0PPS       equ	599	;# 
  1172   000258                     PWMIN1PPS       equ	600	;# 
  1173   000259                     SMT1WINPPS      equ	601	;# 
  1174   00025A                     SMT1SIGPPS      equ	602	;# 
  1175   00025B                     CWG1PPS         equ	603	;# 
  1176   00025B                     CWG1INPPS       equ	603	;# 
  1177   00025C                     CWG2PPS         equ	604	;# 
  1178   00025C                     CWG2INPPS       equ	604	;# 
  1179   00025D                     CWG3PPS         equ	605	;# 
  1180   00025D                     CWG3INPPS       equ	605	;# 
  1181   00025E                     MD1CARLPPS      equ	606	;# 
  1182   00025E                     MDCARLPPS       equ	606	;# 
  1183   00025F                     MD1CARHPPS      equ	607	;# 
  1184   00025F                     MDCARHPPS       equ	607	;# 
  1185   000260                     MD1SRCPPS       equ	608	;# 
  1186   000260                     MDSRCPPS        equ	608	;# 
  1187   000261                     CLCIN0PPS       equ	609	;# 
  1188   000262                     CLCIN1PPS       equ	610	;# 
  1189   000263                     CLCIN2PPS       equ	611	;# 
  1190   000264                     CLCIN3PPS       equ	612	;# 
  1191   000265                     CLCIN4PPS       equ	613	;# 
  1192   000266                     CLCIN5PPS       equ	614	;# 
  1193   000267                     CLCIN6PPS       equ	615	;# 
  1194   000268                     CLCIN7PPS       equ	616	;# 
  1195   000269                     ADACTPPS        equ	617	;# 
  1196   00026A                     SPI1SCKPPS      equ	618	;# 
  1197   00026B                     SPI1SDIPPS      equ	619	;# 
  1198   00026C                     SPI1SSPPS       equ	620	;# 
  1199   00026D                     SPI2SCKPPS      equ	621	;# 
  1200   00026E                     SPI2SDIPPS      equ	622	;# 
  1201   00026F                     SPI2SSPPS       equ	623	;# 
  1202   000270                     I2C1SDAPPS      equ	624	;# 
  1203   000271                     I2C1SCLPPS      equ	625	;# 
  1204   000272                     U1RXPPS         equ	626	;# 
  1205   000273                     U1CTSPPS        equ	627	;# 
  1206   000274                     U2RXPPS         equ	628	;# 
  1207   000275                     U2CTSPPS        equ	629	;# 
  1208   000276                     U3RXPPS         equ	630	;# 
  1209   000277                     U3CTSPPS        equ	631	;# 
  1210   000278                     U4RXPPS         equ	632	;# 
  1211   000279                     U4CTSPPS        equ	633	;# 
  1212   00027A                     U5RXPPS         equ	634	;# 
  1213   00027B                     U5CTSPPS        equ	635	;# 
  1214   000286                     RC4I2C          equ	646	;# 
  1215   000287                     RC3I2C          equ	647	;# 
  1216   000288                     RB2I2C          equ	648	;# 
  1217   000289                     RB1I2C          equ	649	;# 
  1218   00028B                     I2C1RXB         equ	651	;# 
  1219   00028C                     I2C1TXB         equ	652	;# 
  1220   00028D                     I2C1CNT         equ	653	;# 
  1221   00028E                     I2C1ADB0        equ	654	;# 
  1222   00028F                     I2C1ADB1        equ	655	;# 
  1223   000290                     I2C1ADR0        equ	656	;# 
  1224   000291                     I2C1ADR1        equ	657	;# 
  1225   000292                     I2C1ADR2        equ	658	;# 
  1226   000293                     I2C1ADR3        equ	659	;# 
  1227   000294                     I2C1CON0        equ	660	;# 
  1228   000295                     I2C1CON1        equ	661	;# 
  1229   000296                     I2C1CON2        equ	662	;# 
  1230   000297                     I2C1ERR         equ	663	;# 
  1231   000298                     I2C1STAT0       equ	664	;# 
  1232   000299                     I2C1STAT1       equ	665	;# 
  1233   00029A                     I2C1PIR         equ	666	;# 
  1234   00029B                     I2C1PIE         equ	667	;# 
  1235   00029C                     I2C1CLK         equ	668	;# 
  1236   00029D                     I2C1BTO         equ	669	;# 
  1237   0002A1                     U1RXB           equ	673	;# 
  1238   0002A1                     U1RXBL          equ	673	;# 
  1239   0002A2                     U1RXCHK         equ	674	;# 
  1240   0002A3                     U1TXB           equ	675	;# 
  1241   0002A3                     U1TXBL          equ	675	;# 
  1242   0002A4                     U1TXCHK         equ	676	;# 
  1243   0002A5                     U1P1            equ	677	;# 
  1244   0002A5                     U1P1L           equ	677	;# 
  1245   0002A6                     U1P1H           equ	678	;# 
  1246   0002A7                     U1P2            equ	679	;# 
  1247   0002A7                     U1P2L           equ	679	;# 
  1248   0002A8                     U1P2H           equ	680	;# 
  1249   0002A9                     U1P3            equ	681	;# 
  1250   0002A9                     U1P3L           equ	681	;# 
  1251   0002AA                     U1P3H           equ	682	;# 
  1252   0002AB                     U1CON0          equ	683	;# 
  1253   0002AC                     U1CON1          equ	684	;# 
  1254   0002AD                     U1CON2          equ	685	;# 
  1255   0002AE                     U1BRG           equ	686	;# 
  1256   0002AE                     U1BRGL          equ	686	;# 
  1257   0002AF                     U1BRGH          equ	687	;# 
  1258   0002B0                     U1FIFO          equ	688	;# 
  1259   0002B1                     U1UIR           equ	689	;# 
  1260   0002B2                     U1ERRIR         equ	690	;# 
  1261   0002B3                     U1ERRIE         equ	691	;# 
  1262   0002B4                     U2RXB           equ	692	;# 
  1263   0002B4                     U2RXBL          equ	692	;# 
  1264   0002B6                     U2TXB           equ	694	;# 
  1265   0002B6                     U2TXBL          equ	694	;# 
  1266   0002B8                     U2P1            equ	696	;# 
  1267   0002B8                     U2P1L           equ	696	;# 
  1268   0002BA                     U2P2            equ	698	;# 
  1269   0002BA                     U2P2L           equ	698	;# 
  1270   0002BC                     U2P3            equ	700	;# 
  1271   0002BC                     U2P3L           equ	700	;# 
  1272   0002BE                     U2CON0          equ	702	;# 
  1273   0002BF                     U2CON1          equ	703	;# 
  1274   0002C0                     U2CON2          equ	704	;# 
  1275   0002C1                     U2BRG           equ	705	;# 
  1276   0002C1                     U2BRGL          equ	705	;# 
  1277   0002C2                     U2BRGH          equ	706	;# 
  1278   0002C3                     U2FIFO          equ	707	;# 
  1279   0002C4                     U2UIR           equ	708	;# 
  1280   0002C5                     U2ERRIR         equ	709	;# 
  1281   0002C6                     U2ERRIE         equ	710	;# 
  1282   0002C7                     U3RXB           equ	711	;# 
  1283   0002C7                     U3RXBL          equ	711	;# 
  1284   0002C9                     U3TXB           equ	713	;# 
  1285   0002C9                     U3TXBL          equ	713	;# 
  1286   0002CB                     U3P1            equ	715	;# 
  1287   0002CB                     U3P1L           equ	715	;# 
  1288   0002CD                     U3P2            equ	717	;# 
  1289   0002CD                     U3P2L           equ	717	;# 
  1290   0002CF                     U3P3            equ	719	;# 
  1291   0002CF                     U3P3L           equ	719	;# 
  1292   0002D1                     U3CON0          equ	721	;# 
  1293   0002D2                     U3CON1          equ	722	;# 
  1294   0002D3                     U3CON2          equ	723	;# 
  1295   0002D4                     U3BRG           equ	724	;# 
  1296   0002D4                     U3BRGL          equ	724	;# 
  1297   0002D5                     U3BRGH          equ	725	;# 
  1298   0002D6                     U3FIFO          equ	726	;# 
  1299   0002D7                     U3UIR           equ	727	;# 
  1300   0002D8                     U3ERRIR         equ	728	;# 
  1301   0002D9                     U3ERRIE         equ	729	;# 
  1302   0002DA                     U4RXB           equ	730	;# 
  1303   0002DA                     U4RXBL          equ	730	;# 
  1304   0002DC                     U4TXB           equ	732	;# 
  1305   0002DC                     U4TXBL          equ	732	;# 
  1306   0002DE                     U4P1            equ	734	;# 
  1307   0002DE                     U4P1L           equ	734	;# 
  1308   0002E0                     U4P2            equ	736	;# 
  1309   0002E0                     U4P2L           equ	736	;# 
  1310   0002E2                     U4P3            equ	738	;# 
  1311   0002E2                     U4P3L           equ	738	;# 
  1312   0002E4                     U4CON0          equ	740	;# 
  1313   0002E5                     U4CON1          equ	741	;# 
  1314   0002E6                     U4CON2          equ	742	;# 
  1315   0002E7                     U4BRG           equ	743	;# 
  1316   0002E7                     U4BRGL          equ	743	;# 
  1317   0002E8                     U4BRGH          equ	744	;# 
  1318   0002E9                     U4FIFO          equ	745	;# 
  1319   0002EA                     U4UIR           equ	746	;# 
  1320   0002EB                     U4ERRIR         equ	747	;# 
  1321   0002EC                     U4ERRIE         equ	748	;# 
  1322   0002ED                     U5RXB           equ	749	;# 
  1323   0002ED                     U5RXBL          equ	749	;# 
  1324   0002EF                     U5TXB           equ	751	;# 
  1325   0002EF                     U5TXBL          equ	751	;# 
  1326   0002F1                     U5P1            equ	753	;# 
  1327   0002F1                     U5P1L           equ	753	;# 
  1328   0002F3                     U5P2            equ	755	;# 
  1329   0002F3                     U5P2L           equ	755	;# 
  1330   0002F5                     U5P3            equ	757	;# 
  1331   0002F5                     U5P3L           equ	757	;# 
  1332   0002F7                     U5CON0          equ	759	;# 
  1333   0002F8                     U5CON1          equ	760	;# 
  1334   0002F9                     U5CON2          equ	761	;# 
  1335   0002FA                     U5BRG           equ	762	;# 
  1336   0002FA                     U5BRGL          equ	762	;# 
  1337   0002FB                     U5BRGH          equ	763	;# 
  1338   0002FC                     U5FIFO          equ	764	;# 
  1339   0002FD                     U5UIR           equ	765	;# 
  1340   0002FE                     U5ERRIR         equ	766	;# 
  1341   0002FF                     U5ERRIE         equ	767	;# 
  1342   000300                     SMT1TMR         equ	768	;# 
  1343   000300                     SMT1TMRL        equ	768	;# 
  1344   000301                     SMT1TMRH        equ	769	;# 
  1345   000302                     SMT1TMRU        equ	770	;# 
  1346   000303                     SMT1CPR         equ	771	;# 
  1347   000303                     SMT1CPRL        equ	771	;# 
  1348   000304                     SMT1CPRH        equ	772	;# 
  1349   000305                     SMT1CPRU        equ	773	;# 
  1350   000306                     SMT1CPW         equ	774	;# 
  1351   000306                     SMT1CPWL        equ	774	;# 
  1352   000307                     SMT1CPWH        equ	775	;# 
  1353   000308                     SMT1CPWU        equ	776	;# 
  1354   000309                     SMT1PR          equ	777	;# 
  1355   000309                     SMT1PRL         equ	777	;# 
  1356   00030A                     SMT1PRH         equ	778	;# 
  1357   00030B                     SMT1PRU         equ	779	;# 
  1358   00030C                     SMT1CON0        equ	780	;# 
  1359   00030D                     SMT1CON1        equ	781	;# 
  1360   00030E                     SMT1STAT        equ	782	;# 
  1361   00030F                     SMT1CLK         equ	783	;# 
  1362   000310                     SMT1SIG         equ	784	;# 
  1363   000311                     SMT1WIN         equ	785	;# 
  1364   000318                     TMR0L           equ	792	;# 
  1365   000318                     TMR0            equ	792	;# 
  1366   000319                     TMR0H           equ	793	;# 
  1367   000319                     PR0             equ	793	;# 
  1368   00031A                     T0CON0          equ	794	;# 
  1369   00031B                     T0CON1          equ	795	;# 
  1370   00031C                     TMR1            equ	796	;# 
  1371   00031C                     TMR1L           equ	796	;# 
  1372   00031D                     TMR1H           equ	797	;# 
  1373   00031E                     T1CON           equ	798	;# 
  1374   00031E                     TMR1CON         equ	798	;# 
  1375   00031F                     T1GCON          equ	799	;# 
  1376   00031F                     TMR1GCON        equ	799	;# 
  1377   000320                     T1GATE          equ	800	;# 
  1378   000320                     TMR1GATE        equ	800	;# 
  1379   000321                     T1CLK           equ	801	;# 
  1380   000321                     TMR1CLK         equ	801	;# 
  1381   000321                     PR1             equ	801	;# 
  1382   000322                     T2TMR           equ	802	;# 
  1383   000322                     TMR2            equ	802	;# 
  1384   000323                     T2PR            equ	803	;# 
  1385   000323                     PR2             equ	803	;# 
  1386   000324                     T2CON           equ	804	;# 
  1387   000325                     T2HLT           equ	805	;# 
  1388   000326                     T2CLKCON        equ	806	;# 
  1389   000326                     T2CLK           equ	806	;# 
  1390   000327                     T2RST           equ	807	;# 
  1391   000328                     TMR3            equ	808	;# 
  1392   000328                     TMR3L           equ	808	;# 
  1393   000329                     TMR3H           equ	809	;# 
  1394   00032A                     T3CON           equ	810	;# 
  1395   00032A                     TMR3CON         equ	810	;# 
  1396   00032B                     T3GCON          equ	811	;# 
  1397   00032B                     TMR3GCON        equ	811	;# 
  1398   00032C                     T3GATE          equ	812	;# 
  1399   00032C                     TMR3GATE        equ	812	;# 
  1400   00032D                     T3CLK           equ	813	;# 
  1401   00032D                     TMR3CLK         equ	813	;# 
  1402   00032D                     PR3             equ	813	;# 
  1403   00032E                     T4TMR           equ	814	;# 
  1404   00032E                     TMR4            equ	814	;# 
  1405   00032F                     T4PR            equ	815	;# 
  1406   00032F                     PR4             equ	815	;# 
  1407   000330                     T4CON           equ	816	;# 
  1408   000331                     T4HLT           equ	817	;# 
  1409   000332                     T4CLKCON        equ	818	;# 
  1410   000332                     T4CLK           equ	818	;# 
  1411   000333                     T4RST           equ	819	;# 
  1412   000334                     TMR5            equ	820	;# 
  1413   000334                     TMR5L           equ	820	;# 
  1414   000335                     TMR5H           equ	821	;# 
  1415   000336                     T5CON           equ	822	;# 
  1416   000336                     TMR5CON         equ	822	;# 
  1417   000337                     T5GCON          equ	823	;# 
  1418   000337                     TMR5GCON        equ	823	;# 
  1419   000338                     T5GATE          equ	824	;# 
  1420   000338                     TMR5GATE        equ	824	;# 
  1421   000339                     T5CLK           equ	825	;# 
  1422   000339                     TMR5CLK         equ	825	;# 
  1423   000339                     PR5             equ	825	;# 
  1424   00033A                     T6TMR           equ	826	;# 
  1425   00033A                     TMR6            equ	826	;# 
  1426   00033B                     T6PR            equ	827	;# 
  1427   00033B                     PR6             equ	827	;# 
  1428   00033C                     T6CON           equ	828	;# 
  1429   00033D                     T6HLT           equ	829	;# 
  1430   00033E                     T6CLKCON        equ	830	;# 
  1431   00033E                     T6CLK           equ	830	;# 
  1432   00033F                     T6RST           equ	831	;# 
  1433   000340                     CCPR1           equ	832	;# 
  1434   000340                     CCPR1L          equ	832	;# 
  1435   000341                     CCPR1H          equ	833	;# 
  1436   000342                     CCP1CON         equ	834	;# 
  1437   000343                     CCP1CAP         equ	835	;# 
  1438   000344                     CCPR2           equ	836	;# 
  1439   000344                     CCPR2L          equ	836	;# 
  1440   000345                     CCPR2H          equ	837	;# 
  1441   000346                     CCP2CON         equ	838	;# 
  1442   000347                     CCP2CAP         equ	839	;# 
  1443   000348                     CCPR3           equ	840	;# 
  1444   000348                     CCPR3L          equ	840	;# 
  1445   000349                     CCPR3H          equ	841	;# 
  1446   00034A                     CCP3CON         equ	842	;# 
  1447   00034B                     CCP3CAP         equ	843	;# 
  1448   00034C                     CCPTMRS0        equ	844	;# 
  1449   00034F                     CRCDATA         equ	847	;# 
  1450   00034F                     CRCDATL         equ	847	;# 
  1451   000350                     CRCDATH         equ	848	;# 
  1452   000351                     CRCACC          equ	849	;# 
  1453   000351                     CRCACCL         equ	849	;# 
  1454   000352                     CRCACCH         equ	850	;# 
  1455   000353                     CRCSHFT         equ	851	;# 
  1456   000353                     CRCSHIFTL       equ	851	;# 
  1457   000354                     CRCSHIFTH       equ	852	;# 
  1458   000355                     CRCXOR          equ	853	;# 
  1459   000355                     CRCXORL         equ	853	;# 
  1460   000356                     CRCXORH         equ	854	;# 
  1461   000357                     CRCCON0         equ	855	;# 
  1462   000358                     CRCCON1         equ	856	;# 
  1463   00035A                     SCANLADR        equ	858	;# 
  1464   00035A                     SCANLADRL       equ	858	;# 
  1465   00035B                     SCANLADRH       equ	859	;# 
  1466   00035C                     SCANLADRU       equ	860	;# 
  1467   00035D                     SCANHADR        equ	861	;# 
  1468   00035D                     SCANHADRL       equ	861	;# 
  1469   00035E                     SCANHADRH       equ	862	;# 
  1470   00035F                     SCANHADRU       equ	863	;# 
  1471   000360                     SCANCON0        equ	864	;# 
  1472   000361                     SCANTRIG        equ	865	;# 
  1473   000362                     IPR0            equ	866	;# 
  1474   000363                     IPR1            equ	867	;# 
  1475   000364                     IPR2            equ	868	;# 
  1476   000365                     IPR3            equ	869	;# 
  1477   000366                     IPR4            equ	870	;# 
  1478   000367                     IPR5            equ	871	;# 
  1479   000368                     IPR6            equ	872	;# 
  1480   000369                     IPR7            equ	873	;# 
  1481   00036A                     IPR8            equ	874	;# 
  1482   00036B                     IPR9            equ	875	;# 
  1483   00036C                     IPR10           equ	876	;# 
  1484   00036D                     IPR11           equ	877	;# 
  1485   00036E                     IPR12           equ	878	;# 
  1486   00036F                     IPR13           equ	879	;# 
  1487   000370                     IPR14           equ	880	;# 
  1488   000371                     IPR15           equ	881	;# 
  1489   000373                     STATUS_CSHAD    equ	883	;# 
  1490   000374                     WREG_CSHAD      equ	884	;# 
  1491   000375                     BSR_CSHAD       equ	885	;# 
  1492   000376                     SHADCON         equ	886	;# 
  1493   000377                     STATUS_SHAD     equ	887	;# 
  1494   000378                     WREG_SHAD       equ	888	;# 
  1495   000379                     BSR_SHAD        equ	889	;# 
  1496   00037A                     PCLATH_SHAD     equ	890	;# 
  1497   00037B                     PCLATU_SHAD     equ	891	;# 
  1498   00037C                     FSR0SH          equ	892	;# 
  1499   00037C                     FSR0L_SHAD      equ	892	;# 
  1500   00037D                     FSR0H_SHAD      equ	893	;# 
  1501   00037E                     FSR1SH          equ	894	;# 
  1502   00037E                     FSR1L_SHAD      equ	894	;# 
  1503   00037F                     FSR1H_SHAD      equ	895	;# 
  1504   000380                     FSR2SH          equ	896	;# 
  1505   000380                     FSR2L_SHAD      equ	896	;# 
  1506   000381                     FSR2H_SHAD      equ	897	;# 
  1507   000382                     PRODSH          equ	898	;# 
  1508   000382                     PRODL_SHAD      equ	898	;# 
  1509   000383                     PRODH_SHAD      equ	899	;# 
  1510   0003BC                     CWG1CLK         equ	956	;# 
  1511   0003BC                     CWG1CLKCON      equ	956	;# 
  1512   0003BD                     CWG1ISM         equ	957	;# 
  1513   0003BD                     CWG1DAT         equ	957	;# 
  1514   0003BE                     CWG1DBR         equ	958	;# 
  1515   0003BF                     CWG1DBF         equ	959	;# 
  1516   0003C0                     CWG1CON0        equ	960	;# 
  1517   0003C1                     CWG1CON1        equ	961	;# 
  1518   0003C2                     CWG1AS0         equ	962	;# 
  1519   0003C3                     CWG1AS1         equ	963	;# 
  1520   0003C4                     CWG1STR         equ	964	;# 
  1521   0003C5                     CWG2CLK         equ	965	;# 
  1522   0003C5                     CWG2CLKCON      equ	965	;# 
  1523   0003C6                     CWG2ISM         equ	966	;# 
  1524   0003C6                     CWG2DAT         equ	966	;# 
  1525   0003C7                     CWG2DBR         equ	967	;# 
  1526   0003C8                     CWG2DBF         equ	968	;# 
  1527   0003C9                     CWG2CON0        equ	969	;# 
  1528   0003CA                     CWG2CON1        equ	970	;# 
  1529   0003CB                     CWG2AS0         equ	971	;# 
  1530   0003CC                     CWG2AS1         equ	972	;# 
  1531   0003CD                     CWG2STR         equ	973	;# 
  1532   0003CE                     CWG3CLK         equ	974	;# 
  1533   0003CE                     CWG3CLKCON      equ	974	;# 
  1534   0003CF                     CWG3ISM         equ	975	;# 
  1535   0003CF                     CWG3DAT         equ	975	;# 
  1536   0003D0                     CWG3DBR         equ	976	;# 
  1537   0003D1                     CWG3DBF         equ	977	;# 
  1538   0003D2                     CWG3CON0        equ	978	;# 
  1539   0003D3                     CWG3CON1        equ	979	;# 
  1540   0003D4                     CWG3AS0         equ	980	;# 
  1541   0003D5                     CWG3AS1         equ	981	;# 
  1542   0003D6                     CWG3STR         equ	982	;# 
  1543   0003D7                     FVRCON          equ	983	;# 
  1544   0003D8                     ADCPCON         equ	984	;# 
  1545   0003D8                     ADCP            equ	984	;# 
  1546   0003D9                     ADLTH           equ	985	;# 
  1547   0003D9                     ADLTHL          equ	985	;# 
  1548   0003DA                     ADLTHH          equ	986	;# 
  1549   0003DB                     ADUTH           equ	987	;# 
  1550   0003DB                     ADUTHL          equ	987	;# 
  1551   0003DC                     ADUTHH          equ	988	;# 
  1552   0003DD                     ADERR           equ	989	;# 
  1553   0003DD                     ADERRL          equ	989	;# 
  1554   0003DE                     ADERRH          equ	990	;# 
  1555   0003DF                     ADSTPT          equ	991	;# 
  1556   0003DF                     ADSTPTL         equ	991	;# 
  1557   0003E0                     ADSTPTH         equ	992	;# 
  1558   0003E1                     ADFLTR          equ	993	;# 
  1559   0003E1                     ADFLTRL         equ	993	;# 
  1560   0003E2                     ADFLTRH         equ	994	;# 
  1561   0003E3                     ADACC           equ	995	;# 
  1562   0003E3                     ADACCL          equ	995	;# 
  1563   0003E4                     ADACCH          equ	996	;# 
  1564   0003E5                     ADACCU          equ	997	;# 
  1565   0003E6                     ADCNT           equ	998	;# 
  1566   0003E7                     ADRPT           equ	999	;# 
  1567   0003E8                     ADPREV          equ	1000	;# 
  1568   0003E8                     ADPREVL         equ	1000	;# 
  1569   0003E9                     ADPREVH         equ	1001	;# 
  1570   0003EA                     ADRES           equ	1002	;# 
  1571   0003EA                     ADRESL          equ	1002	;# 
  1572   0003EB                     ADRESH          equ	1003	;# 
  1573   0003EC                     ADPCH           equ	1004	;# 
  1574   0003EE                     ADACQ           equ	1006	;# 
  1575   0003EE                     ADACQL          equ	1006	;# 
  1576   0003EF                     ADACQH          equ	1007	;# 
  1577   0003F0                     ADCAP           equ	1008	;# 
  1578   0003F1                     ADPRE           equ	1009	;# 
  1579   0003F1                     ADPREL          equ	1009	;# 
  1580   0003F2                     ADPREH          equ	1010	;# 
  1581   0003F3                     ADCON0          equ	1011	;# 
  1582   0003F4                     ADCON1          equ	1012	;# 
  1583   0003F5                     ADCON2          equ	1013	;# 
  1584   0003F6                     ADCON3          equ	1014	;# 
  1585   0003F7                     ADSTAT          equ	1015	;# 
  1586   0003F8                     ADREF           equ	1016	;# 
  1587   0003F9                     ADACT           equ	1017	;# 
  1588   0003FA                     ADCLK           equ	1018	;# 
  1589   000400                     ANSELA          equ	1024	;# 
  1590   000401                     WPUA            equ	1025	;# 
  1591   000402                     ODCONA          equ	1026	;# 
  1592   000403                     SLRCONA         equ	1027	;# 
  1593   000404                     INLVLA          equ	1028	;# 
  1594   000405                     IOCAP           equ	1029	;# 
  1595   000406                     IOCAN           equ	1030	;# 
  1596   000407                     IOCAF           equ	1031	;# 
  1597   000408                     ANSELB          equ	1032	;# 
  1598   000409                     WPUB            equ	1033	;# 
  1599   00040A                     ODCONB          equ	1034	;# 
  1600   00040B                     SLRCONB         equ	1035	;# 
  1601   00040C                     INLVLB          equ	1036	;# 
  1602   00040D                     IOCBP           equ	1037	;# 
  1603   00040E                     IOCBN           equ	1038	;# 
  1604   00040F                     IOCBF           equ	1039	;# 
  1605   000410                     ANSELC          equ	1040	;# 
  1606   000411                     WPUC            equ	1041	;# 
  1607   000412                     ODCONC          equ	1042	;# 
  1608   000413                     SLRCONC         equ	1043	;# 
  1609   000414                     INLVLC          equ	1044	;# 
  1610   000415                     IOCCP           equ	1045	;# 
  1611   000416                     IOCCN           equ	1046	;# 
  1612   000417                     IOCCF           equ	1047	;# 
  1613   000418                     ANSELD          equ	1048	;# 
  1614   000419                     WPUD            equ	1049	;# 
  1615   00041A                     ODCOND          equ	1050	;# 
  1616   00041B                     SLRCOND         equ	1051	;# 
  1617   00041C                     INLVLD          equ	1052	;# 
  1618   000420                     ANSELE          equ	1056	;# 
  1619   000421                     WPUE            equ	1057	;# 
  1620   000422                     ODCONE          equ	1058	;# 
  1621   000423                     SLRCONE         equ	1059	;# 
  1622   000424                     INLVLE          equ	1060	;# 
  1623   000425                     IOCEP           equ	1061	;# 
  1624   000426                     IOCEN           equ	1062	;# 
  1625   000427                     IOCEF           equ	1063	;# 
  1626   000428                     ANSELF          equ	1064	;# 
  1627   000429                     WPUF            equ	1065	;# 
  1628   00042A                     ODCONF          equ	1066	;# 
  1629   00042B                     SLRCONF         equ	1067	;# 
  1630   00042C                     INLVLF          equ	1068	;# 
  1631   000440                     NCO1ACC         equ	1088	;# 
  1632   000440                     NCO1ACCL        equ	1088	;# 
  1633   000441                     NCO1ACCH        equ	1089	;# 
  1634   000442                     NCO1ACCU        equ	1090	;# 
  1635   000443                     NCO1INC         equ	1091	;# 
  1636   000443                     NCO1INCL        equ	1091	;# 
  1637   000444                     NCO1INCH        equ	1092	;# 
  1638   000445                     NCO1INCU        equ	1093	;# 
  1639   000446                     NCO1CON         equ	1094	;# 
  1640   000447                     NCO1CLK         equ	1095	;# 
  1641   000448                     NCO2ACC         equ	1096	;# 
  1642   000448                     NCO2ACCL        equ	1096	;# 
  1643   000449                     NCO2ACCH        equ	1097	;# 
  1644   00044A                     NCO2ACCU        equ	1098	;# 
  1645   00044B                     NCO2INC         equ	1099	;# 
  1646   00044B                     NCO2INCL        equ	1099	;# 
  1647   00044C                     NCO2INCH        equ	1100	;# 
  1648   00044D                     NCO2INCU        equ	1101	;# 
  1649   00044E                     NCO2CON         equ	1102	;# 
  1650   00044F                     NCO2CLK         equ	1103	;# 
  1651   000450                     NCO3ACC         equ	1104	;# 
  1652   000450                     NCO3ACCL        equ	1104	;# 
  1653   000451                     NCO3ACCH        equ	1105	;# 
  1654   000452                     NCO3ACCU        equ	1106	;# 
  1655   000453                     NCO3INC         equ	1107	;# 
  1656   000453                     NCO3INCL        equ	1107	;# 
  1657   000454                     NCO3INCH        equ	1108	;# 
  1658   000455                     NCO3INCU        equ	1109	;# 
  1659   000456                     NCO3CON         equ	1110	;# 
  1660   000457                     NCO3CLK         equ	1111	;# 
  1661   000459                     IVTLOCK         equ	1113	;# 
  1662   00045A                     IVTAD           equ	1114	;# 
  1663   00045A                     IVTADL          equ	1114	;# 
  1664   00045B                     IVTADH          equ	1115	;# 
  1665   00045C                     IVTADU          equ	1116	;# 
  1666   00045D                     IVTBASE         equ	1117	;# 
  1667   00045D                     IVTBASEL        equ	1117	;# 
  1668   00045E                     IVTBASEH        equ	1118	;# 
  1669   00045F                     IVTBASEU        equ	1119	;# 
  1670   000460                     PWM1ERS         equ	1120	;# 
  1671   000461                     PWM1CLK         equ	1121	;# 
  1672   000462                     PWM1LDS         equ	1122	;# 
  1673   000463                     PWM1PR          equ	1123	;# 
  1674   000463                     PWM1PRL         equ	1123	;# 
  1675   000464                     PWM1PRH         equ	1124	;# 
  1676   000465                     PWM1CPRE        equ	1125	;# 
  1677   000466                     PWM1PIPOS       equ	1126	;# 
  1678   000467                     PWM1GIR         equ	1127	;# 
  1679   000468                     PWM1GIE         equ	1128	;# 
  1680   000469                     PWM1CON         equ	1129	;# 
  1681   00046A                     PWM1S1CFG       equ	1130	;# 
  1682   00046B                     PWM1S1P1        equ	1131	;# 
  1683   00046B                     PWM1S1P1L       equ	1131	;# 
  1684   00046C                     PWM1S1P1H       equ	1132	;# 
  1685   00046D                     PWM1S1P2        equ	1133	;# 
  1686   00046D                     PWM1S1P2L       equ	1133	;# 
  1687   00046E                     PWM1S1P2H       equ	1134	;# 
  1688   00046F                     PWM2ERS         equ	1135	;# 
  1689   000470                     PWM2CLK         equ	1136	;# 
  1690   000471                     PWM2LDS         equ	1137	;# 
  1691   000472                     PWM2PR          equ	1138	;# 
  1692   000472                     PWM2PRL         equ	1138	;# 
  1693   000473                     PWM2PRH         equ	1139	;# 
  1694   000474                     PWM2CPRE        equ	1140	;# 
  1695   000475                     PWM2PIPOS       equ	1141	;# 
  1696   000476                     PWM2GIR         equ	1142	;# 
  1697   000477                     PWM2GIE         equ	1143	;# 
  1698   000478                     PWM2CON         equ	1144	;# 
  1699   000479                     PWM2S1CFG       equ	1145	;# 
  1700   00047A                     PWM2S1P1        equ	1146	;# 
  1701   00047A                     PWM2S1P1L       equ	1146	;# 
  1702   00047B                     PWM2S1P1H       equ	1147	;# 
  1703   00047C                     PWM2S1P2        equ	1148	;# 
  1704   00047C                     PWM2S1P2L       equ	1148	;# 
  1705   00047D                     PWM2S1P2H       equ	1149	;# 
  1706   00047E                     PWM3ERS         equ	1150	;# 
  1707   00047F                     PWM3CLK         equ	1151	;# 
  1708   000480                     PWM3LDS         equ	1152	;# 
  1709   000481                     PWM3PR          equ	1153	;# 
  1710   000481                     PWM3PRL         equ	1153	;# 
  1711   000482                     PWM3PRH         equ	1154	;# 
  1712   000483                     PWM3CPRE        equ	1155	;# 
  1713   000484                     PWM3PIPOS       equ	1156	;# 
  1714   000485                     PWM3GIR         equ	1157	;# 
  1715   000486                     PWM3GIE         equ	1158	;# 
  1716   000487                     PWM3CON         equ	1159	;# 
  1717   000488                     PWM3S1CFG       equ	1160	;# 
  1718   000489                     PWM3S1P1        equ	1161	;# 
  1719   000489                     PWM3S1P1L       equ	1161	;# 
  1720   00048A                     PWM3S1P1H       equ	1162	;# 
  1721   00048B                     PWM3S1P2        equ	1163	;# 
  1722   00048B                     PWM3S1P2L       equ	1163	;# 
  1723   00048C                     PWM3S1P2H       equ	1164	;# 
  1724   00049C                     PWMLOAD         equ	1180	;# 
  1725   00049D                     PWMEN           equ	1181	;# 
  1726   00049E                     PIE0            equ	1182	;# 
  1727   00049F                     PIE1            equ	1183	;# 
  1728   0004A0                     PIE2            equ	1184	;# 
  1729   0004A1                     PIE3            equ	1185	;# 
  1730   0004A2                     PIE4            equ	1186	;# 
  1731   0004A3                     PIE5            equ	1187	;# 
  1732   0004A4                     PIE6            equ	1188	;# 
  1733   0004A5                     PIE7            equ	1189	;# 
  1734   0004A6                     PIE8            equ	1190	;# 
  1735   0004A7                     PIE9            equ	1191	;# 
  1736   0004A8                     PIE10           equ	1192	;# 
  1737   0004A9                     PIE11           equ	1193	;# 
  1738   0004AA                     PIE12           equ	1194	;# 
  1739   0004AB                     PIE13           equ	1195	;# 
  1740   0004AC                     PIE14           equ	1196	;# 
  1741   0004AD                     PIE15           equ	1197	;# 
  1742   0004AE                     PIR0            equ	1198	;# 
  1743   0004AF                     PIR1            equ	1199	;# 
  1744   0004B0                     PIR2            equ	1200	;# 
  1745   0004B1                     PIR3            equ	1201	;# 
  1746   0004B2                     PIR4            equ	1202	;# 
  1747   0004B3                     PIR5            equ	1203	;# 
  1748   0004B4                     PIR6            equ	1204	;# 
  1749   0004B5                     PIR7            equ	1205	;# 
  1750   0004B6                     PIR8            equ	1206	;# 
  1751   0004B7                     PIR9            equ	1207	;# 
  1752   0004B8                     PIR10           equ	1208	;# 
  1753   0004B9                     PIR11           equ	1209	;# 
  1754   0004BA                     PIR12           equ	1210	;# 
  1755   0004BB                     PIR13           equ	1211	;# 
  1756   0004BC                     PIR14           equ	1212	;# 
  1757   0004BD                     PIR15           equ	1213	;# 
  1758   0004BE                     LATA            equ	1214	;# 
  1759   0004BF                     LATB            equ	1215	;# 
  1760   0004C0                     LATC            equ	1216	;# 
  1761   0004C1                     LATD            equ	1217	;# 
  1762   0004C2                     LATE            equ	1218	;# 
  1763   0004C3                     LATF            equ	1219	;# 
  1764   0004C6                     TRISA           equ	1222	;# 
  1765   0004C7                     TRISB           equ	1223	;# 
  1766   0004C8                     TRISC           equ	1224	;# 
  1767   0004C9                     TRISD           equ	1225	;# 
  1768   0004CA                     TRISE           equ	1226	;# 
  1769   0004CB                     TRISF           equ	1227	;# 
  1770   0004CE                     PORTA           equ	1230	;# 
  1771   0004CF                     PORTB           equ	1231	;# 
  1772   0004D0                     PORTC           equ	1232	;# 
  1773   0004D1                     PORTD           equ	1233	;# 
  1774   0004D2                     PORTE           equ	1234	;# 
  1775   0004D3                     PORTF           equ	1235	;# 
  1776   0004D6                     INTCON0         equ	1238	;# 
  1777   0004D7                     INTCON1         equ	1239	;# 
  1778   0004D8                     STATUS          equ	1240	;# 
  1779   0004D9                     FSR2            equ	1241	;# 
  1780   0004D9                     FSR2L           equ	1241	;# 
  1781   0004DA                     FSR2H           equ	1242	;# 
  1782   0004DB                     PLUSW2          equ	1243	;# 
  1783   0004DC                     PREINC2         equ	1244	;# 
  1784   0004DD                     POSTDEC2        equ	1245	;# 
  1785   0004DE                     POSTINC2        equ	1246	;# 
  1786   0004DF                     INDF2           equ	1247	;# 
  1787   0004E0                     BSR             equ	1248	;# 
  1788   0004E1                     FSR1            equ	1249	;# 
  1789   0004E1                     FSR1L           equ	1249	;# 
  1790   0004E2                     FSR1H           equ	1250	;# 
  1791   0004E3                     PLUSW1          equ	1251	;# 
  1792   0004E4                     PREINC1         equ	1252	;# 
  1793   0004E5                     POSTDEC1        equ	1253	;# 
  1794   0004E6                     POSTINC1        equ	1254	;# 
  1795   0004E7                     INDF1           equ	1255	;# 
  1796   0004E8                     WREG            equ	1256	;# 
  1797   0004E9                     FSR0            equ	1257	;# 
  1798   0004E9                     FSR0L           equ	1257	;# 
  1799   0004EA                     FSR0H           equ	1258	;# 
  1800   0004EB                     PLUSW0          equ	1259	;# 
  1801   0004EC                     PREINC0         equ	1260	;# 
  1802   0004ED                     POSTDEC0        equ	1261	;# 
  1803   0004EE                     POSTINC0        equ	1262	;# 
  1804   0004EF                     INDF0           equ	1263	;# 
  1805   0004F0                     PCON0           equ	1264	;# 
  1806   0004F1                     PCON1           equ	1265	;# 
  1807   0004F2                     CPUDOZE         equ	1266	;# 
  1808   0004F3                     PROD            equ	1267	;# 
  1809   0004F3                     PRODL           equ	1267	;# 
  1810   0004F4                     PRODH           equ	1268	;# 
  1811   0004F5                     TABLAT          equ	1269	;# 
  1812   0004F6                     TBLPTR          equ	1270	;# 
  1813   0004F6                     TBLPTRL         equ	1270	;# 
  1814   0004F7                     TBLPTRH         equ	1271	;# 
  1815   0004F8                     TBLPTRU         equ	1272	;# 
  1816   0004F9                     PCLAT           equ	1273	;# 
  1817   0004F9                     PCL             equ	1273	;# 
  1818   0004FA                     PCLATH          equ	1274	;# 
  1819   0004FB                     PCLATU          equ	1275	;# 
  1820   0004FC                     STKPTR          equ	1276	;# 
  1821   0004FD                     TOS             equ	1277	;# 
  1822   0004FD                     TOSL            equ	1277	;# 
  1823   0004FE                     TOSH            equ	1278	;# 
  1824   0004FF                     TOSU            equ	1279	;# 
  1825                           
  1826                           	psect	idataCOMRAM
  1827   00301E                     __pidataCOMRAM:
  1828                           	callstack 0
  1829                           
  1830                           ;initializer for _segundos
  1831   00301E  0A                 	db	10
  1832                           
  1833                           ;initializer for _minutos
  1834   00301F  0A                 	db	10
  1835                           
  1836                           ;initializer for _horas
  1837   003020  0A                 	db	10
  1838                           
  1839                           ;initializer for _I2C_LCD_ADDR
  1840   003021  27                 	db	39
  1841   0000B3                     _OSCEN          set	179
  1842   0000B1                     _OSCFRQ         set	177
  1843   0000AD                     _OSCCON1        set	173
  1844   00029A                     _I2C1PIRbits    set	666
  1845   000295                     _I2C1CON1bits   set	661
  1846   000299                     _I2C1STAT1bits  set	665
  1847   00028C                     _I2C1TXB        set	652
  1848   00028F                     _I2C1ADB1       set	655
  1849   00028D                     _I2C1CNT        set	653
  1850   000296                     _I2C1CON2bits   set	662
  1851   00029C                     _I2C1CLKbits    set	668
  1852   000294                     _I2C1CON0bits   set	660
  1853   000286                     _RC4I2Cbits     set	646
  1854   000287                     _RC3I2Cbits     set	647
  1855   000215                     _RC4PPS         set	533
  1856   000214                     _RC3PPS         set	532
  1857   000340                     _CCPR1L         set	832
  1858   000341                     _CCPR1H         set	833
  1859   000342                     _CCP1CON        set	834
  1860   00031E                     _T1CON          set	798
  1861   000321                     _T1CLK          set	801
  1862   000409                     _WPUB           set	1033
  1863   000408                     _ANSELB         set	1032
  1864   000412                     _ODCONCbits     set	1042
  1865   000410                     _ANSELCbits     set	1040
  1866   0004B1                     _PIR3bits       set	1201
  1867   0004A1                     _PIE3bits       set	1185
  1868   0004B4                     _PIR6bits       set	1204
  1869   0004AF                     _PIR1bits       set	1199
  1870   0004A4                     _PIE6bits       set	1188
  1871   00049F                     _PIE1bits       set	1183
  1872   0004D6                     _INTCON0bits    set	1238
  1873   0004C7                     _TRISB          set	1223
  1874   0004C8                     _TRISCbits      set	1224
  1875                           
  1876                           	psect	smallconst
  1877   002600                     __psmallconst:
  1878                           	callstack 0
  1879   002600  00                 	db	0
  1880   002601                     STR_1:
  1881   002601  52                 	db	82	;'R'
  1882   002602  65                 	db	101	;'e'
  1883   002603  6C                 	db	108	;'l'
  1884   002604  6F                 	db	111	;'o'
  1885   002605  6A                 	db	106	;'j'
  1886   002606  6F                 	db	111	;'o'
  1887   002607  6E                 	db	110	;'n'
  1888   002608  20                 	db	32
  1889   002609  32                 	db	50	;'2'
  1890   00260A  30                 	db	48	;'0'
  1891   00260B  32                 	db	50	;'2'
  1892   00260C  34                 	db	52	;'4'
  1893   00260D  20                 	db	32
  1894   00260E  3A                 	db	58	;':'
  1895   00260F  29                 	db	41
  1896   002610  00                 	db	0
  1897   002611                     STR_2:
  1898   002611  48                 	db	72	;'H'
  1899   002612  65                 	db	101	;'e'
  1900   002613  63                 	db	99	;'c'
  1901   002614  68                 	db	104	;'h'
  1902   002615  6F                 	db	111	;'o'
  1903   002616  20                 	db	32
  1904   002617  70                 	db	112	;'p'
  1905   002618  6F                 	db	111	;'o'
  1906   002619  72                 	db	114	;'r'
  1907   00261A  20                 	db	32
  1908   00261B  4B                 	db	75	;'K'
  1909   00261C  61                 	db	97	;'a'
  1910   00261D  6C                 	db	108	;'l'
  1911   00261E  75                 	db	117	;'u'
  1912   00261F  6E                 	db	110	;'n'
  1913   002620  00                 	db	0
  1914   002621                     STR_3:
  1915   002621  52                 	db	82	;'R'
  1916   002622  65                 	db	101	;'e'
  1917   002623  6C                 	db	108	;'l'
  1918   002624  6F                 	db	111	;'o'
  1919   002625  6A                 	db	106	;'j'
  1920   002626  6F                 	db	111	;'o'
  1921   002627  6E                 	db	110	;'n'
  1922   002628  20                 	db	32
  1923   002629  55                 	db	85	;'U'
  1924   00262A  50                 	db	80	;'P'
  1925   00262B  43                 	db	67	;'C'
  1926   00262C  00                 	db	0
  1927   00262D  00                 	db	0	; dummy byte at the end
  1928   000003                     __activetblptr  equ	3
  1929                           
  1930                           ; #config settings
  1931                           
  1932                           	psect	cinit
  1933   002F52                     __pcinit:
  1934                           	callstack 0
  1935   002F52                     start_initialization:
  1936                           	callstack 0
  1937   002F52                     __initialization:
  1938                           	callstack 0
  1939                           
  1940                           ; Initialize objects allocated to COMRAM (4 bytes)
  1941                           ; load TBLPTR registers with __pidataCOMRAM
  1942   002F52  0E1E               	movlw	low __pidataCOMRAM
  1943   002F54  6EF6               	movwf	tblptrl,c
  1944   002F56  0E30               	movlw	high __pidataCOMRAM
  1945   002F58  6EF7               	movwf	tblptrh,c
  1946   002F5A  0E00               	movlw	low (__pidataCOMRAM shr (0+16))
  1947   002F5C  6EF8               	movwf	tblptru,c
  1948   002F5E  EE01  F114         	lfsr	0,__pdataCOMRAM
  1949   002F62  EE10 F004          	lfsr	1,4
  1950   002F66                     copy_data0:
  1951   002F66  0009               	tblrd		*+
  1952   002F68  C4F5 F4EE          	movff	tablat,postinc0
  1953   002F6C  50E5               	movf	postdec1,w,c
  1954   002F6E  50E1               	movf	fsr1l,w,c
  1955   002F70  E1FA               	bnz	copy_data0
  1956                           
  1957                           ;
  1958                           ; Setup IVTBASE
  1959                           ;
  1960   00045D                     IVTBASEL        equ	1117
  1961   00045E                     IVTBASEH        equ	1118
  1962   00045F                     IVTBASEU        equ	1119
  1963   002F72  0104               	movlb	4
  1964   002F74  0E08               	movlw	(ivt0x8_base shr 0)& (0+255)
  1965   002F76  6F5D               	movwf	93,b
  1966   002F78  0E00               	movlw	(ivt0x8_base shr (0+8))& (0+255)
  1967   002F7A  6F5E               	movwf	94,b
  1968   002F7C  0E00               	movlw	(ivt0x8_base shr (0+16))& (0+255)
  1969   002F7E  6F5F               	movwf	95,b
  1970   002F80                     end_of_initialization:
  1971                           	callstack 0
  1972   002F80                     __end_of__initialization:
  1973                           	callstack 0
  1974   002F80  0100               	movlb	0
  1975   002F82  EF8E  F016         	goto	_main	;jump to C main() function
  1976                           
  1977                           	psect	dataCOMRAM
  1978   000514                     __pdataCOMRAM:
  1979                           	callstack 0
  1980   000514                     _segundos:
  1981                           	callstack 0
  1982   000514                     	ds	1
  1983   000515                     _minutos:
  1984                           	callstack 0
  1985   000515                     	ds	1
  1986   000516                     _horas:
  1987                           	callstack 0
  1988   000516                     	ds	1
  1989   000517                     _I2C_LCD_ADDR:
  1990                           	callstack 0
  1991   000517                     	ds	1
  1992                           
  1993                           	psect	cstackCOMRAM
  1994   000501                     __pcstackCOMRAM:
  1995                           	callstack 0
  1996   000501                     ?_strlen:
  1997                           	callstack 0
  1998   000501                     ?___awmod:
  1999                           	callstack 0
  2000   000501                     I2C1_WRITESINGLEBYTE@dato:
  2001                           	callstack 0
  2002   000501                     strlen@s:
  2003                           	callstack 0
  2004   000501                     ___awmod@dividend:
  2005                           	callstack 0
  2006   000501                     
  2007                           ; 1 bytes @ 0x0
  2008   000501                     	ds	1
  2009   000502                     I2C1_WRITESINGLEBYTE@direccion:
  2010                           	callstack 0
  2011   000502                     
  2012                           ; 1 bytes @ 0x1
  2013   000502                     	ds	1
  2014   000503                     strlen@a:
  2015                           	callstack 0
  2016   000503                     ___awmod@divisor:
  2017                           	callstack 0
  2018   000503                     ??_I2C_ENVIA_LCD_CMD:
  2019   000503                     ??_I2C_ENVIA_LCD_DATA:
  2020   000503                     
  2021                           ; 1 bytes @ 0x2
  2022   000503                     	ds	1
  2023   000504                     I2C_ENVIA_LCD_DATA@data:
  2024                           	callstack 0
  2025   000504                     I2C_ENVIA_LCD_CMD@command:
  2026                           	callstack 0
  2027                           
  2028                           ; 1 bytes @ 0x3
  2029   000504                     	ds	1
  2030   000505                     I2C_ENVIA_LCD_DATA@highnibble:
  2031                           	callstack 0
  2032   000505                     I2C_ENVIA_LCD_CMD@highnibble:
  2033                           	callstack 0
  2034   000505                     ___awmod@counter:
  2035                           	callstack 0
  2036   000505                     
  2037                           ; 1 bytes @ 0x4
  2038   000505                     	ds	1
  2039   000506                     I2C_ENVIA_LCD_DATA@lownibble:
  2040                           	callstack 0
  2041   000506                     I2C_ENVIA_LCD_CMD@lownibble:
  2042                           	callstack 0
  2043   000506                     ___awmod@sign:
  2044                           	callstack 0
  2045                           
  2046                           ; 1 bytes @ 0x5
  2047   000506                     	ds	1
  2048   000507                     ?___awdiv:
  2049                           	callstack 0
  2050   000507                     I2C_POS_CURSOR@columna:
  2051                           	callstack 0
  2052   000507                     I2C_CURSOR_ONOFF@estado:
  2053                           	callstack 0
  2054   000507                     I2C_ESCRIBE_MENSAJE2@cadena:
  2055                           	callstack 0
  2056   000507                     ___awdiv@dividend:
  2057                           	callstack 0
  2058   000507                     ??_I2C_BORRAR_LCD:
  2059                           
  2060                           ; 1 bytes @ 0x6
  2061   000507                     	ds	1
  2062   000508                     ??_I2C_POS_CURSOR:
  2063   000508                     ??_I2C_ESCRIBE_MENSAJE2:
  2064                           
  2065                           ; 1 bytes @ 0x7
  2066   000508                     	ds	1
  2067   000509                     I2C_POS_CURSOR@fila:
  2068                           	callstack 0
  2069   000509                     I2C_ESCRIBE_MENSAJE2@tam:
  2070                           	callstack 0
  2071   000509                     ___awdiv@divisor:
  2072                           	callstack 0
  2073   000509                     ??_I2C_LCD_INIT:
  2074                           
  2075                           ; 1 bytes @ 0x8
  2076   000509                     	ds	1
  2077   00050A                     I2C_ESCRIBE_MENSAJE2@i:
  2078                           	callstack 0
  2079                           
  2080                           ; 1 bytes @ 0x9
  2081   00050A                     	ds	1
  2082   00050B                     ___awdiv@counter:
  2083                           	callstack 0
  2084   00050B                     ??_pantallazo:
  2085   00050B                     
  2086                           ; 1 bytes @ 0xA
  2087   00050B                     	ds	1
  2088   00050C                     ___awdiv@sign:
  2089                           	callstack 0
  2090                           
  2091                           ; 1 bytes @ 0xB
  2092   00050C                     	ds	1
  2093   00050D                     ___awdiv@quotient:
  2094                           	callstack 0
  2095                           
  2096                           ; 2 bytes @ 0xC
  2097   00050D                     	ds	2
  2098   00050F                     I2C_LCD_ESCRIBE_VAR_CHAR@n_digitos:
  2099                           	callstack 0
  2100                           
  2101                           ; 1 bytes @ 0xE
  2102   00050F                     	ds	1
  2103   000510                     I2C_LCD_ESCRIBE_VAR_CHAR@centena:
  2104                           	callstack 0
  2105   000510                     
  2106                           ; 1 bytes @ 0xF
  2107   000510                     	ds	1
  2108   000511                     I2C_LCD_ESCRIBE_VAR_CHAR@decena:
  2109                           	callstack 0
  2110                           
  2111                           ; 1 bytes @ 0x10
  2112   000511                     	ds	1
  2113   000512                     I2C_LCD_ESCRIBE_VAR_CHAR@numero:
  2114                           	callstack 0
  2115                           
  2116                           ; 1 bytes @ 0x11
  2117   000512                     	ds	1
  2118   000513                     I2C_LCD_ESCRIBE_VAR_CHAR@unidad:
  2119                           	callstack 0
  2120                           
  2121                           ; 1 bytes @ 0x12
  2122   000513                     	ds	1
  2123   000514                     
  2124                           ; 1 bytes @ 0x13
  2125 ;;
  2126 ;;Main: autosize = 0, tempsize = 0, incstack = 0, save=0
  2127 ;;
  2128 ;; *************** function _main *****************
  2129 ;; Defined at:
  2130 ;;		line 56 in file "maincode01.c"
  2131 ;; Parameters:    Size  Location     Type
  2132 ;;		None
  2133 ;; Auto vars:     Size  Location     Type
  2134 ;;		None
  2135 ;; Return value:  Size  Location     Type
  2136 ;;                  1    wreg      void 
  2137 ;; Registers used:
  2138 ;;		wreg, status,2, status,0, tblptrl, tblptrh, tblptru, cstack
  2139 ;; Tracked objects:
  2140 ;;		On entry : 0/0
  2141 ;;		On exit  : 0/0
  2142 ;;		Unchanged: 0/0
  2143 ;; Data sizes:     COMRAM   BANK5   BANK6   BANK7   BANK8   BANK9  BANK10  BANK11  BANK12  BANK13  BANK14  BANK15  BANK1
      +6  BANK17  BANK18  BANK19  BANK20  BANK21  BANK22  BANK23  BANK24  BANK25  BANK26  BANK27  BANK28  BANK29  BANK30  BANK3
      +1  BANK32  BANK33  BANK34  BANK35  BANK36
  2144 ;;      Params:         0       0       0       0       0       0       0       0       0       0       0       0       
      +0       0       0       0       0       0       0       0       0       0       0       0       0       0       0       
      +0       0       0       0       0       0
  2145 ;;      Locals:         0       0       0       0       0       0       0       0       0       0       0       0       
      +0       0       0       0       0       0       0       0       0       0       0       0       0       0       0       
      +0       0       0       0       0       0
  2146 ;;      Temps:          0       0       0       0       0       0       0       0       0       0       0       0       
      +0       0       0       0       0       0       0       0       0       0       0       0       0       0       0       
      +0       0       0       0       0       0
  2147 ;;      Totals:         0       0       0       0       0       0       0       0       0       0       0       0       
      +0       0       0       0       0       0       0       0       0       0       0       0       0       0       0       
      +0       0       0       0       0       0
  2148 ;;Total ram usage:        0 bytes
  2149 ;; Hardware stack levels required when called: 6
  2150 ;; This function calls:
  2151 ;;		_I2C_ENVIA_LCD_DATA
  2152 ;;		_I2C_ESCRIBE_MENSAJE2
  2153 ;;		_I2C_LCD_ESCRIBE_VAR_CHAR
  2154 ;;		_I2C_POS_CURSOR
  2155 ;;		_configuro
  2156 ;;		_pantallazo
  2157 ;; This function is called by:
  2158 ;;		Startup code after reset
  2159 ;; This function uses a non-reentrant model
  2160 ;;
  2161                           
  2162                           	psect	text0
  2163   002D1C                     __ptext0:
  2164                           	callstack 0
  2165   002D1C                     _main:
  2166                           	callstack 121
  2167   002D1C                     
  2168                           ;maincode01.c: 57:     configuro();
  2169   002D1C  EC08  F017         	call	_configuro	;wreg free
  2170   002D20                     
  2171                           ;maincode01.c: 58:     pantallazo();
  2172   002D20  EC6D  F017         	call	_pantallazo	;wreg free
  2173   002D24                     
  2174                           ;maincode01.c: 59:     I2C_POS_CURSOR(1,2);
  2175   002D24  0E02               	movlw	2
  2176   002D26  6E07               	movwf	I2C_POS_CURSOR@columna^(0+1280),c
  2177   002D28  0E01               	movlw	1
  2178   002D2A  ECDF  F015         	call	_I2C_POS_CURSOR
  2179                           
  2180                           ;maincode01.c: 60:     I2C_ESCRIBE_MENSAJE2("Relojon UPC");
  2181   002D2E  0E21               	movlw	low STR_3
  2182   002D30  6E07               	movwf	I2C_ESCRIBE_MENSAJE2@cadena^(0+1280),c
  2183   002D32  EC2B  F017         	call	_I2C_ESCRIBE_MENSAJE2	;wreg free
  2184   002D36                     l2157:
  2185                           
  2186                           ;maincode01.c: 62:         I2C_POS_CURSOR(2,2);
  2187   002D36  0E02               	movlw	2
  2188   002D38  6E07               	movwf	I2C_POS_CURSOR@columna^(0+1280),c
  2189   002D3A  0E02               	movlw	2
  2190   002D3C  ECDF  F015         	call	_I2C_POS_CURSOR
  2191   002D40                     
  2192                           ;maincode01.c: 63:         I2C_LCD_ESCRIBE_VAR_CHAR(horas, 2);
  2193   002D40  0E02               	movlw	2
  2194   002D42  6E0F               	movwf	I2C_LCD_ESCRIBE_VAR_CHAR@n_digitos^(0+1280),c
  2195   002D44  5016               	movf	_horas^(0+1280),w,c
  2196   002D46  ECC1  F014         	call	_I2C_LCD_ESCRIBE_VAR_CHAR
  2197   002D4A                     
  2198                           ;maincode01.c: 64:         I2C_ENVIA_LCD_DATA(':');
  2199   002D4A  0E3A               	movlw	58
  2200   002D4C  EC24  F016         	call	_I2C_ENVIA_LCD_DATA
  2201   002D50                     
  2202                           ;maincode01.c: 65:         I2C_LCD_ESCRIBE_VAR_CHAR(minutos, 2);
  2203   002D50  0E02               	movlw	2
  2204   002D52  6E0F               	movwf	I2C_LCD_ESCRIBE_VAR_CHAR@n_digitos^(0+1280),c
  2205   002D54  5015               	movf	_minutos^(0+1280),w,c
  2206   002D56  ECC1  F014         	call	_I2C_LCD_ESCRIBE_VAR_CHAR
  2207   002D5A                     
  2208                           ;maincode01.c: 66:         I2C_ENVIA_LCD_DATA(':');
  2209   002D5A  0E3A               	movlw	58
  2210   002D5C  EC24  F016         	call	_I2C_ENVIA_LCD_DATA
  2211   002D60                     
  2212                           ;maincode01.c: 67:         I2C_LCD_ESCRIBE_VAR_CHAR(segundos, 2);
  2213   002D60  0E02               	movlw	2
  2214   002D62  6E0F               	movwf	I2C_LCD_ESCRIBE_VAR_CHAR@n_digitos^(0+1280),c
  2215   002D64  5014               	movf	_segundos^(0+1280),w,c
  2216   002D66  ECC1  F014         	call	_I2C_LCD_ESCRIBE_VAR_CHAR
  2217   002D6A  EF9B  F016         	goto	l2157
  2218   002D6E  EF81  F000         	goto	start
  2219   002D72                     __end_of_main:
  2220                           	callstack 0
  2221                           
  2222 ;; *************** function _pantallazo *****************
  2223 ;; Defined at:
  2224 ;;		line 47 in file "maincode01.c"
  2225 ;; Parameters:    Size  Location     Type
  2226 ;;		None
  2227 ;; Auto vars:     Size  Location     Type
  2228 ;;		None
  2229 ;; Return value:  Size  Location     Type
  2230 ;;                  1    wreg      void 
  2231 ;; Registers used:
  2232 ;;		wreg, status,2, status,0, tblptrl, tblptrh, tblptru, cstack
  2233 ;; Tracked objects:
  2234 ;;		On entry : 0/0
  2235 ;;		On exit  : 0/0
  2236 ;;		Unchanged: 0/0
  2237 ;; Data sizes:     COMRAM   BANK5   BANK6   BANK7   BANK8   BANK9  BANK10  BANK11  BANK12  BANK13  BANK14  BANK15  BANK1
      +6  BANK17  BANK18  BANK19  BANK20  BANK21  BANK22  BANK23  BANK24  BANK25  BANK26  BANK27  BANK28  BANK29  BANK30  BANK3
      +1  BANK32  BANK33  BANK34  BANK35  BANK36
  2238 ;;      Params:         0       0       0       0       0       0       0       0       0       0       0       0       
      +0       0       0       0       0       0       0       0       0       0       0       0       0       0       0       
      +0       0       0       0       0       0
  2239 ;;      Locals:         0       0       0       0       0       0       0       0       0       0       0       0       
      +0       0       0       0       0       0       0       0       0       0       0       0       0       0       0       
      +0       0       0       0       0       0
  2240 ;;      Temps:          2       0       0       0       0       0       0       0       0       0       0       0       
      +0       0       0       0       0       0       0       0       0       0       0       0       0       0       0       
      +0       0       0       0       0       0
  2241 ;;      Totals:         2       0       0       0       0       0       0       0       0       0       0       0       
      +0       0       0       0       0       0       0       0       0       0       0       0       0       0       0       
      +0       0       0       0       0       0
  2242 ;;Total ram usage:        2 bytes
  2243 ;; Hardware stack levels used: 1
  2244 ;; Hardware stack levels required when called: 4
  2245 ;; This function calls:
  2246 ;;		_I2C_BORRAR_LCD
  2247 ;;		_I2C_ESCRIBE_MENSAJE2
  2248 ;;		_I2C_POS_CURSOR
  2249 ;; This function is called by:
  2250 ;;		_main
  2251 ;; This function uses a non-reentrant model
  2252 ;;
  2253                           
  2254                           	psect	text1
  2255   002EDA                     __ptext1:
  2256                           	callstack 0
  2257   002EDA                     _pantallazo:
  2258                           	callstack 122
  2259   002EDA                     
  2260                           ;maincode01.c: 48:     I2C_POS_CURSOR(1,0);
  2261   002EDA  0E00               	movlw	0
  2262   002EDC  6E07               	movwf	I2C_POS_CURSOR@columna^(0+1280),c
  2263   002EDE  0E01               	movlw	1
  2264   002EE0  ECDF  F015         	call	_I2C_POS_CURSOR
  2265   002EE4                     
  2266                           ;maincode01.c: 49:     I2C_ESCRIBE_MENSAJE2("Relojon 2024 :)");
  2267   002EE4  0E01               	movlw	low STR_1
  2268   002EE6  6E07               	movwf	I2C_ESCRIBE_MENSAJE2@cadena^(0+1280),c
  2269   002EE8  EC2B  F017         	call	_I2C_ESCRIBE_MENSAJE2	;wreg free
  2270   002EEC                     
  2271                           ;maincode01.c: 50:     I2C_POS_CURSOR(2,0);
  2272   002EEC  0E00               	movlw	0
  2273   002EEE  6E07               	movwf	I2C_POS_CURSOR@columna^(0+1280),c
  2274   002EF0  0E02               	movlw	2
  2275   002EF2  ECDF  F015         	call	_I2C_POS_CURSOR
  2276                           
  2277                           ;maincode01.c: 51:     I2C_ESCRIBE_MENSAJE2("Hecho por Kalun");
  2278   002EF6  0E11               	movlw	low STR_2
  2279   002EF8  6E07               	movwf	I2C_ESCRIBE_MENSAJE2@cadena^(0+1280),c
  2280   002EFA  EC2B  F017         	call	_I2C_ESCRIBE_MENSAJE2	;wreg free
  2281   002EFE                     
  2282                           ;maincode01.c: 52:     _delay((unsigned long)((3000)*(32000000UL/4000.0)));
  2283   002EFE  0E7A               	movlw	122
  2284   002F00  6E0C               	movwf	(??_pantallazo+1)^(0+1280),c
  2285   002F02  0EC1               	movlw	193
  2286   002F04  6E0B               	movwf	??_pantallazo^(0+1280),c
  2287   002F06  0E82               	movlw	130
  2288   002F08                     u747:
  2289   002F08  2EE8               	decfsz	wreg,f,c
  2290   002F0A  D7FE               	bra	u747
  2291   002F0C  2E0B               	decfsz	??_pantallazo^(0+1280),f,c
  2292   002F0E  D7FC               	bra	u747
  2293   002F10  2E0C               	decfsz	(??_pantallazo+1)^(0+1280),f,c
  2294   002F12  D7FA               	bra	u747
  2295   002F14                     
  2296                           ;maincode01.c: 53:     I2C_BORRAR_LCD();
  2297   002F14  ECDB  F017         	call	_I2C_BORRAR_LCD	;wreg free
  2298   002F18  0012               	return		;funcret
  2299   002F1A                     __end_of_pantallazo:
  2300                           	callstack 0
  2301                           
  2302 ;; *************** function _I2C_POS_CURSOR *****************
  2303 ;; Defined at:
  2304 ;;		line 70 in file "I2C_LCD.c"
  2305 ;; Parameters:    Size  Location     Type
  2306 ;;  fila            1    wreg     unsigned char 
  2307 ;;  columna         1    6[COMRAM] unsigned char 
  2308 ;; Auto vars:     Size  Location     Type
  2309 ;;  fila            1    8[COMRAM] unsigned char 
  2310 ;; Return value:  Size  Location     Type
  2311 ;;                  1    wreg      void 
  2312 ;; Registers used:
  2313 ;;		wreg, status,2, status,0, cstack
  2314 ;; Tracked objects:
  2315 ;;		On entry : 0/0
  2316 ;;		On exit  : 0/0
  2317 ;;		Unchanged: 0/0
  2318 ;; Data sizes:     COMRAM   BANK5   BANK6   BANK7   BANK8   BANK9  BANK10  BANK11  BANK12  BANK13  BANK14  BANK15  BANK1
      +6  BANK17  BANK18  BANK19  BANK20  BANK21  BANK22  BANK23  BANK24  BANK25  BANK26  BANK27  BANK28  BANK29  BANK30  BANK3
      +1  BANK32  BANK33  BANK34  BANK35  BANK36
  2319 ;;      Params:         1       0       0       0       0       0       0       0       0       0       0       0       
      +0       0       0       0       0       0       0       0       0       0       0       0       0       0       0       
      +0       0       0       0       0       0
  2320 ;;      Locals:         1       0       0       0       0       0       0       0       0       0       0       0       
      +0       0       0       0       0       0       0       0       0       0       0       0       0       0       0       
      +0       0       0       0       0       0
  2321 ;;      Temps:          1       0       0       0       0       0       0       0       0       0       0       0       
      +0       0       0       0       0       0       0       0       0       0       0       0       0       0       0       
      +0       0       0       0       0       0
  2322 ;;      Totals:         3       0       0       0       0       0       0       0       0       0       0       0       
      +0       0       0       0       0       0       0       0       0       0       0       0       0       0       0       
      +0       0       0       0       0       0
  2323 ;;Total ram usage:        3 bytes
  2324 ;; Hardware stack levels used: 1
  2325 ;; Hardware stack levels required when called: 3
  2326 ;; This function calls:
  2327 ;;		_I2C_ENVIA_LCD_CMD
  2328 ;; This function is called by:
  2329 ;;		_pantallazo
  2330 ;;		_main
  2331 ;; This function uses a non-reentrant model
  2332 ;;
  2333                           
  2334                           	psect	text2
  2335   002BBE                     __ptext2:
  2336                           	callstack 0
  2337   002BBE                     _I2C_POS_CURSOR:
  2338                           	callstack 122
  2339                           
  2340                           ;incstack = 0
  2341                           ;I2C_POS_CURSOR@fila stored from wreg
  2342   002BBE  6E09               	movwf	I2C_POS_CURSOR@fila^(0+1280),c
  2343   002BC0                     
  2344                           ;I2C_LCD.c: 71:  if(fila == 1){
  2345   002BC0  0409               	decf	I2C_POS_CURSOR@fila^(0+1280),w,c
  2346   002BC2  A4D8               	btfss	status,2,c
  2347   002BC4  EFE6  F015         	goto	u461
  2348   002BC8  EFE8  F015         	goto	u460
  2349   002BCC                     u461:
  2350   002BCC  EFEE  F015         	goto	l1665
  2351   002BD0                     u460:
  2352   002BD0                     
  2353                           ;I2C_LCD.c: 72:   I2C_ENVIA_LCD_CMD(0x80+columna);
  2354   002BD0  5007               	movf	I2C_POS_CURSOR@columna^(0+1280),w,c
  2355   002BD2  0F80               	addlw	128
  2356   002BD4  EC5A  F016         	call	_I2C_ENVIA_LCD_CMD
  2357                           
  2358                           ;I2C_LCD.c: 73:  }
  2359   002BD8  EF1B  F016         	goto	l1677
  2360   002BDC                     l1665:
  2361   002BDC  0E02               	movlw	2
  2362   002BDE  1809               	xorwf	I2C_POS_CURSOR@fila^(0+1280),w,c
  2363   002BE0  A4D8               	btfss	status,2,c
  2364   002BE2  EFF5  F015         	goto	u471
  2365   002BE6  EFF7  F015         	goto	u470
  2366   002BEA                     u471:
  2367   002BEA  EFFD  F015         	goto	l1669
  2368   002BEE                     u470:
  2369   002BEE                     
  2370                           ;I2C_LCD.c: 75:   I2C_ENVIA_LCD_CMD(0xC0+columna);
  2371   002BEE  5007               	movf	I2C_POS_CURSOR@columna^(0+1280),w,c
  2372   002BF0  0FC0               	addlw	192
  2373   002BF2  EC5A  F016         	call	_I2C_ENVIA_LCD_CMD
  2374                           
  2375                           ;I2C_LCD.c: 76:  }
  2376   002BF6  EF1B  F016         	goto	l1677
  2377   002BFA                     l1669:
  2378   002BFA  0E03               	movlw	3
  2379   002BFC  1809               	xorwf	I2C_POS_CURSOR@fila^(0+1280),w,c
  2380   002BFE  A4D8               	btfss	status,2,c
  2381   002C00  EF04  F016         	goto	u481
  2382   002C04  EF06  F016         	goto	u480
  2383   002C08                     u481:
  2384   002C08  EF0C  F016         	goto	l1673
  2385   002C0C                     u480:
  2386   002C0C                     
  2387                           ;I2C_LCD.c: 78:   I2C_ENVIA_LCD_CMD(0x94+columna);
  2388   002C0C  5007               	movf	I2C_POS_CURSOR@columna^(0+1280),w,c
  2389   002C0E  0F94               	addlw	148
  2390   002C10  EC5A  F016         	call	_I2C_ENVIA_LCD_CMD
  2391                           
  2392                           ;I2C_LCD.c: 79:  }
  2393   002C14  EF1B  F016         	goto	l1677
  2394   002C18                     l1673:
  2395   002C18  0E04               	movlw	4
  2396   002C1A  1809               	xorwf	I2C_POS_CURSOR@fila^(0+1280),w,c
  2397   002C1C  A4D8               	btfss	status,2,c
  2398   002C1E  EF13  F016         	goto	u491
  2399   002C22  EF15  F016         	goto	u490
  2400   002C26                     u491:
  2401   002C26  EF1B  F016         	goto	l66
  2402   002C2A                     u490:
  2403   002C2A                     
  2404                           ;I2C_LCD.c: 81:   I2C_ENVIA_LCD_CMD(0xD4+columna);
  2405   002C2A  5007               	movf	I2C_POS_CURSOR@columna^(0+1280),w,c
  2406   002C2C  0FD4               	addlw	212
  2407   002C2E  EC5A  F016         	call	_I2C_ENVIA_LCD_CMD
  2408   002C32  EF1B  F016         	goto	l1677
  2409   002C36                     l66:
  2410   002C36                     l1677:
  2411                           
  2412                           ;I2C_LCD.c: 83:  _delay((unsigned long)((1)*(32000000UL/4000.0)));
  2413   002C36  0E0B               	movlw	11
  2414   002C38  6E08               	movwf	??_I2C_POS_CURSOR^(0+1280),c
  2415   002C3A  0E62               	movlw	98
  2416   002C3C                     u757:
  2417   002C3C  2EE8               	decfsz	wreg,f,c
  2418   002C3E  D7FE               	bra	u757
  2419   002C40  2E08               	decfsz	??_I2C_POS_CURSOR^(0+1280),f,c
  2420   002C42  D7FC               	bra	u757
  2421   002C44  D000               	nop2	
  2422   002C46  0012               	return		;funcret
  2423   002C48                     __end_of_I2C_POS_CURSOR:
  2424                           	callstack 0
  2425                           
  2426 ;; *************** function _I2C_ESCRIBE_MENSAJE2 *****************
  2427 ;; Defined at:
  2428 ;;		line 128 in file "I2C_LCD.c"
  2429 ;; Parameters:    Size  Location     Type
  2430 ;;  cadena          1    6[COMRAM] PTR const unsigned char 
  2431 ;;		 -> STR_3(12), STR_2(16), STR_1(16), 
  2432 ;; Auto vars:     Size  Location     Type
  2433 ;;  i               1    9[COMRAM] unsigned char 
  2434 ;;  tam             1    8[COMRAM] unsigned char 
  2435 ;; Return value:  Size  Location     Type
  2436 ;;                  1    wreg      void 
  2437 ;; Registers used:
  2438 ;;		wreg, status,2, status,0, tblptrl, tblptrh, tblptru, cstack
  2439 ;; Tracked objects:
  2440 ;;		On entry : 0/0
  2441 ;;		On exit  : 0/0
  2442 ;;		Unchanged: 0/0
  2443 ;; Data sizes:     COMRAM   BANK5   BANK6   BANK7   BANK8   BANK9  BANK10  BANK11  BANK12  BANK13  BANK14  BANK15  BANK1
      +6  BANK17  BANK18  BANK19  BANK20  BANK21  BANK22  BANK23  BANK24  BANK25  BANK26  BANK27  BANK28  BANK29  BANK30  BANK3
      +1  BANK32  BANK33  BANK34  BANK35  BANK36
  2444 ;;      Params:         1       0       0       0       0       0       0       0       0       0       0       0       
      +0       0       0       0       0       0       0       0       0       0       0       0       0       0       0       
      +0       0       0       0       0       0
  2445 ;;      Locals:         2       0       0       0       0       0       0       0       0       0       0       0       
      +0       0       0       0       0       0       0       0       0       0       0       0       0       0       0       
      +0       0       0       0       0       0
  2446 ;;      Temps:          1       0       0       0       0       0       0       0       0       0       0       0       
      +0       0       0       0       0       0       0       0       0       0       0       0       0       0       0       
      +0       0       0       0       0       0
  2447 ;;      Totals:         4       0       0       0       0       0       0       0       0       0       0       0       
      +0       0       0       0       0       0       0       0       0       0       0       0       0       0       0       
      +0       0       0       0       0       0
  2448 ;;Total ram usage:        4 bytes
  2449 ;; Hardware stack levels used: 1
  2450 ;; Hardware stack levels required when called: 3
  2451 ;; This function calls:
  2452 ;;		_I2C_ENVIA_LCD_DATA
  2453 ;;		_strlen
  2454 ;; This function is called by:
  2455 ;;		_pantallazo
  2456 ;;		_main
  2457 ;; This function uses a non-reentrant model
  2458 ;;
  2459                           
  2460                           	psect	text3
  2461   002E56                     __ptext3:
  2462                           	callstack 0
  2463   002E56                     _I2C_ESCRIBE_MENSAJE2:
  2464                           	callstack 122
  2465   002E56                     
  2466                           ;I2C_LCD.c: 129:     unsigned char tam;;I2C_LCD.c: 130:     tam = strlen(cadena);
  2467   002E56  C507  F501         	movff	I2C_ESCRIBE_MENSAJE2@cadena,strlen@s
  2468   002E5A  EC8D  F017         	call	_strlen	;wreg free
  2469   002E5E  5001               	movf	?_strlen^(0+1280),w,c
  2470   002E60  6E09               	movwf	I2C_ESCRIBE_MENSAJE2@tam^(0+1280),c
  2471   002E62                     
  2472                           ;I2C_LCD.c: 132:  for(i = 0; i<tam; i++) {
  2473   002E62  6A0A               	clrf	I2C_ESCRIBE_MENSAJE2@i^(0+1280),c
  2474   002E64  EF42  F017         	goto	l1689
  2475   002E68                     l1685:
  2476                           
  2477                           ;I2C_LCD.c: 133:   I2C_ENVIA_LCD_DATA(cadena[i]);
  2478   002E68  5007               	movf	I2C_ESCRIBE_MENSAJE2@cadena^(0+1280),w,c
  2479   002E6A  240A               	addwf	I2C_ESCRIBE_MENSAJE2@i^(0+1280),w,c
  2480   002E6C  6E08               	movwf	??_I2C_ESCRIBE_MENSAJE2^(0+1280),c
  2481   002E6E  C508  F4F6         	movff	??_I2C_ESCRIBE_MENSAJE2,tblptrl
  2482   002E72                     	if	1	;There is more than 1 active tblptr byte
  2483   002E72  0E26               	movlw	high __smallconst
  2484   002E74  6EF7               	movwf	tblptrh,c
  2485   002E76                     	endif
  2486   002E76                     	if	0	;tblptru may be non-zero
  2487   002E76                     	endif
  2488   002E76                     	if	1	;Program memory is > 0xFFFF, there are 3 active tblptr bytes
  2489   002E76  0E00               	movlw	low (__smallconst shr (0+16))
  2490   002E78  6EF8               	movwf	tblptru,c
  2491   002E7A                     	endif
  2492   002E7A  0008               	tblrd		*
  2493   002E7C  50F5               	movf	tablat,w,c
  2494   002E7E  EC24  F016         	call	_I2C_ENVIA_LCD_DATA
  2495   002E82                     
  2496                           ;I2C_LCD.c: 134:  }
  2497   002E82  2A0A               	incf	I2C_ESCRIBE_MENSAJE2@i^(0+1280),f,c
  2498   002E84                     l1689:
  2499   002E84  5009               	movf	I2C_ESCRIBE_MENSAJE2@tam^(0+1280),w,c
  2500   002E86  5C0A               	subwf	I2C_ESCRIBE_MENSAJE2@i^(0+1280),w,c
  2501   002E88  A0D8               	btfss	status,0,c
  2502   002E8A  EF49  F017         	goto	u501
  2503   002E8E  EF4B  F017         	goto	u500
  2504   002E92                     u501:
  2505   002E92  EF34  F017         	goto	l1685
  2506   002E96                     u500:
  2507   002E96  0012               	return		;funcret
  2508   002E98                     __end_of_I2C_ESCRIBE_MENSAJE2:
  2509                           	callstack 0
  2510                           
  2511 ;; *************** function _strlen *****************
  2512 ;; Defined at:
  2513 ;;		line 5 in file "C:\Program Files\Microchip\xc8\v2.50\pic\sources\c99\common\strlen.c"
  2514 ;; Parameters:    Size  Location     Type
  2515 ;;  s               1    0[COMRAM] PTR const unsigned char 
  2516 ;;		 -> STR_3(12), STR_2(16), STR_1(16), 
  2517 ;; Auto vars:     Size  Location     Type
  2518 ;;  a               1    2[COMRAM] PTR const unsigned char 
  2519 ;;		 -> STR_3(12), STR_2(16), STR_1(16), 
  2520 ;; Return value:  Size  Location     Type
  2521 ;;                  2    0[COMRAM] unsigned int 
  2522 ;; Registers used:
  2523 ;;		wreg, status,2, status,0, tblptrl, tblptrh, tblptru
  2524 ;; Tracked objects:
  2525 ;;		On entry : 0/0
  2526 ;;		On exit  : 0/0
  2527 ;;		Unchanged: 0/0
  2528 ;; Data sizes:     COMRAM   BANK5   BANK6   BANK7   BANK8   BANK9  BANK10  BANK11  BANK12  BANK13  BANK14  BANK15  BANK1
      +6  BANK17  BANK18  BANK19  BANK20  BANK21  BANK22  BANK23  BANK24  BANK25  BANK26  BANK27  BANK28  BANK29  BANK30  BANK3
      +1  BANK32  BANK33  BANK34  BANK35  BANK36
  2529 ;;      Params:         2       0       0       0       0       0       0       0       0       0       0       0       
      +0       0       0       0       0       0       0       0       0       0       0       0       0       0       0       
      +0       0       0       0       0       0
  2530 ;;      Locals:         1       0       0       0       0       0       0       0       0       0       0       0       
      +0       0       0       0       0       0       0       0       0       0       0       0       0       0       0       
      +0       0       0       0       0       0
  2531 ;;      Temps:          0       0       0       0       0       0       0       0       0       0       0       0       
      +0       0       0       0       0       0       0       0       0       0       0       0       0       0       0       
      +0       0       0       0       0       0
  2532 ;;      Totals:         3       0       0       0       0       0       0       0       0       0       0       0       
      +0       0       0       0       0       0       0       0       0       0       0       0       0       0       0       
      +0       0       0       0       0       0
  2533 ;;Total ram usage:        3 bytes
  2534 ;; Hardware stack levels used: 1
  2535 ;; Hardware stack levels required when called: 1
  2536 ;; This function calls:
  2537 ;;		Nothing
  2538 ;; This function is called by:
  2539 ;;		_I2C_ESCRIBE_MENSAJE2
  2540 ;; This function uses a non-reentrant model
  2541 ;;
  2542                           
  2543                           	psect	text4
  2544   002F1A                     __ptext4:
  2545                           	callstack 0
  2546   002F1A                     _strlen:
  2547                           	callstack 123
  2548   002F1A  C501  F503         	movff	strlen@s,strlen@a
  2549   002F1E  EF92  F017         	goto	l1651
  2550   002F22                     l1649:
  2551   002F22  2A01               	incf	strlen@s^(0+1280),f,c
  2552   002F24                     l1651:
  2553   002F24  C501  F4F6         	movff	strlen@s,tblptrl
  2554   002F28                     	if	1	;There is more than 1 active tblptr byte
  2555   002F28  0E26               	movlw	high __smallconst
  2556   002F2A  6EF7               	movwf	tblptrh,c
  2557   002F2C                     	endif
  2558   002F2C                     	if	0	;tblptru may be non-zero
  2559   002F2C                     	endif
  2560   002F2C                     	if	1	;Program memory is > 0xFFFF, there are 3 active tblptr bytes
  2561   002F2C  0E00               	movlw	low (__smallconst shr (0+16))
  2562   002F2E  6EF8               	movwf	tblptru,c
  2563   002F30                     	endif
  2564   002F30  0008               	tblrd		*
  2565   002F32  50F5               	movf	tablat,w,c
  2566   002F34  0900               	iorlw	0
  2567   002F36  A4D8               	btfss	status,2,c
  2568   002F38  EFA0  F017         	goto	u451
  2569   002F3C  EFA2  F017         	goto	u450
  2570   002F40                     u451:
  2571   002F40  EF91  F017         	goto	l1649
  2572   002F44                     u450:
  2573   002F44  5003               	movf	strlen@a^(0+1280),w,c
  2574   002F46  5C01               	subwf	strlen@s^(0+1280),w,c
  2575   002F48  6E01               	movwf	?_strlen^(0+1280),c
  2576   002F4A  6A02               	clrf	(?_strlen+1)^(0+1280),c
  2577   002F4C  BE01               	btfsc	?_strlen^(0+1280),7,c
  2578   002F4E  0602               	decf	(?_strlen+1)^(0+1280),f,c
  2579   002F50  0012               	return		;funcret
  2580   002F52                     __end_of_strlen:
  2581                           	callstack 0
  2582                           
  2583 ;; *************** function _configuro *****************
  2584 ;; Defined at:
  2585 ;;		line 14 in file "maincode01.c"
  2586 ;; Parameters:    Size  Location     Type
  2587 ;;		None
  2588 ;; Auto vars:     Size  Location     Type
  2589 ;;		None
  2590 ;; Return value:  Size  Location     Type
  2591 ;;                  1    wreg      void 
  2592 ;; Registers used:
  2593 ;;		wreg, status,2, status,0, cstack
  2594 ;; Tracked objects:
  2595 ;;		On entry : 0/0
  2596 ;;		On exit  : 0/0
  2597 ;;		Unchanged: 0/0
  2598 ;; Data sizes:     COMRAM   BANK5   BANK6   BANK7   BANK8   BANK9  BANK10  BANK11  BANK12  BANK13  BANK14  BANK15  BANK1
      +6  BANK17  BANK18  BANK19  BANK20  BANK21  BANK22  BANK23  BANK24  BANK25  BANK26  BANK27  BANK28  BANK29  BANK30  BANK3
      +1  BANK32  BANK33  BANK34  BANK35  BANK36
  2599 ;;      Params:         0       0       0       0       0       0       0       0       0       0       0       0       
      +0       0       0       0       0       0       0       0       0       0       0       0       0       0       0       
      +0       0       0       0       0       0
  2600 ;;      Locals:         0       0       0       0       0       0       0       0       0       0       0       0       
      +0       0       0       0       0       0       0       0       0       0       0       0       0       0       0       
      +0       0       0       0       0       0
  2601 ;;      Temps:          0       0       0       0       0       0       0       0       0       0       0       0       
      +0       0       0       0       0       0       0       0       0       0       0       0       0       0       0       
      +0       0       0       0       0       0
  2602 ;;      Totals:         0       0       0       0       0       0       0       0       0       0       0       0       
      +0       0       0       0       0       0       0       0       0       0       0       0       0       0       0       
      +0       0       0       0       0       0
  2603 ;;Total ram usage:        0 bytes
  2604 ;; Hardware stack levels used: 1
  2605 ;; Hardware stack levels required when called: 5
  2606 ;; This function calls:
  2607 ;;		_I2C_LCD_INIT
  2608 ;; This function is called by:
  2609 ;;		_main
  2610 ;; This function uses a non-reentrant model
  2611 ;;
  2612                           
  2613                           	psect	text5
  2614   002E10                     __ptext5:
  2615                           	callstack 0
  2616   002E10                     _configuro:
  2617                           	callstack 121
  2618   002E10                     
  2619                           ;maincode01.c: 16:     OSCCON1 = 0x60;
  2620   002E10  0E60               	movlw	96
  2621   002E12  0100               	movlb	0	; () banked
  2622   002E14  6FAD               	movwf	173,b	;volatile
  2623                           
  2624                           ;maincode01.c: 17:     OSCFRQ = 0x06;
  2625   002E16  0E06               	movlw	6
  2626   002E18  6FB1               	movwf	177,b	;volatile
  2627                           
  2628                           ;maincode01.c: 19:     OSCEN = 0x48;
  2629   002E1A  0E48               	movlw	72
  2630   002E1C  6FB3               	movwf	179,b	;volatile
  2631                           
  2632                           ;maincode01.c: 23:     T1CLK = 0x07;
  2633   002E1E  0E07               	movlw	7
  2634   002E20  0103               	movlb	3	; () banked
  2635   002E22  6F21               	movwf	33,b	;volatile
  2636                           
  2637                           ;maincode01.c: 24:     T1CON = 0x03;
  2638   002E24  0E03               	movlw	3
  2639   002E26  6F1E               	movwf	30,b	;volatile
  2640                           
  2641                           ;maincode01.c: 26:     CCP1CON = 0x81;
  2642   002E28  0E81               	movlw	129
  2643   002E2A  6F42               	movwf	66,b	;volatile
  2644                           
  2645                           ;maincode01.c: 27:     CCPR1H = 0x80;
  2646   002E2C  0E80               	movlw	128
  2647   002E2E  6F41               	movwf	65,b	;volatile
  2648   002E30                     
  2649                           ; BSR set to: 3
  2650                           ;maincode01.c: 28:     CCPR1L = 0x00;
  2651   002E30  6B40               	clrf	64,b	;volatile
  2652   002E32                     
  2653                           ; BSR set to: 3
  2654                           ;maincode01.c: 30:     TRISB = 0xFF;
  2655   002E32  68C7               	setf	199,c	;volatile
  2656                           
  2657                           ;maincode01.c: 31:     ANSELB = 0xFC;
  2658   002E34  0EFC               	movlw	252
  2659   002E36  0104               	movlb	4	; () banked
  2660   002E38  6F08               	movwf	8,b	;volatile
  2661                           
  2662                           ;maincode01.c: 32:     WPUB = 0x03;
  2663   002E3A  0E03               	movlw	3
  2664   002E3C  6F09               	movwf	9,b	;volatile
  2665   002E3E                     
  2666                           ; BSR set to: 4
  2667                           ;maincode01.c: 34:     INTCON0bits.INT0EDG = 0;
  2668   002E3E  90D6               	bcf	214,0,c	;volatile
  2669   002E40                     
  2670                           ; BSR set to: 4
  2671                           ;maincode01.c: 35:     INTCON0bits.INT1EDG = 0;
  2672   002E40  92D6               	bcf	214,1,c	;volatile
  2673   002E42                     
  2674                           ; BSR set to: 4
  2675                           ;maincode01.c: 36:     PIE1bits.INT0IE = 1;
  2676   002E42  809F               	bsf	159,0,c	;volatile
  2677   002E44                     
  2678                           ; BSR set to: 4
  2679                           ;maincode01.c: 37:     PIE6bits.INT1IE = 1;
  2680   002E44  80A4               	bsf	164,0,c	;volatile
  2681   002E46                     
  2682                           ; BSR set to: 4
  2683                           ;maincode01.c: 38:     PIR1bits.INT0IF = 0;
  2684   002E46  90AF               	bcf	175,0,c	;volatile
  2685   002E48                     
  2686                           ; BSR set to: 4
  2687                           ;maincode01.c: 39:     PIR6bits.INT1IF = 0;
  2688   002E48  90B4               	bcf	180,0,c	;volatile
  2689   002E4A                     
  2690                           ; BSR set to: 4
  2691                           ;maincode01.c: 40:     PIE3bits.CCP1IE = 1;
  2692   002E4A  8CA1               	bsf	161,6,c	;volatile
  2693   002E4C                     
  2694                           ; BSR set to: 4
  2695                           ;maincode01.c: 41:     PIR3bits.CCP1IF = 0;
  2696   002E4C  9CB1               	bcf	177,6,c	;volatile
  2697   002E4E                     
  2698                           ; BSR set to: 4
  2699                           ;maincode01.c: 42:     INTCON0bits.GIE = 1;
  2700   002E4E  8ED6               	bsf	214,7,c	;volatile
  2701   002E50                     
  2702                           ; BSR set to: 4
  2703                           ;maincode01.c: 44:     I2C_LCD_INIT();
  2704   002E50  EC17  F013         	call	_I2C_LCD_INIT	;wreg free
  2705   002E54  0012               	return		;funcret
  2706   002E56                     __end_of_configuro:
  2707                           	callstack 0
  2708                           
  2709 ;; *************** function _I2C_LCD_INIT *****************
  2710 ;; Defined at:
  2711 ;;		line 191 in file "I2C_LCD.c"
  2712 ;; Parameters:    Size  Location     Type
  2713 ;;		None
  2714 ;; Auto vars:     Size  Location     Type
  2715 ;;		None
  2716 ;; Return value:  Size  Location     Type
  2717 ;;                  1    wreg      void 
  2718 ;; Registers used:
  2719 ;;		wreg, status,2, status,0, cstack
  2720 ;; Tracked objects:
  2721 ;;		On entry : 0/0
  2722 ;;		On exit  : 0/0
  2723 ;;		Unchanged: 0/0
  2724 ;; Data sizes:     COMRAM   BANK5   BANK6   BANK7   BANK8   BANK9  BANK10  BANK11  BANK12  BANK13  BANK14  BANK15  BANK1
      +6  BANK17  BANK18  BANK19  BANK20  BANK21  BANK22  BANK23  BANK24  BANK25  BANK26  BANK27  BANK28  BANK29  BANK30  BANK3
      +1  BANK32  BANK33  BANK34  BANK35  BANK36
  2725 ;;      Params:         0       0       0       0       0       0       0       0       0       0       0       0       
      +0       0       0       0       0       0       0       0       0       0       0       0       0       0       0       
      +0       0       0       0       0       0
  2726 ;;      Locals:         0       0       0       0       0       0       0       0       0       0       0       0       
      +0       0       0       0       0       0       0       0       0       0       0       0       0       0       0       
      +0       0       0       0       0       0
  2727 ;;      Temps:          2       0       0       0       0       0       0       0       0       0       0       0       
      +0       0       0       0       0       0       0       0       0       0       0       0       0       0       0       
      +0       0       0       0       0       0
  2728 ;;      Totals:         2       0       0       0       0       0       0       0       0       0       0       0       
      +0       0       0       0       0       0       0       0       0       0       0       0       0       0       0       
      +0       0       0       0       0       0
  2729 ;;Total ram usage:        2 bytes
  2730 ;; Hardware stack levels used: 1
  2731 ;; Hardware stack levels required when called: 4
  2732 ;; This function calls:
  2733 ;;		_I2C1_INIT
  2734 ;;		_I2C1_WRITESINGLEBYTE
  2735 ;;		_I2C_BORRAR_LCD
  2736 ;;		_I2C_CURSOR_HOME
  2737 ;;		_I2C_CURSOR_ONOFF
  2738 ;; This function is called by:
  2739 ;;		_configuro
  2740 ;; This function uses a non-reentrant model
  2741 ;;
  2742                           
  2743                           	psect	text6
  2744   00262E                     __ptext6:
  2745                           	callstack 0
  2746   00262E                     _I2C_LCD_INIT:
  2747                           	callstack 121
  2748   00262E                     
  2749                           ;I2C_LCD.c: 192:     I2C1_INIT();
  2750   00262E  ECE3  F016         	call	_I2C1_INIT	;wreg free
  2751   002632                     
  2752                           ;I2C_LCD.c: 193:     _delay((unsigned long)((15)*(32000000UL/4000.0)));
  2753   002632  0E9C               	movlw	156
  2754   002634  6E09               	movwf	??_I2C_LCD_INIT^(0+1280),c
  2755   002636  0ED7               	movlw	215
  2756   002638                     u767:
  2757   002638  2EE8               	decfsz	wreg,f,c
  2758   00263A  D7FE               	bra	u767
  2759   00263C  2E09               	decfsz	??_I2C_LCD_INIT^(0+1280),f,c
  2760   00263E  D7FC               	bra	u767
  2761   002640  0000               	nop	
  2762   002642                     
  2763                           ;I2C_LCD.c: 195:     I2C1_WRITESINGLEBYTE(I2C_LCD_ADDR,0x00);
  2764   002642  0E00               	movlw	0
  2765   002644  6E01               	movwf	I2C1_WRITESINGLEBYTE@dato^(0+1280),c
  2766   002646  5017               	movf	_I2C_LCD_ADDR^(0+1280),w,c
  2767   002648  EC4C  F017         	call	_I2C1_WRITESINGLEBYTE
  2768   00264C                     
  2769                           ;I2C_LCD.c: 196:     _delay((unsigned long)((1000)*(32000000UL/4000.0)));
  2770   00264C  0E29               	movlw	41
  2771   00264E  6E0A               	movwf	(??_I2C_LCD_INIT+1)^(0+1280),c
  2772   002650  0E96               	movlw	150
  2773   002652  6E09               	movwf	??_I2C_LCD_INIT^(0+1280),c
  2774   002654  0E7F               	movlw	127
  2775   002656                     u777:
  2776   002656  2EE8               	decfsz	wreg,f,c
  2777   002658  D7FE               	bra	u777
  2778   00265A  2E09               	decfsz	??_I2C_LCD_INIT^(0+1280),f,c
  2779   00265C  D7FC               	bra	u777
  2780   00265E  2E0A               	decfsz	(??_I2C_LCD_INIT+1)^(0+1280),f,c
  2781   002660  D7FA               	bra	u777
  2782   002662  0000               	nop	
  2783   002664                     
  2784                           ;I2C_LCD.c: 199:     I2C1_WRITESINGLEBYTE(I2C_LCD_ADDR,0x30);
  2785   002664  0E30               	movlw	48
  2786   002666  6E01               	movwf	I2C1_WRITESINGLEBYTE@dato^(0+1280),c
  2787   002668  5017               	movf	_I2C_LCD_ADDR^(0+1280),w,c
  2788   00266A  EC4C  F017         	call	_I2C1_WRITESINGLEBYTE
  2789   00266E                     
  2790                           ;I2C_LCD.c: 200:     I2C1_WRITESINGLEBYTE(I2C_LCD_ADDR,0x30);
  2791   00266E  0E30               	movlw	48
  2792   002670  6E01               	movwf	I2C1_WRITESINGLEBYTE@dato^(0+1280),c
  2793   002672  5017               	movf	_I2C_LCD_ADDR^(0+1280),w,c
  2794   002674  EC4C  F017         	call	_I2C1_WRITESINGLEBYTE
  2795   002678                     
  2796                           ;I2C_LCD.c: 201:     _delay((unsigned long)((20)*(32000000UL/4000000.0)));
  2797   002678  0E35               	movlw	53
  2798   00267A                     u787:
  2799   00267A  2EE8               	decfsz	wreg,f,c
  2800   00267C  D7FE               	bra	u787
  2801   00267E  0000               	nop	
  2802   002680                     
  2803                           ;I2C_LCD.c: 202:     I2C1_WRITESINGLEBYTE(I2C_LCD_ADDR,0x34);
  2804   002680  0E34               	movlw	52
  2805   002682  6E01               	movwf	I2C1_WRITESINGLEBYTE@dato^(0+1280),c
  2806   002684  5017               	movf	_I2C_LCD_ADDR^(0+1280),w,c
  2807   002686  EC4C  F017         	call	_I2C1_WRITESINGLEBYTE
  2808   00268A                     
  2809                           ;I2C_LCD.c: 203:     _delay((unsigned long)((20)*(32000000UL/4000000.0)));
  2810   00268A  0E35               	movlw	53
  2811   00268C                     u797:
  2812   00268C  2EE8               	decfsz	wreg,f,c
  2813   00268E  D7FE               	bra	u797
  2814   002690  0000               	nop	
  2815   002692                     
  2816                           ;I2C_LCD.c: 204:     I2C1_WRITESINGLEBYTE(I2C_LCD_ADDR,0x30);
  2817   002692  0E30               	movlw	48
  2818   002694  6E01               	movwf	I2C1_WRITESINGLEBYTE@dato^(0+1280),c
  2819   002696  5017               	movf	_I2C_LCD_ADDR^(0+1280),w,c
  2820   002698  EC4C  F017         	call	_I2C1_WRITESINGLEBYTE
  2821   00269C                     
  2822                           ;I2C_LCD.c: 205:     _delay((unsigned long)((5)*(32000000UL/4000.0)));
  2823   00269C  0E34               	movlw	52
  2824   00269E  6E09               	movwf	??_I2C_LCD_INIT^(0+1280),c
  2825   0026A0  0EF2               	movlw	242
  2826   0026A2                     u807:
  2827   0026A2  2EE8               	decfsz	wreg,f,c
  2828   0026A4  D7FE               	bra	u807
  2829   0026A6  2E09               	decfsz	??_I2C_LCD_INIT^(0+1280),f,c
  2830   0026A8  D7FC               	bra	u807
  2831   0026AA                     
  2832                           ;I2C_LCD.c: 207:     I2C1_WRITESINGLEBYTE(I2C_LCD_ADDR,0x30);
  2833   0026AA  0E30               	movlw	48
  2834   0026AC  6E01               	movwf	I2C1_WRITESINGLEBYTE@dato^(0+1280),c
  2835   0026AE  5017               	movf	_I2C_LCD_ADDR^(0+1280),w,c
  2836   0026B0  EC4C  F017         	call	_I2C1_WRITESINGLEBYTE
  2837   0026B4                     
  2838                           ;I2C_LCD.c: 208:     _delay((unsigned long)((20)*(32000000UL/4000000.0)));
  2839   0026B4  0E35               	movlw	53
  2840   0026B6                     u817:
  2841   0026B6  2EE8               	decfsz	wreg,f,c
  2842   0026B8  D7FE               	bra	u817
  2843   0026BA  0000               	nop	
  2844   0026BC                     
  2845                           ;I2C_LCD.c: 209:     I2C1_WRITESINGLEBYTE(I2C_LCD_ADDR,0x34);
  2846   0026BC  0E34               	movlw	52
  2847   0026BE  6E01               	movwf	I2C1_WRITESINGLEBYTE@dato^(0+1280),c
  2848   0026C0  5017               	movf	_I2C_LCD_ADDR^(0+1280),w,c
  2849   0026C2  EC4C  F017         	call	_I2C1_WRITESINGLEBYTE
  2850   0026C6                     
  2851                           ;I2C_LCD.c: 210:     _delay((unsigned long)((20)*(32000000UL/4000000.0)));
  2852   0026C6  0E35               	movlw	53
  2853   0026C8                     u827:
  2854   0026C8  2EE8               	decfsz	wreg,f,c
  2855   0026CA  D7FE               	bra	u827
  2856   0026CC  0000               	nop	
  2857   0026CE                     
  2858                           ;I2C_LCD.c: 211:     I2C1_WRITESINGLEBYTE(I2C_LCD_ADDR,0x30);
  2859   0026CE  0E30               	movlw	48
  2860   0026D0  6E01               	movwf	I2C1_WRITESINGLEBYTE@dato^(0+1280),c
  2861   0026D2  5017               	movf	_I2C_LCD_ADDR^(0+1280),w,c
  2862   0026D4  EC4C  F017         	call	_I2C1_WRITESINGLEBYTE
  2863   0026D8                     
  2864                           ;I2C_LCD.c: 213:     _delay((unsigned long)((5)*(32000000UL/4000.0)));
  2865   0026D8  0E34               	movlw	52
  2866   0026DA  6E09               	movwf	??_I2C_LCD_INIT^(0+1280),c
  2867   0026DC  0EF2               	movlw	242
  2868   0026DE                     u837:
  2869   0026DE  2EE8               	decfsz	wreg,f,c
  2870   0026E0  D7FE               	bra	u837
  2871   0026E2  2E09               	decfsz	??_I2C_LCD_INIT^(0+1280),f,c
  2872   0026E4  D7FC               	bra	u837
  2873   0026E6                     
  2874                           ;I2C_LCD.c: 215:     I2C1_WRITESINGLEBYTE(I2C_LCD_ADDR,0x30);
  2875   0026E6  0E30               	movlw	48
  2876   0026E8  6E01               	movwf	I2C1_WRITESINGLEBYTE@dato^(0+1280),c
  2877   0026EA  5017               	movf	_I2C_LCD_ADDR^(0+1280),w,c
  2878   0026EC  EC4C  F017         	call	_I2C1_WRITESINGLEBYTE
  2879   0026F0                     
  2880                           ;I2C_LCD.c: 216:     _delay((unsigned long)((20)*(32000000UL/4000000.0)));
  2881   0026F0  0E35               	movlw	53
  2882   0026F2                     u847:
  2883   0026F2  2EE8               	decfsz	wreg,f,c
  2884   0026F4  D7FE               	bra	u847
  2885   0026F6  0000               	nop	
  2886   0026F8                     
  2887                           ;I2C_LCD.c: 217:     I2C1_WRITESINGLEBYTE(I2C_LCD_ADDR,0x34);
  2888   0026F8  0E34               	movlw	52
  2889   0026FA  6E01               	movwf	I2C1_WRITESINGLEBYTE@dato^(0+1280),c
  2890   0026FC  5017               	movf	_I2C_LCD_ADDR^(0+1280),w,c
  2891   0026FE  EC4C  F017         	call	_I2C1_WRITESINGLEBYTE
  2892   002702                     
  2893                           ;I2C_LCD.c: 218:     _delay((unsigned long)((20)*(32000000UL/4000000.0)));
  2894   002702  0E35               	movlw	53
  2895   002704                     u857:
  2896   002704  2EE8               	decfsz	wreg,f,c
  2897   002706  D7FE               	bra	u857
  2898   002708  0000               	nop	
  2899   00270A                     
  2900                           ;I2C_LCD.c: 219:     I2C1_WRITESINGLEBYTE(I2C_LCD_ADDR,0x30);
  2901   00270A  0E30               	movlw	48
  2902   00270C  6E01               	movwf	I2C1_WRITESINGLEBYTE@dato^(0+1280),c
  2903   00270E  5017               	movf	_I2C_LCD_ADDR^(0+1280),w,c
  2904   002710  EC4C  F017         	call	_I2C1_WRITESINGLEBYTE
  2905   002714                     
  2906                           ;I2C_LCD.c: 221:     _delay((unsigned long)((250)*(32000000UL/4000000.0)));
  2907   002714  0E03               	movlw	3
  2908   002716  6E09               	movwf	??_I2C_LCD_INIT^(0+1280),c
  2909   002718  0E98               	movlw	152
  2910   00271A                     u867:
  2911   00271A  2EE8               	decfsz	wreg,f,c
  2912   00271C  D7FE               	bra	u867
  2913   00271E  2E09               	decfsz	??_I2C_LCD_INIT^(0+1280),f,c
  2914   002720  D7FC               	bra	u867
  2915   002722                     
  2916                           ;I2C_LCD.c: 223:     I2C1_WRITESINGLEBYTE(I2C_LCD_ADDR,0x20);
  2917   002722  0E20               	movlw	32
  2918   002724  6E01               	movwf	I2C1_WRITESINGLEBYTE@dato^(0+1280),c
  2919   002726  5017               	movf	_I2C_LCD_ADDR^(0+1280),w,c
  2920   002728  EC4C  F017         	call	_I2C1_WRITESINGLEBYTE
  2921   00272C                     
  2922                           ;I2C_LCD.c: 224:     _delay((unsigned long)((20)*(32000000UL/4000000.0)));
  2923   00272C  0E35               	movlw	53
  2924   00272E                     u877:
  2925   00272E  2EE8               	decfsz	wreg,f,c
  2926   002730  D7FE               	bra	u877
  2927   002732  0000               	nop	
  2928   002734                     
  2929                           ;I2C_LCD.c: 225:     I2C1_WRITESINGLEBYTE(I2C_LCD_ADDR,0x24);
  2930   002734  0E24               	movlw	36
  2931   002736  6E01               	movwf	I2C1_WRITESINGLEBYTE@dato^(0+1280),c
  2932   002738  5017               	movf	_I2C_LCD_ADDR^(0+1280),w,c
  2933   00273A  EC4C  F017         	call	_I2C1_WRITESINGLEBYTE
  2934   00273E                     
  2935                           ;I2C_LCD.c: 226:     _delay((unsigned long)((20)*(32000000UL/4000000.0)));
  2936   00273E  0E35               	movlw	53
  2937   002740                     u887:
  2938   002740  2EE8               	decfsz	wreg,f,c
  2939   002742  D7FE               	bra	u887
  2940   002744  0000               	nop	
  2941   002746                     
  2942                           ;I2C_LCD.c: 227:     I2C1_WRITESINGLEBYTE(I2C_LCD_ADDR,0x20);
  2943   002746  0E20               	movlw	32
  2944   002748  6E01               	movwf	I2C1_WRITESINGLEBYTE@dato^(0+1280),c
  2945   00274A  5017               	movf	_I2C_LCD_ADDR^(0+1280),w,c
  2946   00274C  EC4C  F017         	call	_I2C1_WRITESINGLEBYTE
  2947   002750                     
  2948                           ;I2C_LCD.c: 229:     _delay((unsigned long)((75)*(32000000UL/4000000.0)));
  2949   002750  0EC8               	movlw	200
  2950   002752                     u897:
  2951   002752  2EE8               	decfsz	wreg,f,c
  2952   002754  D7FE               	bra	u897
  2953   002756                     
  2954                           ;I2C_LCD.c: 231:     I2C1_WRITESINGLEBYTE(I2C_LCD_ADDR,0x20);
  2955   002756  0E20               	movlw	32
  2956   002758  6E01               	movwf	I2C1_WRITESINGLEBYTE@dato^(0+1280),c
  2957   00275A  5017               	movf	_I2C_LCD_ADDR^(0+1280),w,c
  2958   00275C  EC4C  F017         	call	_I2C1_WRITESINGLEBYTE
  2959   002760                     
  2960                           ;I2C_LCD.c: 232:     _delay((unsigned long)((20)*(32000000UL/4000000.0)));
  2961   002760  0E35               	movlw	53
  2962   002762                     u907:
  2963   002762  2EE8               	decfsz	wreg,f,c
  2964   002764  D7FE               	bra	u907
  2965   002766  0000               	nop	
  2966   002768                     
  2967                           ;I2C_LCD.c: 233:     I2C1_WRITESINGLEBYTE(I2C_LCD_ADDR,0x24);
  2968   002768  0E24               	movlw	36
  2969   00276A  6E01               	movwf	I2C1_WRITESINGLEBYTE@dato^(0+1280),c
  2970   00276C  5017               	movf	_I2C_LCD_ADDR^(0+1280),w,c
  2971   00276E  EC4C  F017         	call	_I2C1_WRITESINGLEBYTE
  2972   002772                     
  2973                           ;I2C_LCD.c: 234:     _delay((unsigned long)((20)*(32000000UL/4000000.0)));
  2974   002772  0E35               	movlw	53
  2975   002774                     u917:
  2976   002774  2EE8               	decfsz	wreg,f,c
  2977   002776  D7FE               	bra	u917
  2978   002778  0000               	nop	
  2979   00277A                     
  2980                           ;I2C_LCD.c: 235:     I2C1_WRITESINGLEBYTE(I2C_LCD_ADDR,0x20);
  2981   00277A  0E20               	movlw	32
  2982   00277C  6E01               	movwf	I2C1_WRITESINGLEBYTE@dato^(0+1280),c
  2983   00277E  5017               	movf	_I2C_LCD_ADDR^(0+1280),w,c
  2984   002780  EC4C  F017         	call	_I2C1_WRITESINGLEBYTE
  2985   002784                     
  2986                           ;I2C_LCD.c: 237:     _delay((unsigned long)((75)*(32000000UL/4000000.0)));
  2987   002784  0EC8               	movlw	200
  2988   002786                     u927:
  2989   002786  2EE8               	decfsz	wreg,f,c
  2990   002788  D7FE               	bra	u927
  2991   00278A                     
  2992                           ;I2C_LCD.c: 239:     I2C1_WRITESINGLEBYTE(I2C_LCD_ADDR,0x80);
  2993   00278A  0E80               	movlw	128
  2994   00278C  6E01               	movwf	I2C1_WRITESINGLEBYTE@dato^(0+1280),c
  2995   00278E  5017               	movf	_I2C_LCD_ADDR^(0+1280),w,c
  2996   002790  EC4C  F017         	call	_I2C1_WRITESINGLEBYTE
  2997   002794                     
  2998                           ;I2C_LCD.c: 240:     _delay((unsigned long)((20)*(32000000UL/4000000.0)));
  2999   002794  0E35               	movlw	53
  3000   002796                     u937:
  3001   002796  2EE8               	decfsz	wreg,f,c
  3002   002798  D7FE               	bra	u937
  3003   00279A  0000               	nop	
  3004   00279C                     
  3005                           ;I2C_LCD.c: 241:     I2C1_WRITESINGLEBYTE(I2C_LCD_ADDR,0x84);
  3006   00279C  0E84               	movlw	132
  3007   00279E  6E01               	movwf	I2C1_WRITESINGLEBYTE@dato^(0+1280),c
  3008   0027A0  5017               	movf	_I2C_LCD_ADDR^(0+1280),w,c
  3009   0027A2  EC4C  F017         	call	_I2C1_WRITESINGLEBYTE
  3010   0027A6                     
  3011                           ;I2C_LCD.c: 242:     _delay((unsigned long)((20)*(32000000UL/4000000.0)));
  3012   0027A6  0E35               	movlw	53
  3013   0027A8                     u947:
  3014   0027A8  2EE8               	decfsz	wreg,f,c
  3015   0027AA  D7FE               	bra	u947
  3016   0027AC  0000               	nop	
  3017   0027AE                     
  3018                           ;I2C_LCD.c: 243:     I2C1_WRITESINGLEBYTE(I2C_LCD_ADDR,0x80);
  3019   0027AE  0E80               	movlw	128
  3020   0027B0  6E01               	movwf	I2C1_WRITESINGLEBYTE@dato^(0+1280),c
  3021   0027B2  5017               	movf	_I2C_LCD_ADDR^(0+1280),w,c
  3022   0027B4  EC4C  F017         	call	_I2C1_WRITESINGLEBYTE
  3023   0027B8                     
  3024                           ;I2C_LCD.c: 245:     _delay((unsigned long)((75)*(32000000UL/4000000.0)));
  3025   0027B8  0EC8               	movlw	200
  3026   0027BA                     u957:
  3027   0027BA  2EE8               	decfsz	wreg,f,c
  3028   0027BC  D7FE               	bra	u957
  3029   0027BE                     
  3030                           ;I2C_LCD.c: 247:     I2C1_WRITESINGLEBYTE(I2C_LCD_ADDR,0x00);
  3031   0027BE  0E00               	movlw	0
  3032   0027C0  6E01               	movwf	I2C1_WRITESINGLEBYTE@dato^(0+1280),c
  3033   0027C2  5017               	movf	_I2C_LCD_ADDR^(0+1280),w,c
  3034   0027C4  EC4C  F017         	call	_I2C1_WRITESINGLEBYTE
  3035   0027C8                     
  3036                           ;I2C_LCD.c: 248:     _delay((unsigned long)((20)*(32000000UL/4000000.0)));
  3037   0027C8  0E35               	movlw	53
  3038   0027CA                     u967:
  3039   0027CA  2EE8               	decfsz	wreg,f,c
  3040   0027CC  D7FE               	bra	u967
  3041   0027CE  0000               	nop	
  3042   0027D0                     
  3043                           ;I2C_LCD.c: 249:     I2C1_WRITESINGLEBYTE(I2C_LCD_ADDR,0x04);
  3044   0027D0  0E04               	movlw	4
  3045   0027D2  6E01               	movwf	I2C1_WRITESINGLEBYTE@dato^(0+1280),c
  3046   0027D4  5017               	movf	_I2C_LCD_ADDR^(0+1280),w,c
  3047   0027D6  EC4C  F017         	call	_I2C1_WRITESINGLEBYTE
  3048   0027DA                     
  3049                           ;I2C_LCD.c: 250:     _delay((unsigned long)((20)*(32000000UL/4000000.0)));
  3050   0027DA  0E35               	movlw	53
  3051   0027DC                     u977:
  3052   0027DC  2EE8               	decfsz	wreg,f,c
  3053   0027DE  D7FE               	bra	u977
  3054   0027E0  0000               	nop	
  3055   0027E2                     
  3056                           ;I2C_LCD.c: 251:     I2C1_WRITESINGLEBYTE(I2C_LCD_ADDR,0x00);
  3057   0027E2  0E00               	movlw	0
  3058   0027E4  6E01               	movwf	I2C1_WRITESINGLEBYTE@dato^(0+1280),c
  3059   0027E6  5017               	movf	_I2C_LCD_ADDR^(0+1280),w,c
  3060   0027E8  EC4C  F017         	call	_I2C1_WRITESINGLEBYTE
  3061   0027EC                     
  3062                           ;I2C_LCD.c: 253:      _delay((unsigned long)((75)*(32000000UL/4000000.0)));
  3063   0027EC  0EC8               	movlw	200
  3064   0027EE                     u987:
  3065   0027EE  2EE8               	decfsz	wreg,f,c
  3066   0027F0  D7FE               	bra	u987
  3067   0027F2                     
  3068                           ;I2C_LCD.c: 255:     I2C1_WRITESINGLEBYTE(I2C_LCD_ADDR,0xC0);
  3069   0027F2  0EC0               	movlw	192
  3070   0027F4  6E01               	movwf	I2C1_WRITESINGLEBYTE@dato^(0+1280),c
  3071   0027F6  5017               	movf	_I2C_LCD_ADDR^(0+1280),w,c
  3072   0027F8  EC4C  F017         	call	_I2C1_WRITESINGLEBYTE
  3073   0027FC                     
  3074                           ;I2C_LCD.c: 256:     _delay((unsigned long)((20)*(32000000UL/4000000.0)));
  3075   0027FC  0E35               	movlw	53
  3076   0027FE                     u997:
  3077   0027FE  2EE8               	decfsz	wreg,f,c
  3078   002800  D7FE               	bra	u997
  3079   002802  0000               	nop	
  3080   002804                     
  3081                           ;I2C_LCD.c: 257:     I2C1_WRITESINGLEBYTE(I2C_LCD_ADDR,0xC4);
  3082   002804  0EC4               	movlw	196
  3083   002806  6E01               	movwf	I2C1_WRITESINGLEBYTE@dato^(0+1280),c
  3084   002808  5017               	movf	_I2C_LCD_ADDR^(0+1280),w,c
  3085   00280A  EC4C  F017         	call	_I2C1_WRITESINGLEBYTE
  3086   00280E                     
  3087                           ;I2C_LCD.c: 258:     _delay((unsigned long)((20)*(32000000UL/4000000.0)));
  3088   00280E  0E35               	movlw	53
  3089   002810                     u1007:
  3090   002810  2EE8               	decfsz	wreg,f,c
  3091   002812  D7FE               	bra	u1007
  3092   002814  0000               	nop	
  3093   002816                     
  3094                           ;I2C_LCD.c: 259:     I2C1_WRITESINGLEBYTE(I2C_LCD_ADDR,0xC0);
  3095   002816  0EC0               	movlw	192
  3096   002818  6E01               	movwf	I2C1_WRITESINGLEBYTE@dato^(0+1280),c
  3097   00281A  5017               	movf	_I2C_LCD_ADDR^(0+1280),w,c
  3098   00281C  EC4C  F017         	call	_I2C1_WRITESINGLEBYTE
  3099   002820                     
  3100                           ;I2C_LCD.c: 261:      _delay((unsigned long)((75)*(32000000UL/4000000.0)));
  3101   002820  0EC8               	movlw	200
  3102   002822                     u1017:
  3103   002822  2EE8               	decfsz	wreg,f,c
  3104   002824  D7FE               	bra	u1017
  3105   002826                     
  3106                           ;I2C_LCD.c: 263:     I2C1_WRITESINGLEBYTE(I2C_LCD_ADDR,0x00);
  3107   002826  0E00               	movlw	0
  3108   002828  6E01               	movwf	I2C1_WRITESINGLEBYTE@dato^(0+1280),c
  3109   00282A  5017               	movf	_I2C_LCD_ADDR^(0+1280),w,c
  3110   00282C  EC4C  F017         	call	_I2C1_WRITESINGLEBYTE
  3111   002830                     
  3112                           ;I2C_LCD.c: 264:     _delay((unsigned long)((20)*(32000000UL/4000000.0)));
  3113   002830  0E35               	movlw	53
  3114   002832                     u1027:
  3115   002832  2EE8               	decfsz	wreg,f,c
  3116   002834  D7FE               	bra	u1027
  3117   002836  0000               	nop	
  3118   002838                     
  3119                           ;I2C_LCD.c: 265:     I2C1_WRITESINGLEBYTE(I2C_LCD_ADDR,0x04);
  3120   002838  0E04               	movlw	4
  3121   00283A  6E01               	movwf	I2C1_WRITESINGLEBYTE@dato^(0+1280),c
  3122   00283C  5017               	movf	_I2C_LCD_ADDR^(0+1280),w,c
  3123   00283E  EC4C  F017         	call	_I2C1_WRITESINGLEBYTE
  3124   002842                     
  3125                           ;I2C_LCD.c: 266:     _delay((unsigned long)((20)*(32000000UL/4000000.0)));
  3126   002842  0E35               	movlw	53
  3127   002844                     u1037:
  3128   002844  2EE8               	decfsz	wreg,f,c
  3129   002846  D7FE               	bra	u1037
  3130   002848  0000               	nop	
  3131   00284A                     
  3132                           ;I2C_LCD.c: 267:     I2C1_WRITESINGLEBYTE(I2C_LCD_ADDR,0x00);
  3133   00284A  0E00               	movlw	0
  3134   00284C  6E01               	movwf	I2C1_WRITESINGLEBYTE@dato^(0+1280),c
  3135   00284E  5017               	movf	_I2C_LCD_ADDR^(0+1280),w,c
  3136   002850  EC4C  F017         	call	_I2C1_WRITESINGLEBYTE
  3137   002854                     
  3138                           ;I2C_LCD.c: 269:      _delay((unsigned long)((75)*(32000000UL/4000000.0)));
  3139   002854  0EC8               	movlw	200
  3140   002856                     u1047:
  3141   002856  2EE8               	decfsz	wreg,f,c
  3142   002858  D7FE               	bra	u1047
  3143   00285A                     
  3144                           ;I2C_LCD.c: 271:     I2C1_WRITESINGLEBYTE(I2C_LCD_ADDR,0x10);
  3145   00285A  0E10               	movlw	16
  3146   00285C  6E01               	movwf	I2C1_WRITESINGLEBYTE@dato^(0+1280),c
  3147   00285E  5017               	movf	_I2C_LCD_ADDR^(0+1280),w,c
  3148   002860  EC4C  F017         	call	_I2C1_WRITESINGLEBYTE
  3149   002864                     
  3150                           ;I2C_LCD.c: 272:     _delay((unsigned long)((20)*(32000000UL/4000000.0)));
  3151   002864  0E35               	movlw	53
  3152   002866                     u1057:
  3153   002866  2EE8               	decfsz	wreg,f,c
  3154   002868  D7FE               	bra	u1057
  3155   00286A  0000               	nop	
  3156   00286C                     
  3157                           ;I2C_LCD.c: 273:     I2C1_WRITESINGLEBYTE(I2C_LCD_ADDR,0x14);
  3158   00286C  0E14               	movlw	20
  3159   00286E  6E01               	movwf	I2C1_WRITESINGLEBYTE@dato^(0+1280),c
  3160   002870  5017               	movf	_I2C_LCD_ADDR^(0+1280),w,c
  3161   002872  EC4C  F017         	call	_I2C1_WRITESINGLEBYTE
  3162   002876                     
  3163                           ;I2C_LCD.c: 274:     _delay((unsigned long)((20)*(32000000UL/4000000.0)));
  3164   002876  0E35               	movlw	53
  3165   002878                     u1067:
  3166   002878  2EE8               	decfsz	wreg,f,c
  3167   00287A  D7FE               	bra	u1067
  3168   00287C  0000               	nop	
  3169   00287E                     
  3170                           ;I2C_LCD.c: 275:     I2C1_WRITESINGLEBYTE(I2C_LCD_ADDR,0x10);
  3171   00287E  0E10               	movlw	16
  3172   002880  6E01               	movwf	I2C1_WRITESINGLEBYTE@dato^(0+1280),c
  3173   002882  5017               	movf	_I2C_LCD_ADDR^(0+1280),w,c
  3174   002884  EC4C  F017         	call	_I2C1_WRITESINGLEBYTE
  3175   002888                     
  3176                           ;I2C_LCD.c: 277:      _delay((unsigned long)((2)*(32000000UL/4000.0)));
  3177   002888  0E15               	movlw	21
  3178   00288A  6E09               	movwf	??_I2C_LCD_INIT^(0+1280),c
  3179   00288C  0EC6               	movlw	198
  3180   00288E                     u1077:
  3181   00288E  2EE8               	decfsz	wreg,f,c
  3182   002890  D7FE               	bra	u1077
  3183   002892  2E09               	decfsz	??_I2C_LCD_INIT^(0+1280),f,c
  3184   002894  D7FC               	bra	u1077
  3185   002896  D000               	nop2	
  3186   002898                     
  3187                           ;I2C_LCD.c: 279:     I2C1_WRITESINGLEBYTE(I2C_LCD_ADDR,0x00);
  3188   002898  0E00               	movlw	0
  3189   00289A  6E01               	movwf	I2C1_WRITESINGLEBYTE@dato^(0+1280),c
  3190   00289C  5017               	movf	_I2C_LCD_ADDR^(0+1280),w,c
  3191   00289E  EC4C  F017         	call	_I2C1_WRITESINGLEBYTE
  3192   0028A2                     
  3193                           ;I2C_LCD.c: 280:     _delay((unsigned long)((02)*(32000000UL/4000000.0)));
  3194   0028A2  0E05               	movlw	5
  3195   0028A4                     u1087:
  3196   0028A4  2EE8               	decfsz	wreg,f,c
  3197   0028A6  D7FE               	bra	u1087
  3198   0028A8  0000               	nop	
  3199   0028AA                     
  3200                           ;I2C_LCD.c: 281:     I2C1_WRITESINGLEBYTE(I2C_LCD_ADDR,0x04);
  3201   0028AA  0E04               	movlw	4
  3202   0028AC  6E01               	movwf	I2C1_WRITESINGLEBYTE@dato^(0+1280),c
  3203   0028AE  5017               	movf	_I2C_LCD_ADDR^(0+1280),w,c
  3204   0028B0  EC4C  F017         	call	_I2C1_WRITESINGLEBYTE
  3205   0028B4                     
  3206                           ;I2C_LCD.c: 282:     _delay((unsigned long)((20)*(32000000UL/4000000.0)));
  3207   0028B4  0E35               	movlw	53
  3208   0028B6                     u1097:
  3209   0028B6  2EE8               	decfsz	wreg,f,c
  3210   0028B8  D7FE               	bra	u1097
  3211   0028BA  0000               	nop	
  3212   0028BC                     
  3213                           ;I2C_LCD.c: 283:     I2C1_WRITESINGLEBYTE(I2C_LCD_ADDR,0x00);
  3214   0028BC  0E00               	movlw	0
  3215   0028BE  6E01               	movwf	I2C1_WRITESINGLEBYTE@dato^(0+1280),c
  3216   0028C0  5017               	movf	_I2C_LCD_ADDR^(0+1280),w,c
  3217   0028C2  EC4C  F017         	call	_I2C1_WRITESINGLEBYTE
  3218   0028C6                     
  3219                           ;I2C_LCD.c: 285:      _delay((unsigned long)((75)*(32000000UL/4000000.0)));
  3220   0028C6  0EC8               	movlw	200
  3221   0028C8                     u1107:
  3222   0028C8  2EE8               	decfsz	wreg,f,c
  3223   0028CA  D7FE               	bra	u1107
  3224   0028CC                     
  3225                           ;I2C_LCD.c: 287:     I2C1_WRITESINGLEBYTE(I2C_LCD_ADDR,0x60);
  3226   0028CC  0E60               	movlw	96
  3227   0028CE  6E01               	movwf	I2C1_WRITESINGLEBYTE@dato^(0+1280),c
  3228   0028D0  5017               	movf	_I2C_LCD_ADDR^(0+1280),w,c
  3229   0028D2  EC4C  F017         	call	_I2C1_WRITESINGLEBYTE
  3230   0028D6                     
  3231                           ;I2C_LCD.c: 288:     _delay((unsigned long)((02)*(32000000UL/4000000.0)));
  3232   0028D6  0E05               	movlw	5
  3233   0028D8                     u1117:
  3234   0028D8  2EE8               	decfsz	wreg,f,c
  3235   0028DA  D7FE               	bra	u1117
  3236   0028DC  0000               	nop	
  3237   0028DE                     
  3238                           ;I2C_LCD.c: 289:     I2C1_WRITESINGLEBYTE(I2C_LCD_ADDR,0x64);
  3239   0028DE  0E64               	movlw	100
  3240   0028E0  6E01               	movwf	I2C1_WRITESINGLEBYTE@dato^(0+1280),c
  3241   0028E2  5017               	movf	_I2C_LCD_ADDR^(0+1280),w,c
  3242   0028E4  EC4C  F017         	call	_I2C1_WRITESINGLEBYTE
  3243   0028E8                     
  3244                           ;I2C_LCD.c: 290:     _delay((unsigned long)((20)*(32000000UL/4000000.0)));
  3245   0028E8  0E35               	movlw	53
  3246   0028EA                     u1127:
  3247   0028EA  2EE8               	decfsz	wreg,f,c
  3248   0028EC  D7FE               	bra	u1127
  3249   0028EE  0000               	nop	
  3250   0028F0                     
  3251                           ;I2C_LCD.c: 291:     I2C1_WRITESINGLEBYTE(I2C_LCD_ADDR,0x60);
  3252   0028F0  0E60               	movlw	96
  3253   0028F2  6E01               	movwf	I2C1_WRITESINGLEBYTE@dato^(0+1280),c
  3254   0028F4  5017               	movf	_I2C_LCD_ADDR^(0+1280),w,c
  3255   0028F6  EC4C  F017         	call	_I2C1_WRITESINGLEBYTE
  3256   0028FA                     
  3257                           ;I2C_LCD.c: 293:      _delay((unsigned long)((75)*(32000000UL/4000000.0)));
  3258   0028FA  0EC8               	movlw	200
  3259   0028FC                     u1137:
  3260   0028FC  2EE8               	decfsz	wreg,f,c
  3261   0028FE  D7FE               	bra	u1137
  3262   002900                     
  3263                           ;I2C_LCD.c: 295:     I2C1_WRITESINGLEBYTE(I2C_LCD_ADDR,0x00);
  3264   002900  0E00               	movlw	0
  3265   002902  6E01               	movwf	I2C1_WRITESINGLEBYTE@dato^(0+1280),c
  3266   002904  5017               	movf	_I2C_LCD_ADDR^(0+1280),w,c
  3267   002906  EC4C  F017         	call	_I2C1_WRITESINGLEBYTE
  3268   00290A                     
  3269                           ;I2C_LCD.c: 296:     _delay((unsigned long)((20)*(32000000UL/4000000.0)));
  3270   00290A  0E35               	movlw	53
  3271   00290C                     u1147:
  3272   00290C  2EE8               	decfsz	wreg,f,c
  3273   00290E  D7FE               	bra	u1147
  3274   002910  0000               	nop	
  3275   002912                     
  3276                           ;I2C_LCD.c: 297:     I2C1_WRITESINGLEBYTE(I2C_LCD_ADDR,0x04);
  3277   002912  0E04               	movlw	4
  3278   002914  6E01               	movwf	I2C1_WRITESINGLEBYTE@dato^(0+1280),c
  3279   002916  5017               	movf	_I2C_LCD_ADDR^(0+1280),w,c
  3280   002918  EC4C  F017         	call	_I2C1_WRITESINGLEBYTE
  3281   00291C                     
  3282                           ;I2C_LCD.c: 298:     _delay((unsigned long)((20)*(32000000UL/4000000.0)));
  3283   00291C  0E35               	movlw	53
  3284   00291E                     u1157:
  3285   00291E  2EE8               	decfsz	wreg,f,c
  3286   002920  D7FE               	bra	u1157
  3287   002922  0000               	nop	
  3288   002924                     
  3289                           ;I2C_LCD.c: 299:     I2C1_WRITESINGLEBYTE(I2C_LCD_ADDR,0x00);
  3290   002924  0E00               	movlw	0
  3291   002926  6E01               	movwf	I2C1_WRITESINGLEBYTE@dato^(0+1280),c
  3292   002928  5017               	movf	_I2C_LCD_ADDR^(0+1280),w,c
  3293   00292A  EC4C  F017         	call	_I2C1_WRITESINGLEBYTE
  3294   00292E                     
  3295                           ;I2C_LCD.c: 301:     _delay((unsigned long)((75)*(32000000UL/4000000.0)));
  3296   00292E  0EC8               	movlw	200
  3297   002930                     u1167:
  3298   002930  2EE8               	decfsz	wreg,f,c
  3299   002932  D7FE               	bra	u1167
  3300   002934                     
  3301                           ;I2C_LCD.c: 303:     I2C1_WRITESINGLEBYTE(I2C_LCD_ADDR,0x20);
  3302   002934  0E20               	movlw	32
  3303   002936  6E01               	movwf	I2C1_WRITESINGLEBYTE@dato^(0+1280),c
  3304   002938  5017               	movf	_I2C_LCD_ADDR^(0+1280),w,c
  3305   00293A  EC4C  F017         	call	_I2C1_WRITESINGLEBYTE
  3306   00293E                     
  3307                           ;I2C_LCD.c: 304:     _delay((unsigned long)((20)*(32000000UL/4000000.0)));
  3308   00293E  0E35               	movlw	53
  3309   002940                     u1177:
  3310   002940  2EE8               	decfsz	wreg,f,c
  3311   002942  D7FE               	bra	u1177
  3312   002944  0000               	nop	
  3313   002946                     
  3314                           ;I2C_LCD.c: 305:     I2C1_WRITESINGLEBYTE(I2C_LCD_ADDR,0x24);
  3315   002946  0E24               	movlw	36
  3316   002948  6E01               	movwf	I2C1_WRITESINGLEBYTE@dato^(0+1280),c
  3317   00294A  5017               	movf	_I2C_LCD_ADDR^(0+1280),w,c
  3318   00294C  EC4C  F017         	call	_I2C1_WRITESINGLEBYTE
  3319   002950                     
  3320                           ;I2C_LCD.c: 306:     _delay((unsigned long)((20)*(32000000UL/4000000.0)));
  3321   002950  0E35               	movlw	53
  3322   002952                     u1187:
  3323   002952  2EE8               	decfsz	wreg,f,c
  3324   002954  D7FE               	bra	u1187
  3325   002956  0000               	nop	
  3326   002958                     
  3327                           ;I2C_LCD.c: 307:     I2C1_WRITESINGLEBYTE(I2C_LCD_ADDR,0x20);
  3328   002958  0E20               	movlw	32
  3329   00295A  6E01               	movwf	I2C1_WRITESINGLEBYTE@dato^(0+1280),c
  3330   00295C  5017               	movf	_I2C_LCD_ADDR^(0+1280),w,c
  3331   00295E  EC4C  F017         	call	_I2C1_WRITESINGLEBYTE
  3332   002962                     
  3333                           ;I2C_LCD.c: 309:     _delay((unsigned long)((15)*(32000000UL/4000.0)));
  3334   002962  0E9C               	movlw	156
  3335   002964  6E09               	movwf	??_I2C_LCD_INIT^(0+1280),c
  3336   002966  0ED7               	movlw	215
  3337   002968                     u1197:
  3338   002968  2EE8               	decfsz	wreg,f,c
  3339   00296A  D7FE               	bra	u1197
  3340   00296C  2E09               	decfsz	??_I2C_LCD_INIT^(0+1280),f,c
  3341   00296E  D7FC               	bra	u1197
  3342   002970  0000               	nop	
  3343   002972                     
  3344                           ;I2C_LCD.c: 310:     I2C_BORRAR_LCD();
  3345   002972  ECDB  F017         	call	_I2C_BORRAR_LCD	;wreg free
  3346   002976                     
  3347                           ;I2C_LCD.c: 311:     I2C_CURSOR_HOME();
  3348   002976  EC0B  F018         	call	_I2C_CURSOR_HOME	;wreg free
  3349   00297A                     
  3350                           ;I2C_LCD.c: 312:     I2C_CURSOR_ONOFF(1);
  3351   00297A  0E01               	movlw	1
  3352   00297C  ECC3  F017         	call	_I2C_CURSOR_ONOFF
  3353   002980  0012               	return		;funcret
  3354   002982                     __end_of_I2C_LCD_INIT:
  3355                           	callstack 0
  3356                           
  3357 ;; *************** function _I2C_CURSOR_ONOFF *****************
  3358 ;; Defined at:
  3359 ;;		line 116 in file "I2C_LCD.c"
  3360 ;; Parameters:    Size  Location     Type
  3361 ;;  estado          1    wreg     unsigned char 
  3362 ;; Auto vars:     Size  Location     Type
  3363 ;;  estado          1    6[COMRAM] unsigned char 
  3364 ;; Return value:  Size  Location     Type
  3365 ;;                  1    wreg      void 
  3366 ;; Registers used:
  3367 ;;		wreg, status,2, status,0, cstack
  3368 ;; Tracked objects:
  3369 ;;		On entry : 0/0
  3370 ;;		On exit  : 0/0
  3371 ;;		Unchanged: 0/0
  3372 ;; Data sizes:     COMRAM   BANK5   BANK6   BANK7   BANK8   BANK9  BANK10  BANK11  BANK12  BANK13  BANK14  BANK15  BANK1
      +6  BANK17  BANK18  BANK19  BANK20  BANK21  BANK22  BANK23  BANK24  BANK25  BANK26  BANK27  BANK28  BANK29  BANK30  BANK3
      +1  BANK32  BANK33  BANK34  BANK35  BANK36
  3373 ;;      Params:         0       0       0       0       0       0       0       0       0       0       0       0       
      +0       0       0       0       0       0       0       0       0       0       0       0       0       0       0       
      +0       0       0       0       0       0
  3374 ;;      Locals:         1       0       0       0       0       0       0       0       0       0       0       0       
      +0       0       0       0       0       0       0       0       0       0       0       0       0       0       0       
      +0       0       0       0       0       0
  3375 ;;      Temps:          0       0       0       0       0       0       0       0       0       0       0       0       
      +0       0       0       0       0       0       0       0       0       0       0       0       0       0       0       
      +0       0       0       0       0       0
  3376 ;;      Totals:         1       0       0       0       0       0       0       0       0       0       0       0       
      +0       0       0       0       0       0       0       0       0       0       0       0       0       0       0       
      +0       0       0       0       0       0
  3377 ;;Total ram usage:        1 bytes
  3378 ;; Hardware stack levels used: 1
  3379 ;; Hardware stack levels required when called: 3
  3380 ;; This function calls:
  3381 ;;		_I2C_ENVIA_LCD_CMD
  3382 ;; This function is called by:
  3383 ;;		_I2C_LCD_INIT
  3384 ;; This function uses a non-reentrant model
  3385 ;;
  3386                           
  3387                           	psect	text7
  3388   002F86                     __ptext7:
  3389                           	callstack 0
  3390   002F86                     _I2C_CURSOR_ONOFF:
  3391                           	callstack 121
  3392                           
  3393                           ;incstack = 0
  3394                           ;I2C_CURSOR_ONOFF@estado stored from wreg
  3395   002F86  6E07               	movwf	I2C_CURSOR_ONOFF@estado^(0+1280),c
  3396   002F88                     
  3397                           ;I2C_LCD.c: 117:  if(estado == 0) I2C_ENVIA_LCD_CMD(0x0E);
  3398   002F88  5007               	movf	I2C_CURSOR_ONOFF@estado^(0+1280),w,c
  3399   002F8A  A4D8               	btfss	status,2,c
  3400   002F8C  EFCA  F017         	goto	u431
  3401   002F90  EFCC  F017         	goto	u430
  3402   002F94                     u431:
  3403   002F94  EFCF  F017         	goto	l1625
  3404   002F98                     u430:
  3405   002F98  0E0E               	movlw	14
  3406   002F9A  EC5A  F016         	call	_I2C_ENVIA_LCD_CMD
  3407   002F9E                     l1625:
  3408                           
  3409                           ;I2C_LCD.c: 118:  if(estado == 1) I2C_ENVIA_LCD_CMD(0x0C);
  3410   002F9E  0407               	decf	I2C_CURSOR_ONOFF@estado^(0+1280),w,c
  3411   002FA0  A4D8               	btfss	status,2,c
  3412   002FA2  EFD5  F017         	goto	u441
  3413   002FA6  EFD7  F017         	goto	u440
  3414   002FAA                     u441:
  3415   002FAA  EFDA  F017         	goto	l100
  3416   002FAE                     u440:
  3417   002FAE  0E0C               	movlw	12
  3418   002FB0  EC5A  F016         	call	_I2C_ENVIA_LCD_CMD
  3419   002FB4                     l100:
  3420   002FB4  0012               	return		;funcret
  3421   002FB6                     __end_of_I2C_CURSOR_ONOFF:
  3422                           	callstack 0
  3423                           
  3424 ;; *************** function _I2C_CURSOR_HOME *****************
  3425 ;; Defined at:
  3426 ;;		line 96 in file "I2C_LCD.c"
  3427 ;; Parameters:    Size  Location     Type
  3428 ;;		None
  3429 ;; Auto vars:     Size  Location     Type
  3430 ;;		None
  3431 ;; Return value:  Size  Location     Type
  3432 ;;                  1    wreg      void 
  3433 ;; Registers used:
  3434 ;;		wreg, status,2, status,0, cstack
  3435 ;; Tracked objects:
  3436 ;;		On entry : 0/0
  3437 ;;		On exit  : 0/0
  3438 ;;		Unchanged: 0/0
  3439 ;; Data sizes:     COMRAM   BANK5   BANK6   BANK7   BANK8   BANK9  BANK10  BANK11  BANK12  BANK13  BANK14  BANK15  BANK1
      +6  BANK17  BANK18  BANK19  BANK20  BANK21  BANK22  BANK23  BANK24  BANK25  BANK26  BANK27  BANK28  BANK29  BANK30  BANK3
      +1  BANK32  BANK33  BANK34  BANK35  BANK36
  3440 ;;      Params:         0       0       0       0       0       0       0       0       0       0       0       0       
      +0       0       0       0       0       0       0       0       0       0       0       0       0       0       0       
      +0       0       0       0       0       0
  3441 ;;      Locals:         0       0       0       0       0       0       0       0       0       0       0       0       
      +0       0       0       0       0       0       0       0       0       0       0       0       0       0       0       
      +0       0       0       0       0       0
  3442 ;;      Temps:          0       0       0       0       0       0       0       0       0       0       0       0       
      +0       0       0       0       0       0       0       0       0       0       0       0       0       0       0       
      +0       0       0       0       0       0
  3443 ;;      Totals:         0       0       0       0       0       0       0       0       0       0       0       0       
      +0       0       0       0       0       0       0       0       0       0       0       0       0       0       0       
      +0       0       0       0       0       0
  3444 ;;Total ram usage:        0 bytes
  3445 ;; Hardware stack levels used: 1
  3446 ;; Hardware stack levels required when called: 3
  3447 ;; This function calls:
  3448 ;;		_I2C_ENVIA_LCD_CMD
  3449 ;; This function is called by:
  3450 ;;		_I2C_LCD_INIT
  3451 ;; This function uses a non-reentrant model
  3452 ;;
  3453                           
  3454                           	psect	text8
  3455   003016                     __ptext8:
  3456                           	callstack 0
  3457   003016                     _I2C_CURSOR_HOME:
  3458                           	callstack 121
  3459   003016                     
  3460                           ;I2C_LCD.c: 97:  I2C_ENVIA_LCD_CMD(0x02);
  3461   003016  0E02               	movlw	2
  3462   003018  EC5A  F016         	call	_I2C_ENVIA_LCD_CMD
  3463   00301C  0012               	return		;funcret
  3464   00301E                     __end_of_I2C_CURSOR_HOME:
  3465                           	callstack 0
  3466                           
  3467 ;; *************** function _I2C_BORRAR_LCD *****************
  3468 ;; Defined at:
  3469 ;;		line 155 in file "I2C_LCD.c"
  3470 ;; Parameters:    Size  Location     Type
  3471 ;;		None
  3472 ;; Auto vars:     Size  Location     Type
  3473 ;;		None
  3474 ;; Return value:  Size  Location     Type
  3475 ;;                  1    wreg      void 
  3476 ;; Registers used:
  3477 ;;		wreg, status,2, status,0, cstack
  3478 ;; Tracked objects:
  3479 ;;		On entry : 0/0
  3480 ;;		On exit  : 0/0
  3481 ;;		Unchanged: 0/0
  3482 ;; Data sizes:     COMRAM   BANK5   BANK6   BANK7   BANK8   BANK9  BANK10  BANK11  BANK12  BANK13  BANK14  BANK15  BANK1
      +6  BANK17  BANK18  BANK19  BANK20  BANK21  BANK22  BANK23  BANK24  BANK25  BANK26  BANK27  BANK28  BANK29  BANK30  BANK3
      +1  BANK32  BANK33  BANK34  BANK35  BANK36
  3483 ;;      Params:         0       0       0       0       0       0       0       0       0       0       0       0       
      +0       0       0       0       0       0       0       0       0       0       0       0       0       0       0       
      +0       0       0       0       0       0
  3484 ;;      Locals:         0       0       0       0       0       0       0       0       0       0       0       0       
      +0       0       0       0       0       0       0       0       0       0       0       0       0       0       0       
      +0       0       0       0       0       0
  3485 ;;      Temps:          2       0       0       0       0       0       0       0       0       0       0       0       
      +0       0       0       0       0       0       0       0       0       0       0       0       0       0       0       
      +0       0       0       0       0       0
  3486 ;;      Totals:         2       0       0       0       0       0       0       0       0       0       0       0       
      +0       0       0       0       0       0       0       0       0       0       0       0       0       0       0       
      +0       0       0       0       0       0
  3487 ;;Total ram usage:        2 bytes
  3488 ;; Hardware stack levels used: 1
  3489 ;; Hardware stack levels required when called: 3
  3490 ;; This function calls:
  3491 ;;		_I2C_ENVIA_LCD_CMD
  3492 ;; This function is called by:
  3493 ;;		_I2C_LCD_INIT
  3494 ;;		_pantallazo
  3495 ;; This function uses a non-reentrant model
  3496 ;;
  3497                           
  3498                           	psect	text9
  3499   002FB6                     __ptext9:
  3500                           	callstack 0
  3501   002FB6                     _I2C_BORRAR_LCD:
  3502                           	callstack 122
  3503   002FB6                     
  3504                           ;I2C_LCD.c: 156:  I2C_ENVIA_LCD_CMD(0x01);
  3505   002FB6  0E01               	movlw	1
  3506   002FB8  EC5A  F016         	call	_I2C_ENVIA_LCD_CMD
  3507   002FBC                     
  3508                           ;I2C_LCD.c: 157:     _delay((unsigned long)((50)*(32000000UL/4000.0)));
  3509   002FBC  0E03               	movlw	3
  3510   002FBE  6E08               	movwf	(??_I2C_BORRAR_LCD+1)^(0+1280),c
  3511   002FC0  0E08               	movlw	8
  3512   002FC2  6E07               	movwf	??_I2C_BORRAR_LCD^(0+1280),c
  3513   002FC4  0E77               	movlw	119
  3514   002FC6                     u1207:
  3515   002FC6  2EE8               	decfsz	wreg,f,c
  3516   002FC8  D7FE               	bra	u1207
  3517   002FCA  2E07               	decfsz	??_I2C_BORRAR_LCD^(0+1280),f,c
  3518   002FCC  D7FC               	bra	u1207
  3519   002FCE  2E08               	decfsz	(??_I2C_BORRAR_LCD+1)^(0+1280),f,c
  3520   002FD0  D7FA               	bra	u1207
  3521   002FD2  0000               	nop	
  3522   002FD4  0012               	return		;funcret
  3523   002FD6                     __end_of_I2C_BORRAR_LCD:
  3524                           	callstack 0
  3525                           
  3526 ;; *************** function _I2C_ENVIA_LCD_CMD *****************
  3527 ;; Defined at:
  3528 ;;		line 160 in file "I2C_LCD.c"
  3529 ;; Parameters:    Size  Location     Type
  3530 ;;  command         1    wreg     unsigned char 
  3531 ;; Auto vars:     Size  Location     Type
  3532 ;;  command         1    3[COMRAM] unsigned char 
  3533 ;;  lownibble       1    5[COMRAM] unsigned char 
  3534 ;;  highnibble      1    4[COMRAM] unsigned char 
  3535 ;; Return value:  Size  Location     Type
  3536 ;;                  1    wreg      void 
  3537 ;; Registers used:
  3538 ;;		wreg, status,2, status,0, cstack
  3539 ;; Tracked objects:
  3540 ;;		On entry : 0/0
  3541 ;;		On exit  : 0/0
  3542 ;;		Unchanged: 0/0
  3543 ;; Data sizes:     COMRAM   BANK5   BANK6   BANK7   BANK8   BANK9  BANK10  BANK11  BANK12  BANK13  BANK14  BANK15  BANK1
      +6  BANK17  BANK18  BANK19  BANK20  BANK21  BANK22  BANK23  BANK24  BANK25  BANK26  BANK27  BANK28  BANK29  BANK30  BANK3
      +1  BANK32  BANK33  BANK34  BANK35  BANK36
  3544 ;;      Params:         0       0       0       0       0       0       0       0       0       0       0       0       
      +0       0       0       0       0       0       0       0       0       0       0       0       0       0       0       
      +0       0       0       0       0       0
  3545 ;;      Locals:         3       0       0       0       0       0       0       0       0       0       0       0       
      +0       0       0       0       0       0       0       0       0       0       0       0       0       0       0       
      +0       0       0       0       0       0
  3546 ;;      Temps:          1       0       0       0       0       0       0       0       0       0       0       0       
      +0       0       0       0       0       0       0       0       0       0       0       0       0       0       0       
      +0       0       0       0       0       0
  3547 ;;      Totals:         4       0       0       0       0       0       0       0       0       0       0       0       
      +0       0       0       0       0       0       0       0       0       0       0       0       0       0       0       
      +0       0       0       0       0       0
  3548 ;;Total ram usage:        4 bytes
  3549 ;; Hardware stack levels used: 1
  3550 ;; Hardware stack levels required when called: 2
  3551 ;; This function calls:
  3552 ;;		_I2C1_WRITESINGLEBYTE
  3553 ;; This function is called by:
  3554 ;;		_I2C_POS_CURSOR
  3555 ;;		_I2C_CURSOR_HOME
  3556 ;;		_I2C_CURSOR_ONOFF
  3557 ;;		_I2C_BORRAR_LCD
  3558 ;;		_I2C_BLINK_CURSOR
  3559 ;;		_I2C_DISPLAY_ONOFF
  3560 ;;		_I2C_CURSOR_SHIFTLEFT
  3561 ;;		_I2C_CURSOR_SHIFTRIGHT
  3562 ;;		_I2C_DISPLAY_SHIFTLEFT
  3563 ;;		_I2C_DISPLAY_SHIFTRIGHT
  3564 ;;		_I2C_GENERACARACTER
  3565 ;; This function uses a non-reentrant model
  3566 ;;
  3567                           
  3568                           	psect	text10
  3569   002CB4                     __ptext10:
  3570                           	callstack 0
  3571   002CB4                     _I2C_ENVIA_LCD_CMD:
  3572                           	callstack 122
  3573                           
  3574                           ;incstack = 0
  3575                           ;I2C_ENVIA_LCD_CMD@command stored from wreg
  3576   002CB4  6E04               	movwf	I2C_ENVIA_LCD_CMD@command^(0+1280),c
  3577   002CB6                     
  3578                           ;I2C_LCD.c: 161:     unsigned char highnibble;;I2C_LCD.c: 162:     unsigned char lownibb
      +                          le;;I2C_LCD.c: 164:     highnibble = (command & 0xF0) | 0x08;
  3579   002CB6  5004               	movf	I2C_ENVIA_LCD_CMD@command^(0+1280),w,c
  3580   002CB8  0BF0               	andlw	240
  3581   002CBA  0908               	iorlw	8
  3582   002CBC  6E05               	movwf	I2C_ENVIA_LCD_CMD@highnibble^(0+1280),c
  3583                           
  3584                           ;I2C_LCD.c: 165:     lownibble = (unsigned char)(((command & 0x0F)<<4)| 0x08);
  3585   002CBE  C504  F503         	movff	I2C_ENVIA_LCD_CMD@command,??_I2C_ENVIA_LCD_CMD
  3586   002CC2  0E0F               	movlw	15
  3587   002CC4  1603               	andwf	??_I2C_ENVIA_LCD_CMD^(0+1280),f,c
  3588   002CC6  3803               	swapf	??_I2C_ENVIA_LCD_CMD^(0+1280),w,c
  3589   002CC8  0BF0               	andlw	240
  3590   002CCA  0908               	iorlw	8
  3591   002CCC  6E06               	movwf	I2C_ENVIA_LCD_CMD@lownibble^(0+1280),c
  3592   002CCE                     
  3593                           ;I2C_LCD.c: 167:     I2C1_WRITESINGLEBYTE(I2C_LCD_ADDR,(highnibble | 0x04));
  3594   002CCE  5005               	movf	I2C_ENVIA_LCD_CMD@highnibble^(0+1280),w,c
  3595   002CD0  0904               	iorlw	4
  3596   002CD2  6E01               	movwf	I2C1_WRITESINGLEBYTE@dato^(0+1280),c
  3597   002CD4  5017               	movf	_I2C_LCD_ADDR^(0+1280),w,c
  3598   002CD6  EC4C  F017         	call	_I2C1_WRITESINGLEBYTE
  3599   002CDA                     
  3600                           ;I2C_LCD.c: 168:     _delay((unsigned long)((20)*(32000000UL/4000000.0)));
  3601   002CDA  0E35               	movlw	53
  3602   002CDC                     u1217:
  3603   002CDC  2EE8               	decfsz	wreg,f,c
  3604   002CDE  D7FE               	bra	u1217
  3605   002CE0  0000               	nop	
  3606   002CE2                     
  3607                           ;I2C_LCD.c: 169:     I2C1_WRITESINGLEBYTE(I2C_LCD_ADDR,highnibble);
  3608   002CE2  C505  F501         	movff	I2C_ENVIA_LCD_CMD@highnibble,I2C1_WRITESINGLEBYTE@dato
  3609   002CE6  5017               	movf	_I2C_LCD_ADDR^(0+1280),w,c
  3610   002CE8  EC4C  F017         	call	_I2C1_WRITESINGLEBYTE
  3611   002CEC                     
  3612                           ;I2C_LCD.c: 170:     _delay((unsigned long)((20)*(32000000UL/4000000.0)));
  3613   002CEC  0E35               	movlw	53
  3614   002CEE                     u1227:
  3615   002CEE  2EE8               	decfsz	wreg,f,c
  3616   002CF0  D7FE               	bra	u1227
  3617   002CF2  0000               	nop	
  3618   002CF4                     
  3619                           ;I2C_LCD.c: 172:     I2C1_WRITESINGLEBYTE(I2C_LCD_ADDR,(lownibble | 0x04));
  3620   002CF4  5006               	movf	I2C_ENVIA_LCD_CMD@lownibble^(0+1280),w,c
  3621   002CF6  0904               	iorlw	4
  3622   002CF8  6E01               	movwf	I2C1_WRITESINGLEBYTE@dato^(0+1280),c
  3623   002CFA  5017               	movf	_I2C_LCD_ADDR^(0+1280),w,c
  3624   002CFC  EC4C  F017         	call	_I2C1_WRITESINGLEBYTE
  3625   002D00                     
  3626                           ;I2C_LCD.c: 173:     _delay((unsigned long)((20)*(32000000UL/4000000.0)));
  3627   002D00  0E35               	movlw	53
  3628   002D02                     u1237:
  3629   002D02  2EE8               	decfsz	wreg,f,c
  3630   002D04  D7FE               	bra	u1237
  3631   002D06  0000               	nop	
  3632   002D08                     
  3633                           ;I2C_LCD.c: 174:     I2C1_WRITESINGLEBYTE(I2C_LCD_ADDR,lownibble);
  3634   002D08  C506  F501         	movff	I2C_ENVIA_LCD_CMD@lownibble,I2C1_WRITESINGLEBYTE@dato
  3635   002D0C  5017               	movf	_I2C_LCD_ADDR^(0+1280),w,c
  3636   002D0E  EC4C  F017         	call	_I2C1_WRITESINGLEBYTE
  3637   002D12                     
  3638                           ;I2C_LCD.c: 175:     _delay((unsigned long)((20)*(32000000UL/4000000.0)));
  3639   002D12  0E35               	movlw	53
  3640   002D14                     u1247:
  3641   002D14  2EE8               	decfsz	wreg,f,c
  3642   002D16  D7FE               	bra	u1247
  3643   002D18  0000               	nop	
  3644   002D1A  0012               	return		;funcret
  3645   002D1C                     __end_of_I2C_ENVIA_LCD_CMD:
  3646                           	callstack 0
  3647                           
  3648 ;; *************** function _I2C1_INIT *****************
  3649 ;; Defined at:
  3650 ;;		line 34 in file "I2C_LCD.c"
  3651 ;; Parameters:    Size  Location     Type
  3652 ;;		None
  3653 ;; Auto vars:     Size  Location     Type
  3654 ;;		None
  3655 ;; Return value:  Size  Location     Type
  3656 ;;                  1    wreg      void 
  3657 ;; Registers used:
  3658 ;;		wreg, status,2
  3659 ;; Tracked objects:
  3660 ;;		On entry : 0/0
  3661 ;;		On exit  : 0/0
  3662 ;;		Unchanged: 0/0
  3663 ;; Data sizes:     COMRAM   BANK5   BANK6   BANK7   BANK8   BANK9  BANK10  BANK11  BANK12  BANK13  BANK14  BANK15  BANK1
      +6  BANK17  BANK18  BANK19  BANK20  BANK21  BANK22  BANK23  BANK24  BANK25  BANK26  BANK27  BANK28  BANK29  BANK30  BANK3
      +1  BANK32  BANK33  BANK34  BANK35  BANK36
  3664 ;;      Params:         0       0       0       0       0       0       0       0       0       0       0       0       
      +0       0       0       0       0       0       0       0       0       0       0       0       0       0       0       
      +0       0       0       0       0       0
  3665 ;;      Locals:         0       0       0       0       0       0       0       0       0       0       0       0       
      +0       0       0       0       0       0       0       0       0       0       0       0       0       0       0       
      +0       0       0       0       0       0
  3666 ;;      Temps:          0       0       0       0       0       0       0       0       0       0       0       0       
      +0       0       0       0       0       0       0       0       0       0       0       0       0       0       0       
      +0       0       0       0       0       0
  3667 ;;      Totals:         0       0       0       0       0       0       0       0       0       0       0       0       
      +0       0       0       0       0       0       0       0       0       0       0       0       0       0       0       
      +0       0       0       0       0       0
  3668 ;;Total ram usage:        0 bytes
  3669 ;; Hardware stack levels used: 1
  3670 ;; Hardware stack levels required when called: 1
  3671 ;; This function calls:
  3672 ;;		Nothing
  3673 ;; This function is called by:
  3674 ;;		_I2C_LCD_INIT
  3675 ;; This function uses a non-reentrant model
  3676 ;;
  3677                           
  3678                           	psect	text11
  3679   002DC6                     __ptext11:
  3680                           	callstack 0
  3681   002DC6                     _I2C1_INIT:
  3682                           	callstack 123
  3683   002DC6                     
  3684                           ;I2C_LCD.c: 36:     TRISCbits.TRISC3 = 0;
  3685   002DC6  96C8               	bcf	200,3,c	;volatile
  3686                           
  3687                           ;I2C_LCD.c: 37:     TRISCbits.TRISC4 = 0;
  3688   002DC8  98C8               	bcf	200,4,c	;volatile
  3689                           
  3690                           ;I2C_LCD.c: 38:     ANSELCbits.ANSELC3 = 0;
  3691   002DCA  0104               	movlb	4	; () banked
  3692   002DCC  9710               	bcf	16,3,b	;volatile
  3693                           
  3694                           ;I2C_LCD.c: 39:     ANSELCbits.ANSELC4 = 0;
  3695   002DCE  9910               	bcf	16,4,b	;volatile
  3696                           
  3697                           ;I2C_LCD.c: 40:     ODCONCbits.ODCC3 = 1;
  3698   002DD0  8712               	bsf	18,3,b	;volatile
  3699                           
  3700                           ;I2C_LCD.c: 41:     ODCONCbits.ODCC4 = 1;
  3701   002DD2  8912               	bsf	18,4,b	;volatile
  3702   002DD4                     
  3703                           ; BSR set to: 4
  3704                           ;I2C_LCD.c: 43:     RC3PPS = 0x37;
  3705   002DD4  0E37               	movlw	55
  3706   002DD6  0102               	movlb	2	; () banked
  3707   002DD8  6F14               	movwf	20,b	;volatile
  3708                           
  3709                           ;I2C_LCD.c: 44:     RC4PPS = 0x38;
  3710   002DDA  0E38               	movlw	56
  3711   002DDC  6F15               	movwf	21,b	;volatile
  3712                           
  3713                           ;I2C_LCD.c: 46:     RC3I2Cbits.PU = 2;
  3714   002DDE  5187               	movf	135,w,b	;volatile
  3715   002DE0  0BCF               	andlw	-49
  3716   002DE2  0920               	iorlw	32
  3717   002DE4  6F87               	movwf	135,b	;volatile
  3718                           
  3719                           ;I2C_LCD.c: 47:     RC3I2Cbits.TH = 1;
  3720   002DE6  5187               	movf	135,w,b	;volatile
  3721   002DE8  0BFC               	andlw	-4
  3722   002DEA  0901               	iorlw	1
  3723   002DEC  6F87               	movwf	135,b	;volatile
  3724                           
  3725                           ;I2C_LCD.c: 48:     RC4I2Cbits.PU = 2;
  3726   002DEE  5186               	movf	134,w,b	;volatile
  3727   002DF0  0BCF               	andlw	-49
  3728   002DF2  0920               	iorlw	32
  3729   002DF4  6F86               	movwf	134,b	;volatile
  3730                           
  3731                           ;I2C_LCD.c: 49:     RC4I2Cbits.TH = 1;
  3732   002DF6  5186               	movf	134,w,b	;volatile
  3733   002DF8  0BFC               	andlw	-4
  3734   002DFA  0901               	iorlw	1
  3735   002DFC  6F86               	movwf	134,b	;volatile
  3736   002DFE                     
  3737                           ; BSR set to: 2
  3738                           ;I2C_LCD.c: 50:     I2C1CON0bits.EN = 1;
  3739   002DFE  8F94               	bsf	148,7,b	;volatile
  3740                           
  3741                           ;I2C_LCD.c: 51:     I2C1CLKbits.CLK = 3;
  3742   002E00  0E03               	movlw	3
  3743   002E02  6F9C               	movwf	156,b	;volatile
  3744                           
  3745                           ;I2C_LCD.c: 52:     I2C1CON0bits.MODE = 0x4;
  3746   002E04  5194               	movf	148,w,b	;volatile
  3747   002E06  0BF8               	andlw	-8
  3748   002E08  0904               	iorlw	4
  3749   002E0A  6F94               	movwf	148,b	;volatile
  3750   002E0C                     
  3751                           ; BSR set to: 2
  3752                           ;I2C_LCD.c: 53:     I2C1CON2bits.ABD = 0;
  3753   002E0C  9996               	bcf	150,4,b	;volatile
  3754   002E0E                     
  3755                           ; BSR set to: 2
  3756   002E0E  0012               	return		;funcret
  3757   002E10                     __end_of_I2C1_INIT:
  3758                           	callstack 0
  3759                           
  3760 ;; *************** function _I2C_LCD_ESCRIBE_VAR_CHAR *****************
  3761 ;; Defined at:
  3762 ;;		line 316 in file "I2C_LCD.c"
  3763 ;; Parameters:    Size  Location     Type
  3764 ;;  numero          1    wreg     unsigned char 
  3765 ;;  n_digitos       1   14[COMRAM] unsigned char 
  3766 ;; Auto vars:     Size  Location     Type
  3767 ;;  numero          1   17[COMRAM] unsigned char 
  3768 ;;  unidad          1   18[COMRAM] unsigned char 
  3769 ;;  decena          1   16[COMRAM] unsigned char 
  3770 ;;  centena         1   15[COMRAM] unsigned char 
  3771 ;; Return value:  Size  Location     Type
  3772 ;;                  1    wreg      void 
  3773 ;; Registers used:
  3774 ;;		wreg, status,2, status,0, cstack
  3775 ;; Tracked objects:
  3776 ;;		On entry : 0/0
  3777 ;;		On exit  : 0/0
  3778 ;;		Unchanged: 0/0
  3779 ;; Data sizes:     COMRAM   BANK5   BANK6   BANK7   BANK8   BANK9  BANK10  BANK11  BANK12  BANK13  BANK14  BANK15  BANK1
      +6  BANK17  BANK18  BANK19  BANK20  BANK21  BANK22  BANK23  BANK24  BANK25  BANK26  BANK27  BANK28  BANK29  BANK30  BANK3
      +1  BANK32  BANK33  BANK34  BANK35  BANK36
  3780 ;;      Params:         1       0       0       0       0       0       0       0       0       0       0       0       
      +0       0       0       0       0       0       0       0       0       0       0       0       0       0       0       
      +0       0       0       0       0       0
  3781 ;;      Locals:         4       0       0       0       0       0       0       0       0       0       0       0       
      +0       0       0       0       0       0       0       0       0       0       0       0       0       0       0       
      +0       0       0       0       0       0
  3782 ;;      Temps:          0       0       0       0       0       0       0       0       0       0       0       0       
      +0       0       0       0       0       0       0       0       0       0       0       0       0       0       0       
      +0       0       0       0       0       0
  3783 ;;      Totals:         5       0       0       0       0       0       0       0       0       0       0       0       
      +0       0       0       0       0       0       0       0       0       0       0       0       0       0       0       
      +0       0       0       0       0       0
  3784 ;;Total ram usage:        5 bytes
  3785 ;; Hardware stack levels used: 1
  3786 ;; Hardware stack levels required when called: 3
  3787 ;; This function calls:
  3788 ;;		_I2C_ENVIA_LCD_DATA
  3789 ;;		___awdiv
  3790 ;;		___awmod
  3791 ;; This function is called by:
  3792 ;;		_main
  3793 ;; This function uses a non-reentrant model
  3794 ;;
  3795                           
  3796                           	psect	text12
  3797   002982                     __ptext12:
  3798                           	callstack 0
  3799   002982                     _I2C_LCD_ESCRIBE_VAR_CHAR:
  3800                           	callstack 123
  3801                           
  3802                           ; BSR set to: 2
  3803                           ;incstack = 0
  3804                           ;I2C_LCD_ESCRIBE_VAR_CHAR@numero stored from wreg
  3805   002982  6E12               	movwf	I2C_LCD_ESCRIBE_VAR_CHAR@numero^(0+1280),c
  3806   002984                     
  3807                           ;I2C_LCD.c: 317:     unsigned char centena, decena, unidad;;I2C_LCD.c: 318:     centena 
      +                          = (numero % 1000) / 100;
  3808   002984  0E03               	movlw	3
  3809   002986  6E04               	movwf	(___awmod@divisor+1)^(0+1280),c
  3810   002988  0EE8               	movlw	232
  3811   00298A  6E03               	movwf	___awmod@divisor^(0+1280),c
  3812   00298C  C512  F501         	movff	I2C_LCD_ESCRIBE_VAR_CHAR@numero,___awmod@dividend
  3813   002990  6A02               	clrf	(___awmod@dividend+1)^(0+1280),c
  3814   002992  EC88  F015         	call	___awmod	;wreg free
  3815   002996  C501  F507         	movff	?___awmod,___awdiv@dividend
  3816   00299A  C502  F508         	movff	?___awmod+1,___awdiv@dividend+1
  3817   00299E  0E00               	movlw	0
  3818   0029A0  6E0A               	movwf	(___awdiv@divisor+1)^(0+1280),c
  3819   0029A2  0E64               	movlw	100
  3820   0029A4  6E09               	movwf	___awdiv@divisor^(0+1280),c
  3821   0029A6  EC27  F015         	call	___awdiv	;wreg free
  3822   0029AA  5007               	movf	?___awdiv^(0+1280),w,c
  3823   0029AC  6E10               	movwf	I2C_LCD_ESCRIBE_VAR_CHAR@centena^(0+1280),c
  3824                           
  3825                           ;I2C_LCD.c: 319:     decena = (numero % 100) / 10;
  3826   0029AE  0E00               	movlw	0
  3827   0029B0  6E04               	movwf	(___awmod@divisor+1)^(0+1280),c
  3828   0029B2  0E64               	movlw	100
  3829   0029B4  6E03               	movwf	___awmod@divisor^(0+1280),c
  3830   0029B6  C512  F501         	movff	I2C_LCD_ESCRIBE_VAR_CHAR@numero,___awmod@dividend
  3831   0029BA  6A02               	clrf	(___awmod@dividend+1)^(0+1280),c
  3832   0029BC  EC88  F015         	call	___awmod	;wreg free
  3833   0029C0  C501  F507         	movff	?___awmod,___awdiv@dividend
  3834   0029C4  C502  F508         	movff	?___awmod+1,___awdiv@dividend+1
  3835   0029C8  0E00               	movlw	0
  3836   0029CA  6E0A               	movwf	(___awdiv@divisor+1)^(0+1280),c
  3837   0029CC  0E0A               	movlw	10
  3838   0029CE  6E09               	movwf	___awdiv@divisor^(0+1280),c
  3839   0029D0  EC27  F015         	call	___awdiv	;wreg free
  3840   0029D4  5007               	movf	?___awdiv^(0+1280),w,c
  3841   0029D6  6E11               	movwf	I2C_LCD_ESCRIBE_VAR_CHAR@decena^(0+1280),c
  3842                           
  3843                           ;I2C_LCD.c: 320:     unidad = numero % 10;
  3844   0029D8  C512  F501         	movff	I2C_LCD_ESCRIBE_VAR_CHAR@numero,___awmod@dividend
  3845   0029DC  6A02               	clrf	(___awmod@dividend+1)^(0+1280),c
  3846   0029DE  0E00               	movlw	0
  3847   0029E0  6E04               	movwf	(___awmod@divisor+1)^(0+1280),c
  3848   0029E2  0E0A               	movlw	10
  3849   0029E4  6E03               	movwf	___awmod@divisor^(0+1280),c
  3850   0029E6  EC88  F015         	call	___awmod	;wreg free
  3851   0029EA  5001               	movf	?___awmod^(0+1280),w,c
  3852   0029EC  6E13               	movwf	I2C_LCD_ESCRIBE_VAR_CHAR@unidad^(0+1280),c
  3853                           
  3854                           ;I2C_LCD.c: 321:     switch(n_digitos){
  3855   0029EE  EF17  F015         	goto	l1965
  3856   0029F2                     l1957:
  3857                           
  3858                           ;I2C_LCD.c: 323:             I2C_ENVIA_LCD_DATA(unidad+0x30);
  3859   0029F2  5013               	movf	I2C_LCD_ESCRIBE_VAR_CHAR@unidad^(0+1280),w,c
  3860   0029F4  0F30               	addlw	48
  3861   0029F6  EC24  F016         	call	_I2C_ENVIA_LCD_DATA
  3862                           
  3863                           ;I2C_LCD.c: 324:             break;
  3864   0029FA  EF26  F015         	goto	l137
  3865   0029FE                     l1959:
  3866                           
  3867                           ;I2C_LCD.c: 326:             I2C_ENVIA_LCD_DATA(decena+0x30);
  3868   0029FE  5011               	movf	I2C_LCD_ESCRIBE_VAR_CHAR@decena^(0+1280),w,c
  3869   002A00  0F30               	addlw	48
  3870   002A02  EC24  F016         	call	_I2C_ENVIA_LCD_DATA
  3871                           
  3872                           ;I2C_LCD.c: 327:             I2C_ENVIA_LCD_DATA(unidad+0x30);
  3873   002A06  5013               	movf	I2C_LCD_ESCRIBE_VAR_CHAR@unidad^(0+1280),w,c
  3874   002A08  0F30               	addlw	48
  3875   002A0A  EC24  F016         	call	_I2C_ENVIA_LCD_DATA
  3876                           
  3877                           ;I2C_LCD.c: 328:             break;
  3878   002A0E  EF26  F015         	goto	l137
  3879   002A12                     l1961:
  3880                           
  3881                           ;I2C_LCD.c: 330:             I2C_ENVIA_LCD_DATA(centena+0x30);
  3882   002A12  5010               	movf	I2C_LCD_ESCRIBE_VAR_CHAR@centena^(0+1280),w,c
  3883   002A14  0F30               	addlw	48
  3884   002A16  EC24  F016         	call	_I2C_ENVIA_LCD_DATA
  3885                           
  3886                           ;I2C_LCD.c: 331:             I2C_ENVIA_LCD_DATA(decena+0x30);
  3887   002A1A  5011               	movf	I2C_LCD_ESCRIBE_VAR_CHAR@decena^(0+1280),w,c
  3888   002A1C  0F30               	addlw	48
  3889   002A1E  EC24  F016         	call	_I2C_ENVIA_LCD_DATA
  3890                           
  3891                           ;I2C_LCD.c: 332:             I2C_ENVIA_LCD_DATA(unidad+0x30);
  3892   002A22  5013               	movf	I2C_LCD_ESCRIBE_VAR_CHAR@unidad^(0+1280),w,c
  3893   002A24  0F30               	addlw	48
  3894   002A26  EC24  F016         	call	_I2C_ENVIA_LCD_DATA
  3895                           
  3896                           ;I2C_LCD.c: 333:             break;
  3897   002A2A  EF26  F015         	goto	l137
  3898   002A2E                     l1965:
  3899   002A2E  500F               	movf	I2C_LCD_ESCRIBE_VAR_CHAR@n_digitos^(0+1280),w,c
  3900                           
  3901                           ; Switch size 1, requested type "simple"
  3902                           ; Number of cases is 3, Range of values is 1 to 3
  3903                           ; switch strategies available:
  3904                           ; Name         Instructions Cycles
  3905                           ; simple_byte           10     6 (average)
  3906                           ;	Chosen strategy is simple_byte
  3907   002A30  0A01               	xorlw	1	; case 1
  3908   002A32  B4D8               	btfsc	status,2,c
  3909   002A34  EFF9  F014         	goto	l1957
  3910   002A38  0A03               	xorlw	3	; case 2
  3911   002A3A  B4D8               	btfsc	status,2,c
  3912   002A3C  EFFF  F014         	goto	l1959
  3913   002A40  0A01               	xorlw	1	; case 3
  3914   002A42  B4D8               	btfsc	status,2,c
  3915   002A44  EF09  F015         	goto	l1961
  3916   002A48  EF26  F015         	goto	l137
  3917   002A4C                     l137:
  3918   002A4C  0012               	return		;funcret
  3919   002A4E                     __end_of_I2C_LCD_ESCRIBE_VAR_CHAR:
  3920                           	callstack 0
  3921                           
  3922 ;; *************** function ___awmod *****************
  3923 ;; Defined at:
  3924 ;;		line 7 in file "C:\Program Files\Microchip\xc8\v2.50\pic\sources\c99\common\awmod.c"
  3925 ;; Parameters:    Size  Location     Type
  3926 ;;  dividend        2    0[COMRAM] int 
  3927 ;;  divisor         2    2[COMRAM] int 
  3928 ;; Auto vars:     Size  Location     Type
  3929 ;;  sign            1    5[COMRAM] unsigned char 
  3930 ;;  counter         1    4[COMRAM] unsigned char 
  3931 ;; Return value:  Size  Location     Type
  3932 ;;                  2    0[COMRAM] int 
  3933 ;; Registers used:
  3934 ;;		wreg, status,2, status,0
  3935 ;; Tracked objects:
  3936 ;;		On entry : 0/0
  3937 ;;		On exit  : 0/0
  3938 ;;		Unchanged: 0/0
  3939 ;; Data sizes:     COMRAM   BANK5   BANK6   BANK7   BANK8   BANK9  BANK10  BANK11  BANK12  BANK13  BANK14  BANK15  BANK1
      +6  BANK17  BANK18  BANK19  BANK20  BANK21  BANK22  BANK23  BANK24  BANK25  BANK26  BANK27  BANK28  BANK29  BANK30  BANK3
      +1  BANK32  BANK33  BANK34  BANK35  BANK36
  3940 ;;      Params:         4       0       0       0       0       0       0       0       0       0       0       0       
      +0       0       0       0       0       0       0       0       0       0       0       0       0       0       0       
      +0       0       0       0       0       0
  3941 ;;      Locals:         2       0       0       0       0       0       0       0       0       0       0       0       
      +0       0       0       0       0       0       0       0       0       0       0       0       0       0       0       
      +0       0       0       0       0       0
  3942 ;;      Temps:          0       0       0       0       0       0       0       0       0       0       0       0       
      +0       0       0       0       0       0       0       0       0       0       0       0       0       0       0       
      +0       0       0       0       0       0
  3943 ;;      Totals:         6       0       0       0       0       0       0       0       0       0       0       0       
      +0       0       0       0       0       0       0       0       0       0       0       0       0       0       0       
      +0       0       0       0       0       0
  3944 ;;Total ram usage:        6 bytes
  3945 ;; Hardware stack levels used: 1
  3946 ;; Hardware stack levels required when called: 1
  3947 ;; This function calls:
  3948 ;;		Nothing
  3949 ;; This function is called by:
  3950 ;;		_I2C_LCD_ESCRIBE_VAR_CHAR
  3951 ;; This function uses a non-reentrant model
  3952 ;;
  3953                           
  3954                           	psect	text13
  3955   002B10                     __ptext13:
  3956                           	callstack 0
  3957   002B10                     ___awmod:
  3958                           	callstack 124
  3959   002B10  6A06               	clrf	___awmod@sign^(0+1280),c
  3960   002B12  BE02               	btfsc	(___awmod@dividend+1)^(0+1280),7,c
  3961   002B14  EF90  F015         	goto	u570
  3962   002B18  EF8E  F015         	goto	u571
  3963   002B1C                     u571:
  3964   002B1C  EF96  F015         	goto	l1927
  3965   002B20                     u570:
  3966   002B20  6C01               	negf	___awmod@dividend^(0+1280),c
  3967   002B22  1E02               	comf	(___awmod@dividend+1)^(0+1280),f,c
  3968   002B24  B0D8               	btfsc	status,0,c
  3969   002B26  2A02               	incf	(___awmod@dividend+1)^(0+1280),f,c
  3970   002B28  0E01               	movlw	1
  3971   002B2A  6E06               	movwf	___awmod@sign^(0+1280),c
  3972   002B2C                     l1927:
  3973   002B2C  BE04               	btfsc	(___awmod@divisor+1)^(0+1280),7,c
  3974   002B2E  EF9D  F015         	goto	u580
  3975   002B32  EF9B  F015         	goto	u581
  3976   002B36                     u581:
  3977   002B36  EFA1  F015         	goto	l1931
  3978   002B3A                     u580:
  3979   002B3A  6C03               	negf	___awmod@divisor^(0+1280),c
  3980   002B3C  1E04               	comf	(___awmod@divisor+1)^(0+1280),f,c
  3981   002B3E  B0D8               	btfsc	status,0,c
  3982   002B40  2A04               	incf	(___awmod@divisor+1)^(0+1280),f,c
  3983   002B42                     l1931:
  3984   002B42  5003               	movf	___awmod@divisor^(0+1280),w,c
  3985   002B44  1004               	iorwf	(___awmod@divisor+1)^(0+1280),w,c
  3986   002B46  B4D8               	btfsc	status,2,c
  3987   002B48  EFA8  F015         	goto	u591
  3988   002B4C  EFAA  F015         	goto	u590
  3989   002B50                     u591:
  3990   002B50  EFCE  F015         	goto	l1947
  3991   002B54                     u590:
  3992   002B54  0E01               	movlw	1
  3993   002B56  6E05               	movwf	___awmod@counter^(0+1280),c
  3994   002B58  EFB2  F015         	goto	l1937
  3995   002B5C                     l1935:
  3996   002B5C  90D8               	bcf	status,0,c
  3997   002B5E  3603               	rlcf	___awmod@divisor^(0+1280),f,c
  3998   002B60  3604               	rlcf	(___awmod@divisor+1)^(0+1280),f,c
  3999   002B62  2A05               	incf	___awmod@counter^(0+1280),f,c
  4000   002B64                     l1937:
  4001   002B64  AE04               	btfss	(___awmod@divisor+1)^(0+1280),7,c
  4002   002B66  EFB7  F015         	goto	u601
  4003   002B6A  EFB9  F015         	goto	u600
  4004   002B6E                     u601:
  4005   002B6E  EFAE  F015         	goto	l1935
  4006   002B72                     u600:
  4007   002B72                     l1939:
  4008   002B72  5003               	movf	___awmod@divisor^(0+1280),w,c
  4009   002B74  5C01               	subwf	___awmod@dividend^(0+1280),w,c
  4010   002B76  5004               	movf	(___awmod@divisor+1)^(0+1280),w,c
  4011   002B78  5802               	subwfb	(___awmod@dividend+1)^(0+1280),w,c
  4012   002B7A  A0D8               	btfss	status,0,c
  4013   002B7C  EFC2  F015         	goto	u611
  4014   002B80  EFC4  F015         	goto	u610
  4015   002B84                     u611:
  4016   002B84  EFC8  F015         	goto	l1943
  4017   002B88                     u610:
  4018   002B88  5003               	movf	___awmod@divisor^(0+1280),w,c
  4019   002B8A  5E01               	subwf	___awmod@dividend^(0+1280),f,c
  4020   002B8C  5004               	movf	(___awmod@divisor+1)^(0+1280),w,c
  4021   002B8E  5A02               	subwfb	(___awmod@dividend+1)^(0+1280),f,c
  4022   002B90                     l1943:
  4023   002B90  90D8               	bcf	status,0,c
  4024   002B92  3204               	rrcf	(___awmod@divisor+1)^(0+1280),f,c
  4025   002B94  3203               	rrcf	___awmod@divisor^(0+1280),f,c
  4026   002B96  2E05               	decfsz	___awmod@counter^(0+1280),f,c
  4027   002B98  EFB9  F015         	goto	l1939
  4028   002B9C                     l1947:
  4029   002B9C  5006               	movf	___awmod@sign^(0+1280),w,c
  4030   002B9E  B4D8               	btfsc	status,2,c
  4031   002BA0  EFD4  F015         	goto	u621
  4032   002BA4  EFD6  F015         	goto	u620
  4033   002BA8                     u621:
  4034   002BA8  EFDA  F015         	goto	l1951
  4035   002BAC                     u620:
  4036   002BAC  6C01               	negf	___awmod@dividend^(0+1280),c
  4037   002BAE  1E02               	comf	(___awmod@dividend+1)^(0+1280),f,c
  4038   002BB0  B0D8               	btfsc	status,0,c
  4039   002BB2  2A02               	incf	(___awmod@dividend+1)^(0+1280),f,c
  4040   002BB4                     l1951:
  4041   002BB4  C501  F501         	movff	___awmod@dividend,?___awmod
  4042   002BB8  C502  F502         	movff	___awmod@dividend+1,?___awmod+1
  4043   002BBC  0012               	return		;funcret
  4044   002BBE                     __end_of___awmod:
  4045                           	callstack 0
  4046                           
  4047 ;; *************** function ___awdiv *****************
  4048 ;; Defined at:
  4049 ;;		line 7 in file "C:\Program Files\Microchip\xc8\v2.50\pic\sources\c99\common\awdiv.c"
  4050 ;; Parameters:    Size  Location     Type
  4051 ;;  dividend        2    6[COMRAM] int 
  4052 ;;  divisor         2    8[COMRAM] int 
  4053 ;; Auto vars:     Size  Location     Type
  4054 ;;  quotient        2   12[COMRAM] int 
  4055 ;;  sign            1   11[COMRAM] unsigned char 
  4056 ;;  counter         1   10[COMRAM] unsigned char 
  4057 ;; Return value:  Size  Location     Type
  4058 ;;                  2    6[COMRAM] int 
  4059 ;; Registers used:
  4060 ;;		wreg, status,2, status,0
  4061 ;; Tracked objects:
  4062 ;;		On entry : 0/0
  4063 ;;		On exit  : 0/0
  4064 ;;		Unchanged: 0/0
  4065 ;; Data sizes:     COMRAM   BANK5   BANK6   BANK7   BANK8   BANK9  BANK10  BANK11  BANK12  BANK13  BANK14  BANK15  BANK1
      +6  BANK17  BANK18  BANK19  BANK20  BANK21  BANK22  BANK23  BANK24  BANK25  BANK26  BANK27  BANK28  BANK29  BANK30  BANK3
      +1  BANK32  BANK33  BANK34  BANK35  BANK36
  4066 ;;      Params:         4       0       0       0       0       0       0       0       0       0       0       0       
      +0       0       0       0       0       0       0       0       0       0       0       0       0       0       0       
      +0       0       0       0       0       0
  4067 ;;      Locals:         4       0       0       0       0       0       0       0       0       0       0       0       
      +0       0       0       0       0       0       0       0       0       0       0       0       0       0       0       
      +0       0       0       0       0       0
  4068 ;;      Temps:          0       0       0       0       0       0       0       0       0       0       0       0       
      +0       0       0       0       0       0       0       0       0       0       0       0       0       0       0       
      +0       0       0       0       0       0
  4069 ;;      Totals:         8       0       0       0       0       0       0       0       0       0       0       0       
      +0       0       0       0       0       0       0       0       0       0       0       0       0       0       0       
      +0       0       0       0       0       0
  4070 ;;Total ram usage:        8 bytes
  4071 ;; Hardware stack levels used: 1
  4072 ;; Hardware stack levels required when called: 1
  4073 ;; This function calls:
  4074 ;;		Nothing
  4075 ;; This function is called by:
  4076 ;;		_I2C_LCD_ESCRIBE_VAR_CHAR
  4077 ;; This function uses a non-reentrant model
  4078 ;;
  4079                           
  4080                           	psect	text14
  4081   002A4E                     __ptext14:
  4082                           	callstack 0
  4083   002A4E                     ___awdiv:
  4084                           	callstack 124
  4085   002A4E  6A0C               	clrf	___awdiv@sign^(0+1280),c
  4086   002A50  BE0A               	btfsc	(___awdiv@divisor+1)^(0+1280),7,c
  4087   002A52  EF2F  F015         	goto	u510
  4088   002A56  EF2D  F015         	goto	u511
  4089   002A5A                     u511:
  4090   002A5A  EF35  F015         	goto	l1883
  4091   002A5E                     u510:
  4092   002A5E  6C09               	negf	___awdiv@divisor^(0+1280),c
  4093   002A60  1E0A               	comf	(___awdiv@divisor+1)^(0+1280),f,c
  4094   002A62  B0D8               	btfsc	status,0,c
  4095   002A64  2A0A               	incf	(___awdiv@divisor+1)^(0+1280),f,c
  4096   002A66  0E01               	movlw	1
  4097   002A68  6E0C               	movwf	___awdiv@sign^(0+1280),c
  4098   002A6A                     l1883:
  4099   002A6A  BE08               	btfsc	(___awdiv@dividend+1)^(0+1280),7,c
  4100   002A6C  EF3C  F015         	goto	u520
  4101   002A70  EF3A  F015         	goto	u521
  4102   002A74                     u521:
  4103   002A74  EF42  F015         	goto	l1889
  4104   002A78                     u520:
  4105   002A78  6C07               	negf	___awdiv@dividend^(0+1280),c
  4106   002A7A  1E08               	comf	(___awdiv@dividend+1)^(0+1280),f,c
  4107   002A7C  B0D8               	btfsc	status,0,c
  4108   002A7E  2A08               	incf	(___awdiv@dividend+1)^(0+1280),f,c
  4109   002A80  0E01               	movlw	1
  4110   002A82  1A0C               	xorwf	___awdiv@sign^(0+1280),f,c
  4111   002A84                     l1889:
  4112   002A84  0E00               	movlw	0
  4113   002A86  6E0E               	movwf	(___awdiv@quotient+1)^(0+1280),c
  4114   002A88  0E00               	movlw	0
  4115   002A8A  6E0D               	movwf	___awdiv@quotient^(0+1280),c
  4116   002A8C  5009               	movf	___awdiv@divisor^(0+1280),w,c
  4117   002A8E  100A               	iorwf	(___awdiv@divisor+1)^(0+1280),w,c
  4118   002A90  B4D8               	btfsc	status,2,c
  4119   002A92  EF4D  F015         	goto	u531
  4120   002A96  EF4F  F015         	goto	u530
  4121   002A9A                     u531:
  4122   002A9A  EF77  F015         	goto	l1911
  4123   002A9E                     u530:
  4124   002A9E  0E01               	movlw	1
  4125   002AA0  6E0B               	movwf	___awdiv@counter^(0+1280),c
  4126   002AA2  EF57  F015         	goto	l1897
  4127   002AA6                     l1895:
  4128   002AA6  90D8               	bcf	status,0,c
  4129   002AA8  3609               	rlcf	___awdiv@divisor^(0+1280),f,c
  4130   002AAA  360A               	rlcf	(___awdiv@divisor+1)^(0+1280),f,c
  4131   002AAC  2A0B               	incf	___awdiv@counter^(0+1280),f,c
  4132   002AAE                     l1897:
  4133   002AAE  AE0A               	btfss	(___awdiv@divisor+1)^(0+1280),7,c
  4134   002AB0  EF5C  F015         	goto	u541
  4135   002AB4  EF5E  F015         	goto	u540
  4136   002AB8                     u541:
  4137   002AB8  EF53  F015         	goto	l1895
  4138   002ABC                     u540:
  4139   002ABC                     l1899:
  4140   002ABC  90D8               	bcf	status,0,c
  4141   002ABE  360D               	rlcf	___awdiv@quotient^(0+1280),f,c
  4142   002AC0  360E               	rlcf	(___awdiv@quotient+1)^(0+1280),f,c
  4143   002AC2  5009               	movf	___awdiv@divisor^(0+1280),w,c
  4144   002AC4  5C07               	subwf	___awdiv@dividend^(0+1280),w,c
  4145   002AC6  500A               	movf	(___awdiv@divisor+1)^(0+1280),w,c
  4146   002AC8  5808               	subwfb	(___awdiv@dividend+1)^(0+1280),w,c
  4147   002ACA  A0D8               	btfss	status,0,c
  4148   002ACC  EF6A  F015         	goto	u551
  4149   002AD0  EF6C  F015         	goto	u550
  4150   002AD4                     u551:
  4151   002AD4  EF71  F015         	goto	l1907
  4152   002AD8                     u550:
  4153   002AD8  5009               	movf	___awdiv@divisor^(0+1280),w,c
  4154   002ADA  5E07               	subwf	___awdiv@dividend^(0+1280),f,c
  4155   002ADC  500A               	movf	(___awdiv@divisor+1)^(0+1280),w,c
  4156   002ADE  5A08               	subwfb	(___awdiv@dividend+1)^(0+1280),f,c
  4157   002AE0  800D               	bsf	___awdiv@quotient^(0+1280),0,c
  4158   002AE2                     l1907:
  4159   002AE2  90D8               	bcf	status,0,c
  4160   002AE4  320A               	rrcf	(___awdiv@divisor+1)^(0+1280),f,c
  4161   002AE6  3209               	rrcf	___awdiv@divisor^(0+1280),f,c
  4162   002AE8  2E0B               	decfsz	___awdiv@counter^(0+1280),f,c
  4163   002AEA  EF5E  F015         	goto	l1899
  4164   002AEE                     l1911:
  4165   002AEE  500C               	movf	___awdiv@sign^(0+1280),w,c
  4166   002AF0  B4D8               	btfsc	status,2,c
  4167   002AF2  EF7D  F015         	goto	u561
  4168   002AF6  EF7F  F015         	goto	u560
  4169   002AFA                     u561:
  4170   002AFA  EF83  F015         	goto	l1915
  4171   002AFE                     u560:
  4172   002AFE  6C0D               	negf	___awdiv@quotient^(0+1280),c
  4173   002B00  1E0E               	comf	(___awdiv@quotient+1)^(0+1280),f,c
  4174   002B02  B0D8               	btfsc	status,0,c
  4175   002B04  2A0E               	incf	(___awdiv@quotient+1)^(0+1280),f,c
  4176   002B06                     l1915:
  4177   002B06  C50D  F507         	movff	___awdiv@quotient,?___awdiv
  4178   002B0A  C50E  F508         	movff	___awdiv@quotient+1,?___awdiv+1
  4179   002B0E  0012               	return		;funcret
  4180   002B10                     __end_of___awdiv:
  4181                           	callstack 0
  4182                           
  4183 ;; *************** function _I2C_ENVIA_LCD_DATA *****************
  4184 ;; Defined at:
  4185 ;;		line 137 in file "I2C_LCD.c"
  4186 ;; Parameters:    Size  Location     Type
  4187 ;;  data            1    wreg     unsigned char 
  4188 ;; Auto vars:     Size  Location     Type
  4189 ;;  data            1    3[COMRAM] unsigned char 
  4190 ;;  lownibble       1    5[COMRAM] unsigned char 
  4191 ;;  highnibble      1    4[COMRAM] unsigned char 
  4192 ;; Return value:  Size  Location     Type
  4193 ;;                  1    wreg      void 
  4194 ;; Registers used:
  4195 ;;		wreg, status,2, status,0, cstack
  4196 ;; Tracked objects:
  4197 ;;		On entry : 0/0
  4198 ;;		On exit  : 0/0
  4199 ;;		Unchanged: 0/0
  4200 ;; Data sizes:     COMRAM   BANK5   BANK6   BANK7   BANK8   BANK9  BANK10  BANK11  BANK12  BANK13  BANK14  BANK15  BANK1
      +6  BANK17  BANK18  BANK19  BANK20  BANK21  BANK22  BANK23  BANK24  BANK25  BANK26  BANK27  BANK28  BANK29  BANK30  BANK3
      +1  BANK32  BANK33  BANK34  BANK35  BANK36
  4201 ;;      Params:         0       0       0       0       0       0       0       0       0       0       0       0       
      +0       0       0       0       0       0       0       0       0       0       0       0       0       0       0       
      +0       0       0       0       0       0
  4202 ;;      Locals:         3       0       0       0       0       0       0       0       0       0       0       0       
      +0       0       0       0       0       0       0       0       0       0       0       0       0       0       0       
      +0       0       0       0       0       0
  4203 ;;      Temps:          1       0       0       0       0       0       0       0       0       0       0       0       
      +0       0       0       0       0       0       0       0       0       0       0       0       0       0       0       
      +0       0       0       0       0       0
  4204 ;;      Totals:         4       0       0       0       0       0       0       0       0       0       0       0       
      +0       0       0       0       0       0       0       0       0       0       0       0       0       0       0       
      +0       0       0       0       0       0
  4205 ;;Total ram usage:        4 bytes
  4206 ;; Hardware stack levels used: 1
  4207 ;; Hardware stack levels required when called: 2
  4208 ;; This function calls:
  4209 ;;		_I2C1_WRITESINGLEBYTE
  4210 ;; This function is called by:
  4211 ;;		_I2C_ESCRIBE_MENSAJE2
  4212 ;;		_I2C_LCD_ESCRIBE_VAR_CHAR
  4213 ;;		_main
  4214 ;;		_I2C_ESCRIBE_MENSAJE
  4215 ;;		_I2C_GENERACARACTER
  4216 ;;		_I2C_LCD_ESCRIBE_VAR_INT
  4217 ;;		_I2C_LCD_CHAR_GRADO
  4218 ;;		_I2C_LCD_VARCHAR_BITS
  4219 ;;		_I2C_LCD_VARCHAR_HEX
  4220 ;; This function uses a non-reentrant model
  4221 ;;
  4222                           
  4223                           	psect	text15
  4224   002C48                     __ptext15:
  4225                           	callstack 0
  4226   002C48                     _I2C_ENVIA_LCD_DATA:
  4227                           	callstack 122
  4228                           
  4229                           ;incstack = 0
  4230                           ;I2C_ENVIA_LCD_DATA@data stored from wreg
  4231   002C48  6E04               	movwf	I2C_ENVIA_LCD_DATA@data^(0+1280),c
  4232   002C4A                     
  4233                           ;I2C_LCD.c: 138:     unsigned char highnibble;;I2C_LCD.c: 139:     unsigned char lownibb
      +                          le;;I2C_LCD.c: 141:     highnibble = (data & 0xF0) | 0x08;
  4234   002C4A  5004               	movf	I2C_ENVIA_LCD_DATA@data^(0+1280),w,c
  4235   002C4C  0BF0               	andlw	240
  4236   002C4E  0908               	iorlw	8
  4237   002C50  6E05               	movwf	I2C_ENVIA_LCD_DATA@highnibble^(0+1280),c
  4238                           
  4239                           ;I2C_LCD.c: 142:     lownibble = (unsigned char)(((data & 0x0F)<<4)| 0x08);
  4240   002C52  C504  F503         	movff	I2C_ENVIA_LCD_DATA@data,??_I2C_ENVIA_LCD_DATA
  4241   002C56  0E0F               	movlw	15
  4242   002C58  1603               	andwf	??_I2C_ENVIA_LCD_DATA^(0+1280),f,c
  4243   002C5A  3803               	swapf	??_I2C_ENVIA_LCD_DATA^(0+1280),w,c
  4244   002C5C  0BF0               	andlw	240
  4245   002C5E  0908               	iorlw	8
  4246   002C60  6E06               	movwf	I2C_ENVIA_LCD_DATA@lownibble^(0+1280),c
  4247   002C62                     
  4248                           ;I2C_LCD.c: 144:     I2C1_WRITESINGLEBYTE(I2C_LCD_ADDR,(highnibble | 0x04 | 0x01));
  4249   002C62  5005               	movf	I2C_ENVIA_LCD_DATA@highnibble^(0+1280),w,c
  4250   002C64  0905               	iorlw	5
  4251   002C66  6E01               	movwf	I2C1_WRITESINGLEBYTE@dato^(0+1280),c
  4252   002C68  5017               	movf	_I2C_LCD_ADDR^(0+1280),w,c
  4253   002C6A  EC4C  F017         	call	_I2C1_WRITESINGLEBYTE
  4254   002C6E                     
  4255                           ;I2C_LCD.c: 145:     _delay((unsigned long)((20)*(32000000UL/4000000.0)));
  4256   002C6E  0E35               	movlw	53
  4257   002C70                     u1257:
  4258   002C70  2EE8               	decfsz	wreg,f,c
  4259   002C72  D7FE               	bra	u1257
  4260   002C74  0000               	nop	
  4261   002C76                     
  4262                           ;I2C_LCD.c: 146:     I2C1_WRITESINGLEBYTE(I2C_LCD_ADDR,(highnibble | 0x01));
  4263   002C76  5005               	movf	I2C_ENVIA_LCD_DATA@highnibble^(0+1280),w,c
  4264   002C78  0901               	iorlw	1
  4265   002C7A  6E01               	movwf	I2C1_WRITESINGLEBYTE@dato^(0+1280),c
  4266   002C7C  5017               	movf	_I2C_LCD_ADDR^(0+1280),w,c
  4267   002C7E  EC4C  F017         	call	_I2C1_WRITESINGLEBYTE
  4268   002C82                     
  4269                           ;I2C_LCD.c: 147:     _delay((unsigned long)((20)*(32000000UL/4000000.0)));
  4270   002C82  0E35               	movlw	53
  4271   002C84                     u1267:
  4272   002C84  2EE8               	decfsz	wreg,f,c
  4273   002C86  D7FE               	bra	u1267
  4274   002C88  0000               	nop	
  4275   002C8A                     
  4276                           ;I2C_LCD.c: 149:     I2C1_WRITESINGLEBYTE(I2C_LCD_ADDR,(lownibble | 0x04 | 0x01));
  4277   002C8A  5006               	movf	I2C_ENVIA_LCD_DATA@lownibble^(0+1280),w,c
  4278   002C8C  0905               	iorlw	5
  4279   002C8E  6E01               	movwf	I2C1_WRITESINGLEBYTE@dato^(0+1280),c
  4280   002C90  5017               	movf	_I2C_LCD_ADDR^(0+1280),w,c
  4281   002C92  EC4C  F017         	call	_I2C1_WRITESINGLEBYTE
  4282   002C96                     
  4283                           ;I2C_LCD.c: 150:     _delay((unsigned long)((20)*(32000000UL/4000000.0)));
  4284   002C96  0E35               	movlw	53
  4285   002C98                     u1277:
  4286   002C98  2EE8               	decfsz	wreg,f,c
  4287   002C9A  D7FE               	bra	u1277
  4288   002C9C  0000               	nop	
  4289   002C9E                     
  4290                           ;I2C_LCD.c: 151:     I2C1_WRITESINGLEBYTE(I2C_LCD_ADDR,(lownibble | 0x01));
  4291   002C9E  5006               	movf	I2C_ENVIA_LCD_DATA@lownibble^(0+1280),w,c
  4292   002CA0  0901               	iorlw	1
  4293   002CA2  6E01               	movwf	I2C1_WRITESINGLEBYTE@dato^(0+1280),c
  4294   002CA4  5017               	movf	_I2C_LCD_ADDR^(0+1280),w,c
  4295   002CA6  EC4C  F017         	call	_I2C1_WRITESINGLEBYTE
  4296   002CAA                     
  4297                           ;I2C_LCD.c: 152:     _delay((unsigned long)((20)*(32000000UL/4000000.0)));
  4298   002CAA  0E35               	movlw	53
  4299   002CAC                     u1287:
  4300   002CAC  2EE8               	decfsz	wreg,f,c
  4301   002CAE  D7FE               	bra	u1287
  4302   002CB0  0000               	nop	
  4303   002CB2  0012               	return		;funcret
  4304   002CB4                     __end_of_I2C_ENVIA_LCD_DATA:
  4305                           	callstack 0
  4306                           
  4307 ;; *************** function _I2C1_WRITESINGLEBYTE *****************
  4308 ;; Defined at:
  4309 ;;		line 60 in file "I2C_LCD.c"
  4310 ;; Parameters:    Size  Location     Type
  4311 ;;  direccion       1    wreg     unsigned char 
  4312 ;;  dato            1    0[COMRAM] unsigned char 
  4313 ;; Auto vars:     Size  Location     Type
  4314 ;;  direccion       1    1[COMRAM] unsigned char 
  4315 ;; Return value:  Size  Location     Type
  4316 ;;                  1    wreg      void 
  4317 ;; Registers used:
  4318 ;;		wreg, status,2, status,0
  4319 ;; Tracked objects:
  4320 ;;		On entry : 0/0
  4321 ;;		On exit  : 0/0
  4322 ;;		Unchanged: 0/0
  4323 ;; Data sizes:     COMRAM   BANK5   BANK6   BANK7   BANK8   BANK9  BANK10  BANK11  BANK12  BANK13  BANK14  BANK15  BANK1
      +6  BANK17  BANK18  BANK19  BANK20  BANK21  BANK22  BANK23  BANK24  BANK25  BANK26  BANK27  BANK28  BANK29  BANK30  BANK3
      +1  BANK32  BANK33  BANK34  BANK35  BANK36
  4324 ;;      Params:         1       0       0       0       0       0       0       0       0       0       0       0       
      +0       0       0       0       0       0       0       0       0       0       0       0       0       0       0       
      +0       0       0       0       0       0
  4325 ;;      Locals:         1       0       0       0       0       0       0       0       0       0       0       0       
      +0       0       0       0       0       0       0       0       0       0       0       0       0       0       0       
      +0       0       0       0       0       0
  4326 ;;      Temps:          0       0       0       0       0       0       0       0       0       0       0       0       
      +0       0       0       0       0       0       0       0       0       0       0       0       0       0       0       
      +0       0       0       0       0       0
  4327 ;;      Totals:         2       0       0       0       0       0       0       0       0       0       0       0       
      +0       0       0       0       0       0       0       0       0       0       0       0       0       0       0       
      +0       0       0       0       0       0
  4328 ;;Total ram usage:        2 bytes
  4329 ;; Hardware stack levels used: 1
  4330 ;; Hardware stack levels required when called: 1
  4331 ;; This function calls:
  4332 ;;		Nothing
  4333 ;; This function is called by:
  4334 ;;		_I2C_ENVIA_LCD_DATA
  4335 ;;		_I2C_ENVIA_LCD_CMD
  4336 ;;		_I2C_LCD_INIT
  4337 ;; This function uses a non-reentrant model
  4338 ;;
  4339                           
  4340                           	psect	text16
  4341   002E98                     __ptext16:
  4342                           	callstack 0
  4343   002E98                     _I2C1_WRITESINGLEBYTE:
  4344                           	callstack 122
  4345                           
  4346                           ;incstack = 0
  4347                           ;I2C1_WRITESINGLEBYTE@direccion stored from wreg
  4348   002E98  6E02               	movwf	I2C1_WRITESINGLEBYTE@direccion^(0+1280),c
  4349   002E9A                     
  4350                           ;I2C_LCD.c: 61:     I2C1CNT = 1;
  4351   002E9A  0E01               	movlw	1
  4352   002E9C  0102               	movlb	2	; () banked
  4353   002E9E  6F8D               	movwf	141,b	;volatile
  4354   002EA0                     
  4355                           ; BSR set to: 2
  4356                           ;I2C_LCD.c: 62:     I2C1ADB1 = (direccion << 1) & 0xFE;
  4357   002EA0  5002               	movf	I2C1_WRITESINGLEBYTE@direccion^(0+1280),w,c
  4358   002EA2  2402               	addwf	I2C1_WRITESINGLEBYTE@direccion^(0+1280),w,c
  4359   002EA4  0BFE               	andlw	254
  4360   002EA6  6F8F               	movwf	143,b	;volatile
  4361   002EA8                     
  4362                           ; BSR set to: 2
  4363                           ;I2C_LCD.c: 63:     I2C1TXB = dato;
  4364   002EA8  C501  F28C         	movff	I2C1_WRITESINGLEBYTE@dato,652	;volatile
  4365   002EAC                     
  4366                           ; BSR set to: 2
  4367                           ;I2C_LCD.c: 64:     I2C1CON0bits.S = 1;
  4368   002EAC  8B94               	bsf	148,5,b	;volatile
  4369   002EAE                     l51:
  4370                           
  4371                           ; BSR set to: 2
  4372   002EAE  AB99               	btfss	153,5,b	;volatile
  4373   002EB0  EF5C  F017         	goto	u401
  4374   002EB4  EF5E  F017         	goto	u400
  4375   002EB8                     u401:
  4376   002EB8  EF57  F017         	goto	l51
  4377   002EBC                     u400:
  4378   002EBC                     l54:
  4379                           
  4380                           ; BSR set to: 2
  4381   002EBC  BB95               	btfsc	149,5,b	;volatile
  4382   002EBE  EF63  F017         	goto	u411
  4383   002EC2  EF65  F017         	goto	u410
  4384   002EC6                     u411:
  4385   002EC6  EF5E  F017         	goto	l54
  4386   002ECA                     u410:
  4387   002ECA                     l57:
  4388                           
  4389                           ; BSR set to: 2
  4390   002ECA  A59A               	btfss	154,2,b	;volatile
  4391   002ECC  EF6A  F017         	goto	u421
  4392   002ED0  EF6C  F017         	goto	u420
  4393   002ED4                     u421:
  4394   002ED4  EF65  F017         	goto	l57
  4395   002ED8                     u420:
  4396   002ED8                     
  4397                           ; BSR set to: 2
  4398   002ED8  0012               	return		;funcret
  4399   002EDA                     __end_of_I2C1_WRITESINGLEBYTE:
  4400                           	callstack 0
  4401                           
  4402 ;; *************** function _CCP1_ISR *****************
  4403 ;; Defined at:
  4404 ;;		line 71 in file "maincode01.c"
  4405 ;; Parameters:    Size  Location     Type
  4406 ;;		None
  4407 ;; Auto vars:     Size  Location     Type
  4408 ;;		None
  4409 ;; Return value:  Size  Location     Type
  4410 ;;                  1    wreg      void 
  4411 ;; Registers used:
  4412 ;;		wreg, status,2, status,0
  4413 ;; Tracked objects:
  4414 ;;		On entry : 0/0
  4415 ;;		On exit  : 0/0
  4416 ;;		Unchanged: 0/0
  4417 ;; Data sizes:     COMRAM   BANK5   BANK6   BANK7   BANK8   BANK9  BANK10  BANK11  BANK12  BANK13  BANK14  BANK15  BANK1
      +6  BANK17  BANK18  BANK19  BANK20  BANK21  BANK22  BANK23  BANK24  BANK25  BANK26  BANK27  BANK28  BANK29  BANK30  BANK3
      +1  BANK32  BANK33  BANK34  BANK35  BANK36
  4418 ;;      Params:         0       0       0       0       0       0       0       0       0       0       0       0       
      +0       0       0       0       0       0       0       0       0       0       0       0       0       0       0       
      +0       0       0       0       0       0
  4419 ;;      Locals:         0       0       0       0       0       0       0       0       0       0       0       0       
      +0       0       0       0       0       0       0       0       0       0       0       0       0       0       0       
      +0       0       0       0       0       0
  4420 ;;      Temps:          0       0       0       0       0       0       0       0       0       0       0       0       
      +0       0       0       0       0       0       0       0       0       0       0       0       0       0       0       
      +0       0       0       0       0       0
  4421 ;;      Totals:         0       0       0       0       0       0       0       0       0       0       0       0       
      +0       0       0       0       0       0       0       0       0       0       0       0       0       0       0       
      +0       0       0       0       0       0
  4422 ;;Total ram usage:        0 bytes
  4423 ;; Hardware stack levels used: 1
  4424 ;; This function calls:
  4425 ;;		Nothing
  4426 ;; This function is called by:
  4427 ;;		Interrupt level 2
  4428 ;; This function uses a non-reentrant model
  4429 ;;
  4430                           
  4431                           	psect	text17
  4432   002D74                     __ptext17:
  4433                           	callstack 0
  4434   002D74                     _CCP1_ISR:
  4435                           	callstack 121
  4436   002D74                     
  4437                           ;maincode01.c: 72:     PIR3bits.CCP1IF = 0;
  4438   002D74  9CB1               	bcf	177,6,c	;volatile
  4439   002D76                     
  4440                           ;maincode01.c: 73:     if(segundos == 59){
  4441   002D76  0E3B               	movlw	59
  4442   002D78  1814               	xorwf	_segundos^(0+1280),w,c
  4443   002D7A  A4D8               	btfss	status,2,c
  4444   002D7C  EFC2  F016         	goto	i2u35_41
  4445   002D80  EFC4  F016         	goto	i2u35_40
  4446   002D84                     i2u35_41:
  4447   002D84  EFE1  F016         	goto	i2l1575
  4448   002D88                     i2u35_40:
  4449   002D88                     
  4450                           ;maincode01.c: 74:         segundos = 0;
  4451   002D88  6A14               	clrf	_segundos^(0+1280),c
  4452   002D8A                     
  4453                           ;maincode01.c: 75:         if(minutos == 59){
  4454   002D8A  0E3B               	movlw	59
  4455   002D8C  1815               	xorwf	_minutos^(0+1280),w,c
  4456   002D8E  A4D8               	btfss	status,2,c
  4457   002D90  EFCC  F016         	goto	i2u36_41
  4458   002D94  EFCE  F016         	goto	i2u36_40
  4459   002D98                     i2u36_41:
  4460   002D98  EFDE  F016         	goto	i2l1573
  4461   002D9C                     i2u36_40:
  4462   002D9C                     
  4463                           ;maincode01.c: 76:             minutos = 0;
  4464   002D9C  6A15               	clrf	_minutos^(0+1280),c
  4465   002D9E                     
  4466                           ;maincode01.c: 77:             if(horas == 23){
  4467   002D9E  0E17               	movlw	23
  4468   002DA0  1816               	xorwf	_horas^(0+1280),w,c
  4469   002DA2  A4D8               	btfss	status,2,c
  4470   002DA4  EFD6  F016         	goto	i2u37_41
  4471   002DA8  EFD8  F016         	goto	i2u37_40
  4472   002DAC                     i2u37_41:
  4473   002DAC  EFDB  F016         	goto	i2l1571
  4474   002DB0                     i2u37_40:
  4475   002DB0                     
  4476                           ;maincode01.c: 78:                 horas = 0;
  4477   002DB0  6A16               	clrf	_horas^(0+1280),c
  4478                           
  4479                           ;maincode01.c: 79:             }
  4480   002DB2  EFE2  F016         	goto	i2l270
  4481   002DB6                     i2l1571:
  4482                           
  4483                           ;maincode01.c: 81:                 horas++;
  4484   002DB6  2A16               	incf	_horas^(0+1280),f,c
  4485   002DB8  EFE2  F016         	goto	i2l270
  4486   002DBC                     i2l1573:
  4487                           
  4488                           ;maincode01.c: 85:             minutos++;
  4489   002DBC  2A15               	incf	_minutos^(0+1280),f,c
  4490   002DBE  EFE2  F016         	goto	i2l270
  4491   002DC2                     i2l1575:
  4492                           
  4493                           ;maincode01.c: 89:         segundos++;
  4494   002DC2  2A14               	incf	_segundos^(0+1280),f,c
  4495   002DC4                     i2l270:
  4496   002DC4  0011               	retfie		f
  4497   002DC6                     __end_of_CCP1_ISR:
  4498                           	callstack 0
  4499                           
  4500 ;; *************** function _INT0_ISR *****************
  4501 ;; Defined at:
  4502 ;;		line 93 in file "maincode01.c"
  4503 ;; Parameters:    Size  Location     Type
  4504 ;;		None
  4505 ;; Auto vars:     Size  Location     Type
  4506 ;;		None
  4507 ;; Return value:  Size  Location     Type
  4508 ;;                  1    wreg      void 
  4509 ;; Registers used:
  4510 ;;		wreg, status,2, status,0
  4511 ;; Tracked objects:
  4512 ;;		On entry : 0/0
  4513 ;;		On exit  : 0/0
  4514 ;;		Unchanged: 0/0
  4515 ;; Data sizes:     COMRAM   BANK5   BANK6   BANK7   BANK8   BANK9  BANK10  BANK11  BANK12  BANK13  BANK14  BANK15  BANK1
      +6  BANK17  BANK18  BANK19  BANK20  BANK21  BANK22  BANK23  BANK24  BANK25  BANK26  BANK27  BANK28  BANK29  BANK30  BANK3
      +1  BANK32  BANK33  BANK34  BANK35  BANK36
  4516 ;;      Params:         0       0       0       0       0       0       0       0       0       0       0       0       
      +0       0       0       0       0       0       0       0       0       0       0       0       0       0       0       
      +0       0       0       0       0       0
  4517 ;;      Locals:         0       0       0       0       0       0       0       0       0       0       0       0       
      +0       0       0       0       0       0       0       0       0       0       0       0       0       0       0       
      +0       0       0       0       0       0
  4518 ;;      Temps:          0       0       0       0       0       0       0       0       0       0       0       0       
      +0       0       0       0       0       0       0       0       0       0       0       0       0       0       0       
      +0       0       0       0       0       0
  4519 ;;      Totals:         0       0       0       0       0       0       0       0       0       0       0       0       
      +0       0       0       0       0       0       0       0       0       0       0       0       0       0       0       
      +0       0       0       0       0       0
  4520 ;;Total ram usage:        0 bytes
  4521 ;; Hardware stack levels used: 1
  4522 ;; This function calls:
  4523 ;;		Nothing
  4524 ;; This function is called by:
  4525 ;;		Interrupt level 2
  4526 ;; This function uses a non-reentrant model
  4527 ;;
  4528                           
  4529                           	psect	text18
  4530   002FD8                     __ptext18:
  4531                           	callstack 0
  4532   002FD8                     _INT0_ISR:
  4533                           	callstack 121
  4534   002FD8                     
  4535                           ;maincode01.c: 94:     PIR1bits.INT0IF = 0;
  4536   002FD8  90AF               	bcf	175,0,c	;volatile
  4537   002FDA                     
  4538                           ;maincode01.c: 95:     if(horas == 23){
  4539   002FDA  0E17               	movlw	23
  4540   002FDC  1816               	xorwf	_horas^(0+1280),w,c
  4541   002FDE  A4D8               	btfss	status,2,c
  4542   002FE0  EFF4  F017         	goto	i2u38_41
  4543   002FE4  EFF6  F017         	goto	i2u38_40
  4544   002FE8                     i2u38_41:
  4545   002FE8  EFF9  F017         	goto	i2l1583
  4546   002FEC                     i2u38_40:
  4547   002FEC                     
  4548                           ;maincode01.c: 96:         horas = 0;
  4549   002FEC  6A16               	clrf	_horas^(0+1280),c
  4550                           
  4551                           ;maincode01.c: 97:     }
  4552   002FEE  EFFA  F017         	goto	i2l277
  4553   002FF2                     i2l1583:
  4554                           
  4555                           ;maincode01.c: 99:         horas++;
  4556   002FF2  2A16               	incf	_horas^(0+1280),f,c
  4557   002FF4                     i2l277:
  4558   002FF4  0011               	retfie		f
  4559   002FF6                     __end_of_INT0_ISR:
  4560                           	callstack 0
  4561                           
  4562 ;; *************** function _INT1_ISR *****************
  4563 ;; Defined at:
  4564 ;;		line 103 in file "maincode01.c"
  4565 ;; Parameters:    Size  Location     Type
  4566 ;;		None
  4567 ;; Auto vars:     Size  Location     Type
  4568 ;;		None
  4569 ;; Return value:  Size  Location     Type
  4570 ;;                  1    wreg      void 
  4571 ;; Registers used:
  4572 ;;		wreg, status,2, status,0
  4573 ;; Tracked objects:
  4574 ;;		On entry : 0/0
  4575 ;;		On exit  : 0/0
  4576 ;;		Unchanged: 0/0
  4577 ;; Data sizes:     COMRAM   BANK5   BANK6   BANK7   BANK8   BANK9  BANK10  BANK11  BANK12  BANK13  BANK14  BANK15  BANK1
      +6  BANK17  BANK18  BANK19  BANK20  BANK21  BANK22  BANK23  BANK24  BANK25  BANK26  BANK27  BANK28  BANK29  BANK30  BANK3
      +1  BANK32  BANK33  BANK34  BANK35  BANK36
  4578 ;;      Params:         0       0       0       0       0       0       0       0       0       0       0       0       
      +0       0       0       0       0       0       0       0       0       0       0       0       0       0       0       
      +0       0       0       0       0       0
  4579 ;;      Locals:         0       0       0       0       0       0       0       0       0       0       0       0       
      +0       0       0       0       0       0       0       0       0       0       0       0       0       0       0       
      +0       0       0       0       0       0
  4580 ;;      Temps:          0       0       0       0       0       0       0       0       0       0       0       0       
      +0       0       0       0       0       0       0       0       0       0       0       0       0       0       0       
      +0       0       0       0       0       0
  4581 ;;      Totals:         0       0       0       0       0       0       0       0       0       0       0       0       
      +0       0       0       0       0       0       0       0       0       0       0       0       0       0       0       
      +0       0       0       0       0       0
  4582 ;;Total ram usage:        0 bytes
  4583 ;; Hardware stack levels used: 1
  4584 ;; This function calls:
  4585 ;;		Nothing
  4586 ;; This function is called by:
  4587 ;;		Interrupt level 2
  4588 ;; This function uses a non-reentrant model
  4589 ;;
  4590                           
  4591                           	psect	text19
  4592   002FF8                     __ptext19:
  4593                           	callstack 0
  4594   002FF8                     _INT1_ISR:
  4595                           	callstack 121
  4596   002FF8                     
  4597                           ;maincode01.c: 104:     PIR6bits.INT1IF = 0;
  4598   002FF8  90B4               	bcf	180,0,c	;volatile
  4599   002FFA                     
  4600                           ;maincode01.c: 105:     if(minutos == 59){
  4601   002FFA  0E3B               	movlw	59
  4602   002FFC  1815               	xorwf	_minutos^(0+1280),w,c
  4603   002FFE  A4D8               	btfss	status,2,c
  4604   003000  EF04  F018         	goto	i2u39_41
  4605   003004  EF06  F018         	goto	i2u39_40
  4606   003008                     i2u39_41:
  4607   003008  EF09  F018         	goto	i2l1591
  4608   00300C                     i2u39_40:
  4609   00300C                     
  4610                           ;maincode01.c: 106:         minutos = 0;
  4611   00300C  6A15               	clrf	_minutos^(0+1280),c
  4612                           
  4613                           ;maincode01.c: 107:     }
  4614   00300E  EF0A  F018         	goto	i2l284
  4615   003012                     i2l1591:
  4616                           
  4617                           ;maincode01.c: 109:         minutos++;
  4618   003012  2A15               	incf	_minutos^(0+1280),f,c
  4619   003014                     i2l284:
  4620   003014  0011               	retfie		f
  4621   003016                     __end_of_INT1_ISR:
  4622                           	callstack 0
  4623                           
  4624 ;; *************** function _DEFAULT_ISR *****************
  4625 ;; Defined at:
  4626 ;;		line 113 in file "maincode01.c"
  4627 ;; Parameters:    Size  Location     Type
  4628 ;;		None
  4629 ;; Auto vars:     Size  Location     Type
  4630 ;;		None
  4631 ;; Return value:  Size  Location     Type
  4632 ;;                  1    wreg      void 
  4633 ;; Registers used:
  4634 ;;		None
  4635 ;; Tracked objects:
  4636 ;;		On entry : 0/0
  4637 ;;		On exit  : 0/0
  4638 ;;		Unchanged: 0/0
  4639 ;; Data sizes:     COMRAM   BANK5   BANK6   BANK7   BANK8   BANK9  BANK10  BANK11  BANK12  BANK13  BANK14  BANK15  BANK1
      +6  BANK17  BANK18  BANK19  BANK20  BANK21  BANK22  BANK23  BANK24  BANK25  BANK26  BANK27  BANK28  BANK29  BANK30  BANK3
      +1  BANK32  BANK33  BANK34  BANK35  BANK36
  4640 ;;      Params:         0       0       0       0       0       0       0       0       0       0       0       0       
      +0       0       0       0       0       0       0       0       0       0       0       0       0       0       0       
      +0       0       0       0       0       0
  4641 ;;      Locals:         0       0       0       0       0       0       0       0       0       0       0       0       
      +0       0       0       0       0       0       0       0       0       0       0       0       0       0       0       
      +0       0       0       0       0       0
  4642 ;;      Temps:          0       0       0       0       0       0       0       0       0       0       0       0       
      +0       0       0       0       0       0       0       0       0       0       0       0       0       0       0       
      +0       0       0       0       0       0
  4643 ;;      Totals:         0       0       0       0       0       0       0       0       0       0       0       0       
      +0       0       0       0       0       0       0       0       0       0       0       0       0       0       0       
      +0       0       0       0       0       0
  4644 ;;Total ram usage:        0 bytes
  4645 ;; Hardware stack levels used: 1
  4646 ;; This function calls:
  4647 ;;		Nothing
  4648 ;; This function is called by:
  4649 ;;		Interrupt level 2
  4650 ;; This function uses a non-reentrant model
  4651 ;;
  4652                           
  4653                           	psect	text20
  4654   003024                     __ptext20:
  4655                           	callstack 0
  4656   003024                     _DEFAULT_ISR:
  4657                           	callstack 121
  4658   003024  0011               	retfie		f
  4659   003026                     __end_of_DEFAULT_ISR:
  4660                           	callstack 0
  4661                           
  4662                           ;
  4663                           ; H/W Interrupt Vector Table @ 0x8
  4664                           ;
  4665                           
  4666                           	psect	ivt0x8
  4667   000008                     __pivt0x8:
  4668                           	callstack 0
  4669   000008                     ivt0x8_base:
  4670                           	callstack 0
  4671                           
  4672                           ; Vector 0 : SWINT
  4673   000008  0C09               	dw	_DEFAULT_ISR shr (0+2)
  4674                           
  4675                           ; Vector 1 : HLVD
  4676   00000A  0C09               	dw	_DEFAULT_ISR shr (0+2)
  4677                           
  4678                           ; Vector 2 : OSF
  4679   00000C  0C09               	dw	_DEFAULT_ISR shr (0+2)
  4680                           
  4681                           ; Vector 3 : CSW
  4682   00000E  0C09               	dw	_DEFAULT_ISR shr (0+2)
  4683                           
  4684                           ; Vector 4 : Undefined
  4685   000010  0040               	dw	ivt0x8_undefint shr (0+2)
  4686                           
  4687                           ; Vector 5 : CLC1
  4688   000012  0C09               	dw	_DEFAULT_ISR shr (0+2)
  4689                           
  4690                           ; Vector 6 : Undefined
  4691   000014  0040               	dw	ivt0x8_undefint shr (0+2)
  4692                           
  4693                           ; Vector 7 : IOC
  4694   000016  0C09               	dw	_DEFAULT_ISR shr (0+2)
  4695                           
  4696                           ; Vector 8 : INT0
  4697   000018  0BF6               	dw	_INT0_ISR shr (0+2)
  4698                           
  4699                           ; Vector 9 : ZCD
  4700   00001A  0C09               	dw	_DEFAULT_ISR shr (0+2)
  4701                           
  4702                           ; Vector 10 : AD
  4703   00001C  0C09               	dw	_DEFAULT_ISR shr (0+2)
  4704                           
  4705                           ; Vector 11 : ACT
  4706   00001E  0C09               	dw	_DEFAULT_ISR shr (0+2)
  4707                           
  4708                           ; Vector 12 : CMP1
  4709   000020  0C09               	dw	_DEFAULT_ISR shr (0+2)
  4710                           
  4711                           ; Vector 13 : SMT1
  4712   000022  0C09               	dw	_DEFAULT_ISR shr (0+2)
  4713                           
  4714                           ; Vector 14 : SMT1PRA
  4715   000024  0C09               	dw	_DEFAULT_ISR shr (0+2)
  4716                           
  4717                           ; Vector 15 : SMT1PRW
  4718   000026  0C09               	dw	_DEFAULT_ISR shr (0+2)
  4719                           
  4720                           ; Vector 16 : ADT
  4721   000028  0C09               	dw	_DEFAULT_ISR shr (0+2)
  4722                           
  4723                           ; Vector 17 : Undefined
  4724   00002A  0040               	dw	ivt0x8_undefint shr (0+2)
  4725                           
  4726                           ; Vector 18 : Undefined
  4727   00002C  0040               	dw	ivt0x8_undefint shr (0+2)
  4728                           
  4729                           ; Vector 19 : Undefined
  4730   00002E  0040               	dw	ivt0x8_undefint shr (0+2)
  4731                           
  4732                           ; Vector 20 : DMA1SCNT
  4733   000030  0C09               	dw	_DEFAULT_ISR shr (0+2)
  4734                           
  4735                           ; Vector 21 : DMA1DCNT
  4736   000032  0C09               	dw	_DEFAULT_ISR shr (0+2)
  4737                           
  4738                           ; Vector 22 : DMA1OR
  4739   000034  0C09               	dw	_DEFAULT_ISR shr (0+2)
  4740                           
  4741                           ; Vector 23 : DMA1A
  4742   000036  0C09               	dw	_DEFAULT_ISR shr (0+2)
  4743                           
  4744                           ; Vector 24 : SPI1RX
  4745   000038  0C09               	dw	_DEFAULT_ISR shr (0+2)
  4746                           
  4747                           ; Vector 25 : SPI1TX
  4748   00003A  0C09               	dw	_DEFAULT_ISR shr (0+2)
  4749                           
  4750                           ; Vector 26 : SPI1
  4751   00003C  0C09               	dw	_DEFAULT_ISR shr (0+2)
  4752                           
  4753                           ; Vector 27 : TMR2
  4754   00003E  0C09               	dw	_DEFAULT_ISR shr (0+2)
  4755                           
  4756                           ; Vector 28 : TMR1
  4757   000040  0C09               	dw	_DEFAULT_ISR shr (0+2)
  4758                           
  4759                           ; Vector 29 : TMR1G
  4760   000042  0C09               	dw	_DEFAULT_ISR shr (0+2)
  4761                           
  4762                           ; Vector 30 : CCP1
  4763   000044  0B5D               	dw	_CCP1_ISR shr (0+2)
  4764                           
  4765                           ; Vector 31 : TMR0
  4766   000046  0C09               	dw	_DEFAULT_ISR shr (0+2)
  4767                           
  4768                           ; Vector 32 : U1RX
  4769   000048  0C09               	dw	_DEFAULT_ISR shr (0+2)
  4770                           
  4771                           ; Vector 33 : U1TX
  4772   00004A  0C09               	dw	_DEFAULT_ISR shr (0+2)
  4773                           
  4774                           ; Vector 34 : U1E
  4775   00004C  0C09               	dw	_DEFAULT_ISR shr (0+2)
  4776                           
  4777                           ; Vector 35 : U1
  4778   00004E  0C09               	dw	_DEFAULT_ISR shr (0+2)
  4779                           
  4780                           ; Vector 36 : Undefined
  4781   000050  0040               	dw	ivt0x8_undefint shr (0+2)
  4782                           
  4783                           ; Vector 37 : Undefined
  4784   000052  0040               	dw	ivt0x8_undefint shr (0+2)
  4785                           
  4786                           ; Vector 38 : PWM1PR
  4787   000054  0C09               	dw	_DEFAULT_ISR shr (0+2)
  4788                           
  4789                           ; Vector 39 : PWM1
  4790   000056  0C09               	dw	_DEFAULT_ISR shr (0+2)
  4791                           
  4792                           ; Vector 40 : SPI2RX
  4793   000058  0C09               	dw	_DEFAULT_ISR shr (0+2)
  4794                           
  4795                           ; Vector 41 : SPI2TX
  4796   00005A  0C09               	dw	_DEFAULT_ISR shr (0+2)
  4797                           
  4798                           ; Vector 42 : SPI2
  4799   00005C  0C09               	dw	_DEFAULT_ISR shr (0+2)
  4800                           
  4801                           ; Vector 43 : Undefined
  4802   00005E  0040               	dw	ivt0x8_undefint shr (0+2)
  4803                           
  4804                           ; Vector 44 : TMR3
  4805   000060  0C09               	dw	_DEFAULT_ISR shr (0+2)
  4806                           
  4807                           ; Vector 45 : TMR3G
  4808   000062  0C09               	dw	_DEFAULT_ISR shr (0+2)
  4809                           
  4810                           ; Vector 46 : PWM2PR
  4811   000064  0C09               	dw	_DEFAULT_ISR shr (0+2)
  4812                           
  4813                           ; Vector 47 : PWM2
  4814   000066  0C09               	dw	_DEFAULT_ISR shr (0+2)
  4815                           
  4816                           ; Vector 48 : INT1
  4817   000068  0BFE               	dw	_INT1_ISR shr (0+2)
  4818                           
  4819                           ; Vector 49 : CLC2
  4820   00006A  0C09               	dw	_DEFAULT_ISR shr (0+2)
  4821                           
  4822                           ; Vector 50 : CWG1
  4823   00006C  0C09               	dw	_DEFAULT_ISR shr (0+2)
  4824                           
  4825                           ; Vector 51 : NCO1
  4826   00006E  0C09               	dw	_DEFAULT_ISR shr (0+2)
  4827                           
  4828                           ; Vector 52 : DMA2SCNT
  4829   000070  0C09               	dw	_DEFAULT_ISR shr (0+2)
  4830                           
  4831                           ; Vector 53 : DMA2DCNT
  4832   000072  0C09               	dw	_DEFAULT_ISR shr (0+2)
  4833                           
  4834                           ; Vector 54 : DMA2OR
  4835   000074  0C09               	dw	_DEFAULT_ISR shr (0+2)
  4836                           
  4837                           ; Vector 55 : DMA2A
  4838   000076  0C09               	dw	_DEFAULT_ISR shr (0+2)
  4839                           
  4840                           ; Vector 56 : I2C1RX
  4841   000078  0C09               	dw	_DEFAULT_ISR shr (0+2)
  4842                           
  4843                           ; Vector 57 : I2C1TX
  4844   00007A  0C09               	dw	_DEFAULT_ISR shr (0+2)
  4845                           
  4846                           ; Vector 58 : I2C1
  4847   00007C  0C09               	dw	_DEFAULT_ISR shr (0+2)
  4848                           
  4849                           ; Vector 59 : I2C1E
  4850   00007E  0C09               	dw	_DEFAULT_ISR shr (0+2)
  4851                           
  4852                           ; Vector 60 : Undefined
  4853   000080  0040               	dw	ivt0x8_undefint shr (0+2)
  4854                           
  4855                           ; Vector 61 : CLC3
  4856   000082  0C09               	dw	_DEFAULT_ISR shr (0+2)
  4857                           
  4858                           ; Vector 62 : PWM3PR
  4859   000084  0C09               	dw	_DEFAULT_ISR shr (0+2)
  4860                           
  4861                           ; Vector 63 : PWM3
  4862   000086  0C09               	dw	_DEFAULT_ISR shr (0+2)
  4863                           
  4864                           ; Vector 64 : U2RX
  4865   000088  0C09               	dw	_DEFAULT_ISR shr (0+2)
  4866                           
  4867                           ; Vector 65 : U2TX
  4868   00008A  0C09               	dw	_DEFAULT_ISR shr (0+2)
  4869                           
  4870                           ; Vector 66 : U2E
  4871   00008C  0C09               	dw	_DEFAULT_ISR shr (0+2)
  4872                           
  4873                           ; Vector 67 : U2
  4874   00008E  0C09               	dw	_DEFAULT_ISR shr (0+2)
  4875                           
  4876                           ; Vector 68 : TMR5
  4877   000090  0C09               	dw	_DEFAULT_ISR shr (0+2)
  4878                           
  4879                           ; Vector 69 : TMR5G
  4880   000092  0C09               	dw	_DEFAULT_ISR shr (0+2)
  4881                           
  4882                           ; Vector 70 : CCP2
  4883   000094  0C09               	dw	_DEFAULT_ISR shr (0+2)
  4884                           
  4885                           ; Vector 71 : SCAN
  4886   000096  0C09               	dw	_DEFAULT_ISR shr (0+2)
  4887                           
  4888                           ; Vector 72 : U3RX
  4889   000098  0C09               	dw	_DEFAULT_ISR shr (0+2)
  4890                           
  4891                           ; Vector 73 : U3TX
  4892   00009A  0C09               	dw	_DEFAULT_ISR shr (0+2)
  4893                           
  4894                           ; Vector 74 : U3E
  4895   00009C  0C09               	dw	_DEFAULT_ISR shr (0+2)
  4896                           
  4897                           ; Vector 75 : U3
  4898   00009E  0C09               	dw	_DEFAULT_ISR shr (0+2)
  4899                           
  4900                           ; Vector 76 : Undefined
  4901   0000A0  0040               	dw	ivt0x8_undefint shr (0+2)
  4902                           
  4903                           ; Vector 77 : CLC4
  4904   0000A2  0C09               	dw	_DEFAULT_ISR shr (0+2)
  4905                           
  4906                           ; Vector 78 : Undefined
  4907   0000A4  0040               	dw	ivt0x8_undefint shr (0+2)
  4908                           
  4909                           ; Vector 79 : Undefined
  4910   0000A6  0040               	dw	ivt0x8_undefint shr (0+2)
  4911                           
  4912                           ; Vector 80 : INT2
  4913   0000A8  0C09               	dw	_DEFAULT_ISR shr (0+2)
  4914                           
  4915                           ; Vector 81 : CLC5
  4916   0000AA  0C09               	dw	_DEFAULT_ISR shr (0+2)
  4917                           
  4918                           ; Vector 82 : CWG2
  4919   0000AC  0C09               	dw	_DEFAULT_ISR shr (0+2)
  4920                           
  4921                           ; Vector 83 : NCO2
  4922   0000AE  0C09               	dw	_DEFAULT_ISR shr (0+2)
  4923                           
  4924                           ; Vector 84 : DMA3SCNT
  4925   0000B0  0C09               	dw	_DEFAULT_ISR shr (0+2)
  4926                           
  4927                           ; Vector 85 : DMA3DCNT
  4928   0000B2  0C09               	dw	_DEFAULT_ISR shr (0+2)
  4929                           
  4930                           ; Vector 86 : DMA3OR
  4931   0000B4  0C09               	dw	_DEFAULT_ISR shr (0+2)
  4932                           
  4933                           ; Vector 87 : DMA3A
  4934   0000B6  0C09               	dw	_DEFAULT_ISR shr (0+2)
  4935                           
  4936                           ; Vector 88 : CCP3
  4937   0000B8  0C09               	dw	_DEFAULT_ISR shr (0+2)
  4938                           
  4939                           ; Vector 89 : CLC6
  4940   0000BA  0C09               	dw	_DEFAULT_ISR shr (0+2)
  4941                           
  4942                           ; Vector 90 : CWG3
  4943   0000BC  0C09               	dw	_DEFAULT_ISR shr (0+2)
  4944                           
  4945                           ; Vector 91 : TMR4
  4946   0000BE  0C09               	dw	_DEFAULT_ISR shr (0+2)
  4947                           
  4948                           ; Vector 92 : DMA4SCNT
  4949   0000C0  0C09               	dw	_DEFAULT_ISR shr (0+2)
  4950                           
  4951                           ; Vector 93 : DMA4DCNT
  4952   0000C2  0C09               	dw	_DEFAULT_ISR shr (0+2)
  4953                           
  4954                           ; Vector 94 : DMA4OR
  4955   0000C4  0C09               	dw	_DEFAULT_ISR shr (0+2)
  4956                           
  4957                           ; Vector 95 : DMA4A
  4958   0000C6  0C09               	dw	_DEFAULT_ISR shr (0+2)
  4959                           
  4960                           ; Vector 96 : U4RX
  4961   0000C8  0C09               	dw	_DEFAULT_ISR shr (0+2)
  4962                           
  4963                           ; Vector 97 : U4TX
  4964   0000CA  0C09               	dw	_DEFAULT_ISR shr (0+2)
  4965                           
  4966                           ; Vector 98 : U4E
  4967   0000CC  0C09               	dw	_DEFAULT_ISR shr (0+2)
  4968                           
  4969                           ; Vector 99 : U4
  4970   0000CE  0C09               	dw	_DEFAULT_ISR shr (0+2)
  4971                           
  4972                           ; Vector 100 : DMA5SCNT
  4973   0000D0  0C09               	dw	_DEFAULT_ISR shr (0+2)
  4974                           
  4975                           ; Vector 101 : DMA5DCNT
  4976   0000D2  0C09               	dw	_DEFAULT_ISR shr (0+2)
  4977                           
  4978                           ; Vector 102 : DMA5OR
  4979   0000D4  0C09               	dw	_DEFAULT_ISR shr (0+2)
  4980                           
  4981                           ; Vector 103 : DMA5A
  4982   0000D6  0C09               	dw	_DEFAULT_ISR shr (0+2)
  4983                           
  4984                           ; Vector 104 : U5RX
  4985   0000D8  0C09               	dw	_DEFAULT_ISR shr (0+2)
  4986                           
  4987                           ; Vector 105 : U5TX
  4988   0000DA  0C09               	dw	_DEFAULT_ISR shr (0+2)
  4989                           
  4990                           ; Vector 106 : U5E
  4991   0000DC  0C09               	dw	_DEFAULT_ISR shr (0+2)
  4992                           
  4993                           ; Vector 107 : U5
  4994   0000DE  0C09               	dw	_DEFAULT_ISR shr (0+2)
  4995                           
  4996                           ; Vector 108 : DMA6SCNT
  4997   0000E0  0C09               	dw	_DEFAULT_ISR shr (0+2)
  4998                           
  4999                           ; Vector 109 : DMA6DCNT
  5000   0000E2  0C09               	dw	_DEFAULT_ISR shr (0+2)
  5001                           
  5002                           ; Vector 110 : DMA6OR
  5003   0000E4  0C09               	dw	_DEFAULT_ISR shr (0+2)
  5004                           
  5005                           ; Vector 111 : DMA6A
  5006   0000E6  0C09               	dw	_DEFAULT_ISR shr (0+2)
  5007                           
  5008                           ; Vector 112 : Undefined
  5009   0000E8  0040               	dw	ivt0x8_undefint shr (0+2)
  5010                           
  5011                           ; Vector 113 : CLC7
  5012   0000EA  0C09               	dw	_DEFAULT_ISR shr (0+2)
  5013                           
  5014                           ; Vector 114 : CMP2
  5015   0000EC  0C09               	dw	_DEFAULT_ISR shr (0+2)
  5016                           
  5017                           ; Vector 115 : NCO3
  5018   0000EE  0C09               	dw	_DEFAULT_ISR shr (0+2)
  5019                           
  5020                           ; Vector 116 : Undefined
  5021   0000F0  0040               	dw	ivt0x8_undefint shr (0+2)
  5022                           
  5023                           ; Vector 117 : Undefined
  5024   0000F2  0040               	dw	ivt0x8_undefint shr (0+2)
  5025                           
  5026                           ; Vector 118 : Undefined
  5027   0000F4  0040               	dw	ivt0x8_undefint shr (0+2)
  5028                           
  5029                           ; Vector 119 : Undefined
  5030   0000F6  0040               	dw	ivt0x8_undefint shr (0+2)
  5031                           
  5032                           ; Vector 120 : NVM
  5033   0000F8  0C09               	dw	_DEFAULT_ISR shr (0+2)
  5034                           
  5035                           ; Vector 121 : CLC8
  5036   0000FA  0C09               	dw	_DEFAULT_ISR shr (0+2)
  5037                           
  5038                           ; Vector 122 : CRC
  5039   0000FC  0C09               	dw	_DEFAULT_ISR shr (0+2)
  5040                           
  5041                           ; Vector 123 : TMR6
  5042   0000FE  0C09               	dw	_DEFAULT_ISR shr (0+2)
  5043   000100                     ivt0x8_undefint:
  5044                           	callstack 0
  5045   000100  00FF               	reset	
  5046                           
  5047                           	psect	rparam
  5048   000001                     ___rparam_used  equ	1
  5049   000000                     ___param_bank   equ	0
  5050   000000                     __Lparam        equ	__Lrparam
  5051   000000                     __Hparam        equ	__Hrparam
  5052                           
  5053                           	psect	config
  5054                           
  5055                           ;Config register CONFIG1 @ 0x300000
  5056                           ;	External Oscillator Selection
  5057                           ;	FEXTOSC = OFF, Oscillator not enabled
  5058                           ;	Reset Oscillator Selection
  5059                           ;	RSTOSC = EXTOSC, EXTOSC operating per FEXTOSC bits (device manufacturing default)
  5060   300000                     	org	3145728
  5061   300000  FC                 	db	252
  5062                           
  5063                           ;Config register CONFIG2 @ 0x300001
  5064                           ;	Clock out Enable bit
  5065                           ;	CLKOUTEN = OFF, CLKOUT function is disabled
  5066                           ;	PRLOCKED One-Way Set Enable bit
  5067                           ;	PR1WAY = ON, PRLOCKED bit can be cleared and set only once
  5068                           ;	Clock Switch Enable bit
  5069                           ;	CSWEN = ON, Writing to NOSC and NDIV is allowed
  5070                           ;	Fail-Safe Clock Monitor Enable bit
  5071                           ;	FCMEN = ON, Fail-Safe Clock Monitor enabled
  5072   300001                     	org	3145729
  5073   300001  FF                 	db	255
  5074                           
  5075                           ;Config register CONFIG3 @ 0x300002
  5076                           ;	MCLR Enable bit
  5077                           ;	MCLRE = EXTMCLR, If LVP = 0, MCLR pin is MCLR; If LVP = 1, RE3 pin function is MCLR
  5078                           ;	Power-up timer selection bits
  5079                           ;	PWRTS = PWRT_64, PWRT set at 64ms
  5080                           ;	Multi-vector enable bit
  5081                           ;	MVECEN = ON, Multi-vector enabled, Vector table used for interrupts
  5082                           ;	IVTLOCK bit One-way set enable bit
  5083                           ;	IVT1WAY = ON, IVTLOCKED bit can be cleared and set only once
  5084                           ;	Low Power BOR Enable bit
  5085                           ;	LPBOREN = OFF, Low-Power BOR disabled
  5086                           ;	Brown-out Reset Enable bits
  5087                           ;	BOREN = OFF, Brown-out Reset disabled
  5088   300002                     	org	3145730
  5089   300002  3D                 	db	61
  5090                           
  5091                           ;Config register CONFIG4 @ 0x300003
  5092                           ;	Brown-out Reset Voltage Selection bits
  5093                           ;	BORV = VBOR_1P9, Brown-out Reset Voltage (VBOR) set to 1.9V
  5094                           ;	ZCD Disable bit
  5095                           ;	ZCD = OFF, ZCD module is disabled. ZCD can be enabled by setting the ZCDSEN bit of ZCD
      +                          CON
  5096                           ;	PPSLOCK bit One-Way Set Enable bit
  5097                           ;	PPS1WAY = ON, PPSLOCKED bit can be cleared and set only once; PPS registers remain loc
      +                          ked after one clear/set cycle
  5098                           ;	Stack Full/Underflow Reset Enable bit
  5099                           ;	STVREN = ON, Stack full/underflow will cause Reset
  5100                           ;	Low Voltage Programming Enable bit
  5101                           ;	LVP = OFF, HV on MCLR/VPP must be used for programming
  5102                           ;	Extended Instruction Set Enable bit
  5103                           ;	XINST = OFF, Extended Instruction Set and Indexed Addressing Mode disabled
  5104   300003                     	org	3145731
  5105   300003  DF                 	db	223
  5106                           
  5107                           ;Config register CONFIG5 @ 0x300004
  5108                           ;	WDT Period selection bits
  5109                           ;	WDTCPS = WDTCPS_31, Divider ratio 1:65536; software control of WDTPS
  5110                           ;	WDT operating mode
  5111                           ;	WDTE = OFF, WDT Disabled; SWDTEN is ignored
  5112   300004                     	org	3145732
  5113   300004  9F                 	db	159
  5114                           
  5115                           ;Config register CONFIG6 @ 0x300005
  5116                           ;	WDT Window Select bits
  5117                           ;	WDTCWS = WDTCWS_7, window always open (100%); software control; keyed access not requi
      +                          red
  5118                           ;	WDT input clock selector
  5119                           ;	WDTCCS = SC, Software Control
  5120   300005                     	org	3145733
  5121   300005  FF                 	db	255
  5122                           
  5123                           ;Config register CONFIG7 @ 0x300006
  5124                           ;	Boot Block Size selection bits
  5125                           ;	BBSIZE = BBSIZE_512, Boot Block size is 512 words
  5126                           ;	Boot Block enable bit
  5127                           ;	BBEN = OFF, Boot block disabled
  5128                           ;	Storage Area Flash enable bit
  5129                           ;	SAFEN = OFF, SAF disabled
  5130                           ;	Background Debugger
  5131                           ;	DEBUG = OFF, Background Debugger disabled
  5132   300006                     	org	3145734
  5133   300006  FF                 	db	255
  5134                           
  5135                           ;Config register CONFIG8 @ 0x300007
  5136                           ;	Boot Block Write Protection bit
  5137                           ;	WRTB = OFF, Boot Block not Write protected
  5138                           ;	Configuration Register Write Protection bit
  5139                           ;	WRTC = OFF, Configuration registers not Write protected
  5140                           ;	Data EEPROM Write Protection bit
  5141                           ;	WRTD = OFF, Data EEPROM not Write protected
  5142                           ;	SAF Write protection bit
  5143                           ;	WRTSAF = OFF, SAF not Write Protected
  5144                           ;	Application Block write protection bit
  5145                           ;	WRTAPP = OFF, Application Block not write protected
  5146   300007                     	org	3145735
  5147   300007  FF                 	db	255
  5148                           
  5149                           ;Config register CONFIG10 @ 0x300009
  5150                           ;	PFM and Data EEPROM Code Protection bit
  5151                           ;	CP = OFF, PFM and Data EEPROM code protection disabled
  5152   300009                     	org	3145737
  5153   300009  FF                 	db	255
  5154                           tosu	equ	0x4FF
  5155                           tosh	equ	0x4FE
  5156                           tosl	equ	0x4FD
  5157                           stkptr	equ	0x4FC
  5158                           pclatu	equ	0x4FB
  5159                           pclath	equ	0x4FA
  5160                           pcl	equ	0x4F9
  5161                           tblptru	equ	0x4F8
  5162                           tblptrh	equ	0x4F7
  5163                           tblptrl	equ	0x4F6
  5164                           tablat	equ	0x4F5
  5165                           prodh	equ	0x4F4
  5166                           prodl	equ	0x4F3
  5167                           indf0	equ	0x4EF
  5168                           postinc0	equ	0x4EE
  5169                           postdec0	equ	0x4ED
  5170                           preinc0	equ	0x4EC
  5171                           plusw0	equ	0x4EB
  5172                           fsr0h	equ	0x4EA
  5173                           fsr0l	equ	0x4E9
  5174                           wreg	equ	0x4E8
  5175                           indf1	equ	0x4E7
  5176                           postinc1	equ	0x4E6
  5177                           postdec1	equ	0x4E5
  5178                           preinc1	equ	0x4E4
  5179                           plusw1	equ	0x4E3
  5180                           fsr1h	equ	0x4E2
  5181                           fsr1l	equ	0x4E1
  5182                           bsr	equ	0x4E0
  5183                           indf2	equ	0x4DF
  5184                           postinc2	equ	0x4DE
  5185                           postdec2	equ	0x4DD
  5186                           preinc2	equ	0x4DC
  5187                           plusw2	equ	0x4DB
  5188                           fsr2h	equ	0x4DA
  5189                           fsr2l	equ	0x4D9
  5190                           status	equ	0x4D8

Data Sizes:
    Strings     44
    Constant    0
    Data        4
    BSS         0
    Persistent  0
    Stack       0

Auto Spaces:
    Space          Size  Autos    Used
    COMRAM           95     19      23
    BANK5           160      0       0
    BANK6           256      0       0
    BANK7           256      0       0
    BANK8           256      0       0
    BANK9           256      0       0
    BANK10          256      0       0
    BANK11          256      0       0
    BANK12          256      0       0
    BANK13          256      0       0
    BANK14          256      0       0
    BANK15          256      0       0
    BANK16          256      0       0
    BANK17          256      0       0
    BANK18          256      0       0
    BANK19          256      0       0
    BANK20          256      0       0
    BANK21          256      0       0
    BANK22          256      0       0
    BANK23          256      0       0
    BANK24          256      0       0
    BANK25          256      0       0
    BANK26          256      0       0
    BANK27          256      0       0
    BANK28          256      0       0
    BANK29          256      0       0
    BANK30          256      0       0
    BANK31          256      0       0
    BANK32          256      0       0
    BANK33          256      0       0
    BANK34          256      0       0
    BANK35          256      0       0
    BANK36          256      0       0

Pointer List with Targets:

    I2C_ESCRIBE_MENSAJE2@cadena	PTR const unsigned char  size(1) Largest target is 16
		 -> STR_1(CODE[16]), STR_2(CODE[16]), STR_3(CODE[12]), 

    strlen@a	PTR const unsigned char  size(1) Largest target is 16
		 -> STR_1(CODE[16]), STR_2(CODE[16]), STR_3(CODE[12]), 

    strlen@s	PTR const unsigned char  size(1) Largest target is 16
		 -> STR_1(CODE[16]), STR_2(CODE[16]), STR_3(CODE[12]), 


Critical Paths under _main in COMRAM

    _main->_I2C_LCD_ESCRIBE_VAR_CHAR
    _pantallazo->_I2C_ESCRIBE_MENSAJE2
    _I2C_POS_CURSOR->_I2C_ENVIA_LCD_CMD
    _I2C_ESCRIBE_MENSAJE2->_I2C_ENVIA_LCD_DATA
    _configuro->_I2C_LCD_INIT
    _I2C_LCD_INIT->_I2C_BORRAR_LCD
    _I2C_CURSOR_ONOFF->_I2C_ENVIA_LCD_CMD
    _I2C_CURSOR_HOME->_I2C_ENVIA_LCD_CMD
    _I2C_BORRAR_LCD->_I2C_ENVIA_LCD_CMD
    _I2C_ENVIA_LCD_CMD->_I2C1_WRITESINGLEBYTE
    _I2C_LCD_ESCRIBE_VAR_CHAR->___awdiv
    ___awdiv->___awmod
    _I2C_ENVIA_LCD_DATA->_I2C1_WRITESINGLEBYTE

Critical Paths under _CCP1_ISR in COMRAM

    None.

Critical Paths under _INT0_ISR in COMRAM

    None.

Critical Paths under _INT1_ISR in COMRAM

    None.

Critical Paths under _DEFAULT_ISR in COMRAM

    None.

Critical Paths under _main in BANK5

    None.

Critical Paths under _CCP1_ISR in BANK5

    None.

Critical Paths under _INT0_ISR in BANK5

    None.

Critical Paths under _INT1_ISR in BANK5

    None.

Critical Paths under _DEFAULT_ISR in BANK5

    None.

Critical Paths under _main in BANK6

    None.

Critical Paths under _CCP1_ISR in BANK6

    None.

Critical Paths under _INT0_ISR in BANK6

    None.

Critical Paths under _INT1_ISR in BANK6

    None.

Critical Paths under _DEFAULT_ISR in BANK6

    None.

Critical Paths under _main in BANK7

    None.

Critical Paths under _CCP1_ISR in BANK7

    None.

Critical Paths under _INT0_ISR in BANK7

    None.

Critical Paths under _INT1_ISR in BANK7

    None.

Critical Paths under _DEFAULT_ISR in BANK7

    None.

Critical Paths under _main in BANK8

    None.

Critical Paths under _CCP1_ISR in BANK8

    None.

Critical Paths under _INT0_ISR in BANK8

    None.

Critical Paths under _INT1_ISR in BANK8

    None.

Critical Paths under _DEFAULT_ISR in BANK8

    None.

Critical Paths under _main in BANK9

    None.

Critical Paths under _CCP1_ISR in BANK9

    None.

Critical Paths under _INT0_ISR in BANK9

    None.

Critical Paths under _INT1_ISR in BANK9

    None.

Critical Paths under _DEFAULT_ISR in BANK9

    None.

Critical Paths under _main in BANK10

    None.

Critical Paths under _CCP1_ISR in BANK10

    None.

Critical Paths under _INT0_ISR in BANK10

    None.

Critical Paths under _INT1_ISR in BANK10

    None.

Critical Paths under _DEFAULT_ISR in BANK10

    None.

Critical Paths under _main in BANK11

    None.

Critical Paths under _CCP1_ISR in BANK11

    None.

Critical Paths under _INT0_ISR in BANK11

    None.

Critical Paths under _INT1_ISR in BANK11

    None.

Critical Paths under _DEFAULT_ISR in BANK11

    None.

Critical Paths under _main in BANK12

    None.

Critical Paths under _CCP1_ISR in BANK12

    None.

Critical Paths under _INT0_ISR in BANK12

    None.

Critical Paths under _INT1_ISR in BANK12

    None.

Critical Paths under _DEFAULT_ISR in BANK12

    None.

Critical Paths under _main in BANK13

    None.

Critical Paths under _CCP1_ISR in BANK13

    None.

Critical Paths under _INT0_ISR in BANK13

    None.

Critical Paths under _INT1_ISR in BANK13

    None.

Critical Paths under _DEFAULT_ISR in BANK13

    None.

Critical Paths under _main in BANK14

    None.

Critical Paths under _CCP1_ISR in BANK14

    None.

Critical Paths under _INT0_ISR in BANK14

    None.

Critical Paths under _INT1_ISR in BANK14

    None.

Critical Paths under _DEFAULT_ISR in BANK14

    None.

Critical Paths under _main in BANK15

    None.

Critical Paths under _CCP1_ISR in BANK15

    None.

Critical Paths under _INT0_ISR in BANK15

    None.

Critical Paths under _INT1_ISR in BANK15

    None.

Critical Paths under _DEFAULT_ISR in BANK15

    None.

Critical Paths under _main in BANK16

    None.

Critical Paths under _CCP1_ISR in BANK16

    None.

Critical Paths under _INT0_ISR in BANK16

    None.

Critical Paths under _INT1_ISR in BANK16

    None.

Critical Paths under _DEFAULT_ISR in BANK16

    None.

Critical Paths under _main in BANK17

    None.

Critical Paths under _CCP1_ISR in BANK17

    None.

Critical Paths under _INT0_ISR in BANK17

    None.

Critical Paths under _INT1_ISR in BANK17

    None.

Critical Paths under _DEFAULT_ISR in BANK17

    None.

Critical Paths under _main in BANK18

    None.

Critical Paths under _CCP1_ISR in BANK18

    None.

Critical Paths under _INT0_ISR in BANK18

    None.

Critical Paths under _INT1_ISR in BANK18

    None.

Critical Paths under _DEFAULT_ISR in BANK18

    None.

Critical Paths under _main in BANK19

    None.

Critical Paths under _CCP1_ISR in BANK19

    None.

Critical Paths under _INT0_ISR in BANK19

    None.

Critical Paths under _INT1_ISR in BANK19

    None.

Critical Paths under _DEFAULT_ISR in BANK19

    None.

Critical Paths under _main in BANK20

    None.

Critical Paths under _CCP1_ISR in BANK20

    None.

Critical Paths under _INT0_ISR in BANK20

    None.

Critical Paths under _INT1_ISR in BANK20

    None.

Critical Paths under _DEFAULT_ISR in BANK20

    None.

Critical Paths under _main in BANK21

    None.

Critical Paths under _CCP1_ISR in BANK21

    None.

Critical Paths under _INT0_ISR in BANK21

    None.

Critical Paths under _INT1_ISR in BANK21

    None.

Critical Paths under _DEFAULT_ISR in BANK21

    None.

Critical Paths under _main in BANK22

    None.

Critical Paths under _CCP1_ISR in BANK22

    None.

Critical Paths under _INT0_ISR in BANK22

    None.

Critical Paths under _INT1_ISR in BANK22

    None.

Critical Paths under _DEFAULT_ISR in BANK22

    None.

Critical Paths under _main in BANK23

    None.

Critical Paths under _CCP1_ISR in BANK23

    None.

Critical Paths under _INT0_ISR in BANK23

    None.

Critical Paths under _INT1_ISR in BANK23

    None.

Critical Paths under _DEFAULT_ISR in BANK23

    None.

Critical Paths under _main in BANK24

    None.

Critical Paths under _CCP1_ISR in BANK24

    None.

Critical Paths under _INT0_ISR in BANK24

    None.

Critical Paths under _INT1_ISR in BANK24

    None.

Critical Paths under _DEFAULT_ISR in BANK24

    None.

Critical Paths under _main in BANK25

    None.

Critical Paths under _CCP1_ISR in BANK25

    None.

Critical Paths under _INT0_ISR in BANK25

    None.

Critical Paths under _INT1_ISR in BANK25

    None.

Critical Paths under _DEFAULT_ISR in BANK25

    None.

Critical Paths under _main in BANK26

    None.

Critical Paths under _CCP1_ISR in BANK26

    None.

Critical Paths under _INT0_ISR in BANK26

    None.

Critical Paths under _INT1_ISR in BANK26

    None.

Critical Paths under _DEFAULT_ISR in BANK26

    None.

Critical Paths under _main in BANK27

    None.

Critical Paths under _CCP1_ISR in BANK27

    None.

Critical Paths under _INT0_ISR in BANK27

    None.

Critical Paths under _INT1_ISR in BANK27

    None.

Critical Paths under _DEFAULT_ISR in BANK27

    None.

Critical Paths under _main in BANK28

    None.

Critical Paths under _CCP1_ISR in BANK28

    None.

Critical Paths under _INT0_ISR in BANK28

    None.

Critical Paths under _INT1_ISR in BANK28

    None.

Critical Paths under _DEFAULT_ISR in BANK28

    None.

Critical Paths under _main in BANK29

    None.

Critical Paths under _CCP1_ISR in BANK29

    None.

Critical Paths under _INT0_ISR in BANK29

    None.

Critical Paths under _INT1_ISR in BANK29

    None.

Critical Paths under _DEFAULT_ISR in BANK29

    None.

Critical Paths under _main in BANK30

    None.

Critical Paths under _CCP1_ISR in BANK30

    None.

Critical Paths under _INT0_ISR in BANK30

    None.

Critical Paths under _INT1_ISR in BANK30

    None.

Critical Paths under _DEFAULT_ISR in BANK30

    None.

Critical Paths under _main in BANK31

    None.

Critical Paths under _CCP1_ISR in BANK31

    None.

Critical Paths under _INT0_ISR in BANK31

    None.

Critical Paths under _INT1_ISR in BANK31

    None.

Critical Paths under _DEFAULT_ISR in BANK31

    None.

Critical Paths under _main in BANK32

    None.

Critical Paths under _CCP1_ISR in BANK32

    None.

Critical Paths under _INT0_ISR in BANK32

    None.

Critical Paths under _INT1_ISR in BANK32

    None.

Critical Paths under _DEFAULT_ISR in BANK32

    None.

Critical Paths under _main in BANK33

    None.

Critical Paths under _CCP1_ISR in BANK33

    None.

Critical Paths under _INT0_ISR in BANK33

    None.

Critical Paths under _INT1_ISR in BANK33

    None.

Critical Paths under _DEFAULT_ISR in BANK33

    None.

Critical Paths under _main in BANK34

    None.

Critical Paths under _CCP1_ISR in BANK34

    None.

Critical Paths under _INT0_ISR in BANK34

    None.

Critical Paths under _INT1_ISR in BANK34

    None.

Critical Paths under _DEFAULT_ISR in BANK34

    None.

Critical Paths under _main in BANK35

    None.

Critical Paths under _CCP1_ISR in BANK35

    None.

Critical Paths under _INT0_ISR in BANK35

    None.

Critical Paths under _INT1_ISR in BANK35

    None.

Critical Paths under _DEFAULT_ISR in BANK35

    None.

Critical Paths under _main in BANK36

    None.

Critical Paths under _CCP1_ISR in BANK36

    None.

Critical Paths under _INT0_ISR in BANK36

    None.

Critical Paths under _INT1_ISR in BANK36

    None.

Critical Paths under _DEFAULT_ISR in BANK36

    None.

Call Graph Tables:

 ---------------------------------------------------------------------------------
 (Depth) Function   	        Calls       Base Space   Used Autos Params    Refs
 ---------------------------------------------------------------------------------
 (0) _main                                                 0     0      0    4356
                 _I2C_ENVIA_LCD_DATA
               _I2C_ESCRIBE_MENSAJE2
           _I2C_LCD_ESCRIBE_VAR_CHAR
                     _I2C_POS_CURSOR
                          _configuro
                         _pantallazo
 ---------------------------------------------------------------------------------
 (1) _pantallazo                                           2     2      0    1169
                                             10 COMRAM     2     2      0
                     _I2C_BORRAR_LCD
               _I2C_ESCRIBE_MENSAJE2
                     _I2C_POS_CURSOR
 ---------------------------------------------------------------------------------
 (2) _I2C_POS_CURSOR                                       3     2      1     459
                                              6 COMRAM     3     2      1
                  _I2C_ENVIA_LCD_CMD
 ---------------------------------------------------------------------------------
 (2) _I2C_ESCRIBE_MENSAJE2                                 4     3      1     459
                                              6 COMRAM     4     3      1
                 _I2C_ENVIA_LCD_DATA
                             _strlen
 ---------------------------------------------------------------------------------
 (3) _strlen                                               3     1      2      91
                                              0 COMRAM     3     1      2
 ---------------------------------------------------------------------------------
 (1) _configuro                                            0     0      0     914
                       _I2C_LCD_INIT
 ---------------------------------------------------------------------------------
 (2) _I2C_LCD_INIT                                         2     2      0     914
                                              8 COMRAM     2     2      0
                          _I2C1_INIT
               _I2C1_WRITESINGLEBYTE
                     _I2C_BORRAR_LCD
                    _I2C_CURSOR_HOME
                   _I2C_CURSOR_ONOFF
 ---------------------------------------------------------------------------------
 (3) _I2C_CURSOR_ONOFF                                     1     1      0     309
                                              6 COMRAM     1     1      0
                  _I2C_ENVIA_LCD_CMD
 ---------------------------------------------------------------------------------
 (3) _I2C_CURSOR_HOME                                      0     0      0     251
                  _I2C_ENVIA_LCD_CMD
 ---------------------------------------------------------------------------------
 (2) _I2C_BORRAR_LCD                                       2     2      0     251
                                              6 COMRAM     2     2      0
                  _I2C_ENVIA_LCD_CMD
 ---------------------------------------------------------------------------------
 (3) _I2C_ENVIA_LCD_CMD                                    4     4      0     251
                                              2 COMRAM     4     4      0
               _I2C1_WRITESINGLEBYTE
 ---------------------------------------------------------------------------------
 (3) _I2C1_INIT                                            0     0      0       0
 ---------------------------------------------------------------------------------
 (1) _I2C_LCD_ESCRIBE_VAR_CHAR                             5     4      1    1104
                                             14 COMRAM     5     4      1
                 _I2C_ENVIA_LCD_DATA
                            ___awdiv
                            ___awmod
 ---------------------------------------------------------------------------------
 (2) ___awmod                                              6     2      4     302
                                              0 COMRAM     6     2      4
 ---------------------------------------------------------------------------------
 (2) ___awdiv                                              8     4      4     304
                                              6 COMRAM     8     4      4
                            ___awmod (ARG)
 ---------------------------------------------------------------------------------
 (3) _I2C_ENVIA_LCD_DATA                                   4     4      0     251
                                              2 COMRAM     4     4      0
               _I2C1_WRITESINGLEBYTE
 ---------------------------------------------------------------------------------
 (4) _I2C1_WRITESINGLEBYTE                                 2     1      1     103
                                              0 COMRAM     2     1      1
 ---------------------------------------------------------------------------------
 Estimated maximum stack depth 4
 ---------------------------------------------------------------------------------
 (Depth) Function   	        Calls       Base Space   Used Autos Params    Refs
 ---------------------------------------------------------------------------------
 (6) _CCP1_ISR                                             0     0      0       0
 ---------------------------------------------------------------------------------
 Estimated maximum stack depth 6
 ---------------------------------------------------------------------------------
 (Depth) Function   	        Calls       Base Space   Used Autos Params    Refs
 ---------------------------------------------------------------------------------
 (6) _INT0_ISR                                             0     0      0       0
 ---------------------------------------------------------------------------------
 Estimated maximum stack depth 6
 ---------------------------------------------------------------------------------
 (Depth) Function   	        Calls       Base Space   Used Autos Params    Refs
 ---------------------------------------------------------------------------------
 (6) _INT1_ISR                                             0     0      0       0
 ---------------------------------------------------------------------------------
 Estimated maximum stack depth 6
 ---------------------------------------------------------------------------------
 (Depth) Function   	        Calls       Base Space   Used Autos Params    Refs
 ---------------------------------------------------------------------------------
 (6) _DEFAULT_ISR                                          0     0      0       0
 ---------------------------------------------------------------------------------
 Estimated maximum stack depth 6
 ---------------------------------------------------------------------------------

 Call Graph Graphs:

 _main (ROOT)
   _I2C_ENVIA_LCD_DATA
     _I2C1_WRITESINGLEBYTE
   _I2C_ESCRIBE_MENSAJE2
     _I2C_ENVIA_LCD_DATA
     _strlen
   _I2C_LCD_ESCRIBE_VAR_CHAR
     _I2C_ENVIA_LCD_DATA
     ___awdiv
       ___awmod (ARG)
     ___awmod
   _I2C_POS_CURSOR
     _I2C_ENVIA_LCD_CMD
       _I2C1_WRITESINGLEBYTE
   _configuro
     _I2C_LCD_INIT
       _I2C1_INIT
       _I2C1_WRITESINGLEBYTE
       _I2C_BORRAR_LCD
         _I2C_ENVIA_LCD_CMD
       _I2C_CURSOR_HOME
         _I2C_ENVIA_LCD_CMD
       _I2C_CURSOR_ONOFF
         _I2C_ENVIA_LCD_CMD
   _pantallazo
     _I2C_BORRAR_LCD
     _I2C_ESCRIBE_MENSAJE2
     _I2C_POS_CURSOR

 _CCP1_ISR (ROOT)

 _INT0_ISR (ROOT)

 _INT1_ISR (ROOT)

 _DEFAULT_ISR (ROOT)

Address spaces:
Name               Size   Autos  Total    Usage
BIGRAM            8191      0       0      0.0%
BITBIGSFRh         626      0       0      0.0%
BITBIGSFRllh       353      0       0      0.0%
BITBIGSFR_1        256      0       0      0.0%
BITBANK36          256      0       0      0.0%
BANK36             256      0       0      0.0%
BITBANK35          256      0       0      0.0%
BANK35             256      0       0      0.0%
BITBANK34          256      0       0      0.0%
BANK34             256      0       0      0.0%
BITBANK33          256      0       0      0.0%
BANK33             256      0       0      0.0%
BITBANK32          256      0       0      0.0%
BANK32             256      0       0      0.0%
BITBANK31          256      0       0      0.0%
BANK31             256      0       0      0.0%
BITBANK30          256      0       0      0.0%
BANK30             256      0       0      0.0%
BITBANK29          256      0       0      0.0%
BANK29             256      0       0      0.0%
BITBANK28          256      0       0      0.0%
BANK28             256      0       0      0.0%
BITBANK27          256      0       0      0.0%
BANK27             256      0       0      0.0%
BITBANK26          256      0       0      0.0%
BANK26             256      0       0      0.0%
BITBANK25          256      0       0      0.0%
BANK25             256      0       0      0.0%
BITBANK24          256      0       0      0.0%
BANK24             256      0       0      0.0%
BITBANK23          256      0       0      0.0%
BANK23             256      0       0      0.0%
BITBANK22          256      0       0      0.0%
BANK22             256      0       0      0.0%
BITBANK21          256      0       0      0.0%
BANK21             256      0       0      0.0%
BITBANK20          256      0       0      0.0%
BANK20             256      0       0      0.0%
BITBANK19          256      0       0      0.0%
BANK19             256      0       0      0.0%
BITBANK18          256      0       0      0.0%
BANK18             256      0       0      0.0%
BITBANK17          256      0       0      0.0%
BANK17             256      0       0      0.0%
BITBANK16          256      0       0      0.0%
BANK16             256      0       0      0.0%
BITBANK15          256      0       0      0.0%
BANK15             256      0       0      0.0%
BITBANK14          256      0       0      0.0%
BANK14             256      0       0      0.0%
BITBANK13          256      0       0      0.0%
BANK13             256      0       0      0.0%
BITBANK12          256      0       0      0.0%
BANK12             256      0       0      0.0%
BITBANK11          256      0       0      0.0%
BANK11             256      0       0      0.0%
BITBANK10          256      0       0      0.0%
BANK10             256      0       0      0.0%
BITBANK9           256      0       0      0.0%
BANK9              256      0       0      0.0%
BITBANK8           256      0       0      0.0%
BANK8              256      0       0      0.0%
BITBANK7           256      0       0      0.0%
BANK7              256      0       0      0.0%
BITBANK6           256      0       0      0.0%
BANK6              256      0       0      0.0%
BITBIGSFRllll      173      0       0      0.0%
BITBANK5           160      0       0      0.0%
BANK5              160      0       0      0.0%
BITBIGSFRlh        119      0       0      0.0%
BITCOMRAM           95      0       0      0.0%
COMRAM              95     19      23     24.2%
BITBIGSFRlllh        5      0       0      0.0%
STACK                0      0       0      0.0%
DATA                 0      0      23      0.0%


Microchip Technology PIC18 Macro Assembler V2.50 build 20240725155939 
Symbol Table                                                                                   Sun Nov 17 19:14:54 2024

                               l51 2EAE                                 l60 2ED8  
                               l45 2E0E                                 l54 2EBC  
                               l70 2C46                                 l57 2ECA  
                               l66 2C36                                 l83 301C  
                     ___awdiv@sign 050C                                l100 2FB4  
                              l112 2E96                                l121 2D1A  
                              l115 2CB2                                l118 2FD4  
                              l137 2A4C                                l129 2980  
                              l251 2F18                                l248 2E54  
                              l523 2B0E                                l536 2BBC  
                              l969 2F50                                l997 2DC6  
                              l999 2DD4                                u400 2EBC  
                              u401 2EB8                                u410 2ECA  
                              u411 2EC6                                u420 2ED8  
                              u500 2E96                                u421 2ED4  
                              u501 2E92                                u510 2A5E  
                              u430 2F98                                u511 2A5A  
                              u431 2F94                                u520 2A78  
                              u600 2B72                                u440 2FAE  
                              u521 2A74                                u601 2B6E  
                              u441 2FAA                                u530 2A9E  
                              u610 2B88                                u450 2F44  
                              u531 2A9A                                u611 2B84  
                              u451 2F40                                u540 2ABC  
                              u620 2BAC                                u460 2BD0  
                              u541 2AB8                                u621 2BA8  
                              u461 2BCC                                u550 2AD8  
                              u470 2BEE                                u551 2AD4  
                              u471 2BEA                                u560 2AFE  
                              u480 2C0C                                u561 2AFA  
                              u481 2C08                                u570 2B20  
                              u490 2C2A                                u571 2B1C  
                              u491 2C26                                u580 2B3A  
                              u581 2B36                                u590 2B54  
                              u591 2B50                                u807 26A2  
                              u817 26B6                                u907 2762  
                              u827 26C8                                u747 2F08  
                              u917 2774                                u837 26DE  
                              u757 2C3C                                u927 2786  
                              u847 26F2                                u767 2638  
                              u937 2796                                u857 2704  
                              u777 2656                                u947 27A8  
                              u867 271A                                u787 267A  
                              u957 27BA                                u877 272E  
                              u797 268C                                u967 27CA  
                              u887 2740                                u977 27DC  
                              u897 2752                                u987 27EE  
                              u997 27FE                       ___awmod@sign 0506  
                              wreg 04E8                       _I2C_LCD_ADDR 0517  
                     _I2C_LCD_INIT 262E                  _I2C_ENVIA_LCD_CMD 2CB4  
                             l1001 2DFE                               l1003 2E0C  
                             l2001 2F14                               l2151 2D1C  
                             l1601 2CB6                               l2161 2D4A  
                             l2153 2D20                               l1611 2CF4  
                             l1603 2CCE                               l2163 2D50  
                             l2155 2D24                               l1613 2D00  
                             l1605 2CDA                               l1621 2F88  
                             l1701 266E                               l2165 2D5A  
                             l2157 2D36                               l1631 2C62  
                             l1615 2D08                               l1607 2CE2  
                             l1623 2F98                               l1711 269C  
                             l1703 2678                               l2167 2D60  
                             l2159 2D40                               l1641 2C96  
                             l1633 2C6E                               l1617 2D12  
                             l1609 2CEC                               l1625 2F9E  
                             l1801 2838                               l1721 26CE  
                             l1713 26AA                               l1705 2680  
                             l1643 2C9E                               l1635 2C76  
                             l1619 3016                               l1627 2FAE  
                             l1811 2864                               l1803 2842  
                             l1731 2702                               l1723 26D8  
                             l1715 26B4                               l1707 268A  
                             l1651 2F24                               l1645 2CAA  
                             l1637 2C82                               l1629 2C4A  
                             l1901 2AC2                               l1821 2898  
                             l1813 286C                               l1805 284A  
                             l1741 2734                               l1733 270A  
                             l1725 26E6                               l1717 26BC  
                             l1709 2692                               l1653 2F44  
                             l1661 2BC0                               l1639 2C8A  
                             l1903 2AD8                               l1911 2AEE  
                             l1831 28C6                               l1823 28A2  
                             l1815 2876                               l1807 2854  
                             l1751 2760                               l1743 273E  
                             l1735 2714                               l1727 26F0  
                             l1719 26C6                               l1647 2F1A  
                             l1671 2C0C                               l1663 2BD0  
                             l1593 2E9A                               l1913 2AFE  
                             l1905 2AE0                               l1921 2B12  
                             l1657 2FB6                               l1841 28F0  
                             l1833 28CC                               l1825 28AA  
                             l1817 287E                               l1809 285A  
                             l1761 278A                               l1753 2768  
                             l1745 2746                               l1737 2722  
                             l1729 26F8                               l1649 2F22  
                             l1681 2E62                               l1673 2C18  
                             l1665 2BDC                               l1595 2EA0  
                             l1915 2B06                               l1907 2AE2  
                             l1931 2B42                               l1923 2B20  
                             l1659 2FBC                               l1851 291C  
                             l1843 28FA                               l1835 28D6  
                             l1827 28B4                               l1819 2888  
                             l1771 27B8                               l1763 2794  
                             l1755 2772                               l1747 2750  
                             l1739 272C                               l1691 262E  
                             l1683 2E62                               l1675 2C2A  
                             l1667 2BEE                               l1597 2EA8  
                             l1909 2AE8                               l1941 2B88  
                             l1933 2B54                               l1925 2B28  
                             l1861 2946                               l1853 2924  
                             l1845 2900                               l1837 28DE  
                             l1829 28BC                               l1781 27E2  
                             l1773 27BE                               l1765 279C  
                             l1757 277A                               l1749 2756  
                             l1693 2632                               l1685 2E68  
                             l1669 2BFA                               l1677 2C36  
                             l1599 2EAC                               l1951 2BB4  
                             l1943 2B90                               l1935 2B5C  
                             l1927 2B2C                               l1919 2B10  
                             l1871 2976                               l1863 2950  
                             l1855 292E                               l1847 290A  
                             l1839 28E8                               l1791 280E  
                             l1783 27EC                               l1775 27C8  
                             l1767 27A6                               l1759 2784  
                             l1695 2642                               l1687 2E82  
                             l1679 2E56                               l1881 2A66  
                             l1945 2B96                               l1937 2B64  
                             l1929 2B3A                               l1961 2A12  
                             l1873 297A                               l1865 2958  
                             l1857 2934                               l1849 2912  
                             l1793 2816                               l1785 27F2  
                             l1777 27D0                               l1769 27AE  
                             l1697 264C                               l1689 2E84  
                             l1891 2A8C                               l1883 2A6A  
                             l1875 2A4E                               l1939 2B72  
                             l1947 2B9C                               l1955 2984  
                             l1867 2962                               l1859 293E  
                             l1795 2820                               l1787 27FC  
                             l1779 27DA                               l1699 2664  
                             l1971 2E32                               l1893 2A9E  
                             l1885 2A78                               l1877 2A50  
                             l1949 2BAC                               l1957 29F2  
                             l1965 2A2E                               l1869 2972  
                             l1797 2826                               l1789 2804  
                             l1981 2E46                               l1973 2E3E  
                             l1895 2AA6                               l1887 2A80  
                             l1879 2A5E                               l1959 29FE  
                             l1799 2830                               l1991 2E50  
                             l1983 2E48                               l1975 2E40  
                             l1967 2E10                               l1897 2AAE  
                             l1889 2A84                               l1985 2E4A  
                             l1977 2E42                               l1969 2E30  
                             l1993 2EDA                               l1899 2ABC  
                             l1987 2E4C                               l1979 2E44  
                             l1995 2EE4                               l1989 2E4E  
                             l1997 2EEC                               l1999 2EFE  
                             STR_1 2601                               STR_2 2611  
                             STR_3 2621                               u1007 2810  
                             u1017 2822                               u1107 28C8  
                             u1027 2832                               u1117 28D8  
                             u1037 2844                               u1207 2FC6  
                             u1127 28EA                               u1047 2856  
                             u1217 2CDC                               u1137 28FC  
                             u1057 2866                               u1227 2CEE  
                             u1147 290C                               u1067 2878  
                             u1237 2D02                               u1157 291E  
                             u1077 288E                               u1247 2D14  
                             u1167 2930                               u1087 28A4  
                             u1257 2C70                               u1177 2940  
                             u1097 28B6                               u1267 2C84  
                             u1187 2952                               u1277 2C98  
                             u1197 2968                               u1287 2CAC  
               ?_I2C_ENVIA_LCD_CMD 0501                               _WPUB 0409  
         I2C_ENVIA_LCD_CMD@command 0504                               _main 2D1C  
                 __end_of_CCP1_ISR 2DC6                               fsr1l 04E1  
                ??_I2C_CURSOR_HOME 0507                               start 0102  
              ??_I2C_ENVIA_LCD_CMD 0503                       ___param_bank 0000  
               _I2C_ENVIA_LCD_DATA 2C48                   __end_of_INT0_ISR 2FF6  
                 __end_of_INT1_ISR 3016                  __end_of_I2C1_INIT 2E10  
                            ?_main 0501                    __end_of___awdiv 2B10  
                  __end_of___awmod 2BBE                              _T1CLK 0321  
                  ___awdiv@divisor 0509                              _T1CON 031E  
                            i2l270 2DC4                              i2l284 3014  
                            i2l277 2FF4                              i2l289 3024  
                  ___awdiv@counter 050B                              _OSCEN 00B3  
              ?_I2C_ENVIA_LCD_DATA 0501                              _TRISB 04C7  
        __end_of_I2C_ENVIA_LCD_CMD 2D1C                              _horas 0516  
                   _I2C_BORRAR_LCD 2FB6                  ?_I2C_CURSOR_ONOFF 0501  
                            tablat 04F5                              status 04D8  
               ??_I2C_CURSOR_ONOFF 0507             I2C_CURSOR_ONOFF@estado 0507  
             ??_I2C_ENVIA_LCD_DATA 0503                    __initialization 2F52  
                     __end_of_main 2D72   __end_of_I2C_LCD_ESCRIBE_VAR_CHAR 2A4E  
          I2C_ESCRIBE_MENSAJE2@tam 0509                             ??_main 0514  
                    __activetblptr 0003             __end_of_I2C_BORRAR_LCD 2FD6  
                           _CCPR1H 0341                             _CCPR1L 0340  
                 ___awdiv@dividend 0507                             _ANSELB 0408  
                           _RC3PPS 0214                             _RC4PPS 0215  
                           i2l1561 2D88                             i2l1571 2DB6  
                           i2l1563 2D8A                             i2l1581 2FEC  
                           i2l1565 2D9C                             i2l1573 2DBC  
                           i2l1557 2D74                             i2l1591 3012  
                           i2l1583 2FF2                             i2l1567 2D9E  
                           i2l1575 2DC2                             i2l1559 2D76  
                           i2l1585 2FF8                             i2l1577 2FD8  
                           i2l1569 2DB0                             i2l1587 2FFA  
                           i2l1579 2FDA                             i2l1589 300C  
                           _OSCFRQ 00B1      I2C1_WRITESINGLEBYTE@direccion 0502  
                        ??___awdiv 050B                          ??___awmod 0505  
                 ___awdiv@quotient 050D                    ___awmod@divisor 0503  
                           isa$std 0001                    ___awmod@counter 0505  
                           _strlen 2F1A                          ?_CCP1_ISR 0501  
                     __pdataCOMRAM 0514                       __mediumconst 0000  
                           tblptrh 04F7                             tblptrl 04F6  
                           tblptru 04F8                    ?_I2C_BORRAR_LCD 0501  
                   _I2C_POS_CURSOR 2BBE                         __accesstop 0560  
          __end_of__initialization 2F80                          ?_INT0_ISR 0501  
                        ?_INT1_ISR 0501                      ___rparam_used 0001  
                   __pcstackCOMRAM 0501                     ivt0x8_undefint 0100  
            I2C_ESCRIBE_MENSAJE2@i 050A                         ??_CCP1_ISR 0501  
         _I2C_LCD_ESCRIBE_VAR_CHAR 2982                    _I2C_CURSOR_HOME 3016  
           __end_of_I2C_POS_CURSOR 2C48                         ??_INT0_ISR 0501  
                       ??_INT1_ISR 0501                            IVTBASEH 045E  
                          IVTBASEL 045D                            IVTBASEU 045F  
                          _I2C1CNT 028D                            _I2C1TXB 028C  
                          _CCP1CON 0342        I2C_ENVIA_LCD_DATA@lownibble 0506  
                          ?_strlen 0501                      ??_DEFAULT_ISR 0501  
                        _I2C1_INIT 2DC6                            _OSCCON1 00AD  
     __end_of_I2C_ESCRIBE_MENSAJE2 2E98                            i2u35_40 2D88  
                          i2u35_41 2D84                            i2u36_40 2D9C  
                          i2u36_41 2D98                            i2u37_40 2DB0  
                          i2u37_41 2DAC                            i2u38_40 2FEC  
                          i2u38_41 2FE8                            i2u39_40 300C  
                          i2u39_41 3008                    ?_I2C_POS_CURSOR 0507  
       I2C_ESCRIBE_MENSAJE2@cadena 0507                            __Hparam 0000  
                          __Lparam 0000                  __end_of_configuro 2E56  
                          ___awdiv 2A4E                            ___awmod 2B10  
                     __psmallconst 2600                            __pcinit 2F52  
                          __ramtop 2600                            __ptext0 2D1C  
                          __ptext1 2EDA                            __ptext2 2BBE  
                          __ptext3 2E56                            __ptext4 2F1A  
                          __ptext5 2E10                            __ptext6 262E  
                          __ptext7 2F86                            __ptext8 3016  
                          __ptext9 2FB6            __end_of_I2C_CURSOR_HOME 301E  
                      _I2C1CLKbits 029C                         ?_I2C1_INIT 0501  
       I2C_ENVIA_LCD_CMD@lownibble 0506                   ___awmod@dividend 0501  
                       _pantallazo 2EDA                            _minutos 0515  
   I2C_LCD_ESCRIBE_VAR_CHAR@decena 0511                        _I2C1PIRbits 029A  
              __end_of_DEFAULT_ISR 3026               end_of_initialization 2F80  
   I2C_LCD_ESCRIBE_VAR_CHAR@numero 0512     I2C_LCD_ESCRIBE_VAR_CHAR@unidad 0513  
  I2C_LCD_ESCRIBE_VAR_CHAR@centena 0510                            postdec1 04E5  
                          postinc0 04EE                 I2C_POS_CURSOR@fila 0509  
                          strlen@a 0503                            strlen@s 0501  
                 ??_I2C_BORRAR_LCD 0507                          _TRISCbits 04C8  
             _I2C_ESCRIBE_MENSAJE2 2E56         ??_I2C_LCD_ESCRIBE_VAR_CHAR 0510  
                    __pidataCOMRAM 301E                   ?_I2C_CURSOR_HOME 0501  
                      ??_I2C1_INIT 0501                        _DEFAULT_ISR 3024  
                   __end_of_strlen 2F52                start_initialization 2F52  
                      ?_pantallazo 0501                      ?_I2C_LCD_INIT 0501  
     __end_of_I2C1_WRITESINGLEBYTE 2EDA                         ivt0x8_base 0008  
            ?_I2C_ESCRIBE_MENSAJE2 0507       I2C_ENVIA_LCD_DATA@highnibble 0505  
                 _I2C_CURSOR_ONOFF 2F86                           ??_strlen 0503  
                 ??_I2C_POS_CURSOR 0508                     ??_I2C_LCD_INIT 0509  
I2C_LCD_ESCRIBE_VAR_CHAR@n_digitos 050F                           ?___awdiv 0507  
                         ?___awmod 0501                           _I2C1ADB1 028F  
                        _configuro 2E10                        __smallconst 2600  
                         _CCP1_ISR 2D74                           _INT0_ISR 2FD8  
                         _INT1_ISR 2FF8                           _PIE1bits 049F  
                         _PIE3bits 04A1                           _PIE6bits 04A4  
           ??_I2C_ESCRIBE_MENSAJE2 0508                      _I2C1STAT1bits 0299  
                         _PIR1bits 04AF                           _PIR3bits 04B1  
                         _PIR6bits 04B4               _I2C1_WRITESINGLEBYTE 2E98  
           I2C_ENVIA_LCD_DATA@data 0504                         ?_configuro 0501  
      I2C_ENVIA_LCD_CMD@highnibble 0505                        _INTCON0bits 04D6  
                        copy_data0 2F66         __end_of_I2C_ENVIA_LCD_DATA 2CB4  
            I2C_POS_CURSOR@columna 0507                           __Hrparam 0000  
             __end_of_I2C_LCD_INIT 2982                           __Lrparam 0000  
            ?_I2C1_WRITESINGLEBYTE 0501                         _ANSELCbits 0410  
                     ?_DEFAULT_ISR 0501                       ??_pantallazo 050B  
                     _I2C1CON0bits 0294                       _I2C1CON1bits 0295  
                     _I2C1CON2bits 0296                           __pivt0x8 0008  
         I2C1_WRITESINGLEBYTE@dato 0501                           __ptext10 2CB4  
                         __ptext11 2DC6                           __ptext20 3024  
                         __ptext12 2982                           __ptext13 2B10  
                         __ptext14 2A4E                           __ptext15 2C48  
                         __ptext16 2E98                           __ptext17 2D74  
                         __ptext18 2FD8                           __ptext19 2FF8  
                       _RC3I2Cbits 0287           __end_of_I2C_CURSOR_ONOFF 2FB6  
                       _RC4I2Cbits 0286                           _segundos 0514  
                         isa$xinst 0000                 __end_of_pantallazo 2F1A  
                       _ODCONCbits 0412                        ??_configuro 050B  
        ?_I2C_LCD_ESCRIBE_VAR_CHAR 050F                           intlevel2 0000  
           ??_I2C1_WRITESINGLEBYTE 0502  
