

Microchip MPLAB XC8 Assembler V2.45 build 20230818022343 
                                                                                               Mon Dec 04 12:11:06 2023

Microchip MPLAB XC8 C Compiler v2.45 (Free license) build 20230818022343 Og1 
     1                           	processor	18F57Q43
     2                           	fnconf	rparam,??,?,0
     3                           	pagewidth 120
     4                           	opt	flic
     5                           	psect	smallconst,global,reloc=2,class=SMALLCONST,delta=1,noexec
     6                           	psect	cinit,global,reloc=2,class=CODE,delta=1
     7                           	psect	cstackCOMRAM,global,class=COMRAM,space=1,delta=1,lowdata,noexec
     8                           	psect	text0,global,reloc=2,class=CODE,delta=1
     9                           	psect	text1,global,reloc=2,class=CODE,delta=1
    10                           	psect	text2,global,reloc=2,class=CODE,delta=1
    11                           	psect	text3,global,reloc=2,class=CODE,delta=1
    12                           	psect	text4,global,reloc=2,class=CODE,delta=1
    13                           	psect	text5,global,reloc=2,class=CODE,delta=1
    14                           	psect	text6,global,reloc=2,class=CODE,delta=1
    15                           	psect	text7,global,reloc=2,class=CODE,delta=1
    16                           	psect	text8,global,reloc=2,class=CODE,delta=1
    17                           	psect	text9,global,reloc=2,class=CODE,delta=1
    18                           	psect	text10,global,reloc=2,class=CODE,delta=1
    19                           	psect	text11,global,reloc=2,class=CODE,delta=1,group=1
    20                           	psect	text12,global,reloc=2,class=CODE,delta=1,group=1
    21                           	psect	text13,global,reloc=2,class=CODE,delta=1
    22                           	psect	text14,global,reloc=2,class=CODE,delta=1,group=2
    23                           	psect	text15,global,reloc=2,class=CODE,delta=1
    24                           	psect	text16,global,reloc=2,class=CODE,delta=1
    25                           	psect	intsave_regs,global,class=BIGRAM,space=1,delta=1,noexec
    26                           	psect	rparam,global,class=COMRAM,space=1,delta=1,noexec
    27                           	psect	config,global,abs,ovrld,class=CONFIG,space=4,delta=1,noexec
    28   000000                     
    29                           ; Generated 18/07/2023 GMT
    30                           ; 
    31                           ; Copyright © 2023, Microchip Technology Inc. and its subsidiaries ("Microchip")
    32                           ; All rights reserved.
    33                           ; 
    34                           ; This software is developed by Microchip Technology Inc. and its subsidiaries ("Microch
      +                          ip").
    35                           ; 
    36                           ; Redistribution and use in source and binary forms, with or without modification, are
    37                           ; permitted provided that the following conditions are met:
    38                           ; 
    39                           ;     1. Redistributions of source code must retain the above copyright notice, this lis
      +                          t of
    40                           ;        conditions and the following disclaimer.
    41                           ; 
    42                           ;     2. Redistributions in binary form must reproduce the above copyright notice, this 
      +                          list
    43                           ;        of conditions and the following disclaimer in the documentation and/or other
    44                           ;        materials provided with the distribution. Publication is not required when
    45                           ;        this file is used in an embedded application.
    46                           ; 
    47                           ;     3. Microchip's name may not be used to endorse or promote products derived from th
      +                          is
    48                           ;        software without specific prior written permission.
    49                           ; 
    50                           ; THIS SOFTWARE IS PROVIDED BY MICROCHIP "AS IS" AND ANY EXPRESS OR IMPLIED WARRANTIES,
    51                           ; INCLUDING, BUT NOT LIMITED TO, THE IMPLIED WARRANTIES OF MERCHANTABILITY AND FITNESS F
      +                          OR
    52                           ; PURPOSE ARE DISCLAIMED.  IN NO EVENT SHALL MICROCHIP BE LIABLE FOR ANY DIRECT, INDIREC
      +                          T,
    53                           ; INCIDENTAL, SPECIAL, EXEMPLARY, OR CONSEQUENTIAL DAMAGES (INCLUDING BUT NOT LIMITED TO
    54                           ; PROCUREMENT OF SUBSTITUTE GOODS OR SERVICES; LOSS OF USE, DATA OR PROFITS; OR BUSINESS
    55                           ; INTERRUPTION) HOWSOEVER CAUSED AND ON ANY THEORY OF LIABILITY, WHETHER IN CONTRACT, ST
      +                          RICT
    56                           ; LIABILITY, OR TORT (INCLUDING NEGLIGENCE OR OTHERWISE) ARISING IN ANY WAY OUT OF THE U
      +                          SE OF
    57                           ; THIS SOFTWARE, EVEN IF ADVISED OF THE POSSIBILITY OF SUCH DAMAGE.
    58                           ; 
    59                           ; 
    60                           ; Code-generator required, PIC18F57Q43 Definitions
    61                           ; 
    62                           ; SFR Addresses
    63   000000                     _I2C1CON1bits	set	661
    64   000000                     _I2C1CON2bits	set	662
    65   000000                     _I2C1CLKbits	set	668
    66   000000                     _TMR1	set	796
    67   000000                     _T1CONbits	set	798
    68   000000                     _OSCCON1	set	173
    69   000000                     _RB4PPS	set	525
    70   000000                     _RB5PPS	set	526
    71   000000                     _ANSELBbits	set	1032
    72   000000                     _TRISBbits	set	1223
    73   000000                     _TRISCbits	set	1224
    74   000000                     _TRISE	set	1226
    75   000000                     _ODCONBbits	set	1034
    76   000000                     _ANSELCbits	set	1040
    77   000000                     _ANSELE	set	1056
    78   000000                     _I2C1TXB	set	652
    79   000000                     _I2C1CNT	set	653
    80   000000                     _I2C1CON0bits	set	660
    81   000000                     _TMR1L	set	796
    82   000000                     _TMR1H	set	797
    83   000000                     _T1CON	set	798
    84   000000                     _T1CLK	set	801
    85   000000                     _I2C1STAT1bits	set	665
    86   000000                     _I2C1ADB1	set	655
    87   000000                     _I2C1PIRbits	set	666
    88   000000                     _OSCFRQ	set	177
    89   000000                     _OSCEN	set	179
    90   000000                     _PORTCbits	set	1232
    91   000000                     _LATEbits	set	1218
    92                           
    93                           	psect	smallconst
    94   002500                     __psmallconst:
    95                           	callstack 0
    96   002500  00                 	db	0
    97   002501                     STR_1:
    98                           
    99                           ; BSR set to: 2
   100   002501  48                 	db	72	;'H'
   101   002502  6F                 	db	111	;'o'
   102   002503  6C                 	db	108	;'l'
   103   002504  61                 	db	97	;'a'
   104   002505  20                 	db	32
   105   002506  6D                 	db	109	;'m'
   106   002507  75                 	db	117	;'u'
   107   002508  6E                 	db	110	;'n'
   108   002509  64                 	db	100	;'d'
   109   00250A  6F                 	db	111	;'o'
   110   00250B  20                 	db	32
   111   00250C  49                 	db	73	;'I'
   112   00250D  32                 	db	50	;'2'
   113   00250E  43                 	db	67	;'C'
   114   00250F  00                 	db	0
   115   002510                     STR_2:
   116                           
   117                           ; BSR set to: 2
   118   002510  48                 	db	72	;'H'
   119   002511  43                 	db	67	;'C'
   120   002512  53                 	db	83	;'S'
   121   002513  52                 	db	82	;'R'
   122   002514  30                 	db	48	;'0'
   123   002515  34                 	db	52	;'4'
   124   002516  2D                 	db	45
   125   002517  30                 	db	48	;'0'
   126   002518  3A                 	db	58	;':'
   127   002519  00                 	db	0
   128   00251A                     STR_4:
   129                           
   130                           ; BSR set to: 2
   131   00251A  48                 	db	72	;'H'
   132   00251B  43                 	db	67	;'C'
   133   00251C  53                 	db	83	;'S'
   134   00251D  52                 	db	82	;'R'
   135   00251E  30                 	db	48	;'0'
   136   00251F  34                 	db	52	;'4'
   137   002520  2D                 	db	45
   138   002521  31                 	db	49	;'1'
   139   002522  3A                 	db	58	;':'
   140   002523  00                 	db	0
   141   002524                     STR_3:
   142                           
   143                           ; BSR set to: 2
   144   002524  63                 	db	99	;'c'
   145   002525  6D                 	db	109	;'m'
   146   002526  00                 	db	0
   147   002527  00                 	db	0	; dummy byte at the end
   148   000000                     
   149                           ; #config settings
   150                           
   151                           	psect	cinit
   152   0031B8                     __pcinit:
   153                           	callstack 0
   154   0031B8                     start_initialization:
   155                           	callstack 0
   156   0031B8                     __initialization:
   157                           	callstack 0
   158   0031B8                     end_of_initialization:
   159                           	callstack 0
   160   0031B8                     __end_of__initialization:
   161                           	callstack 0
   162   0031B8  0100               	movlb	0
   163   0031BA  EFB3  F016         	goto	_main	;jump to C main() function
   164                           
   165                           	psect	cstackCOMRAM
   166   000501                     __pcstackCOMRAM:
   167                           	callstack 0
   168   000501                     ?_strlen:
   169                           	callstack 0
   170   000501                     ?_Read_HCSR04:
   171                           	callstack 0
   172   000501                     ?___lwmod:
   173                           	callstack 0
   174   000501                     I2C1_WRITESINGLEBYTE@dato:
   175                           	callstack 0
   176   000501                     strlen@s:
   177                           	callstack 0
   178   000501                     ___lwmod@dividend:
   179                           	callstack 0
   180                           
   181                           ; 2 bytes @ 0x0
   182   000501                     	ds	1
   183   000502                     I2C1_WRITESINGLEBYTE@direccion:
   184                           	callstack 0
   185                           
   186                           ; 1 bytes @ 0x1
   187   000502                     	ds	1
   188   000503                     ??_I2C_ENVIA_LCD_CMD:
   189   000503                     ??_I2C_ENVIA_LCD_DATA:
   190   000503                     ??_Read_HCSR04:
   191   000503                     strlen@a:
   192                           	callstack 0
   193   000503                     ___lwmod@divisor:
   194                           	callstack 0
   195                           
   196                           ; 2 bytes @ 0x2
   197   000503                     	ds	1
   198   000504                     I2C_ENVIA_LCD_DATA@data:
   199                           	callstack 0
   200   000504                     I2C_ENVIA_LCD_CMD@command:
   201                           	callstack 0
   202                           
   203                           ; 1 bytes @ 0x3
   204   000504                     	ds	1
   205   000505                     I2C_ENVIA_LCD_DATA@highnibble:
   206                           	callstack 0
   207   000505                     I2C_ENVIA_LCD_CMD@highnibble:
   208                           	callstack 0
   209   000505                     ___lwmod@counter:
   210                           	callstack 0
   211   000505                     Read_HCSR04@cuentas:
   212                           	callstack 0
   213                           
   214                           ; 2 bytes @ 0x4
   215   000505                     	ds	1
   216   000506                     ?___lwdiv:
   217                           	callstack 0
   218   000506                     I2C_ENVIA_LCD_DATA@lownibble:
   219                           	callstack 0
   220   000506                     I2C_ENVIA_LCD_CMD@lownibble:
   221                           	callstack 0
   222   000506                     ___lwdiv@dividend:
   223                           	callstack 0
   224                           
   225                           ; 2 bytes @ 0x5
   226   000506                     	ds	1
   227   000507                     I2C_POS_CURSOR@columna:
   228                           	callstack 0
   229   000507                     I2C_CURSOR_ONOFF@estado:
   230                           	callstack 0
   231   000507                     I2C_ESCRIBE_MENSAJE2@cadena:
   232                           	callstack 0
   233   000507                     Read_HCSR04@numero:
   234                           	callstack 0
   235                           
   236                           ; 1 bytes @ 0x6
   237   000507                     	ds	1
   238   000508                     ??_I2C_ESCRIBE_MENSAJE2:
   239   000508                     ??_I2C_LCD_INIT:
   240   000508                     I2C_POS_CURSOR@fila:
   241                           	callstack 0
   242   000508                     ___lwdiv@divisor:
   243                           	callstack 0
   244                           
   245                           ; 2 bytes @ 0x7
   246   000508                     	ds	1
   247   000509                     I2C_ESCRIBE_MENSAJE2@tam:
   248                           	callstack 0
   249                           
   250                           ; 1 bytes @ 0x8
   251   000509                     	ds	1
   252   00050A                     I2C_ESCRIBE_MENSAJE2@i:
   253                           	callstack 0
   254   00050A                     ___lwdiv@quotient:
   255                           	callstack 0
   256                           
   257                           ; 2 bytes @ 0x9
   258   00050A                     	ds	2
   259   00050C                     ___lwdiv@counter:
   260                           	callstack 0
   261                           
   262                           ; 1 bytes @ 0xB
   263   00050C                     	ds	1
   264   00050D                     I2C_LCD_ESCRIBE_VAR_INT@numero:
   265                           	callstack 0
   266                           
   267                           ; 2 bytes @ 0xC
   268   00050D                     	ds	2
   269   00050F                     I2C_LCD_ESCRIBE_VAR_INT@n_digitos:
   270                           	callstack 0
   271                           
   272                           ; 1 bytes @ 0xE
   273   00050F                     	ds	1
   274   000510                     I2C_LCD_ESCRIBE_VAR_INT@punto:
   275                           	callstack 0
   276                           
   277                           ; 1 bytes @ 0xF
   278   000510                     	ds	1
   279   000511                     ??_I2C_LCD_ESCRIBE_VAR_INT:
   280                           
   281                           ; 1 bytes @ 0x10
   282   000511                     	ds	2
   283   000513                     I2C_LCD_ESCRIBE_VAR_INT@d_millar:
   284                           	callstack 0
   285                           
   286                           ; 1 bytes @ 0x12
   287   000513                     	ds	1
   288   000514                     I2C_LCD_ESCRIBE_VAR_INT@millar:
   289                           	callstack 0
   290                           
   291                           ; 1 bytes @ 0x13
   292   000514                     	ds	1
   293   000515                     I2C_LCD_ESCRIBE_VAR_INT@centena:
   294                           	callstack 0
   295                           
   296                           ; 1 bytes @ 0x14
   297   000515                     	ds	1
   298   000516                     I2C_LCD_ESCRIBE_VAR_INT@decena:
   299                           	callstack 0
   300                           
   301                           ; 1 bytes @ 0x15
   302   000516                     	ds	1
   303   000517                     I2C_LCD_ESCRIBE_VAR_INT@unidad:
   304                           	callstack 0
   305                           
   306                           ; 1 bytes @ 0x16
   307   000517                     	ds	1
   308   000518                     ??_main:
   309                           
   310                           ; 1 bytes @ 0x17
   311   000518                     	ds	2
   312                           
   313 ;;
   314 ;;Main: autosize = 0, tempsize = 2, incstack = 0, save=0
   315 ;;
   316 ;; *************** function _main *****************
   317 ;; Defined at:
   318 ;;		line 71 in file "maincode01.c"
   319 ;; Parameters:    Size  Location     Type
   320 ;;		None
   321 ;; Auto vars:     Size  Location     Type
   322 ;;		None
   323 ;; Return value:  Size  Location     Type
   324 ;;                  1    wreg      void 
   325 ;; Registers used:
   326 ;;		wreg, status,2, status,0, tblptrl, tblptrh, tblptru, cstack
   327 ;; Tracked objects:
   328 ;;		On entry : 0/0
   329 ;;		On exit  : 0/0
   330 ;;		Unchanged: 0/0
   331 ;; Data sizes:     COMRAM   BANK5   BANK6   BANK7   BANK8   BANK9  BANK10  BANK11  BANK12  BANK13  BANK14  BANK15  BANK1
      +6  BANK17  BANK18  BANK19  BANK20  BANK21  BANK22  BANK23  BANK24  BANK25  BANK26  BANK27  BANK28  BANK29  BANK30  BANK3
      +1  BANK32  BANK33  BANK34  BANK35  BANK36
   332 ;;      Params:         0       0       0       0       0       0       0       0       0       0       0       0       
      +0       0       0       0       0       0       0       0       0       0       0       0       0       0       0       
      +0       0       0       0       0       0
   333 ;;      Locals:         0       0       0       0       0       0       0       0       0       0       0       0       
      +0       0       0       0       0       0       0       0       0       0       0       0       0       0       0       
      +0       0       0       0       0       0
   334 ;;      Temps:          2       0       0       0       0       0       0       0       0       0       0       0       
      +0       0       0       0       0       0       0       0       0       0       0       0       0       0       0       
      +0       0       0       0       0       0
   335 ;;      Totals:         2       0       0       0       0       0       0       0       0       0       0       0       
      +0       0       0       0       0       0       0       0       0       0       0       0       0       0       0       
      +0       0       0       0       0       0
   336 ;;Total ram usage:        2 bytes
   337 ;; Hardware stack levels required when called: 5
   338 ;; This function calls:
   339 ;;		_I2C_BORRAR_LCD
   340 ;;		_I2C_ESCRIBE_MENSAJE2
   341 ;;		_I2C_LCD_ESCRIBE_VAR_INT
   342 ;;		_I2C_POS_CURSOR
   343 ;;		_Read_HCSR04
   344 ;;		_configuro
   345 ;; This function is called by:
   346 ;;		Startup code after reset
   347 ;; This function uses a non-reentrant model
   348 ;;
   349                           
   350                           	psect	text0
   351   002D66                     __ptext0:
   352                           	callstack 0
   353   002D66                     _main:
   354                           	callstack 122
   355   002D66                     
   356                           ;maincode01.c: 72:     configuro();
   357   002D66  EC8D  F018         	call	_configuro	;wreg free
   358                           
   359                           ;maincode01.c: 73:     I2C_POS_CURSOR(1,0);
   360   002D6A  0E00               	movlw	0
   361   002D6C  6E07               	movwf	I2C_POS_CURSOR@columna^(0+1280),c
   362   002D6E  0E01               	movlw	1
   363   002D70  EC1B  F017         	call	_I2C_POS_CURSOR
   364   002D74                     
   365                           ;maincode01.c: 74:     I2C_ESCRIBE_MENSAJE2("Hola mundo I2C");
   366   002D74  0E01               	movlw	low STR_1
   367   002D76  6E07               	movwf	I2C_ESCRIBE_MENSAJE2@cadena^(0+1280),c
   368   002D78  EC2E  F018         	call	_I2C_ESCRIBE_MENSAJE2	;wreg free
   369   002D7C                     
   370                           ;maincode01.c: 75:     _delay((unsigned long)((3000)*(32000000UL/4000.0)));
   371   002D7C  0E7A               	movlw	122
   372   002D7E  6E19               	movwf	(??_main+1)^(0+1280),c
   373   002D80  0EC1               	movlw	193
   374   002D82  6E18               	movwf	??_main^(0+1280),c
   375   002D84  0E82               	movlw	130
   376   002D86                     u697:
   377   002D86  2EE8               	decfsz	wreg,f,c
   378   002D88  D7FE               	bra	u697
   379   002D8A  2E18               	decfsz	??_main^(0+1280),f,c
   380   002D8C  D7FC               	bra	u697
   381   002D8E  2E19               	decfsz	(??_main+1)^(0+1280),f,c
   382   002D90  D7FA               	bra	u697
   383   002D92                     
   384                           ;maincode01.c: 76:     I2C_BORRAR_LCD();
   385   002D92  ECD8  F018         	call	_I2C_BORRAR_LCD	;wreg free
   386   002D96                     l2192:
   387                           
   388                           ;maincode01.c: 78:         I2C_POS_CURSOR(1,0);
   389   002D96  0E00               	movlw	0
   390   002D98  6E07               	movwf	I2C_POS_CURSOR@columna^(0+1280),c
   391   002D9A  0E01               	movlw	1
   392   002D9C  EC1B  F017         	call	_I2C_POS_CURSOR
   393   002DA0                     
   394                           ;maincode01.c: 79:         I2C_ESCRIBE_MENSAJE2("HCSR04-0:");
   395   002DA0  0E10               	movlw	low STR_2
   396   002DA2  6E07               	movwf	I2C_ESCRIBE_MENSAJE2@cadena^(0+1280),c
   397   002DA4  EC2E  F018         	call	_I2C_ESCRIBE_MENSAJE2	;wreg free
   398   002DA8                     
   399                           ;maincode01.c: 80:         I2C_LCD_ESCRIBE_VAR_INT(Read_HCSR04(0),5,0);
   400   002DA8  0E00               	movlw	0
   401   002DAA  EC3B  F016         	call	_Read_HCSR04
   402   002DAE  C501  F50D         	movff	?_Read_HCSR04,I2C_LCD_ESCRIBE_VAR_INT@numero
   403   002DB2  C502  F50E         	movff	?_Read_HCSR04+1,I2C_LCD_ESCRIBE_VAR_INT@numero+1
   404   002DB6  0E05               	movlw	5
   405   002DB8  6E0F               	movwf	I2C_LCD_ESCRIBE_VAR_INT@n_digitos^(0+1280),c
   406   002DBA  0E00               	movlw	0
   407   002DBC  6E10               	movwf	I2C_LCD_ESCRIBE_VAR_INT@punto^(0+1280),c
   408   002DBE  EC94  F012         	call	_I2C_LCD_ESCRIBE_VAR_INT	;wreg free
   409   002DC2                     
   410                           ;maincode01.c: 81:         I2C_ESCRIBE_MENSAJE2("cm");
   411   002DC2  0E24               	movlw	low STR_3
   412   002DC4  6E07               	movwf	I2C_ESCRIBE_MENSAJE2@cadena^(0+1280),c
   413   002DC6  EC2E  F018         	call	_I2C_ESCRIBE_MENSAJE2	;wreg free
   414   002DCA                     
   415                           ;maincode01.c: 82:         _delay((unsigned long)((100)*(32000000UL/4000.0)));
   416   002DCA  0E05               	movlw	5
   417   002DCC  6E19               	movwf	(??_main+1)^(0+1280),c
   418   002DCE  0E0F               	movlw	15
   419   002DD0  6E18               	movwf	??_main^(0+1280),c
   420   002DD2  0EF1               	movlw	241
   421   002DD4                     u707:
   422   002DD4  2EE8               	decfsz	wreg,f,c
   423   002DD6  D7FE               	bra	u707
   424   002DD8  2E18               	decfsz	??_main^(0+1280),f,c
   425   002DDA  D7FC               	bra	u707
   426   002DDC  2E19               	decfsz	(??_main+1)^(0+1280),f,c
   427   002DDE  D7FA               	bra	u707
   428   002DE0  0000               	nop	
   429   002DE2                     
   430                           ;maincode01.c: 83:         I2C_POS_CURSOR(2,0);
   431   002DE2  0E00               	movlw	0
   432   002DE4  6E07               	movwf	I2C_POS_CURSOR@columna^(0+1280),c
   433   002DE6  0E02               	movlw	2
   434   002DE8  EC1B  F017         	call	_I2C_POS_CURSOR
   435   002DEC                     
   436                           ;maincode01.c: 84:         I2C_ESCRIBE_MENSAJE2("HCSR04-1:");
   437   002DEC  0E1A               	movlw	low STR_4
   438   002DEE  6E07               	movwf	I2C_ESCRIBE_MENSAJE2@cadena^(0+1280),c
   439   002DF0  EC2E  F018         	call	_I2C_ESCRIBE_MENSAJE2	;wreg free
   440                           
   441                           ;maincode01.c: 85:         I2C_LCD_ESCRIBE_VAR_INT(Read_HCSR04(1),5,0);
   442   002DF4  0E01               	movlw	1
   443   002DF6  EC3B  F016         	call	_Read_HCSR04
   444   002DFA  C501  F50D         	movff	?_Read_HCSR04,I2C_LCD_ESCRIBE_VAR_INT@numero
   445   002DFE  C502  F50E         	movff	?_Read_HCSR04+1,I2C_LCD_ESCRIBE_VAR_INT@numero+1
   446   002E02  0E05               	movlw	5
   447   002E04  6E0F               	movwf	I2C_LCD_ESCRIBE_VAR_INT@n_digitos^(0+1280),c
   448   002E06  0E00               	movlw	0
   449   002E08  6E10               	movwf	I2C_LCD_ESCRIBE_VAR_INT@punto^(0+1280),c
   450   002E0A  EC94  F012         	call	_I2C_LCD_ESCRIBE_VAR_INT	;wreg free
   451   002E0E                     
   452                           ;maincode01.c: 86:         I2C_ESCRIBE_MENSAJE2("cm");
   453   002E0E  0E24               	movlw	low STR_3
   454   002E10  6E07               	movwf	I2C_ESCRIBE_MENSAJE2@cadena^(0+1280),c
   455   002E12  EC2E  F018         	call	_I2C_ESCRIBE_MENSAJE2	;wreg free
   456   002E16                     
   457                           ;maincode01.c: 87:         _delay((unsigned long)((100)*(32000000UL/4000.0)));
   458   002E16  0E05               	movlw	5
   459   002E18  6E19               	movwf	(??_main+1)^(0+1280),c
   460   002E1A  0E0F               	movlw	15
   461   002E1C  6E18               	movwf	??_main^(0+1280),c
   462   002E1E  0EF1               	movlw	241
   463   002E20                     u717:
   464   002E20  2EE8               	decfsz	wreg,f,c
   465   002E22  D7FE               	bra	u717
   466   002E24  2E18               	decfsz	??_main^(0+1280),f,c
   467   002E26  D7FC               	bra	u717
   468   002E28  2E19               	decfsz	(??_main+1)^(0+1280),f,c
   469   002E2A  D7FA               	bra	u717
   470   002E2C  0000               	nop	
   471   002E2E  EFCB  F016         	goto	l2192
   472   002E32  EFFE  F0FF         	goto	start
   473   002E36                     __end_of_main:
   474                           	callstack 0
   475                           
   476 ;; *************** function _configuro *****************
   477 ;; Defined at:
   478 ;;		line 6 in file "maincode01.c"
   479 ;; Parameters:    Size  Location     Type
   480 ;;		None
   481 ;; Auto vars:     Size  Location     Type
   482 ;;		None
   483 ;; Return value:  Size  Location     Type
   484 ;;                  1    wreg      void 
   485 ;; Registers used:
   486 ;;		wreg, status,2, status,0, cstack
   487 ;; Tracked objects:
   488 ;;		On entry : 0/0
   489 ;;		On exit  : 0/0
   490 ;;		Unchanged: 0/0
   491 ;; Data sizes:     COMRAM   BANK5   BANK6   BANK7   BANK8   BANK9  BANK10  BANK11  BANK12  BANK13  BANK14  BANK15  BANK1
      +6  BANK17  BANK18  BANK19  BANK20  BANK21  BANK22  BANK23  BANK24  BANK25  BANK26  BANK27  BANK28  BANK29  BANK30  BANK3
      +1  BANK32  BANK33  BANK34  BANK35  BANK36
   492 ;;      Params:         0       0       0       0       0       0       0       0       0       0       0       0       
      +0       0       0       0       0       0       0       0       0       0       0       0       0       0       0       
      +0       0       0       0       0       0
   493 ;;      Locals:         0       0       0       0       0       0       0       0       0       0       0       0       
      +0       0       0       0       0       0       0       0       0       0       0       0       0       0       0       
      +0       0       0       0       0       0
   494 ;;      Temps:          0       0       0       0       0       0       0       0       0       0       0       0       
      +0       0       0       0       0       0       0       0       0       0       0       0       0       0       0       
      +0       0       0       0       0       0
   495 ;;      Totals:         0       0       0       0       0       0       0       0       0       0       0       0       
      +0       0       0       0       0       0       0       0       0       0       0       0       0       0       0       
      +0       0       0       0       0       0
   496 ;;Total ram usage:        0 bytes
   497 ;; Hardware stack levels used: 1
   498 ;; Hardware stack levels required when called: 4
   499 ;; This function calls:
   500 ;;		_I2C_LCD_INIT
   501 ;; This function is called by:
   502 ;;		_main
   503 ;; This function uses a non-reentrant model
   504 ;;
   505                           
   506                           	psect	text1
   507   00311A                     __ptext1:
   508                           	callstack 0
   509   00311A                     _configuro:
   510                           	callstack 122
   511   00311A                     
   512                           ;maincode01.c: 7:     OSCCON1 = 0x60;
   513   00311A  0E60               	movlw	96
   514   00311C  0100               	movlb	0	; () banked
   515   00311E  6FAD               	movwf	173,b	;volatile
   516                           
   517                           ;maincode01.c: 8:     OSCFRQ = 0x06;
   518   003120  0E06               	movlw	6
   519   003122  6FB1               	movwf	177,b	;volatile
   520                           
   521                           ;maincode01.c: 9:     OSCEN = 0x40;
   522   003124  0E40               	movlw	64
   523   003126  6FB3               	movwf	179,b	;volatile
   524   003128                     
   525                           ; BSR set to: 0
   526                           ;maincode01.c: 11:     I2C_LCD_INIT();
   527   003128  EC91  F014         	call	_I2C_LCD_INIT	;wreg free
   528   00312C                     
   529                           ;maincode01.c: 13:     TRISE = 0xF8;
   530   00312C  0EF8               	movlw	248
   531   00312E  6ECA               	movwf	202,c	;volatile
   532   003130                     
   533                           ;maincode01.c: 14:     ANSELE = 0xF8;
   534   003130  0EF8               	movlw	248
   535   003132  0104               	movlb	4	; () banked
   536   003134  6F20               	movwf	32,b	;volatile
   537   003136                     
   538                           ; BSR set to: 4
   539                           ;maincode01.c: 15:     TRISCbits.TRISC0 = 1;
   540   003136  80C8               	bsf	200,0,c	;volatile
   541   003138                     
   542                           ; BSR set to: 4
   543                           ;maincode01.c: 16:     TRISCbits.TRISC1 = 1;
   544   003138  82C8               	bsf	200,1,c	;volatile
   545   00313A                     
   546                           ; BSR set to: 4
   547                           ;maincode01.c: 17:     TRISCbits.TRISC2 = 1;
   548   00313A  84C8               	bsf	200,2,c	;volatile
   549   00313C                     
   550                           ; BSR set to: 4
   551                           ;maincode01.c: 18:     ANSELCbits.ANSELC0 = 0;
   552   00313C  9110               	bcf	16,0,b	;volatile
   553   00313E                     
   554                           ; BSR set to: 4
   555                           ;maincode01.c: 19:     ANSELCbits.ANSELC1 = 0;
   556   00313E  9310               	bcf	16,1,b	;volatile
   557   003140                     
   558                           ; BSR set to: 4
   559                           ;maincode01.c: 20:     ANSELCbits.ANSELC2 = 0;
   560   003140  9510               	bcf	16,2,b	;volatile
   561   003142                     
   562                           ; BSR set to: 4
   563                           ;maincode01.c: 21:     T1CLK = 0x01;
   564   003142  0E01               	movlw	1
   565   003144  0103               	movlb	3	; () banked
   566   003146  6F21               	movwf	33,b	;volatile
   567   003148                     
   568                           ; BSR set to: 3
   569                           ;maincode01.c: 22:     T1CON = 0x32;
   570   003148  0E32               	movlw	50
   571   00314A  6F1E               	movwf	30,b	;volatile
   572   00314C                     
   573                           ; BSR set to: 3
   574   00314C  0012               	return		;funcret
   575   00314E                     __end_of_configuro:
   576                           	callstack 0
   577                           
   578 ;; *************** function _I2C_LCD_INIT *****************
   579 ;; Defined at:
   580 ;;		line 164 in file "I2C_LCD.c"
   581 ;; Parameters:    Size  Location     Type
   582 ;;		None
   583 ;; Auto vars:     Size  Location     Type
   584 ;;		None
   585 ;; Return value:  Size  Location     Type
   586 ;;                  1    wreg      void 
   587 ;; Registers used:
   588 ;;		wreg, status,2, status,0, cstack
   589 ;; Tracked objects:
   590 ;;		On entry : 0/0
   591 ;;		On exit  : 0/0
   592 ;;		Unchanged: 0/0
   593 ;; Data sizes:     COMRAM   BANK5   BANK6   BANK7   BANK8   BANK9  BANK10  BANK11  BANK12  BANK13  BANK14  BANK15  BANK1
      +6  BANK17  BANK18  BANK19  BANK20  BANK21  BANK22  BANK23  BANK24  BANK25  BANK26  BANK27  BANK28  BANK29  BANK30  BANK3
      +1  BANK32  BANK33  BANK34  BANK35  BANK36
   594 ;;      Params:         0       0       0       0       0       0       0       0       0       0       0       0       
      +0       0       0       0       0       0       0       0       0       0       0       0       0       0       0       
      +0       0       0       0       0       0
   595 ;;      Locals:         0       0       0       0       0       0       0       0       0       0       0       0       
      +0       0       0       0       0       0       0       0       0       0       0       0       0       0       0       
      +0       0       0       0       0       0
   596 ;;      Temps:          2       0       0       0       0       0       0       0       0       0       0       0       
      +0       0       0       0       0       0       0       0       0       0       0       0       0       0       0       
      +0       0       0       0       0       0
   597 ;;      Totals:         2       0       0       0       0       0       0       0       0       0       0       0       
      +0       0       0       0       0       0       0       0       0       0       0       0       0       0       0       
      +0       0       0       0       0       0
   598 ;;Total ram usage:        2 bytes
   599 ;; Hardware stack levels used: 1
   600 ;; Hardware stack levels required when called: 3
   601 ;; This function calls:
   602 ;;		_I2C1_INIT
   603 ;;		_I2C1_WRITESINGLEBYTE
   604 ;;		_I2C_BORRAR_LCD
   605 ;;		_I2C_CURSOR_HOME
   606 ;;		_I2C_CURSOR_ONOFF
   607 ;; This function is called by:
   608 ;;		_configuro
   609 ;; This function uses a non-reentrant model
   610 ;;
   611                           
   612                           	psect	text2
   613   002922                     __ptext2:
   614                           	callstack 0
   615   002922                     _I2C_LCD_INIT:
   616                           	callstack 122
   617   002922                     
   618                           ;I2C_LCD.c: 165:     I2C1_INIT();
   619   002922  ECBF  F018         	call	_I2C1_INIT	;wreg free
   620   002926                     
   621                           ;I2C_LCD.c: 166:     _delay((unsigned long)((15)*(32000000UL/4000.0)));
   622   002926  0E9C               	movlw	156
   623   002928  6E08               	movwf	??_I2C_LCD_INIT^(0+1280),c
   624   00292A  0ED7               	movlw	215
   625   00292C                     u727:
   626   00292C  2EE8               	decfsz	wreg,f,c
   627   00292E  D7FE               	bra	u727
   628   002930  2E08               	decfsz	??_I2C_LCD_INIT^(0+1280),f,c
   629   002932  D7FC               	bra	u727
   630   002934  0000               	nop	
   631   002936                     
   632                           ;I2C_LCD.c: 168:     I2C1_WRITESINGLEBYTE(0x27,0x00);
   633   002936  0E00               	movlw	0
   634   002938  6E01               	movwf	I2C1_WRITESINGLEBYTE@dato^(0+1280),c
   635   00293A  0E27               	movlw	39
   636   00293C  EC50  F018         	call	_I2C1_WRITESINGLEBYTE
   637   002940                     
   638                           ;I2C_LCD.c: 169:     _delay((unsigned long)((1000)*(32000000UL/4000.0)));
   639   002940  0E29               	movlw	41
   640   002942  6E09               	movwf	(??_I2C_LCD_INIT+1)^(0+1280),c
   641   002944  0E96               	movlw	150
   642   002946  6E08               	movwf	??_I2C_LCD_INIT^(0+1280),c
   643   002948  0E7F               	movlw	127
   644   00294A                     u737:
   645   00294A  2EE8               	decfsz	wreg,f,c
   646   00294C  D7FE               	bra	u737
   647   00294E  2E08               	decfsz	??_I2C_LCD_INIT^(0+1280),f,c
   648   002950  D7FC               	bra	u737
   649   002952  2E09               	decfsz	(??_I2C_LCD_INIT+1)^(0+1280),f,c
   650   002954  D7FA               	bra	u737
   651   002956  0000               	nop	
   652   002958                     
   653                           ;I2C_LCD.c: 172:     I2C1_WRITESINGLEBYTE(0x27,0x30);
   654   002958  0E30               	movlw	48
   655   00295A  6E01               	movwf	I2C1_WRITESINGLEBYTE@dato^(0+1280),c
   656   00295C  0E27               	movlw	39
   657   00295E  EC50  F018         	call	_I2C1_WRITESINGLEBYTE
   658   002962                     
   659                           ;I2C_LCD.c: 173:     I2C1_WRITESINGLEBYTE(0x27,0x30);
   660   002962  0E30               	movlw	48
   661   002964  6E01               	movwf	I2C1_WRITESINGLEBYTE@dato^(0+1280),c
   662   002966  0E27               	movlw	39
   663   002968  EC50  F018         	call	_I2C1_WRITESINGLEBYTE
   664   00296C                     
   665                           ;I2C_LCD.c: 174:     _delay((unsigned long)((20)*(32000000UL/4000000.0)));
   666   00296C  0E35               	movlw	53
   667   00296E                     u747:
   668   00296E  2EE8               	decfsz	wreg,f,c
   669   002970  D7FE               	bra	u747
   670   002972  0000               	nop	
   671   002974                     
   672                           ;I2C_LCD.c: 175:     I2C1_WRITESINGLEBYTE(0x27,0x34);
   673   002974  0E34               	movlw	52
   674   002976  6E01               	movwf	I2C1_WRITESINGLEBYTE@dato^(0+1280),c
   675   002978  0E27               	movlw	39
   676   00297A  EC50  F018         	call	_I2C1_WRITESINGLEBYTE
   677   00297E                     
   678                           ;I2C_LCD.c: 176:     _delay((unsigned long)((20)*(32000000UL/4000000.0)));
   679   00297E  0E35               	movlw	53
   680   002980                     u757:
   681   002980  2EE8               	decfsz	wreg,f,c
   682   002982  D7FE               	bra	u757
   683   002984  0000               	nop	
   684   002986                     
   685                           ;I2C_LCD.c: 177:     I2C1_WRITESINGLEBYTE(0x27,0x30);
   686   002986  0E30               	movlw	48
   687   002988  6E01               	movwf	I2C1_WRITESINGLEBYTE@dato^(0+1280),c
   688   00298A  0E27               	movlw	39
   689   00298C  EC50  F018         	call	_I2C1_WRITESINGLEBYTE
   690   002990                     
   691                           ;I2C_LCD.c: 178:     _delay((unsigned long)((5)*(32000000UL/4000.0)));
   692   002990  0E34               	movlw	52
   693   002992  6E08               	movwf	??_I2C_LCD_INIT^(0+1280),c
   694   002994  0EF2               	movlw	242
   695   002996                     u767:
   696   002996  2EE8               	decfsz	wreg,f,c
   697   002998  D7FE               	bra	u767
   698   00299A  2E08               	decfsz	??_I2C_LCD_INIT^(0+1280),f,c
   699   00299C  D7FC               	bra	u767
   700   00299E                     
   701                           ;I2C_LCD.c: 180:     I2C1_WRITESINGLEBYTE(0x27,0x30);
   702   00299E  0E30               	movlw	48
   703   0029A0  6E01               	movwf	I2C1_WRITESINGLEBYTE@dato^(0+1280),c
   704   0029A2  0E27               	movlw	39
   705   0029A4  EC50  F018         	call	_I2C1_WRITESINGLEBYTE
   706   0029A8                     
   707                           ;I2C_LCD.c: 181:     _delay((unsigned long)((20)*(32000000UL/4000000.0)));
   708   0029A8  0E35               	movlw	53
   709   0029AA                     u777:
   710   0029AA  2EE8               	decfsz	wreg,f,c
   711   0029AC  D7FE               	bra	u777
   712   0029AE  0000               	nop	
   713   0029B0                     
   714                           ;I2C_LCD.c: 182:     I2C1_WRITESINGLEBYTE(0x27,0x34);
   715   0029B0  0E34               	movlw	52
   716   0029B2  6E01               	movwf	I2C1_WRITESINGLEBYTE@dato^(0+1280),c
   717   0029B4  0E27               	movlw	39
   718   0029B6  EC50  F018         	call	_I2C1_WRITESINGLEBYTE
   719   0029BA                     
   720                           ;I2C_LCD.c: 183:     _delay((unsigned long)((20)*(32000000UL/4000000.0)));
   721   0029BA  0E35               	movlw	53
   722   0029BC                     u787:
   723   0029BC  2EE8               	decfsz	wreg,f,c
   724   0029BE  D7FE               	bra	u787
   725   0029C0  0000               	nop	
   726   0029C2                     
   727                           ;I2C_LCD.c: 184:     I2C1_WRITESINGLEBYTE(0x27,0x30);
   728   0029C2  0E30               	movlw	48
   729   0029C4  6E01               	movwf	I2C1_WRITESINGLEBYTE@dato^(0+1280),c
   730   0029C6  0E27               	movlw	39
   731   0029C8  EC50  F018         	call	_I2C1_WRITESINGLEBYTE
   732   0029CC                     
   733                           ;I2C_LCD.c: 186:     _delay((unsigned long)((5)*(32000000UL/4000.0)));
   734   0029CC  0E34               	movlw	52
   735   0029CE  6E08               	movwf	??_I2C_LCD_INIT^(0+1280),c
   736   0029D0  0EF2               	movlw	242
   737   0029D2                     u797:
   738   0029D2  2EE8               	decfsz	wreg,f,c
   739   0029D4  D7FE               	bra	u797
   740   0029D6  2E08               	decfsz	??_I2C_LCD_INIT^(0+1280),f,c
   741   0029D8  D7FC               	bra	u797
   742   0029DA                     
   743                           ;I2C_LCD.c: 188:     I2C1_WRITESINGLEBYTE(0x27,0x30);
   744   0029DA  0E30               	movlw	48
   745   0029DC  6E01               	movwf	I2C1_WRITESINGLEBYTE@dato^(0+1280),c
   746   0029DE  0E27               	movlw	39
   747   0029E0  EC50  F018         	call	_I2C1_WRITESINGLEBYTE
   748   0029E4                     
   749                           ;I2C_LCD.c: 189:     _delay((unsigned long)((20)*(32000000UL/4000000.0)));
   750   0029E4  0E35               	movlw	53
   751   0029E6                     u807:
   752   0029E6  2EE8               	decfsz	wreg,f,c
   753   0029E8  D7FE               	bra	u807
   754   0029EA  0000               	nop	
   755   0029EC                     
   756                           ;I2C_LCD.c: 190:     I2C1_WRITESINGLEBYTE(0x27,0x34);
   757   0029EC  0E34               	movlw	52
   758   0029EE  6E01               	movwf	I2C1_WRITESINGLEBYTE@dato^(0+1280),c
   759   0029F0  0E27               	movlw	39
   760   0029F2  EC50  F018         	call	_I2C1_WRITESINGLEBYTE
   761   0029F6                     
   762                           ;I2C_LCD.c: 191:     _delay((unsigned long)((20)*(32000000UL/4000000.0)));
   763   0029F6  0E35               	movlw	53
   764   0029F8                     u817:
   765   0029F8  2EE8               	decfsz	wreg,f,c
   766   0029FA  D7FE               	bra	u817
   767   0029FC  0000               	nop	
   768   0029FE                     
   769                           ;I2C_LCD.c: 192:     I2C1_WRITESINGLEBYTE(0x27,0x30);
   770   0029FE  0E30               	movlw	48
   771   002A00  6E01               	movwf	I2C1_WRITESINGLEBYTE@dato^(0+1280),c
   772   002A02  0E27               	movlw	39
   773   002A04  EC50  F018         	call	_I2C1_WRITESINGLEBYTE
   774   002A08                     
   775                           ;I2C_LCD.c: 194:     _delay((unsigned long)((250)*(32000000UL/4000000.0)));
   776   002A08  0E03               	movlw	3
   777   002A0A  6E08               	movwf	??_I2C_LCD_INIT^(0+1280),c
   778   002A0C  0E98               	movlw	152
   779   002A0E                     u827:
   780   002A0E  2EE8               	decfsz	wreg,f,c
   781   002A10  D7FE               	bra	u827
   782   002A12  2E08               	decfsz	??_I2C_LCD_INIT^(0+1280),f,c
   783   002A14  D7FC               	bra	u827
   784   002A16                     
   785                           ;I2C_LCD.c: 196:     I2C1_WRITESINGLEBYTE(0x27,0x20);
   786   002A16  0E20               	movlw	32
   787   002A18  6E01               	movwf	I2C1_WRITESINGLEBYTE@dato^(0+1280),c
   788   002A1A  0E27               	movlw	39
   789   002A1C  EC50  F018         	call	_I2C1_WRITESINGLEBYTE
   790   002A20                     
   791                           ;I2C_LCD.c: 197:     _delay((unsigned long)((20)*(32000000UL/4000000.0)));
   792   002A20  0E35               	movlw	53
   793   002A22                     u837:
   794   002A22  2EE8               	decfsz	wreg,f,c
   795   002A24  D7FE               	bra	u837
   796   002A26  0000               	nop	
   797   002A28                     
   798                           ;I2C_LCD.c: 198:     I2C1_WRITESINGLEBYTE(0x27,0x24);
   799   002A28  0E24               	movlw	36
   800   002A2A  6E01               	movwf	I2C1_WRITESINGLEBYTE@dato^(0+1280),c
   801   002A2C  0E27               	movlw	39
   802   002A2E  EC50  F018         	call	_I2C1_WRITESINGLEBYTE
   803   002A32                     
   804                           ;I2C_LCD.c: 199:     _delay((unsigned long)((20)*(32000000UL/4000000.0)));
   805   002A32  0E35               	movlw	53
   806   002A34                     u847:
   807   002A34  2EE8               	decfsz	wreg,f,c
   808   002A36  D7FE               	bra	u847
   809   002A38  0000               	nop	
   810   002A3A                     
   811                           ;I2C_LCD.c: 200:     I2C1_WRITESINGLEBYTE(0x27,0x20);
   812   002A3A  0E20               	movlw	32
   813   002A3C  6E01               	movwf	I2C1_WRITESINGLEBYTE@dato^(0+1280),c
   814   002A3E  0E27               	movlw	39
   815   002A40  EC50  F018         	call	_I2C1_WRITESINGLEBYTE
   816   002A44                     
   817                           ;I2C_LCD.c: 202:     _delay((unsigned long)((75)*(32000000UL/4000000.0)));
   818   002A44  0EC8               	movlw	200
   819   002A46                     u857:
   820   002A46  2EE8               	decfsz	wreg,f,c
   821   002A48  D7FE               	bra	u857
   822   002A4A                     
   823                           ;I2C_LCD.c: 204:     I2C1_WRITESINGLEBYTE(0x27,0x20);
   824   002A4A  0E20               	movlw	32
   825   002A4C  6E01               	movwf	I2C1_WRITESINGLEBYTE@dato^(0+1280),c
   826   002A4E  0E27               	movlw	39
   827   002A50  EC50  F018         	call	_I2C1_WRITESINGLEBYTE
   828   002A54                     
   829                           ;I2C_LCD.c: 205:     _delay((unsigned long)((20)*(32000000UL/4000000.0)));
   830   002A54  0E35               	movlw	53
   831   002A56                     u867:
   832   002A56  2EE8               	decfsz	wreg,f,c
   833   002A58  D7FE               	bra	u867
   834   002A5A  0000               	nop	
   835   002A5C                     
   836                           ;I2C_LCD.c: 206:     I2C1_WRITESINGLEBYTE(0x27,0x24);
   837   002A5C  0E24               	movlw	36
   838   002A5E  6E01               	movwf	I2C1_WRITESINGLEBYTE@dato^(0+1280),c
   839   002A60  0E27               	movlw	39
   840   002A62  EC50  F018         	call	_I2C1_WRITESINGLEBYTE
   841   002A66                     
   842                           ;I2C_LCD.c: 207:     _delay((unsigned long)((20)*(32000000UL/4000000.0)));
   843   002A66  0E35               	movlw	53
   844   002A68                     u877:
   845   002A68  2EE8               	decfsz	wreg,f,c
   846   002A6A  D7FE               	bra	u877
   847   002A6C  0000               	nop	
   848   002A6E                     
   849                           ;I2C_LCD.c: 208:     I2C1_WRITESINGLEBYTE(0x27,0x20);
   850   002A6E  0E20               	movlw	32
   851   002A70  6E01               	movwf	I2C1_WRITESINGLEBYTE@dato^(0+1280),c
   852   002A72  0E27               	movlw	39
   853   002A74  EC50  F018         	call	_I2C1_WRITESINGLEBYTE
   854   002A78                     
   855                           ;I2C_LCD.c: 210:     _delay((unsigned long)((75)*(32000000UL/4000000.0)));
   856   002A78  0EC8               	movlw	200
   857   002A7A                     u887:
   858   002A7A  2EE8               	decfsz	wreg,f,c
   859   002A7C  D7FE               	bra	u887
   860   002A7E                     
   861                           ;I2C_LCD.c: 212:     I2C1_WRITESINGLEBYTE(0x27,0x80);
   862   002A7E  0E80               	movlw	128
   863   002A80  6E01               	movwf	I2C1_WRITESINGLEBYTE@dato^(0+1280),c
   864   002A82  0E27               	movlw	39
   865   002A84  EC50  F018         	call	_I2C1_WRITESINGLEBYTE
   866   002A88                     
   867                           ;I2C_LCD.c: 213:     _delay((unsigned long)((20)*(32000000UL/4000000.0)));
   868   002A88  0E35               	movlw	53
   869   002A8A                     u897:
   870   002A8A  2EE8               	decfsz	wreg,f,c
   871   002A8C  D7FE               	bra	u897
   872   002A8E  0000               	nop	
   873   002A90                     
   874                           ;I2C_LCD.c: 214:     I2C1_WRITESINGLEBYTE(0x27,0x84);
   875   002A90  0E84               	movlw	132
   876   002A92  6E01               	movwf	I2C1_WRITESINGLEBYTE@dato^(0+1280),c
   877   002A94  0E27               	movlw	39
   878   002A96  EC50  F018         	call	_I2C1_WRITESINGLEBYTE
   879   002A9A                     
   880                           ;I2C_LCD.c: 215:     _delay((unsigned long)((20)*(32000000UL/4000000.0)));
   881   002A9A  0E35               	movlw	53
   882   002A9C                     u907:
   883   002A9C  2EE8               	decfsz	wreg,f,c
   884   002A9E  D7FE               	bra	u907
   885   002AA0  0000               	nop	
   886   002AA2                     
   887                           ;I2C_LCD.c: 216:     I2C1_WRITESINGLEBYTE(0x27,0x80);
   888   002AA2  0E80               	movlw	128
   889   002AA4  6E01               	movwf	I2C1_WRITESINGLEBYTE@dato^(0+1280),c
   890   002AA6  0E27               	movlw	39
   891   002AA8  EC50  F018         	call	_I2C1_WRITESINGLEBYTE
   892   002AAC                     
   893                           ;I2C_LCD.c: 218:     _delay((unsigned long)((75)*(32000000UL/4000000.0)));
   894   002AAC  0EC8               	movlw	200
   895   002AAE                     u917:
   896   002AAE  2EE8               	decfsz	wreg,f,c
   897   002AB0  D7FE               	bra	u917
   898   002AB2                     
   899                           ;I2C_LCD.c: 220:     I2C1_WRITESINGLEBYTE(0x27,0x00);
   900   002AB2  0E00               	movlw	0
   901   002AB4  6E01               	movwf	I2C1_WRITESINGLEBYTE@dato^(0+1280),c
   902   002AB6  0E27               	movlw	39
   903   002AB8  EC50  F018         	call	_I2C1_WRITESINGLEBYTE
   904   002ABC                     
   905                           ;I2C_LCD.c: 221:     _delay((unsigned long)((20)*(32000000UL/4000000.0)));
   906   002ABC  0E35               	movlw	53
   907   002ABE                     u927:
   908   002ABE  2EE8               	decfsz	wreg,f,c
   909   002AC0  D7FE               	bra	u927
   910   002AC2  0000               	nop	
   911   002AC4                     
   912                           ;I2C_LCD.c: 222:     I2C1_WRITESINGLEBYTE(0x27,0x04);
   913   002AC4  0E04               	movlw	4
   914   002AC6  6E01               	movwf	I2C1_WRITESINGLEBYTE@dato^(0+1280),c
   915   002AC8  0E27               	movlw	39
   916   002ACA  EC50  F018         	call	_I2C1_WRITESINGLEBYTE
   917   002ACE                     
   918                           ;I2C_LCD.c: 223:     _delay((unsigned long)((20)*(32000000UL/4000000.0)));
   919   002ACE  0E35               	movlw	53
   920   002AD0                     u937:
   921   002AD0  2EE8               	decfsz	wreg,f,c
   922   002AD2  D7FE               	bra	u937
   923   002AD4  0000               	nop	
   924   002AD6                     
   925                           ;I2C_LCD.c: 224:     I2C1_WRITESINGLEBYTE(0x27,0x00);
   926   002AD6  0E00               	movlw	0
   927   002AD8  6E01               	movwf	I2C1_WRITESINGLEBYTE@dato^(0+1280),c
   928   002ADA  0E27               	movlw	39
   929   002ADC  EC50  F018         	call	_I2C1_WRITESINGLEBYTE
   930   002AE0                     
   931                           ;I2C_LCD.c: 226:      _delay((unsigned long)((75)*(32000000UL/4000000.0)));
   932   002AE0  0EC8               	movlw	200
   933   002AE2                     u947:
   934   002AE2  2EE8               	decfsz	wreg,f,c
   935   002AE4  D7FE               	bra	u947
   936   002AE6                     
   937                           ;I2C_LCD.c: 228:     I2C1_WRITESINGLEBYTE(0x27,0xC0);
   938   002AE6  0EC0               	movlw	192
   939   002AE8  6E01               	movwf	I2C1_WRITESINGLEBYTE@dato^(0+1280),c
   940   002AEA  0E27               	movlw	39
   941   002AEC  EC50  F018         	call	_I2C1_WRITESINGLEBYTE
   942   002AF0                     
   943                           ;I2C_LCD.c: 229:     _delay((unsigned long)((20)*(32000000UL/4000000.0)));
   944   002AF0  0E35               	movlw	53
   945   002AF2                     u957:
   946   002AF2  2EE8               	decfsz	wreg,f,c
   947   002AF4  D7FE               	bra	u957
   948   002AF6  0000               	nop	
   949   002AF8                     
   950                           ;I2C_LCD.c: 230:     I2C1_WRITESINGLEBYTE(0x27,0xC4);
   951   002AF8  0EC4               	movlw	196
   952   002AFA  6E01               	movwf	I2C1_WRITESINGLEBYTE@dato^(0+1280),c
   953   002AFC  0E27               	movlw	39
   954   002AFE  EC50  F018         	call	_I2C1_WRITESINGLEBYTE
   955   002B02                     
   956                           ;I2C_LCD.c: 231:     _delay((unsigned long)((20)*(32000000UL/4000000.0)));
   957   002B02  0E35               	movlw	53
   958   002B04                     u967:
   959   002B04  2EE8               	decfsz	wreg,f,c
   960   002B06  D7FE               	bra	u967
   961   002B08  0000               	nop	
   962   002B0A                     
   963                           ;I2C_LCD.c: 232:     I2C1_WRITESINGLEBYTE(0x27,0xC0);
   964   002B0A  0EC0               	movlw	192
   965   002B0C  6E01               	movwf	I2C1_WRITESINGLEBYTE@dato^(0+1280),c
   966   002B0E  0E27               	movlw	39
   967   002B10  EC50  F018         	call	_I2C1_WRITESINGLEBYTE
   968   002B14                     
   969                           ;I2C_LCD.c: 234:      _delay((unsigned long)((75)*(32000000UL/4000000.0)));
   970   002B14  0EC8               	movlw	200
   971   002B16                     u977:
   972   002B16  2EE8               	decfsz	wreg,f,c
   973   002B18  D7FE               	bra	u977
   974   002B1A                     
   975                           ;I2C_LCD.c: 236:     I2C1_WRITESINGLEBYTE(0x27,0x00);
   976   002B1A  0E00               	movlw	0
   977   002B1C  6E01               	movwf	I2C1_WRITESINGLEBYTE@dato^(0+1280),c
   978   002B1E  0E27               	movlw	39
   979   002B20  EC50  F018         	call	_I2C1_WRITESINGLEBYTE
   980   002B24                     
   981                           ;I2C_LCD.c: 237:     _delay((unsigned long)((20)*(32000000UL/4000000.0)));
   982   002B24  0E35               	movlw	53
   983   002B26                     u987:
   984   002B26  2EE8               	decfsz	wreg,f,c
   985   002B28  D7FE               	bra	u987
   986   002B2A  0000               	nop	
   987   002B2C                     
   988                           ;I2C_LCD.c: 238:     I2C1_WRITESINGLEBYTE(0x27,0x04);
   989   002B2C  0E04               	movlw	4
   990   002B2E  6E01               	movwf	I2C1_WRITESINGLEBYTE@dato^(0+1280),c
   991   002B30  0E27               	movlw	39
   992   002B32  EC50  F018         	call	_I2C1_WRITESINGLEBYTE
   993   002B36                     
   994                           ;I2C_LCD.c: 239:     _delay((unsigned long)((20)*(32000000UL/4000000.0)));
   995   002B36  0E35               	movlw	53
   996   002B38                     u997:
   997   002B38  2EE8               	decfsz	wreg,f,c
   998   002B3A  D7FE               	bra	u997
   999   002B3C  0000               	nop	
  1000   002B3E                     
  1001                           ;I2C_LCD.c: 240:     I2C1_WRITESINGLEBYTE(0x27,0x00);
  1002   002B3E  0E00               	movlw	0
  1003   002B40  6E01               	movwf	I2C1_WRITESINGLEBYTE@dato^(0+1280),c
  1004   002B42  0E27               	movlw	39
  1005   002B44  EC50  F018         	call	_I2C1_WRITESINGLEBYTE
  1006   002B48                     
  1007                           ;I2C_LCD.c: 242:      _delay((unsigned long)((75)*(32000000UL/4000000.0)));
  1008   002B48  0EC8               	movlw	200
  1009   002B4A                     u1007:
  1010   002B4A  2EE8               	decfsz	wreg,f,c
  1011   002B4C  D7FE               	bra	u1007
  1012   002B4E                     
  1013                           ;I2C_LCD.c: 244:     I2C1_WRITESINGLEBYTE(0x27,0x10);
  1014   002B4E  0E10               	movlw	16
  1015   002B50  6E01               	movwf	I2C1_WRITESINGLEBYTE@dato^(0+1280),c
  1016   002B52  0E27               	movlw	39
  1017   002B54  EC50  F018         	call	_I2C1_WRITESINGLEBYTE
  1018   002B58                     
  1019                           ;I2C_LCD.c: 245:     _delay((unsigned long)((20)*(32000000UL/4000000.0)));
  1020   002B58  0E35               	movlw	53
  1021   002B5A                     u1017:
  1022   002B5A  2EE8               	decfsz	wreg,f,c
  1023   002B5C  D7FE               	bra	u1017
  1024   002B5E  0000               	nop	
  1025   002B60                     
  1026                           ;I2C_LCD.c: 246:     I2C1_WRITESINGLEBYTE(0x27,0x14);
  1027   002B60  0E14               	movlw	20
  1028   002B62  6E01               	movwf	I2C1_WRITESINGLEBYTE@dato^(0+1280),c
  1029   002B64  0E27               	movlw	39
  1030   002B66  EC50  F018         	call	_I2C1_WRITESINGLEBYTE
  1031   002B6A                     
  1032                           ;I2C_LCD.c: 247:     _delay((unsigned long)((20)*(32000000UL/4000000.0)));
  1033   002B6A  0E35               	movlw	53
  1034   002B6C                     u1027:
  1035   002B6C  2EE8               	decfsz	wreg,f,c
  1036   002B6E  D7FE               	bra	u1027
  1037   002B70  0000               	nop	
  1038   002B72                     
  1039                           ;I2C_LCD.c: 248:     I2C1_WRITESINGLEBYTE(0x27,0x10);
  1040   002B72  0E10               	movlw	16
  1041   002B74  6E01               	movwf	I2C1_WRITESINGLEBYTE@dato^(0+1280),c
  1042   002B76  0E27               	movlw	39
  1043   002B78  EC50  F018         	call	_I2C1_WRITESINGLEBYTE
  1044   002B7C                     
  1045                           ;I2C_LCD.c: 250:      _delay((unsigned long)((2)*(32000000UL/4000.0)));
  1046   002B7C  0E15               	movlw	21
  1047   002B7E  6E08               	movwf	??_I2C_LCD_INIT^(0+1280),c
  1048   002B80  0EC6               	movlw	198
  1049   002B82                     u1037:
  1050   002B82  2EE8               	decfsz	wreg,f,c
  1051   002B84  D7FE               	bra	u1037
  1052   002B86  2E08               	decfsz	??_I2C_LCD_INIT^(0+1280),f,c
  1053   002B88  D7FC               	bra	u1037
  1054   002B8A  D000               	nop2	
  1055   002B8C                     
  1056                           ;I2C_LCD.c: 252:     I2C1_WRITESINGLEBYTE(0x27,0x00);
  1057   002B8C  0E00               	movlw	0
  1058   002B8E  6E01               	movwf	I2C1_WRITESINGLEBYTE@dato^(0+1280),c
  1059   002B90  0E27               	movlw	39
  1060   002B92  EC50  F018         	call	_I2C1_WRITESINGLEBYTE
  1061   002B96                     
  1062                           ;I2C_LCD.c: 253:     _delay((unsigned long)((02)*(32000000UL/4000000.0)));
  1063   002B96  0E05               	movlw	5
  1064   002B98                     u1047:
  1065   002B98  2EE8               	decfsz	wreg,f,c
  1066   002B9A  D7FE               	bra	u1047
  1067   002B9C  0000               	nop	
  1068   002B9E                     
  1069                           ;I2C_LCD.c: 254:     I2C1_WRITESINGLEBYTE(0x27,0x04);
  1070   002B9E  0E04               	movlw	4
  1071   002BA0  6E01               	movwf	I2C1_WRITESINGLEBYTE@dato^(0+1280),c
  1072   002BA2  0E27               	movlw	39
  1073   002BA4  EC50  F018         	call	_I2C1_WRITESINGLEBYTE
  1074   002BA8                     
  1075                           ;I2C_LCD.c: 255:     _delay((unsigned long)((20)*(32000000UL/4000000.0)));
  1076   002BA8  0E35               	movlw	53
  1077   002BAA                     u1057:
  1078   002BAA  2EE8               	decfsz	wreg,f,c
  1079   002BAC  D7FE               	bra	u1057
  1080   002BAE  0000               	nop	
  1081   002BB0                     
  1082                           ;I2C_LCD.c: 256:     I2C1_WRITESINGLEBYTE(0x27,0x00);
  1083   002BB0  0E00               	movlw	0
  1084   002BB2  6E01               	movwf	I2C1_WRITESINGLEBYTE@dato^(0+1280),c
  1085   002BB4  0E27               	movlw	39
  1086   002BB6  EC50  F018         	call	_I2C1_WRITESINGLEBYTE
  1087   002BBA                     
  1088                           ;I2C_LCD.c: 258:      _delay((unsigned long)((75)*(32000000UL/4000000.0)));
  1089   002BBA  0EC8               	movlw	200
  1090   002BBC                     u1067:
  1091   002BBC  2EE8               	decfsz	wreg,f,c
  1092   002BBE  D7FE               	bra	u1067
  1093   002BC0                     
  1094                           ;I2C_LCD.c: 260:     I2C1_WRITESINGLEBYTE(0x27,0x60);
  1095   002BC0  0E60               	movlw	96
  1096   002BC2  6E01               	movwf	I2C1_WRITESINGLEBYTE@dato^(0+1280),c
  1097   002BC4  0E27               	movlw	39
  1098   002BC6  EC50  F018         	call	_I2C1_WRITESINGLEBYTE
  1099   002BCA                     
  1100                           ;I2C_LCD.c: 261:     _delay((unsigned long)((02)*(32000000UL/4000000.0)));
  1101   002BCA  0E05               	movlw	5
  1102   002BCC                     u1077:
  1103   002BCC  2EE8               	decfsz	wreg,f,c
  1104   002BCE  D7FE               	bra	u1077
  1105   002BD0  0000               	nop	
  1106   002BD2                     
  1107                           ;I2C_LCD.c: 262:     I2C1_WRITESINGLEBYTE(0x27,0x64);
  1108   002BD2  0E64               	movlw	100
  1109   002BD4  6E01               	movwf	I2C1_WRITESINGLEBYTE@dato^(0+1280),c
  1110   002BD6  0E27               	movlw	39
  1111   002BD8  EC50  F018         	call	_I2C1_WRITESINGLEBYTE
  1112   002BDC                     
  1113                           ;I2C_LCD.c: 263:     _delay((unsigned long)((20)*(32000000UL/4000000.0)));
  1114   002BDC  0E35               	movlw	53
  1115   002BDE                     u1087:
  1116   002BDE  2EE8               	decfsz	wreg,f,c
  1117   002BE0  D7FE               	bra	u1087
  1118   002BE2  0000               	nop	
  1119   002BE4                     
  1120                           ;I2C_LCD.c: 264:     I2C1_WRITESINGLEBYTE(0x27,0x60);
  1121   002BE4  0E60               	movlw	96
  1122   002BE6  6E01               	movwf	I2C1_WRITESINGLEBYTE@dato^(0+1280),c
  1123   002BE8  0E27               	movlw	39
  1124   002BEA  EC50  F018         	call	_I2C1_WRITESINGLEBYTE
  1125   002BEE                     
  1126                           ;I2C_LCD.c: 266:      _delay((unsigned long)((75)*(32000000UL/4000000.0)));
  1127   002BEE  0EC8               	movlw	200
  1128   002BF0                     u1097:
  1129   002BF0  2EE8               	decfsz	wreg,f,c
  1130   002BF2  D7FE               	bra	u1097
  1131   002BF4                     
  1132                           ;I2C_LCD.c: 268:     I2C1_WRITESINGLEBYTE(0x27,0x00);
  1133   002BF4  0E00               	movlw	0
  1134   002BF6  6E01               	movwf	I2C1_WRITESINGLEBYTE@dato^(0+1280),c
  1135   002BF8  0E27               	movlw	39
  1136   002BFA  EC50  F018         	call	_I2C1_WRITESINGLEBYTE
  1137   002BFE                     
  1138                           ;I2C_LCD.c: 269:     _delay((unsigned long)((20)*(32000000UL/4000000.0)));
  1139   002BFE  0E35               	movlw	53
  1140   002C00                     u1107:
  1141   002C00  2EE8               	decfsz	wreg,f,c
  1142   002C02  D7FE               	bra	u1107
  1143   002C04  0000               	nop	
  1144   002C06                     
  1145                           ;I2C_LCD.c: 270:     I2C1_WRITESINGLEBYTE(0x27,0x04);
  1146   002C06  0E04               	movlw	4
  1147   002C08  6E01               	movwf	I2C1_WRITESINGLEBYTE@dato^(0+1280),c
  1148   002C0A  0E27               	movlw	39
  1149   002C0C  EC50  F018         	call	_I2C1_WRITESINGLEBYTE
  1150   002C10                     
  1151                           ;I2C_LCD.c: 271:     _delay((unsigned long)((20)*(32000000UL/4000000.0)));
  1152   002C10  0E35               	movlw	53
  1153   002C12                     u1117:
  1154   002C12  2EE8               	decfsz	wreg,f,c
  1155   002C14  D7FE               	bra	u1117
  1156   002C16  0000               	nop	
  1157   002C18                     
  1158                           ;I2C_LCD.c: 272:     I2C1_WRITESINGLEBYTE(0x27,0x00);
  1159   002C18  0E00               	movlw	0
  1160   002C1A  6E01               	movwf	I2C1_WRITESINGLEBYTE@dato^(0+1280),c
  1161   002C1C  0E27               	movlw	39
  1162   002C1E  EC50  F018         	call	_I2C1_WRITESINGLEBYTE
  1163   002C22                     
  1164                           ;I2C_LCD.c: 274:     _delay((unsigned long)((75)*(32000000UL/4000000.0)));
  1165   002C22  0EC8               	movlw	200
  1166   002C24                     u1127:
  1167   002C24  2EE8               	decfsz	wreg,f,c
  1168   002C26  D7FE               	bra	u1127
  1169   002C28                     
  1170                           ;I2C_LCD.c: 276:     I2C1_WRITESINGLEBYTE(0x27,0x20);
  1171   002C28  0E20               	movlw	32
  1172   002C2A  6E01               	movwf	I2C1_WRITESINGLEBYTE@dato^(0+1280),c
  1173   002C2C  0E27               	movlw	39
  1174   002C2E  EC50  F018         	call	_I2C1_WRITESINGLEBYTE
  1175   002C32                     
  1176                           ;I2C_LCD.c: 277:     _delay((unsigned long)((20)*(32000000UL/4000000.0)));
  1177   002C32  0E35               	movlw	53
  1178   002C34                     u1137:
  1179   002C34  2EE8               	decfsz	wreg,f,c
  1180   002C36  D7FE               	bra	u1137
  1181   002C38  0000               	nop	
  1182   002C3A                     
  1183                           ;I2C_LCD.c: 278:     I2C1_WRITESINGLEBYTE(0x27,0x24);
  1184   002C3A  0E24               	movlw	36
  1185   002C3C  6E01               	movwf	I2C1_WRITESINGLEBYTE@dato^(0+1280),c
  1186   002C3E  0E27               	movlw	39
  1187   002C40  EC50  F018         	call	_I2C1_WRITESINGLEBYTE
  1188   002C44                     
  1189                           ;I2C_LCD.c: 279:     _delay((unsigned long)((20)*(32000000UL/4000000.0)));
  1190   002C44  0E35               	movlw	53
  1191   002C46                     u1147:
  1192   002C46  2EE8               	decfsz	wreg,f,c
  1193   002C48  D7FE               	bra	u1147
  1194   002C4A  0000               	nop	
  1195   002C4C                     
  1196                           ;I2C_LCD.c: 280:     I2C1_WRITESINGLEBYTE(0x27,0x20);
  1197   002C4C  0E20               	movlw	32
  1198   002C4E  6E01               	movwf	I2C1_WRITESINGLEBYTE@dato^(0+1280),c
  1199   002C50  0E27               	movlw	39
  1200   002C52  EC50  F018         	call	_I2C1_WRITESINGLEBYTE
  1201   002C56                     
  1202                           ;I2C_LCD.c: 282:     _delay((unsigned long)((15)*(32000000UL/4000.0)));
  1203   002C56  0E9C               	movlw	156
  1204   002C58  6E08               	movwf	??_I2C_LCD_INIT^(0+1280),c
  1205   002C5A  0ED7               	movlw	215
  1206   002C5C                     u1157:
  1207   002C5C  2EE8               	decfsz	wreg,f,c
  1208   002C5E  D7FE               	bra	u1157
  1209   002C60  2E08               	decfsz	??_I2C_LCD_INIT^(0+1280),f,c
  1210   002C62  D7FC               	bra	u1157
  1211   002C64  0000               	nop	
  1212   002C66                     
  1213                           ;I2C_LCD.c: 283:     I2C_BORRAR_LCD();
  1214   002C66  ECD8  F018         	call	_I2C_BORRAR_LCD	;wreg free
  1215   002C6A                     
  1216                           ;I2C_LCD.c: 284:     I2C_CURSOR_HOME();
  1217   002C6A  ECD4  F018         	call	_I2C_CURSOR_HOME	;wreg free
  1218   002C6E                     
  1219                           ;I2C_LCD.c: 285:     I2C_CURSOR_ONOFF(1);
  1220   002C6E  0E01               	movlw	1
  1221   002C70  ECA7  F018         	call	_I2C_CURSOR_ONOFF
  1222   002C74  0012               	return		;funcret
  1223   002C76                     __end_of_I2C_LCD_INIT:
  1224                           	callstack 0
  1225                           
  1226 ;; *************** function _I2C_CURSOR_ONOFF *****************
  1227 ;; Defined at:
  1228 ;;		line 93 in file "I2C_LCD.c"
  1229 ;; Parameters:    Size  Location     Type
  1230 ;;  estado          1    wreg     unsigned char 
  1231 ;; Auto vars:     Size  Location     Type
  1232 ;;  estado          1    6[COMRAM] unsigned char 
  1233 ;; Return value:  Size  Location     Type
  1234 ;;                  1    wreg      void 
  1235 ;; Registers used:
  1236 ;;		wreg, status,2, status,0, cstack
  1237 ;; Tracked objects:
  1238 ;;		On entry : 0/0
  1239 ;;		On exit  : 0/0
  1240 ;;		Unchanged: 0/0
  1241 ;; Data sizes:     COMRAM   BANK5   BANK6   BANK7   BANK8   BANK9  BANK10  BANK11  BANK12  BANK13  BANK14  BANK15  BANK1
      +6  BANK17  BANK18  BANK19  BANK20  BANK21  BANK22  BANK23  BANK24  BANK25  BANK26  BANK27  BANK28  BANK29  BANK30  BANK3
      +1  BANK32  BANK33  BANK34  BANK35  BANK36
  1242 ;;      Params:         0       0       0       0       0       0       0       0       0       0       0       0       
      +0       0       0       0       0       0       0       0       0       0       0       0       0       0       0       
      +0       0       0       0       0       0
  1243 ;;      Locals:         1       0       0       0       0       0       0       0       0       0       0       0       
      +0       0       0       0       0       0       0       0       0       0       0       0       0       0       0       
      +0       0       0       0       0       0
  1244 ;;      Temps:          0       0       0       0       0       0       0       0       0       0       0       0       
      +0       0       0       0       0       0       0       0       0       0       0       0       0       0       0       
      +0       0       0       0       0       0
  1245 ;;      Totals:         1       0       0       0       0       0       0       0       0       0       0       0       
      +0       0       0       0       0       0       0       0       0       0       0       0       0       0       0       
      +0       0       0       0       0       0
  1246 ;;Total ram usage:        1 bytes
  1247 ;; Hardware stack levels used: 1
  1248 ;; Hardware stack levels required when called: 2
  1249 ;; This function calls:
  1250 ;;		_I2C_ENVIA_LCD_CMD
  1251 ;; This function is called by:
  1252 ;;		_I2C_LCD_INIT
  1253 ;; This function uses a non-reentrant model
  1254 ;;
  1255                           
  1256                           	psect	text3
  1257   00314E                     __ptext3:
  1258                           	callstack 0
  1259   00314E                     _I2C_CURSOR_ONOFF:
  1260                           	callstack 122
  1261                           
  1262                           ;incstack = 0
  1263                           ;I2C_CURSOR_ONOFF@estado stored from wreg
  1264   00314E  6E07               	movwf	I2C_CURSOR_ONOFF@estado^(0+1280),c
  1265   003150                     
  1266                           ;I2C_LCD.c: 94:  if(estado == 0) I2C_ENVIA_LCD_CMD(0x0E);
  1267   003150  5007               	movf	I2C_CURSOR_ONOFF@estado^(0+1280),w,c
  1268   003152  A4D8               	btfss	status,2,c
  1269   003154  EFAE  F018         	goto	u381
  1270   003158  EFB0  F018         	goto	u380
  1271   00315C                     u381:
  1272   00315C  EFB3  F018         	goto	l1670
  1273   003160                     u380:
  1274   003160  0E0E               	movlw	14
  1275   003162  ECC8  F017         	call	_I2C_ENVIA_LCD_CMD
  1276   003166                     l1670:
  1277                           
  1278                           ;I2C_LCD.c: 95:  if(estado == 1) I2C_ENVIA_LCD_CMD(0x0C);
  1279   003166  0407               	decf	I2C_CURSOR_ONOFF@estado^(0+1280),w,c
  1280   003168  A4D8               	btfss	status,2,c
  1281   00316A  EFB9  F018         	goto	u391
  1282   00316E  EFBB  F018         	goto	u390
  1283   003172                     u391:
  1284   003172  EFBE  F018         	goto	l91
  1285   003176                     u390:
  1286   003176  0E0C               	movlw	12
  1287   003178  ECC8  F017         	call	_I2C_ENVIA_LCD_CMD
  1288   00317C                     l91:
  1289   00317C  0012               	return		;funcret
  1290   00317E                     __end_of_I2C_CURSOR_ONOFF:
  1291                           	callstack 0
  1292                           
  1293 ;; *************** function _I2C_CURSOR_HOME *****************
  1294 ;; Defined at:
  1295 ;;		line 73 in file "I2C_LCD.c"
  1296 ;; Parameters:    Size  Location     Type
  1297 ;;		None
  1298 ;; Auto vars:     Size  Location     Type
  1299 ;;		None
  1300 ;; Return value:  Size  Location     Type
  1301 ;;                  1    wreg      void 
  1302 ;; Registers used:
  1303 ;;		wreg, status,2, status,0, cstack
  1304 ;; Tracked objects:
  1305 ;;		On entry : 0/0
  1306 ;;		On exit  : 0/0
  1307 ;;		Unchanged: 0/0
  1308 ;; Data sizes:     COMRAM   BANK5   BANK6   BANK7   BANK8   BANK9  BANK10  BANK11  BANK12  BANK13  BANK14  BANK15  BANK1
      +6  BANK17  BANK18  BANK19  BANK20  BANK21  BANK22  BANK23  BANK24  BANK25  BANK26  BANK27  BANK28  BANK29  BANK30  BANK3
      +1  BANK32  BANK33  BANK34  BANK35  BANK36
  1309 ;;      Params:         0       0       0       0       0       0       0       0       0       0       0       0       
      +0       0       0       0       0       0       0       0       0       0       0       0       0       0       0       
      +0       0       0       0       0       0
  1310 ;;      Locals:         0       0       0       0       0       0       0       0       0       0       0       0       
      +0       0       0       0       0       0       0       0       0       0       0       0       0       0       0       
      +0       0       0       0       0       0
  1311 ;;      Temps:          0       0       0       0       0       0       0       0       0       0       0       0       
      +0       0       0       0       0       0       0       0       0       0       0       0       0       0       0       
      +0       0       0       0       0       0
  1312 ;;      Totals:         0       0       0       0       0       0       0       0       0       0       0       0       
      +0       0       0       0       0       0       0       0       0       0       0       0       0       0       0       
      +0       0       0       0       0       0
  1313 ;;Total ram usage:        0 bytes
  1314 ;; Hardware stack levels used: 1
  1315 ;; Hardware stack levels required when called: 2
  1316 ;; This function calls:
  1317 ;;		_I2C_ENVIA_LCD_CMD
  1318 ;; This function is called by:
  1319 ;;		_I2C_LCD_INIT
  1320 ;; This function uses a non-reentrant model
  1321 ;;
  1322                           
  1323                           	psect	text4
  1324   0031A8                     __ptext4:
  1325                           	callstack 0
  1326   0031A8                     _I2C_CURSOR_HOME:
  1327                           	callstack 122
  1328   0031A8                     
  1329                           ;I2C_LCD.c: 74:  I2C_ENVIA_LCD_CMD(0x02);
  1330   0031A8  0E02               	movlw	2
  1331   0031AA  ECC8  F017         	call	_I2C_ENVIA_LCD_CMD
  1332   0031AE  0012               	return		;funcret
  1333   0031B0                     __end_of_I2C_CURSOR_HOME:
  1334                           	callstack 0
  1335                           
  1336 ;; *************** function _I2C_BORRAR_LCD *****************
  1337 ;; Defined at:
  1338 ;;		line 132 in file "I2C_LCD.c"
  1339 ;; Parameters:    Size  Location     Type
  1340 ;;		None
  1341 ;; Auto vars:     Size  Location     Type
  1342 ;;		None
  1343 ;; Return value:  Size  Location     Type
  1344 ;;                  1    wreg      void 
  1345 ;; Registers used:
  1346 ;;		wreg, status,2, status,0, cstack
  1347 ;; Tracked objects:
  1348 ;;		On entry : 0/0
  1349 ;;		On exit  : 0/0
  1350 ;;		Unchanged: 0/0
  1351 ;; Data sizes:     COMRAM   BANK5   BANK6   BANK7   BANK8   BANK9  BANK10  BANK11  BANK12  BANK13  BANK14  BANK15  BANK1
      +6  BANK17  BANK18  BANK19  BANK20  BANK21  BANK22  BANK23  BANK24  BANK25  BANK26  BANK27  BANK28  BANK29  BANK30  BANK3
      +1  BANK32  BANK33  BANK34  BANK35  BANK36
  1352 ;;      Params:         0       0       0       0       0       0       0       0       0       0       0       0       
      +0       0       0       0       0       0       0       0       0       0       0       0       0       0       0       
      +0       0       0       0       0       0
  1353 ;;      Locals:         0       0       0       0       0       0       0       0       0       0       0       0       
      +0       0       0       0       0       0       0       0       0       0       0       0       0       0       0       
      +0       0       0       0       0       0
  1354 ;;      Temps:          0       0       0       0       0       0       0       0       0       0       0       0       
      +0       0       0       0       0       0       0       0       0       0       0       0       0       0       0       
      +0       0       0       0       0       0
  1355 ;;      Totals:         0       0       0       0       0       0       0       0       0       0       0       0       
      +0       0       0       0       0       0       0       0       0       0       0       0       0       0       0       
      +0       0       0       0       0       0
  1356 ;;Total ram usage:        0 bytes
  1357 ;; Hardware stack levels used: 1
  1358 ;; Hardware stack levels required when called: 2
  1359 ;; This function calls:
  1360 ;;		_I2C_ENVIA_LCD_CMD
  1361 ;; This function is called by:
  1362 ;;		_I2C_LCD_INIT
  1363 ;;		_main
  1364 ;; This function uses a non-reentrant model
  1365 ;;
  1366                           
  1367                           	psect	text5
  1368   0031B0                     __ptext5:
  1369                           	callstack 0
  1370   0031B0                     _I2C_BORRAR_LCD:
  1371                           	callstack 122
  1372   0031B0                     
  1373                           ;I2C_LCD.c: 133:  I2C_ENVIA_LCD_CMD(0x01);
  1374   0031B0  0E01               	movlw	1
  1375   0031B2  ECC8  F017         	call	_I2C_ENVIA_LCD_CMD
  1376   0031B6  0012               	return		;funcret
  1377   0031B8                     __end_of_I2C_BORRAR_LCD:
  1378                           	callstack 0
  1379                           
  1380 ;; *************** function _I2C1_INIT *****************
  1381 ;; Defined at:
  1382 ;;		line 16 in file "I2C_LCD.c"
  1383 ;; Parameters:    Size  Location     Type
  1384 ;;		None
  1385 ;; Auto vars:     Size  Location     Type
  1386 ;;		None
  1387 ;; Return value:  Size  Location     Type
  1388 ;;                  1    wreg      void 
  1389 ;; Registers used:
  1390 ;;		wreg, status,2
  1391 ;; Tracked objects:
  1392 ;;		On entry : 0/0
  1393 ;;		On exit  : 0/0
  1394 ;;		Unchanged: 0/0
  1395 ;; Data sizes:     COMRAM   BANK5   BANK6   BANK7   BANK8   BANK9  BANK10  BANK11  BANK12  BANK13  BANK14  BANK15  BANK1
      +6  BANK17  BANK18  BANK19  BANK20  BANK21  BANK22  BANK23  BANK24  BANK25  BANK26  BANK27  BANK28  BANK29  BANK30  BANK3
      +1  BANK32  BANK33  BANK34  BANK35  BANK36
  1396 ;;      Params:         0       0       0       0       0       0       0       0       0       0       0       0       
      +0       0       0       0       0       0       0       0       0       0       0       0       0       0       0       
      +0       0       0       0       0       0
  1397 ;;      Locals:         0       0       0       0       0       0       0       0       0       0       0       0       
      +0       0       0       0       0       0       0       0       0       0       0       0       0       0       0       
      +0       0       0       0       0       0
  1398 ;;      Temps:          0       0       0       0       0       0       0       0       0       0       0       0       
      +0       0       0       0       0       0       0       0       0       0       0       0       0       0       0       
      +0       0       0       0       0       0
  1399 ;;      Totals:         0       0       0       0       0       0       0       0       0       0       0       0       
      +0       0       0       0       0       0       0       0       0       0       0       0       0       0       0       
      +0       0       0       0       0       0
  1400 ;;Total ram usage:        0 bytes
  1401 ;; Hardware stack levels used: 1
  1402 ;; This function calls:
  1403 ;;		Nothing
  1404 ;; This function is called by:
  1405 ;;		_I2C_LCD_INIT
  1406 ;; This function uses a non-reentrant model
  1407 ;;
  1408                           
  1409                           	psect	text6
  1410   00317E                     __ptext6:
  1411                           	callstack 0
  1412   00317E                     _I2C1_INIT:
  1413                           	callstack 124
  1414   00317E                     
  1415                           ;I2C_LCD.c: 18:     TRISBbits.TRISB4 = 0;
  1416   00317E  98C7               	bcf	199,4,c	;volatile
  1417                           
  1418                           ;I2C_LCD.c: 19:     TRISBbits.TRISB5 = 0;
  1419   003180  9AC7               	bcf	199,5,c	;volatile
  1420                           
  1421                           ;I2C_LCD.c: 20:     ANSELBbits.ANSELB4 = 0;
  1422   003182  0104               	movlb	4	; () banked
  1423   003184  9908               	bcf	8,4,b	;volatile
  1424                           
  1425                           ;I2C_LCD.c: 21:     ANSELBbits.ANSELB5 = 0;
  1426   003186  9B08               	bcf	8,5,b	;volatile
  1427                           
  1428                           ;I2C_LCD.c: 22:     ODCONBbits.ODCB4 = 1;
  1429   003188  890A               	bsf	10,4,b	;volatile
  1430                           
  1431                           ;I2C_LCD.c: 23:     ODCONBbits.ODCB5 = 1;
  1432   00318A  8B0A               	bsf	10,5,b	;volatile
  1433   00318C                     
  1434                           ; BSR set to: 4
  1435                           ;I2C_LCD.c: 25:     RB5PPS = 0x37;
  1436   00318C  0E37               	movlw	55
  1437   00318E  0102               	movlb	2	; () banked
  1438   003190  6F0E               	movwf	14,b	;volatile
  1439                           
  1440                           ;I2C_LCD.c: 26:     RB4PPS = 0x38;
  1441   003192  0E38               	movlw	56
  1442   003194  6F0D               	movwf	13,b	;volatile
  1443   003196                     
  1444                           ; BSR set to: 2
  1445                           ;I2C_LCD.c: 32:     I2C1CON0bits.EN = 1;
  1446   003196  8F94               	bsf	148,7,b	;volatile
  1447                           
  1448                           ;I2C_LCD.c: 33:     I2C1CLKbits.CLK = 3;
  1449   003198  0E03               	movlw	3
  1450   00319A  6F9C               	movwf	156,b	;volatile
  1451                           
  1452                           ;I2C_LCD.c: 34:     I2C1CON0bits.MODE = 0x4;
  1453   00319C  5194               	movf	148,w,b	;volatile
  1454   00319E  0BF8               	andlw	-8
  1455   0031A0  0904               	iorlw	4
  1456   0031A2  6F94               	movwf	148,b	;volatile
  1457   0031A4                     
  1458                           ; BSR set to: 2
  1459                           ;I2C_LCD.c: 35:     I2C1CON2bits.ABD = 0;
  1460   0031A4  9996               	bcf	150,4,b	;volatile
  1461   0031A6                     
  1462                           ; BSR set to: 2
  1463   0031A6  0012               	return		;funcret
  1464   0031A8                     __end_of_I2C1_INIT:
  1465                           	callstack 0
  1466                           
  1467 ;; *************** function _Read_HCSR04 *****************
  1468 ;; Defined at:
  1469 ;;		line 25 in file "maincode01.c"
  1470 ;; Parameters:    Size  Location     Type
  1471 ;;  numero          1    wreg     unsigned char 
  1472 ;; Auto vars:     Size  Location     Type
  1473 ;;  numero          1    6[COMRAM] unsigned char 
  1474 ;;  cuentas         2    4[COMRAM] unsigned int 
  1475 ;; Return value:  Size  Location     Type
  1476 ;;                  2    0[COMRAM] unsigned int 
  1477 ;; Registers used:
  1478 ;;		wreg, status,2, status,0
  1479 ;; Tracked objects:
  1480 ;;		On entry : 0/0
  1481 ;;		On exit  : 0/0
  1482 ;;		Unchanged: 0/0
  1483 ;; Data sizes:     COMRAM   BANK5   BANK6   BANK7   BANK8   BANK9  BANK10  BANK11  BANK12  BANK13  BANK14  BANK15  BANK1
      +6  BANK17  BANK18  BANK19  BANK20  BANK21  BANK22  BANK23  BANK24  BANK25  BANK26  BANK27  BANK28  BANK29  BANK30  BANK3
      +1  BANK32  BANK33  BANK34  BANK35  BANK36
  1484 ;;      Params:         2       0       0       0       0       0       0       0       0       0       0       0       
      +0       0       0       0       0       0       0       0       0       0       0       0       0       0       0       
      +0       0       0       0       0       0
  1485 ;;      Locals:         3       0       0       0       0       0       0       0       0       0       0       0       
      +0       0       0       0       0       0       0       0       0       0       0       0       0       0       0       
      +0       0       0       0       0       0
  1486 ;;      Temps:          2       0       0       0       0       0       0       0       0       0       0       0       
      +0       0       0       0       0       0       0       0       0       0       0       0       0       0       0       
      +0       0       0       0       0       0
  1487 ;;      Totals:         7       0       0       0       0       0       0       0       0       0       0       0       
      +0       0       0       0       0       0       0       0       0       0       0       0       0       0       0       
      +0       0       0       0       0       0
  1488 ;;Total ram usage:        7 bytes
  1489 ;; Hardware stack levels used: 1
  1490 ;; This function calls:
  1491 ;;		Nothing
  1492 ;; This function is called by:
  1493 ;;		_main
  1494 ;; This function uses a non-reentrant model
  1495 ;;
  1496                           
  1497                           	psect	text7
  1498   002C76                     __ptext7:
  1499                           	callstack 0
  1500   002C76                     _Read_HCSR04:
  1501                           	callstack 126
  1502                           
  1503                           ; BSR set to: 2
  1504                           ;incstack = 0
  1505                           ;Read_HCSR04@numero stored from wreg
  1506   002C76  6E07               	movwf	Read_HCSR04@numero^(0+1280),c
  1507   002C78                     
  1508                           ;maincode01.c: 26:     unsigned int cuentas;;maincode01.c: 27:     TMR1H = 0;
  1509   002C78  0E00               	movlw	0
  1510   002C7A  0103               	movlb	3	; () banked
  1511   002C7C  6F1D               	movwf	29,b	;volatile
  1512                           
  1513                           ;maincode01.c: 28:     TMR1L = 0;
  1514   002C7E  0E00               	movlw	0
  1515   002C80  6F1C               	movwf	28,b	;volatile
  1516                           
  1517                           ;maincode01.c: 29:     switch (numero){
  1518   002C82  EF91  F016         	goto	l2062
  1519   002C86                     l229:
  1520                           
  1521                           ; BSR set to: 3
  1522                           ;maincode01.c: 31:             LATEbits.LATE0 = 1;
  1523   002C86  80C2               	bsf	194,0,c	;volatile
  1524   002C88                     
  1525                           ; BSR set to: 3
  1526                           ;maincode01.c: 32:             _delay((unsigned long)((10)*(32000000UL/4000000.0)));
  1527   002C88  0E1A               	movlw	26
  1528   002C8A                     u1167:
  1529   002C8A  2EE8               	decfsz	wreg,f,c
  1530   002C8C  D7FE               	bra	u1167
  1531   002C8E  D000               	nop2	
  1532   002C90                     
  1533                           ;maincode01.c: 33:             LATEbits.LATE0 = 0;
  1534   002C90  90C2               	bcf	194,0,c	;volatile
  1535   002C92                     l230:
  1536   002C92  A0D0               	btfss	208,0,c	;volatile
  1537   002C94  EF4E  F016         	goto	u541
  1538   002C98  EF50  F016         	goto	u540
  1539   002C9C                     u541:
  1540   002C9C  EF49  F016         	goto	l230
  1541   002CA0                     u540:
  1542   002CA0                     
  1543                           ;maincode01.c: 35:             T1CONbits.ON = 1;
  1544   002CA0  0103               	movlb	3	; () banked
  1545   002CA2  811E               	bsf	30,0,b	;volatile
  1546   002CA4                     l233:
  1547   002CA4  B0D0               	btfsc	208,0,c	;volatile
  1548   002CA6  EF57  F016         	goto	u551
  1549   002CAA  EF59  F016         	goto	u550
  1550   002CAE                     u551:
  1551   002CAE  EF52  F016         	goto	l233
  1552   002CB2                     u550:
  1553   002CB2                     
  1554                           ;maincode01.c: 37:             T1CONbits.ON = 0;
  1555   002CB2  0103               	movlb	3	; () banked
  1556   002CB4  911E               	bcf	30,0,b	;volatile
  1557                           
  1558                           ;maincode01.c: 38:             break;
  1559   002CB6  EFAA  F016         	goto	l236
  1560   002CBA                     l237:
  1561                           
  1562                           ; BSR set to: 3
  1563                           ;maincode01.c: 40:             LATEbits.LATE1 = 1;
  1564   002CBA  82C2               	bsf	194,1,c	;volatile
  1565   002CBC                     
  1566                           ; BSR set to: 3
  1567                           ;maincode01.c: 41:             _delay((unsigned long)((10)*(32000000UL/4000000.0)));
  1568   002CBC  0E1A               	movlw	26
  1569   002CBE                     u1177:
  1570   002CBE  2EE8               	decfsz	wreg,f,c
  1571   002CC0  D7FE               	bra	u1177
  1572   002CC2  D000               	nop2	
  1573   002CC4                     
  1574                           ;maincode01.c: 42:             LATEbits.LATE1 = 0;
  1575   002CC4  92C2               	bcf	194,1,c	;volatile
  1576   002CC6                     l238:
  1577   002CC6  A2D0               	btfss	208,1,c	;volatile
  1578   002CC8  EF68  F016         	goto	u561
  1579   002CCC  EF6A  F016         	goto	u560
  1580   002CD0                     u561:
  1581   002CD0  EF63  F016         	goto	l238
  1582   002CD4                     u560:
  1583   002CD4                     
  1584                           ;maincode01.c: 44:             T1CONbits.ON = 1;
  1585   002CD4  0103               	movlb	3	; () banked
  1586   002CD6  811E               	bsf	30,0,b	;volatile
  1587   002CD8                     l241:
  1588   002CD8  B2D0               	btfsc	208,1,c	;volatile
  1589   002CDA  EF71  F016         	goto	u571
  1590   002CDE  EF73  F016         	goto	u570
  1591   002CE2                     u571:
  1592   002CE2  EF6C  F016         	goto	l241
  1593   002CE6                     u570:
  1594   002CE6                     
  1595                           ;maincode01.c: 46:             T1CONbits.ON = 0;
  1596   002CE6  0103               	movlb	3	; () banked
  1597   002CE8  911E               	bcf	30,0,b	;volatile
  1598                           
  1599                           ;maincode01.c: 47:             break;
  1600   002CEA  EFAA  F016         	goto	l236
  1601   002CEE                     l244:
  1602                           
  1603                           ; BSR set to: 3
  1604                           ;maincode01.c: 49:             LATEbits.LATE2 = 1;
  1605   002CEE  84C2               	bsf	194,2,c	;volatile
  1606   002CF0                     
  1607                           ; BSR set to: 3
  1608                           ;maincode01.c: 50:             _delay((unsigned long)((10)*(32000000UL/4000000.0)));
  1609   002CF0  0E1A               	movlw	26
  1610   002CF2                     u1187:
  1611   002CF2  2EE8               	decfsz	wreg,f,c
  1612   002CF4  D7FE               	bra	u1187
  1613   002CF6  D000               	nop2	
  1614   002CF8                     
  1615                           ;maincode01.c: 51:             LATEbits.LATE2 = 0;
  1616   002CF8  94C2               	bcf	194,2,c	;volatile
  1617   002CFA                     l245:
  1618   002CFA  A4D0               	btfss	208,2,c	;volatile
  1619   002CFC  EF82  F016         	goto	u581
  1620   002D00  EF84  F016         	goto	u580
  1621   002D04                     u581:
  1622   002D04  EF7D  F016         	goto	l245
  1623   002D08                     u580:
  1624   002D08                     
  1625                           ;maincode01.c: 53:             T1CONbits.ON = 1;
  1626   002D08  0103               	movlb	3	; () banked
  1627   002D0A  811E               	bsf	30,0,b	;volatile
  1628   002D0C                     l248:
  1629   002D0C  B4D0               	btfsc	208,2,c	;volatile
  1630   002D0E  EF8B  F016         	goto	u591
  1631   002D12  EF8D  F016         	goto	u590
  1632   002D16                     u591:
  1633   002D16  EF86  F016         	goto	l248
  1634   002D1A                     u590:
  1635   002D1A                     
  1636                           ;maincode01.c: 55:             T1CONbits.ON = 0;
  1637   002D1A  0103               	movlb	3	; () banked
  1638   002D1C  911E               	bcf	30,0,b	;volatile
  1639                           
  1640                           ;maincode01.c: 56:             break;
  1641   002D1E  EFAA  F016         	goto	l236
  1642   002D22                     l2062:
  1643                           
  1644                           ; BSR set to: 3
  1645   002D22  5007               	movf	Read_HCSR04@numero^(0+1280),w,c
  1646   002D24  6E03               	movwf	??_Read_HCSR04^(0+1280),c
  1647   002D26  6A04               	clrf	(??_Read_HCSR04+1)^(0+1280),c
  1648                           
  1649                           ; Switch on 2 bytes has been partitioned into a top level switch of size 1, and 1 sub-sw
      +                          itches
  1650                           ; Switch size 1, requested type "simple"
  1651                           ; Number of cases is 1, Range of values is 0 to 0
  1652                           ; switch strategies available:
  1653                           ; Name         Instructions Cycles
  1654                           ; simple_byte            4     3 (average)
  1655                           ;	Chosen strategy is simple_byte
  1656   002D28  5004               	movf	(??_Read_HCSR04+1)^(0+1280),w,c
  1657   002D2A  0A00               	xorlw	0	; case 0
  1658   002D2C  B4D8               	btfsc	status,2,c
  1659   002D2E  EF9B  F016         	goto	l2320
  1660   002D32  EFAA  F016         	goto	l236
  1661   002D36                     l2320:
  1662                           
  1663                           ; BSR set to: 3
  1664                           ; Switch size 1, requested type "simple"
  1665                           ; Number of cases is 3, Range of values is 0 to 2
  1666                           ; switch strategies available:
  1667                           ; Name         Instructions Cycles
  1668                           ; simple_byte           10     6 (average)
  1669                           ;	Chosen strategy is simple_byte
  1670   002D36  5003               	movf	??_Read_HCSR04^(0+1280),w,c
  1671   002D38  0A00               	xorlw	0	; case 0
  1672   002D3A  B4D8               	btfsc	status,2,c
  1673   002D3C  EF43  F016         	goto	l229
  1674   002D40  0A01               	xorlw	1	; case 1
  1675   002D42  B4D8               	btfsc	status,2,c
  1676   002D44  EF5D  F016         	goto	l237
  1677   002D48  0A03               	xorlw	3	; case 2
  1678   002D4A  B4D8               	btfsc	status,2,c
  1679   002D4C  EF77  F016         	goto	l244
  1680   002D50  EFAA  F016         	goto	l236
  1681   002D54                     l236:
  1682                           
  1683                           ; BSR set to: 3
  1684                           ;maincode01.c: 58:     cuentas = TMR1;
  1685   002D54  C31C F505          	movff	796,Read_HCSR04@cuentas	;volatile
  1686   002D58  C31D F506          	movff	797,Read_HCSR04@cuentas+1	;volatile
  1687                           
  1688                           ;maincode01.c: 59:     return cuentas;
  1689   002D5C  C505  F501         	movff	Read_HCSR04@cuentas,?_Read_HCSR04
  1690   002D60  C506  F502         	movff	Read_HCSR04@cuentas+1,?_Read_HCSR04+1
  1691   002D64                     
  1692                           ; BSR set to: 3
  1693   002D64  0012               	return		;funcret
  1694   002D66                     __end_of_Read_HCSR04:
  1695                           	callstack 0
  1696                           
  1697 ;; *************** function _I2C_POS_CURSOR *****************
  1698 ;; Defined at:
  1699 ;;		line 48 in file "I2C_LCD.c"
  1700 ;; Parameters:    Size  Location     Type
  1701 ;;  fila            1    wreg     unsigned char 
  1702 ;;  columna         1    6[COMRAM] unsigned char 
  1703 ;; Auto vars:     Size  Location     Type
  1704 ;;  fila            1    7[COMRAM] unsigned char 
  1705 ;; Return value:  Size  Location     Type
  1706 ;;                  1    wreg      void 
  1707 ;; Registers used:
  1708 ;;		wreg, status,2, status,0, cstack
  1709 ;; Tracked objects:
  1710 ;;		On entry : 0/0
  1711 ;;		On exit  : 0/0
  1712 ;;		Unchanged: 0/0
  1713 ;; Data sizes:     COMRAM   BANK5   BANK6   BANK7   BANK8   BANK9  BANK10  BANK11  BANK12  BANK13  BANK14  BANK15  BANK1
      +6  BANK17  BANK18  BANK19  BANK20  BANK21  BANK22  BANK23  BANK24  BANK25  BANK26  BANK27  BANK28  BANK29  BANK30  BANK3
      +1  BANK32  BANK33  BANK34  BANK35  BANK36
  1714 ;;      Params:         1       0       0       0       0       0       0       0       0       0       0       0       
      +0       0       0       0       0       0       0       0       0       0       0       0       0       0       0       
      +0       0       0       0       0       0
  1715 ;;      Locals:         1       0       0       0       0       0       0       0       0       0       0       0       
      +0       0       0       0       0       0       0       0       0       0       0       0       0       0       0       
      +0       0       0       0       0       0
  1716 ;;      Temps:          0       0       0       0       0       0       0       0       0       0       0       0       
      +0       0       0       0       0       0       0       0       0       0       0       0       0       0       0       
      +0       0       0       0       0       0
  1717 ;;      Totals:         2       0       0       0       0       0       0       0       0       0       0       0       
      +0       0       0       0       0       0       0       0       0       0       0       0       0       0       0       
      +0       0       0       0       0       0
  1718 ;;Total ram usage:        2 bytes
  1719 ;; Hardware stack levels used: 1
  1720 ;; Hardware stack levels required when called: 2
  1721 ;; This function calls:
  1722 ;;		_I2C_ENVIA_LCD_CMD
  1723 ;; This function is called by:
  1724 ;;		_main
  1725 ;; This function uses a non-reentrant model
  1726 ;;
  1727                           
  1728                           	psect	text8
  1729   002E36                     __ptext8:
  1730                           	callstack 0
  1731   002E36                     _I2C_POS_CURSOR:
  1732                           	callstack 124
  1733                           
  1734                           ; BSR set to: 3
  1735                           ;incstack = 0
  1736                           ;I2C_POS_CURSOR@fila stored from wreg
  1737   002E36  6E08               	movwf	I2C_POS_CURSOR@fila^(0+1280),c
  1738   002E38                     
  1739                           ;I2C_LCD.c: 49:  if(fila == 1){
  1740   002E38  0408               	decf	I2C_POS_CURSOR@fila^(0+1280),w,c
  1741   002E3A  A4D8               	btfss	status,2,c
  1742   002E3C  EF22  F017         	goto	u471
  1743   002E40  EF24  F017         	goto	u470
  1744   002E44                     u471:
  1745   002E44  EF2A  F017         	goto	l1930
  1746   002E48                     u470:
  1747   002E48                     
  1748                           ;I2C_LCD.c: 50:   I2C_ENVIA_LCD_CMD(0x80+columna);
  1749   002E48  5007               	movf	I2C_POS_CURSOR@columna^(0+1280),w,c
  1750   002E4A  0F80               	addlw	128
  1751   002E4C  ECC8  F017         	call	_I2C_ENVIA_LCD_CMD
  1752                           
  1753                           ;I2C_LCD.c: 51:  }
  1754   002E50  EF57  F017         	goto	l61
  1755   002E54                     l1930:
  1756   002E54  0E02               	movlw	2
  1757   002E56  1808               	xorwf	I2C_POS_CURSOR@fila^(0+1280),w,c
  1758   002E58  A4D8               	btfss	status,2,c
  1759   002E5A  EF31  F017         	goto	u481
  1760   002E5E  EF33  F017         	goto	u480
  1761   002E62                     u481:
  1762   002E62  EF39  F017         	goto	l1934
  1763   002E66                     u480:
  1764   002E66                     
  1765                           ;I2C_LCD.c: 53:   I2C_ENVIA_LCD_CMD(0xC0+columna);
  1766   002E66  5007               	movf	I2C_POS_CURSOR@columna^(0+1280),w,c
  1767   002E68  0FC0               	addlw	192
  1768   002E6A  ECC8  F017         	call	_I2C_ENVIA_LCD_CMD
  1769                           
  1770                           ;I2C_LCD.c: 54:  }
  1771   002E6E  EF57  F017         	goto	l61
  1772   002E72                     l1934:
  1773   002E72  0E03               	movlw	3
  1774   002E74  1808               	xorwf	I2C_POS_CURSOR@fila^(0+1280),w,c
  1775   002E76  A4D8               	btfss	status,2,c
  1776   002E78  EF40  F017         	goto	u491
  1777   002E7C  EF42  F017         	goto	u490
  1778   002E80                     u491:
  1779   002E80  EF48  F017         	goto	l1938
  1780   002E84                     u490:
  1781   002E84                     
  1782                           ;I2C_LCD.c: 56:   I2C_ENVIA_LCD_CMD(0x94+columna);
  1783   002E84  5007               	movf	I2C_POS_CURSOR@columna^(0+1280),w,c
  1784   002E86  0F94               	addlw	148
  1785   002E88  ECC8  F017         	call	_I2C_ENVIA_LCD_CMD
  1786                           
  1787                           ;I2C_LCD.c: 57:  }
  1788   002E8C  EF57  F017         	goto	l61
  1789   002E90                     l1938:
  1790   002E90  0E04               	movlw	4
  1791   002E92  1808               	xorwf	I2C_POS_CURSOR@fila^(0+1280),w,c
  1792   002E94  A4D8               	btfss	status,2,c
  1793   002E96  EF4F  F017         	goto	u501
  1794   002E9A  EF51  F017         	goto	u500
  1795   002E9E                     u501:
  1796   002E9E  EF57  F017         	goto	l57
  1797   002EA2                     u500:
  1798   002EA2                     
  1799                           ;I2C_LCD.c: 59:   I2C_ENVIA_LCD_CMD(0xD4+columna);
  1800   002EA2  5007               	movf	I2C_POS_CURSOR@columna^(0+1280),w,c
  1801   002EA4  0FD4               	addlw	212
  1802   002EA6  ECC8  F017         	call	_I2C_ENVIA_LCD_CMD
  1803   002EAA  EF57  F017         	goto	l61
  1804   002EAE                     l57:
  1805   002EAE                     l61:
  1806   002EAE  0012               	return		;funcret
  1807   002EB0                     __end_of_I2C_POS_CURSOR:
  1808                           	callstack 0
  1809                           
  1810 ;; *************** function _I2C_ENVIA_LCD_CMD *****************
  1811 ;; Defined at:
  1812 ;;		line 136 in file "I2C_LCD.c"
  1813 ;; Parameters:    Size  Location     Type
  1814 ;;  command         1    wreg     unsigned char 
  1815 ;; Auto vars:     Size  Location     Type
  1816 ;;  command         1    3[COMRAM] unsigned char 
  1817 ;;  lownibble       1    5[COMRAM] unsigned char 
  1818 ;;  highnibble      1    4[COMRAM] unsigned char 
  1819 ;; Return value:  Size  Location     Type
  1820 ;;                  1    wreg      void 
  1821 ;; Registers used:
  1822 ;;		wreg, status,2, status,0, cstack
  1823 ;; Tracked objects:
  1824 ;;		On entry : 0/0
  1825 ;;		On exit  : 0/0
  1826 ;;		Unchanged: 0/0
  1827 ;; Data sizes:     COMRAM   BANK5   BANK6   BANK7   BANK8   BANK9  BANK10  BANK11  BANK12  BANK13  BANK14  BANK15  BANK1
      +6  BANK17  BANK18  BANK19  BANK20  BANK21  BANK22  BANK23  BANK24  BANK25  BANK26  BANK27  BANK28  BANK29  BANK30  BANK3
      +1  BANK32  BANK33  BANK34  BANK35  BANK36
  1828 ;;      Params:         0       0       0       0       0       0       0       0       0       0       0       0       
      +0       0       0       0       0       0       0       0       0       0       0       0       0       0       0       
      +0       0       0       0       0       0
  1829 ;;      Locals:         3       0       0       0       0       0       0       0       0       0       0       0       
      +0       0       0       0       0       0       0       0       0       0       0       0       0       0       0       
      +0       0       0       0       0       0
  1830 ;;      Temps:          1       0       0       0       0       0       0       0       0       0       0       0       
      +0       0       0       0       0       0       0       0       0       0       0       0       0       0       0       
      +0       0       0       0       0       0
  1831 ;;      Totals:         4       0       0       0       0       0       0       0       0       0       0       0       
      +0       0       0       0       0       0       0       0       0       0       0       0       0       0       0       
      +0       0       0       0       0       0
  1832 ;;Total ram usage:        4 bytes
  1833 ;; Hardware stack levels used: 1
  1834 ;; Hardware stack levels required when called: 1
  1835 ;; This function calls:
  1836 ;;		_I2C1_WRITESINGLEBYTE
  1837 ;; This function is called by:
  1838 ;;		_I2C_POS_CURSOR
  1839 ;;		_I2C_CURSOR_HOME
  1840 ;;		_I2C_CURSOR_ONOFF
  1841 ;;		_I2C_BORRAR_LCD
  1842 ;;		_I2C_BLINK_CURSOR
  1843 ;;		_I2C_DISPLAY_ONOFF
  1844 ;;		_I2C_CURSOR_SHIFTLEFT
  1845 ;;		_I2C_CURSOR_SHIFTRIGHT
  1846 ;;		_I2C_DISPLAY_SHIFTLEFT
  1847 ;;		_I2C_DISPLAY_SHIFTRIGHT
  1848 ;;		_I2C_GENERACARACTER
  1849 ;; This function uses a non-reentrant model
  1850 ;;
  1851                           
  1852                           	psect	text9
  1853   002F90                     __ptext9:
  1854                           	callstack 0
  1855   002F90                     _I2C_ENVIA_LCD_CMD:
  1856                           	callstack 122
  1857                           
  1858                           ;incstack = 0
  1859                           ;I2C_ENVIA_LCD_CMD@command stored from wreg
  1860   002F90  6E04               	movwf	I2C_ENVIA_LCD_CMD@command^(0+1280),c
  1861   002F92                     
  1862                           ;I2C_LCD.c: 137:     unsigned char highnibble;;I2C_LCD.c: 138:     unsigned char lownibb
      +                          le;;I2C_LCD.c: 140:     highnibble = (command & 0xF0) | 0x08;
  1863   002F92  5004               	movf	I2C_ENVIA_LCD_CMD@command^(0+1280),w,c
  1864   002F94  0BF0               	andlw	240
  1865   002F96  0908               	iorlw	8
  1866   002F98  6E05               	movwf	I2C_ENVIA_LCD_CMD@highnibble^(0+1280),c
  1867                           
  1868                           ;I2C_LCD.c: 141:     lownibble = (unsigned char)(((command & 0x0F)<<4)| 0x08);
  1869   002F9A  C504  F503         	movff	I2C_ENVIA_LCD_CMD@command,??_I2C_ENVIA_LCD_CMD
  1870   002F9E  0E0F               	movlw	15
  1871   002FA0  1603               	andwf	??_I2C_ENVIA_LCD_CMD^(0+1280),f,c
  1872   002FA2  3803               	swapf	??_I2C_ENVIA_LCD_CMD^(0+1280),w,c
  1873   002FA4  0BF0               	andlw	240
  1874   002FA6  0908               	iorlw	8
  1875   002FA8  6E06               	movwf	I2C_ENVIA_LCD_CMD@lownibble^(0+1280),c
  1876   002FAA                     
  1877                           ;I2C_LCD.c: 143:     I2C1_WRITESINGLEBYTE(0x27,(highnibble | 0x04));
  1878   002FAA  5005               	movf	I2C_ENVIA_LCD_CMD@highnibble^(0+1280),w,c
  1879   002FAC  0904               	iorlw	4
  1880   002FAE  6E01               	movwf	I2C1_WRITESINGLEBYTE@dato^(0+1280),c
  1881   002FB0  0E27               	movlw	39
  1882   002FB2  EC50  F018         	call	_I2C1_WRITESINGLEBYTE
  1883   002FB6                     
  1884                           ;I2C_LCD.c: 144:     _delay((unsigned long)((20)*(32000000UL/4000000.0)));
  1885   002FB6  0E35               	movlw	53
  1886   002FB8                     u1197:
  1887   002FB8  2EE8               	decfsz	wreg,f,c
  1888   002FBA  D7FE               	bra	u1197
  1889   002FBC  0000               	nop	
  1890   002FBE                     
  1891                           ;I2C_LCD.c: 145:     I2C1_WRITESINGLEBYTE(0x27,highnibble);
  1892   002FBE  C505  F501         	movff	I2C_ENVIA_LCD_CMD@highnibble,I2C1_WRITESINGLEBYTE@dato
  1893   002FC2  0E27               	movlw	39
  1894   002FC4  EC50  F018         	call	_I2C1_WRITESINGLEBYTE
  1895   002FC8                     
  1896                           ;I2C_LCD.c: 146:     _delay((unsigned long)((20)*(32000000UL/4000000.0)));
  1897   002FC8  0E35               	movlw	53
  1898   002FCA                     u1207:
  1899   002FCA  2EE8               	decfsz	wreg,f,c
  1900   002FCC  D7FE               	bra	u1207
  1901   002FCE  0000               	nop	
  1902   002FD0                     
  1903                           ;I2C_LCD.c: 148:     I2C1_WRITESINGLEBYTE(0x27,(lownibble | 0x04));
  1904   002FD0  5006               	movf	I2C_ENVIA_LCD_CMD@lownibble^(0+1280),w,c
  1905   002FD2  0904               	iorlw	4
  1906   002FD4  6E01               	movwf	I2C1_WRITESINGLEBYTE@dato^(0+1280),c
  1907   002FD6  0E27               	movlw	39
  1908   002FD8  EC50  F018         	call	_I2C1_WRITESINGLEBYTE
  1909   002FDC                     
  1910                           ;I2C_LCD.c: 149:     _delay((unsigned long)((20)*(32000000UL/4000000.0)));
  1911   002FDC  0E35               	movlw	53
  1912   002FDE                     u1217:
  1913   002FDE  2EE8               	decfsz	wreg,f,c
  1914   002FE0  D7FE               	bra	u1217
  1915   002FE2  0000               	nop	
  1916   002FE4                     
  1917                           ;I2C_LCD.c: 150:     I2C1_WRITESINGLEBYTE(0x27,lownibble);
  1918   002FE4  C506  F501         	movff	I2C_ENVIA_LCD_CMD@lownibble,I2C1_WRITESINGLEBYTE@dato
  1919   002FE8  0E27               	movlw	39
  1920   002FEA  EC50  F018         	call	_I2C1_WRITESINGLEBYTE
  1921   002FEE                     
  1922                           ;I2C_LCD.c: 151:     _delay((unsigned long)((20)*(32000000UL/4000000.0)));
  1923   002FEE  0E35               	movlw	53
  1924   002FF0                     u1227:
  1925   002FF0  2EE8               	decfsz	wreg,f,c
  1926   002FF2  D7FE               	bra	u1227
  1927   002FF4  0000               	nop	
  1928   002FF6  0012               	return		;funcret
  1929   002FF8                     __end_of_I2C_ENVIA_LCD_CMD:
  1930                           	callstack 0
  1931                           
  1932 ;; *************** function _I2C_LCD_ESCRIBE_VAR_INT *****************
  1933 ;; Defined at:
  1934 ;;		line 310 in file "I2C_LCD.c"
  1935 ;; Parameters:    Size  Location     Type
  1936 ;;  numero          2   12[COMRAM] unsigned int 
  1937 ;;  n_digitos       1   14[COMRAM] unsigned char 
  1938 ;;  punto           1   15[COMRAM] unsigned char 
  1939 ;; Auto vars:     Size  Location     Type
  1940 ;;  unidad          1   22[COMRAM] unsigned char 
  1941 ;;  decena          1   21[COMRAM] unsigned char 
  1942 ;;  centena         1   20[COMRAM] unsigned char 
  1943 ;;  millar          1   19[COMRAM] unsigned char 
  1944 ;;  d_millar        1   18[COMRAM] unsigned char 
  1945 ;; Return value:  Size  Location     Type
  1946 ;;                  1    wreg      void 
  1947 ;; Registers used:
  1948 ;;		wreg, status,2, status,0, cstack
  1949 ;; Tracked objects:
  1950 ;;		On entry : 0/0
  1951 ;;		On exit  : 0/0
  1952 ;;		Unchanged: 0/0
  1953 ;; Data sizes:     COMRAM   BANK5   BANK6   BANK7   BANK8   BANK9  BANK10  BANK11  BANK12  BANK13  BANK14  BANK15  BANK1
      +6  BANK17  BANK18  BANK19  BANK20  BANK21  BANK22  BANK23  BANK24  BANK25  BANK26  BANK27  BANK28  BANK29  BANK30  BANK3
      +1  BANK32  BANK33  BANK34  BANK35  BANK36
  1954 ;;      Params:         4       0       0       0       0       0       0       0       0       0       0       0       
      +0       0       0       0       0       0       0       0       0       0       0       0       0       0       0       
      +0       0       0       0       0       0
  1955 ;;      Locals:         5       0       0       0       0       0       0       0       0       0       0       0       
      +0       0       0       0       0       0       0       0       0       0       0       0       0       0       0       
      +0       0       0       0       0       0
  1956 ;;      Temps:          2       0       0       0       0       0       0       0       0       0       0       0       
      +0       0       0       0       0       0       0       0       0       0       0       0       0       0       0       
      +0       0       0       0       0       0
  1957 ;;      Totals:        11       0       0       0       0       0       0       0       0       0       0       0       
      +0       0       0       0       0       0       0       0       0       0       0       0       0       0       0       
      +0       0       0       0       0       0
  1958 ;;Total ram usage:       11 bytes
  1959 ;; Hardware stack levels used: 1
  1960 ;; Hardware stack levels required when called: 2
  1961 ;; This function calls:
  1962 ;;		_I2C_ENVIA_LCD_DATA
  1963 ;;		___lwdiv
  1964 ;;		___lwmod
  1965 ;; This function is called by:
  1966 ;;		_main
  1967 ;; This function uses a non-reentrant model
  1968 ;;
  1969                           
  1970                           	psect	text10
  1971   002528                     __ptext10:
  1972                           	callstack 0
  1973   002528                     _I2C_LCD_ESCRIBE_VAR_INT:
  1974                           	callstack 124
  1975   002528                     
  1976                           ;I2C_LCD.c: 311:     unsigned char d_millar, millar, centena, decena, unidad;;I2C_LCD.c:
      +                           312:     d_millar = numero / 10000;
  1977   002528  C50D  F506         	movff	I2C_LCD_ESCRIBE_VAR_INT@numero,___lwdiv@dividend
  1978   00252C  C50E  F507         	movff	I2C_LCD_ESCRIBE_VAR_INT@numero+1,___lwdiv@dividend+1
  1979   002530  0E27               	movlw	39
  1980   002532  6E09               	movwf	(___lwdiv@divisor+1)^(0+1280),c
  1981   002534  0E10               	movlw	16
  1982   002536  6E08               	movwf	___lwdiv@divisor^(0+1280),c
  1983   002538  EC58  F017         	call	___lwdiv	;wreg free
  1984   00253C  5006               	movf	?___lwdiv^(0+1280),w,c
  1985   00253E  6E13               	movwf	I2C_LCD_ESCRIBE_VAR_INT@d_millar^(0+1280),c
  1986                           
  1987                           ;I2C_LCD.c: 313:     millar = (numero % 10000) / 1000;
  1988   002540  0E27               	movlw	39
  1989   002542  6E04               	movwf	(___lwmod@divisor+1)^(0+1280),c
  1990   002544  0E10               	movlw	16
  1991   002546  6E03               	movwf	___lwmod@divisor^(0+1280),c
  1992   002548  C50D  F501         	movff	I2C_LCD_ESCRIBE_VAR_INT@numero,___lwmod@dividend
  1993   00254C  C50E  F502         	movff	I2C_LCD_ESCRIBE_VAR_INT@numero+1,___lwmod@dividend+1
  1994   002550  ECFC  F017         	call	___lwmod	;wreg free
  1995   002554  C501  F506         	movff	?___lwmod,___lwdiv@dividend
  1996   002558  C502  F507         	movff	?___lwmod+1,___lwdiv@dividend+1
  1997   00255C  0E03               	movlw	3
  1998   00255E  6E09               	movwf	(___lwdiv@divisor+1)^(0+1280),c
  1999   002560  0EE8               	movlw	232
  2000   002562  6E08               	movwf	___lwdiv@divisor^(0+1280),c
  2001   002564  EC58  F017         	call	___lwdiv	;wreg free
  2002   002568  5006               	movf	?___lwdiv^(0+1280),w,c
  2003   00256A  6E14               	movwf	I2C_LCD_ESCRIBE_VAR_INT@millar^(0+1280),c
  2004                           
  2005                           ;I2C_LCD.c: 314:     centena = (numero % 1000) / 100;
  2006   00256C  0E03               	movlw	3
  2007   00256E  6E04               	movwf	(___lwmod@divisor+1)^(0+1280),c
  2008   002570  0EE8               	movlw	232
  2009   002572  6E03               	movwf	___lwmod@divisor^(0+1280),c
  2010   002574  C50D  F501         	movff	I2C_LCD_ESCRIBE_VAR_INT@numero,___lwmod@dividend
  2011   002578  C50E  F502         	movff	I2C_LCD_ESCRIBE_VAR_INT@numero+1,___lwmod@dividend+1
  2012   00257C  ECFC  F017         	call	___lwmod	;wreg free
  2013   002580  C501  F506         	movff	?___lwmod,___lwdiv@dividend
  2014   002584  C502  F507         	movff	?___lwmod+1,___lwdiv@dividend+1
  2015   002588  0E00               	movlw	0
  2016   00258A  6E09               	movwf	(___lwdiv@divisor+1)^(0+1280),c
  2017   00258C  0E64               	movlw	100
  2018   00258E  6E08               	movwf	___lwdiv@divisor^(0+1280),c
  2019   002590  EC58  F017         	call	___lwdiv	;wreg free
  2020   002594  5006               	movf	?___lwdiv^(0+1280),w,c
  2021   002596  6E15               	movwf	I2C_LCD_ESCRIBE_VAR_INT@centena^(0+1280),c
  2022                           
  2023                           ;I2C_LCD.c: 315:     decena = (numero % 100) / 10;
  2024   002598  0E00               	movlw	0
  2025   00259A  6E04               	movwf	(___lwmod@divisor+1)^(0+1280),c
  2026   00259C  0E64               	movlw	100
  2027   00259E  6E03               	movwf	___lwmod@divisor^(0+1280),c
  2028   0025A0  C50D  F501         	movff	I2C_LCD_ESCRIBE_VAR_INT@numero,___lwmod@dividend
  2029   0025A4  C50E  F502         	movff	I2C_LCD_ESCRIBE_VAR_INT@numero+1,___lwmod@dividend+1
  2030   0025A8  ECFC  F017         	call	___lwmod	;wreg free
  2031   0025AC  C501  F506         	movff	?___lwmod,___lwdiv@dividend
  2032   0025B0  C502  F507         	movff	?___lwmod+1,___lwdiv@dividend+1
  2033   0025B4  0E00               	movlw	0
  2034   0025B6  6E09               	movwf	(___lwdiv@divisor+1)^(0+1280),c
  2035   0025B8  0E0A               	movlw	10
  2036   0025BA  6E08               	movwf	___lwdiv@divisor^(0+1280),c
  2037   0025BC  EC58  F017         	call	___lwdiv	;wreg free
  2038   0025C0  5006               	movf	?___lwdiv^(0+1280),w,c
  2039   0025C2  6E16               	movwf	I2C_LCD_ESCRIBE_VAR_INT@decena^(0+1280),c
  2040                           
  2041                           ;I2C_LCD.c: 316:     unidad = numero % 10;
  2042   0025C4  C50D  F501         	movff	I2C_LCD_ESCRIBE_VAR_INT@numero,___lwmod@dividend
  2043   0025C8  C50E  F502         	movff	I2C_LCD_ESCRIBE_VAR_INT@numero+1,___lwmod@dividend+1
  2044   0025CC  0E00               	movlw	0
  2045   0025CE  6E04               	movwf	(___lwmod@divisor+1)^(0+1280),c
  2046   0025D0  0E0A               	movlw	10
  2047   0025D2  6E03               	movwf	___lwmod@divisor^(0+1280),c
  2048   0025D4  ECFC  F017         	call	___lwmod	;wreg free
  2049   0025D8  5001               	movf	?___lwmod^(0+1280),w,c
  2050   0025DA  6E17               	movwf	I2C_LCD_ESCRIBE_VAR_INT@unidad^(0+1280),c
  2051                           
  2052                           ;I2C_LCD.c: 317:     switch(n_digitos){
  2053   0025DC  EF6F  F014         	goto	l2004
  2054   0025E0                     l1956:
  2055                           
  2056                           ;I2C_LCD.c: 319:             I2C_ENVIA_LCD_DATA(unidad+0x30);
  2057   0025E0  5017               	movf	I2C_LCD_ESCRIBE_VAR_INT@unidad^(0+1280),w,c
  2058   0025E2  0F30               	addlw	48
  2059   0025E4  EC92  F017         	call	_I2C_ENVIA_LCD_DATA
  2060                           
  2061                           ;I2C_LCD.c: 320:             break;
  2062   0025E8  EF90  F014         	goto	l159
  2063   0025EC                     l1958:
  2064                           
  2065                           ;I2C_LCD.c: 322:             if(punto == 0){
  2066   0025EC  5010               	movf	I2C_LCD_ESCRIBE_VAR_INT@punto^(0+1280),w,c
  2067   0025EE  A4D8               	btfss	status,2,c
  2068   0025F0  EFFC  F012         	goto	u521
  2069   0025F4  EFFE  F012         	goto	u520
  2070   0025F8                     u521:
  2071   0025F8  EF08  F013         	goto	l1962
  2072   0025FC                     u520:
  2073   0025FC                     
  2074                           ;I2C_LCD.c: 323:                 I2C_ENVIA_LCD_DATA(decena+0x30);
  2075   0025FC  5016               	movf	I2C_LCD_ESCRIBE_VAR_INT@decena^(0+1280),w,c
  2076   0025FE  0F30               	addlw	48
  2077   002600  EC92  F017         	call	_I2C_ENVIA_LCD_DATA
  2078                           
  2079                           ;I2C_LCD.c: 324:                 I2C_ENVIA_LCD_DATA(unidad+0x30);
  2080   002604  5017               	movf	I2C_LCD_ESCRIBE_VAR_INT@unidad^(0+1280),w,c
  2081   002606  0F30               	addlw	48
  2082   002608  EC92  F017         	call	_I2C_ENVIA_LCD_DATA
  2083                           
  2084                           ;I2C_LCD.c: 325:             }
  2085   00260C  EF90  F014         	goto	l159
  2086   002610                     l1962:
  2087   002610  0410               	decf	I2C_LCD_ESCRIBE_VAR_INT@punto^(0+1280),w,c
  2088   002612  A4D8               	btfss	status,2,c
  2089   002614  EF0E  F013         	goto	u531
  2090   002618  EF10  F013         	goto	u530
  2091   00261C                     u531:
  2092   00261C  EF90  F014         	goto	l159
  2093   002620                     u530:
  2094   002620                     
  2095                           ;I2C_LCD.c: 327:                 I2C_ENVIA_LCD_DATA(decena+0x30);
  2096   002620  5016               	movf	I2C_LCD_ESCRIBE_VAR_INT@decena^(0+1280),w,c
  2097   002622  0F30               	addlw	48
  2098   002624  EC92  F017         	call	_I2C_ENVIA_LCD_DATA
  2099                           
  2100                           ;I2C_LCD.c: 328:                 I2C_ENVIA_LCD_DATA('.');
  2101   002628  0E2E               	movlw	46
  2102   00262A  EC92  F017         	call	_I2C_ENVIA_LCD_DATA
  2103                           
  2104                           ;I2C_LCD.c: 329:                 I2C_ENVIA_LCD_DATA(unidad+0x30);
  2105   00262E  5017               	movf	I2C_LCD_ESCRIBE_VAR_INT@unidad^(0+1280),w,c
  2106   002630  0F30               	addlw	48
  2107   002632  EC92  F017         	call	_I2C_ENVIA_LCD_DATA
  2108   002636  EF90  F014         	goto	l159
  2109   00263A                     l1966:
  2110                           
  2111                           ;I2C_LCD.c: 335:                     I2C_ENVIA_LCD_DATA(centena+0x30);
  2112   00263A  5015               	movf	I2C_LCD_ESCRIBE_VAR_INT@centena^(0+1280),w,c
  2113   00263C  0F30               	addlw	48
  2114   00263E  EC92  F017         	call	_I2C_ENVIA_LCD_DATA
  2115                           
  2116                           ;I2C_LCD.c: 336:                     I2C_ENVIA_LCD_DATA(decena+0x30);
  2117   002642  5016               	movf	I2C_LCD_ESCRIBE_VAR_INT@decena^(0+1280),w,c
  2118   002644  0F30               	addlw	48
  2119   002646  EC92  F017         	call	_I2C_ENVIA_LCD_DATA
  2120                           
  2121                           ;I2C_LCD.c: 337:                     I2C_ENVIA_LCD_DATA(unidad+0x30);
  2122   00264A  5017               	movf	I2C_LCD_ESCRIBE_VAR_INT@unidad^(0+1280),w,c
  2123   00264C  0F30               	addlw	48
  2124   00264E  EC92  F017         	call	_I2C_ENVIA_LCD_DATA
  2125                           
  2126                           ;I2C_LCD.c: 338:                     break;
  2127   002652  EF90  F014         	goto	l159
  2128   002656                     l1968:
  2129                           
  2130                           ;I2C_LCD.c: 340:                     I2C_ENVIA_LCD_DATA(centena+0x30);
  2131   002656  5015               	movf	I2C_LCD_ESCRIBE_VAR_INT@centena^(0+1280),w,c
  2132   002658  0F30               	addlw	48
  2133   00265A  EC92  F017         	call	_I2C_ENVIA_LCD_DATA
  2134                           
  2135                           ;I2C_LCD.c: 341:                     I2C_ENVIA_LCD_DATA(decena+0x30);
  2136   00265E  5016               	movf	I2C_LCD_ESCRIBE_VAR_INT@decena^(0+1280),w,c
  2137   002660  0F30               	addlw	48
  2138   002662  EC92  F017         	call	_I2C_ENVIA_LCD_DATA
  2139                           
  2140                           ;I2C_LCD.c: 342:                     I2C_ENVIA_LCD_DATA('.');
  2141   002666  0E2E               	movlw	46
  2142   002668  EC92  F017         	call	_I2C_ENVIA_LCD_DATA
  2143                           
  2144                           ;I2C_LCD.c: 343:                     I2C_ENVIA_LCD_DATA(unidad+0x30);
  2145   00266C  5017               	movf	I2C_LCD_ESCRIBE_VAR_INT@unidad^(0+1280),w,c
  2146   00266E  0F30               	addlw	48
  2147   002670  EC92  F017         	call	_I2C_ENVIA_LCD_DATA
  2148                           
  2149                           ;I2C_LCD.c: 344:                     break;
  2150   002674  EF90  F014         	goto	l159
  2151   002678                     l1970:
  2152                           
  2153                           ;I2C_LCD.c: 346:                     I2C_ENVIA_LCD_DATA(centena+0x30);
  2154   002678  5015               	movf	I2C_LCD_ESCRIBE_VAR_INT@centena^(0+1280),w,c
  2155   00267A  0F30               	addlw	48
  2156   00267C  EC92  F017         	call	_I2C_ENVIA_LCD_DATA
  2157                           
  2158                           ;I2C_LCD.c: 347:                     I2C_ENVIA_LCD_DATA('.');
  2159   002680  0E2E               	movlw	46
  2160   002682  EC92  F017         	call	_I2C_ENVIA_LCD_DATA
  2161                           
  2162                           ;I2C_LCD.c: 348:                     I2C_ENVIA_LCD_DATA(decena+0x30);
  2163   002686  5016               	movf	I2C_LCD_ESCRIBE_VAR_INT@decena^(0+1280),w,c
  2164   002688  0F30               	addlw	48
  2165   00268A  EC92  F017         	call	_I2C_ENVIA_LCD_DATA
  2166                           
  2167                           ;I2C_LCD.c: 349:                     I2C_ENVIA_LCD_DATA(unidad+0x30);
  2168   00268E  5017               	movf	I2C_LCD_ESCRIBE_VAR_INT@unidad^(0+1280),w,c
  2169   002690  0F30               	addlw	48
  2170   002692  EC92  F017         	call	_I2C_ENVIA_LCD_DATA
  2171                           
  2172                           ;I2C_LCD.c: 350:                     break;
  2173   002696  EF90  F014         	goto	l159
  2174   00269A                     l1974:
  2175   00269A  5010               	movf	I2C_LCD_ESCRIBE_VAR_INT@punto^(0+1280),w,c
  2176   00269C  6E11               	movwf	??_I2C_LCD_ESCRIBE_VAR_INT^(0+1280),c
  2177   00269E  6A12               	clrf	(??_I2C_LCD_ESCRIBE_VAR_INT+1)^(0+1280),c
  2178                           
  2179                           ; Switch on 2 bytes has been partitioned into a top level switch of size 1, and 1 sub-sw
      +                          itches
  2180                           ; Switch size 1, requested type "simple"
  2181                           ; Number of cases is 1, Range of values is 0 to 0
  2182                           ; switch strategies available:
  2183                           ; Name         Instructions Cycles
  2184                           ; simple_byte            4     3 (average)
  2185                           ;	Chosen strategy is simple_byte
  2186   0026A0  5012               	movf	(??_I2C_LCD_ESCRIBE_VAR_INT+1)^(0+1280),w,c
  2187   0026A2  0A00               	xorlw	0	; case 0
  2188   0026A4  B4D8               	btfsc	status,2,c
  2189   0026A6  EF57  F013         	goto	l2322
  2190   0026AA  EF90  F014         	goto	l159
  2191   0026AE                     l2322:
  2192                           
  2193                           ; Switch size 1, requested type "simple"
  2194                           ; Number of cases is 3, Range of values is 0 to 2
  2195                           ; switch strategies available:
  2196                           ; Name         Instructions Cycles
  2197                           ; simple_byte           10     6 (average)
  2198                           ;	Chosen strategy is simple_byte
  2199   0026AE  5011               	movf	??_I2C_LCD_ESCRIBE_VAR_INT^(0+1280),w,c
  2200   0026B0  0A00               	xorlw	0	; case 0
  2201   0026B2  B4D8               	btfsc	status,2,c
  2202   0026B4  EF1D  F013         	goto	l1966
  2203   0026B8  0A01               	xorlw	1	; case 1
  2204   0026BA  B4D8               	btfsc	status,2,c
  2205   0026BC  EF2B  F013         	goto	l1968
  2206   0026C0  0A03               	xorlw	3	; case 2
  2207   0026C2  B4D8               	btfsc	status,2,c
  2208   0026C4  EF3C  F013         	goto	l1970
  2209   0026C8  EF90  F014         	goto	l159
  2210   0026CC                     l1976:
  2211                           
  2212                           ;I2C_LCD.c: 356:                     I2C_ENVIA_LCD_DATA(millar+0x30);
  2213   0026CC  5014               	movf	I2C_LCD_ESCRIBE_VAR_INT@millar^(0+1280),w,c
  2214   0026CE  0F30               	addlw	48
  2215   0026D0  EC92  F017         	call	_I2C_ENVIA_LCD_DATA
  2216                           
  2217                           ;I2C_LCD.c: 357:                     I2C_ENVIA_LCD_DATA(centena+0x30);
  2218   0026D4  5015               	movf	I2C_LCD_ESCRIBE_VAR_INT@centena^(0+1280),w,c
  2219   0026D6  0F30               	addlw	48
  2220   0026D8  EC92  F017         	call	_I2C_ENVIA_LCD_DATA
  2221                           
  2222                           ;I2C_LCD.c: 358:                     I2C_ENVIA_LCD_DATA(decena+0x30);
  2223   0026DC  5016               	movf	I2C_LCD_ESCRIBE_VAR_INT@decena^(0+1280),w,c
  2224   0026DE  0F30               	addlw	48
  2225   0026E0  EC92  F017         	call	_I2C_ENVIA_LCD_DATA
  2226                           
  2227                           ;I2C_LCD.c: 359:                     I2C_ENVIA_LCD_DATA(unidad+0x30);
  2228   0026E4  5017               	movf	I2C_LCD_ESCRIBE_VAR_INT@unidad^(0+1280),w,c
  2229   0026E6  0F30               	addlw	48
  2230   0026E8  EC92  F017         	call	_I2C_ENVIA_LCD_DATA
  2231                           
  2232                           ;I2C_LCD.c: 360:                     break;
  2233   0026EC  EF90  F014         	goto	l159
  2234   0026F0                     l1978:
  2235                           
  2236                           ;I2C_LCD.c: 362:                     I2C_ENVIA_LCD_DATA(millar+0x30);
  2237   0026F0  5014               	movf	I2C_LCD_ESCRIBE_VAR_INT@millar^(0+1280),w,c
  2238   0026F2  0F30               	addlw	48
  2239   0026F4  EC92  F017         	call	_I2C_ENVIA_LCD_DATA
  2240                           
  2241                           ;I2C_LCD.c: 363:                     I2C_ENVIA_LCD_DATA(centena+0x30);
  2242   0026F8  5015               	movf	I2C_LCD_ESCRIBE_VAR_INT@centena^(0+1280),w,c
  2243   0026FA  0F30               	addlw	48
  2244   0026FC  EC92  F017         	call	_I2C_ENVIA_LCD_DATA
  2245                           
  2246                           ;I2C_LCD.c: 364:                     I2C_ENVIA_LCD_DATA(decena+0x30);
  2247   002700  5016               	movf	I2C_LCD_ESCRIBE_VAR_INT@decena^(0+1280),w,c
  2248   002702  0F30               	addlw	48
  2249   002704  EC92  F017         	call	_I2C_ENVIA_LCD_DATA
  2250                           
  2251                           ;I2C_LCD.c: 365:                     I2C_ENVIA_LCD_DATA('.');
  2252   002708  0E2E               	movlw	46
  2253   00270A  EC92  F017         	call	_I2C_ENVIA_LCD_DATA
  2254                           
  2255                           ;I2C_LCD.c: 366:                     I2C_ENVIA_LCD_DATA(unidad+0x30);
  2256   00270E  5017               	movf	I2C_LCD_ESCRIBE_VAR_INT@unidad^(0+1280),w,c
  2257   002710  0F30               	addlw	48
  2258   002712  EC92  F017         	call	_I2C_ENVIA_LCD_DATA
  2259                           
  2260                           ;I2C_LCD.c: 367:                     break;
  2261   002716  EF90  F014         	goto	l159
  2262   00271A                     l1980:
  2263                           
  2264                           ;I2C_LCD.c: 369:                     I2C_ENVIA_LCD_DATA(millar+0x30);
  2265   00271A  5014               	movf	I2C_LCD_ESCRIBE_VAR_INT@millar^(0+1280),w,c
  2266   00271C  0F30               	addlw	48
  2267   00271E  EC92  F017         	call	_I2C_ENVIA_LCD_DATA
  2268                           
  2269                           ;I2C_LCD.c: 370:                     I2C_ENVIA_LCD_DATA(centena+0x30);
  2270   002722  5015               	movf	I2C_LCD_ESCRIBE_VAR_INT@centena^(0+1280),w,c
  2271   002724  0F30               	addlw	48
  2272   002726  EC92  F017         	call	_I2C_ENVIA_LCD_DATA
  2273                           
  2274                           ;I2C_LCD.c: 371:                     I2C_ENVIA_LCD_DATA('.');
  2275   00272A  0E2E               	movlw	46
  2276   00272C  EC92  F017         	call	_I2C_ENVIA_LCD_DATA
  2277                           
  2278                           ;I2C_LCD.c: 372:                     I2C_ENVIA_LCD_DATA(decena+0x30);
  2279   002730  5016               	movf	I2C_LCD_ESCRIBE_VAR_INT@decena^(0+1280),w,c
  2280   002732  0F30               	addlw	48
  2281   002734  EC92  F017         	call	_I2C_ENVIA_LCD_DATA
  2282                           
  2283                           ;I2C_LCD.c: 373:                     I2C_ENVIA_LCD_DATA(unidad+0x30);
  2284   002738  5017               	movf	I2C_LCD_ESCRIBE_VAR_INT@unidad^(0+1280),w,c
  2285   00273A  0F30               	addlw	48
  2286   00273C  EC92  F017         	call	_I2C_ENVIA_LCD_DATA
  2287                           
  2288                           ;I2C_LCD.c: 374:                     break;
  2289   002740  EF90  F014         	goto	l159
  2290   002744                     l1982:
  2291                           
  2292                           ;I2C_LCD.c: 376:                     I2C_ENVIA_LCD_DATA(millar+0x30);
  2293   002744  5014               	movf	I2C_LCD_ESCRIBE_VAR_INT@millar^(0+1280),w,c
  2294   002746  0F30               	addlw	48
  2295   002748  EC92  F017         	call	_I2C_ENVIA_LCD_DATA
  2296                           
  2297                           ;I2C_LCD.c: 377:                     I2C_ENVIA_LCD_DATA('.');
  2298   00274C  0E2E               	movlw	46
  2299   00274E  EC92  F017         	call	_I2C_ENVIA_LCD_DATA
  2300                           
  2301                           ;I2C_LCD.c: 378:                     I2C_ENVIA_LCD_DATA(centena+0x30);
  2302   002752  5015               	movf	I2C_LCD_ESCRIBE_VAR_INT@centena^(0+1280),w,c
  2303   002754  0F30               	addlw	48
  2304   002756  EC92  F017         	call	_I2C_ENVIA_LCD_DATA
  2305                           
  2306                           ;I2C_LCD.c: 379:                     I2C_ENVIA_LCD_DATA(decena+0x30);
  2307   00275A  5016               	movf	I2C_LCD_ESCRIBE_VAR_INT@decena^(0+1280),w,c
  2308   00275C  0F30               	addlw	48
  2309   00275E  EC92  F017         	call	_I2C_ENVIA_LCD_DATA
  2310                           
  2311                           ;I2C_LCD.c: 380:                     I2C_ENVIA_LCD_DATA(unidad+0x30);
  2312   002762  5017               	movf	I2C_LCD_ESCRIBE_VAR_INT@unidad^(0+1280),w,c
  2313   002764  0F30               	addlw	48
  2314   002766  EC92  F017         	call	_I2C_ENVIA_LCD_DATA
  2315                           
  2316                           ;I2C_LCD.c: 381:                     break;
  2317   00276A  EF90  F014         	goto	l159
  2318   00276E                     l1986:
  2319   00276E  5010               	movf	I2C_LCD_ESCRIBE_VAR_INT@punto^(0+1280),w,c
  2320   002770  6E11               	movwf	??_I2C_LCD_ESCRIBE_VAR_INT^(0+1280),c
  2321   002772  6A12               	clrf	(??_I2C_LCD_ESCRIBE_VAR_INT+1)^(0+1280),c
  2322                           
  2323                           ; Switch on 2 bytes has been partitioned into a top level switch of size 1, and 1 sub-sw
      +                          itches
  2324                           ; Switch size 1, requested type "simple"
  2325                           ; Number of cases is 1, Range of values is 0 to 0
  2326                           ; switch strategies available:
  2327                           ; Name         Instructions Cycles
  2328                           ; simple_byte            4     3 (average)
  2329                           ;	Chosen strategy is simple_byte
  2330   002774  5012               	movf	(??_I2C_LCD_ESCRIBE_VAR_INT+1)^(0+1280),w,c
  2331   002776  0A00               	xorlw	0	; case 0
  2332   002778  B4D8               	btfsc	status,2,c
  2333   00277A  EFC1  F013         	goto	l2324
  2334   00277E  EF90  F014         	goto	l159
  2335   002782                     l2324:
  2336                           
  2337                           ; Switch size 1, requested type "simple"
  2338                           ; Number of cases is 4, Range of values is 0 to 3
  2339                           ; switch strategies available:
  2340                           ; Name         Instructions Cycles
  2341                           ; simple_byte           13     7 (average)
  2342                           ;	Chosen strategy is simple_byte
  2343   002782  5011               	movf	??_I2C_LCD_ESCRIBE_VAR_INT^(0+1280),w,c
  2344   002784  0A00               	xorlw	0	; case 0
  2345   002786  B4D8               	btfsc	status,2,c
  2346   002788  EF66  F013         	goto	l1976
  2347   00278C  0A01               	xorlw	1	; case 1
  2348   00278E  B4D8               	btfsc	status,2,c
  2349   002790  EF78  F013         	goto	l1978
  2350   002794  0A03               	xorlw	3	; case 2
  2351   002796  B4D8               	btfsc	status,2,c
  2352   002798  EF8D  F013         	goto	l1980
  2353   00279C  0A01               	xorlw	1	; case 3
  2354   00279E  B4D8               	btfsc	status,2,c
  2355   0027A0  EFA2  F013         	goto	l1982
  2356   0027A4  EF90  F014         	goto	l159
  2357   0027A8                     l1988:
  2358                           
  2359                           ;I2C_LCD.c: 387:                     I2C_ENVIA_LCD_DATA(d_millar+0x30);
  2360   0027A8  5013               	movf	I2C_LCD_ESCRIBE_VAR_INT@d_millar^(0+1280),w,c
  2361   0027AA  0F30               	addlw	48
  2362   0027AC  EC92  F017         	call	_I2C_ENVIA_LCD_DATA
  2363                           
  2364                           ;I2C_LCD.c: 388:                     I2C_ENVIA_LCD_DATA(millar+0x30);
  2365   0027B0  5014               	movf	I2C_LCD_ESCRIBE_VAR_INT@millar^(0+1280),w,c
  2366   0027B2  0F30               	addlw	48
  2367   0027B4  EC92  F017         	call	_I2C_ENVIA_LCD_DATA
  2368                           
  2369                           ;I2C_LCD.c: 389:                     I2C_ENVIA_LCD_DATA(centena+0x30);
  2370   0027B8  5015               	movf	I2C_LCD_ESCRIBE_VAR_INT@centena^(0+1280),w,c
  2371   0027BA  0F30               	addlw	48
  2372   0027BC  EC92  F017         	call	_I2C_ENVIA_LCD_DATA
  2373                           
  2374                           ;I2C_LCD.c: 390:                     I2C_ENVIA_LCD_DATA(decena+0x30);
  2375   0027C0  5016               	movf	I2C_LCD_ESCRIBE_VAR_INT@decena^(0+1280),w,c
  2376   0027C2  0F30               	addlw	48
  2377   0027C4  EC92  F017         	call	_I2C_ENVIA_LCD_DATA
  2378                           
  2379                           ;I2C_LCD.c: 391:                     I2C_ENVIA_LCD_DATA(unidad+0x30);
  2380   0027C8  5017               	movf	I2C_LCD_ESCRIBE_VAR_INT@unidad^(0+1280),w,c
  2381   0027CA  0F30               	addlw	48
  2382   0027CC  EC92  F017         	call	_I2C_ENVIA_LCD_DATA
  2383                           
  2384                           ;I2C_LCD.c: 392:                     break;
  2385   0027D0  EF90  F014         	goto	l159
  2386   0027D4                     l1990:
  2387                           
  2388                           ;I2C_LCD.c: 394:                     I2C_ENVIA_LCD_DATA(d_millar+0x30);
  2389   0027D4  5013               	movf	I2C_LCD_ESCRIBE_VAR_INT@d_millar^(0+1280),w,c
  2390   0027D6  0F30               	addlw	48
  2391   0027D8  EC92  F017         	call	_I2C_ENVIA_LCD_DATA
  2392                           
  2393                           ;I2C_LCD.c: 395:                     I2C_ENVIA_LCD_DATA(millar+0x30);
  2394   0027DC  5014               	movf	I2C_LCD_ESCRIBE_VAR_INT@millar^(0+1280),w,c
  2395   0027DE  0F30               	addlw	48
  2396   0027E0  EC92  F017         	call	_I2C_ENVIA_LCD_DATA
  2397                           
  2398                           ;I2C_LCD.c: 396:                     I2C_ENVIA_LCD_DATA(centena+0x30);
  2399   0027E4  5015               	movf	I2C_LCD_ESCRIBE_VAR_INT@centena^(0+1280),w,c
  2400   0027E6  0F30               	addlw	48
  2401   0027E8  EC92  F017         	call	_I2C_ENVIA_LCD_DATA
  2402                           
  2403                           ;I2C_LCD.c: 397:                     I2C_ENVIA_LCD_DATA(decena+0x30);
  2404   0027EC  5016               	movf	I2C_LCD_ESCRIBE_VAR_INT@decena^(0+1280),w,c
  2405   0027EE  0F30               	addlw	48
  2406   0027F0  EC92  F017         	call	_I2C_ENVIA_LCD_DATA
  2407                           
  2408                           ;I2C_LCD.c: 398:                     I2C_ENVIA_LCD_DATA('.');
  2409   0027F4  0E2E               	movlw	46
  2410   0027F6  EC92  F017         	call	_I2C_ENVIA_LCD_DATA
  2411                           
  2412                           ;I2C_LCD.c: 399:                     I2C_ENVIA_LCD_DATA(unidad+0x30);
  2413   0027FA  5017               	movf	I2C_LCD_ESCRIBE_VAR_INT@unidad^(0+1280),w,c
  2414   0027FC  0F30               	addlw	48
  2415   0027FE  EC92  F017         	call	_I2C_ENVIA_LCD_DATA
  2416                           
  2417                           ;I2C_LCD.c: 400:                     break;
  2418   002802  EF90  F014         	goto	l159
  2419   002806                     l1992:
  2420                           
  2421                           ;I2C_LCD.c: 402:                     I2C_ENVIA_LCD_DATA(d_millar+0x30);
  2422   002806  5013               	movf	I2C_LCD_ESCRIBE_VAR_INT@d_millar^(0+1280),w,c
  2423   002808  0F30               	addlw	48
  2424   00280A  EC92  F017         	call	_I2C_ENVIA_LCD_DATA
  2425                           
  2426                           ;I2C_LCD.c: 403:                     I2C_ENVIA_LCD_DATA(millar+0x30);
  2427   00280E  5014               	movf	I2C_LCD_ESCRIBE_VAR_INT@millar^(0+1280),w,c
  2428   002810  0F30               	addlw	48
  2429   002812  EC92  F017         	call	_I2C_ENVIA_LCD_DATA
  2430                           
  2431                           ;I2C_LCD.c: 404:                     I2C_ENVIA_LCD_DATA(centena+0x30);
  2432   002816  5015               	movf	I2C_LCD_ESCRIBE_VAR_INT@centena^(0+1280),w,c
  2433   002818  0F30               	addlw	48
  2434   00281A  EC92  F017         	call	_I2C_ENVIA_LCD_DATA
  2435                           
  2436                           ;I2C_LCD.c: 405:                     I2C_ENVIA_LCD_DATA('.');
  2437   00281E  0E2E               	movlw	46
  2438   002820  EC92  F017         	call	_I2C_ENVIA_LCD_DATA
  2439                           
  2440                           ;I2C_LCD.c: 406:                     I2C_ENVIA_LCD_DATA(decena+0x30);
  2441   002824  5016               	movf	I2C_LCD_ESCRIBE_VAR_INT@decena^(0+1280),w,c
  2442   002826  0F30               	addlw	48
  2443   002828  EC92  F017         	call	_I2C_ENVIA_LCD_DATA
  2444                           
  2445                           ;I2C_LCD.c: 407:                     I2C_ENVIA_LCD_DATA(unidad+0x30);
  2446   00282C  5017               	movf	I2C_LCD_ESCRIBE_VAR_INT@unidad^(0+1280),w,c
  2447   00282E  0F30               	addlw	48
  2448   002830  EC92  F017         	call	_I2C_ENVIA_LCD_DATA
  2449                           
  2450                           ;I2C_LCD.c: 408:                     break;
  2451   002834  EF90  F014         	goto	l159
  2452   002838                     l1994:
  2453                           
  2454                           ;I2C_LCD.c: 410:                     I2C_ENVIA_LCD_DATA(d_millar+0x30);
  2455   002838  5013               	movf	I2C_LCD_ESCRIBE_VAR_INT@d_millar^(0+1280),w,c
  2456   00283A  0F30               	addlw	48
  2457   00283C  EC92  F017         	call	_I2C_ENVIA_LCD_DATA
  2458                           
  2459                           ;I2C_LCD.c: 411:                     I2C_ENVIA_LCD_DATA(millar+0x30);
  2460   002840  5014               	movf	I2C_LCD_ESCRIBE_VAR_INT@millar^(0+1280),w,c
  2461   002842  0F30               	addlw	48
  2462   002844  EC92  F017         	call	_I2C_ENVIA_LCD_DATA
  2463                           
  2464                           ;I2C_LCD.c: 412:                     I2C_ENVIA_LCD_DATA('.');
  2465   002848  0E2E               	movlw	46
  2466   00284A  EC92  F017         	call	_I2C_ENVIA_LCD_DATA
  2467                           
  2468                           ;I2C_LCD.c: 413:                     I2C_ENVIA_LCD_DATA(centena+0x30);
  2469   00284E  5015               	movf	I2C_LCD_ESCRIBE_VAR_INT@centena^(0+1280),w,c
  2470   002850  0F30               	addlw	48
  2471   002852  EC92  F017         	call	_I2C_ENVIA_LCD_DATA
  2472                           
  2473                           ;I2C_LCD.c: 414:                     I2C_ENVIA_LCD_DATA(decena+0x30);
  2474   002856  5016               	movf	I2C_LCD_ESCRIBE_VAR_INT@decena^(0+1280),w,c
  2475   002858  0F30               	addlw	48
  2476   00285A  EC92  F017         	call	_I2C_ENVIA_LCD_DATA
  2477                           
  2478                           ;I2C_LCD.c: 415:                     I2C_ENVIA_LCD_DATA(unidad+0x30);
  2479   00285E  5017               	movf	I2C_LCD_ESCRIBE_VAR_INT@unidad^(0+1280),w,c
  2480   002860  0F30               	addlw	48
  2481   002862  EC92  F017         	call	_I2C_ENVIA_LCD_DATA
  2482                           
  2483                           ;I2C_LCD.c: 416:                     break;
  2484   002866  EF90  F014         	goto	l159
  2485   00286A                     l1996:
  2486                           
  2487                           ;I2C_LCD.c: 418:                     I2C_ENVIA_LCD_DATA(d_millar+0x30);
  2488   00286A  5013               	movf	I2C_LCD_ESCRIBE_VAR_INT@d_millar^(0+1280),w,c
  2489   00286C  0F30               	addlw	48
  2490   00286E  EC92  F017         	call	_I2C_ENVIA_LCD_DATA
  2491                           
  2492                           ;I2C_LCD.c: 419:                     I2C_ENVIA_LCD_DATA('.');
  2493   002872  0E2E               	movlw	46
  2494   002874  EC92  F017         	call	_I2C_ENVIA_LCD_DATA
  2495                           
  2496                           ;I2C_LCD.c: 420:                     I2C_ENVIA_LCD_DATA(millar+0x30);
  2497   002878  5014               	movf	I2C_LCD_ESCRIBE_VAR_INT@millar^(0+1280),w,c
  2498   00287A  0F30               	addlw	48
  2499   00287C  EC92  F017         	call	_I2C_ENVIA_LCD_DATA
  2500                           
  2501                           ;I2C_LCD.c: 421:                     I2C_ENVIA_LCD_DATA(centena+0x30);
  2502   002880  5015               	movf	I2C_LCD_ESCRIBE_VAR_INT@centena^(0+1280),w,c
  2503   002882  0F30               	addlw	48
  2504   002884  EC92  F017         	call	_I2C_ENVIA_LCD_DATA
  2505                           
  2506                           ;I2C_LCD.c: 422:                     I2C_ENVIA_LCD_DATA(decena+0x30);
  2507   002888  5016               	movf	I2C_LCD_ESCRIBE_VAR_INT@decena^(0+1280),w,c
  2508   00288A  0F30               	addlw	48
  2509   00288C  EC92  F017         	call	_I2C_ENVIA_LCD_DATA
  2510                           
  2511                           ;I2C_LCD.c: 423:                     I2C_ENVIA_LCD_DATA(unidad+0x30);
  2512   002890  5017               	movf	I2C_LCD_ESCRIBE_VAR_INT@unidad^(0+1280),w,c
  2513   002892  0F30               	addlw	48
  2514   002894  EC92  F017         	call	_I2C_ENVIA_LCD_DATA
  2515                           
  2516                           ;I2C_LCD.c: 424:                     break;
  2517   002898  EF90  F014         	goto	l159
  2518   00289C                     l2000:
  2519   00289C  5010               	movf	I2C_LCD_ESCRIBE_VAR_INT@punto^(0+1280),w,c
  2520   00289E  6E11               	movwf	??_I2C_LCD_ESCRIBE_VAR_INT^(0+1280),c
  2521   0028A0  6A12               	clrf	(??_I2C_LCD_ESCRIBE_VAR_INT+1)^(0+1280),c
  2522                           
  2523                           ; Switch on 2 bytes has been partitioned into a top level switch of size 1, and 1 sub-sw
      +                          itches
  2524                           ; Switch size 1, requested type "simple"
  2525                           ; Number of cases is 1, Range of values is 0 to 0
  2526                           ; switch strategies available:
  2527                           ; Name         Instructions Cycles
  2528                           ; simple_byte            4     3 (average)
  2529                           ;	Chosen strategy is simple_byte
  2530   0028A2  5012               	movf	(??_I2C_LCD_ESCRIBE_VAR_INT+1)^(0+1280),w,c
  2531   0028A4  0A00               	xorlw	0	; case 0
  2532   0028A6  B4D8               	btfsc	status,2,c
  2533   0028A8  EF58  F014         	goto	l2326
  2534   0028AC  EF90  F014         	goto	l159
  2535   0028B0                     l2326:
  2536                           
  2537                           ; Switch size 1, requested type "simple"
  2538                           ; Number of cases is 5, Range of values is 0 to 4
  2539                           ; switch strategies available:
  2540                           ; Name         Instructions Cycles
  2541                           ; simple_byte           16     9 (average)
  2542                           ;	Chosen strategy is simple_byte
  2543   0028B0  5011               	movf	??_I2C_LCD_ESCRIBE_VAR_INT^(0+1280),w,c
  2544   0028B2  0A00               	xorlw	0	; case 0
  2545   0028B4  B4D8               	btfsc	status,2,c
  2546   0028B6  EFD4  F013         	goto	l1988
  2547   0028BA  0A01               	xorlw	1	; case 1
  2548   0028BC  B4D8               	btfsc	status,2,c
  2549   0028BE  EFEA  F013         	goto	l1990
  2550   0028C2  0A03               	xorlw	3	; case 2
  2551   0028C4  B4D8               	btfsc	status,2,c
  2552   0028C6  EF03  F014         	goto	l1992
  2553   0028CA  0A01               	xorlw	1	; case 3
  2554   0028CC  B4D8               	btfsc	status,2,c
  2555   0028CE  EF1C  F014         	goto	l1994
  2556   0028D2  0A07               	xorlw	7	; case 4
  2557   0028D4  B4D8               	btfsc	status,2,c
  2558   0028D6  EF35  F014         	goto	l1996
  2559   0028DA  EF90  F014         	goto	l159
  2560   0028DE                     l2004:
  2561   0028DE  500F               	movf	I2C_LCD_ESCRIBE_VAR_INT@n_digitos^(0+1280),w,c
  2562   0028E0  6E11               	movwf	??_I2C_LCD_ESCRIBE_VAR_INT^(0+1280),c
  2563   0028E2  6A12               	clrf	(??_I2C_LCD_ESCRIBE_VAR_INT+1)^(0+1280),c
  2564                           
  2565                           ; Switch on 2 bytes has been partitioned into a top level switch of size 1, and 1 sub-sw
      +                          itches
  2566                           ; Switch size 1, requested type "simple"
  2567                           ; Number of cases is 1, Range of values is 0 to 0
  2568                           ; switch strategies available:
  2569                           ; Name         Instructions Cycles
  2570                           ; simple_byte            4     3 (average)
  2571                           ;	Chosen strategy is simple_byte
  2572   0028E4  5012               	movf	(??_I2C_LCD_ESCRIBE_VAR_INT+1)^(0+1280),w,c
  2573   0028E6  0A00               	xorlw	0	; case 0
  2574   0028E8  B4D8               	btfsc	status,2,c
  2575   0028EA  EF79  F014         	goto	l2328
  2576   0028EE  EF90  F014         	goto	l159
  2577   0028F2                     l2328:
  2578                           
  2579                           ; Switch size 1, requested type "simple"
  2580                           ; Number of cases is 5, Range of values is 1 to 5
  2581                           ; switch strategies available:
  2582                           ; Name         Instructions Cycles
  2583                           ; simple_byte           16     9 (average)
  2584                           ;	Chosen strategy is simple_byte
  2585   0028F2  5011               	movf	??_I2C_LCD_ESCRIBE_VAR_INT^(0+1280),w,c
  2586   0028F4  0A01               	xorlw	1	; case 1
  2587   0028F6  B4D8               	btfsc	status,2,c
  2588   0028F8  EFF0  F012         	goto	l1956
  2589   0028FC  0A03               	xorlw	3	; case 2
  2590   0028FE  B4D8               	btfsc	status,2,c
  2591   002900  EFF6  F012         	goto	l1958
  2592   002904  0A01               	xorlw	1	; case 3
  2593   002906  B4D8               	btfsc	status,2,c
  2594   002908  EF4D  F013         	goto	l1974
  2595   00290C  0A07               	xorlw	7	; case 4
  2596   00290E  B4D8               	btfsc	status,2,c
  2597   002910  EFB7  F013         	goto	l1986
  2598   002914  0A01               	xorlw	1	; case 5
  2599   002916  B4D8               	btfsc	status,2,c
  2600   002918  EF4E  F014         	goto	l2000
  2601   00291C  EF90  F014         	goto	l159
  2602   002920                     l159:
  2603   002920  0012               	return		;funcret
  2604   002922                     __end_of_I2C_LCD_ESCRIBE_VAR_INT:
  2605                           	callstack 0
  2606                           
  2607 ;; *************** function ___lwmod *****************
  2608 ;; Defined at:
  2609 ;;		line 7 in file "C:\Program Files\Microchip\xc8\v2.45\pic\sources\c99\common\lwmod.c"
  2610 ;; Parameters:    Size  Location     Type
  2611 ;;  dividend        2    0[COMRAM] unsigned int 
  2612 ;;  divisor         2    2[COMRAM] unsigned int 
  2613 ;; Auto vars:     Size  Location     Type
  2614 ;;  counter         1    4[COMRAM] unsigned char 
  2615 ;; Return value:  Size  Location     Type
  2616 ;;                  2    0[COMRAM] unsigned int 
  2617 ;; Registers used:
  2618 ;;		wreg, status,2, status,0
  2619 ;; Tracked objects:
  2620 ;;		On entry : 0/0
  2621 ;;		On exit  : 0/0
  2622 ;;		Unchanged: 0/0
  2623 ;; Data sizes:     COMRAM   BANK5   BANK6   BANK7   BANK8   BANK9  BANK10  BANK11  BANK12  BANK13  BANK14  BANK15  BANK1
      +6  BANK17  BANK18  BANK19  BANK20  BANK21  BANK22  BANK23  BANK24  BANK25  BANK26  BANK27  BANK28  BANK29  BANK30  BANK3
      +1  BANK32  BANK33  BANK34  BANK35  BANK36
  2624 ;;      Params:         4       0       0       0       0       0       0       0       0       0       0       0       
      +0       0       0       0       0       0       0       0       0       0       0       0       0       0       0       
      +0       0       0       0       0       0
  2625 ;;      Locals:         1       0       0       0       0       0       0       0       0       0       0       0       
      +0       0       0       0       0       0       0       0       0       0       0       0       0       0       0       
      +0       0       0       0       0       0
  2626 ;;      Temps:          0       0       0       0       0       0       0       0       0       0       0       0       
      +0       0       0       0       0       0       0       0       0       0       0       0       0       0       0       
      +0       0       0       0       0       0
  2627 ;;      Totals:         5       0       0       0       0       0       0       0       0       0       0       0       
      +0       0       0       0       0       0       0       0       0       0       0       0       0       0       0       
      +0       0       0       0       0       0
  2628 ;;Total ram usage:        5 bytes
  2629 ;; Hardware stack levels used: 1
  2630 ;; This function calls:
  2631 ;;		Nothing
  2632 ;; This function is called by:
  2633 ;;		_I2C_LCD_ESCRIBE_VAR_INT
  2634 ;; This function uses a non-reentrant model
  2635 ;;
  2636                           
  2637                           	psect	text11
  2638   002FF8                     __ptext11:
  2639                           	callstack 0
  2640   002FF8                     ___lwmod:
  2641                           	callstack 125
  2642   002FF8  5003               	movf	___lwmod@divisor^(0+1280),w,c
  2643   002FFA  1004               	iorwf	(___lwmod@divisor+1)^(0+1280),w,c
  2644   002FFC  B4D8               	btfsc	status,2,c
  2645   002FFE  EF03  F018         	goto	u441
  2646   003002  EF05  F018         	goto	u440
  2647   003006                     u441:
  2648   003006  EF29  F018         	goto	l766
  2649   00300A                     u440:
  2650   00300A  0E01               	movlw	1
  2651   00300C  6E05               	movwf	___lwmod@counter^(0+1280),c
  2652   00300E  EF0D  F018         	goto	l1916
  2653   003012                     l1914:
  2654   003012  90D8               	bcf	status,0,c
  2655   003014  3603               	rlcf	___lwmod@divisor^(0+1280),f,c
  2656   003016  3604               	rlcf	(___lwmod@divisor+1)^(0+1280),f,c
  2657   003018  2A05               	incf	___lwmod@counter^(0+1280),f,c
  2658   00301A                     l1916:
  2659   00301A  AE04               	btfss	(___lwmod@divisor+1)^(0+1280),7,c
  2660   00301C  EF12  F018         	goto	u451
  2661   003020  EF14  F018         	goto	u450
  2662   003024                     u451:
  2663   003024  EF09  F018         	goto	l1914
  2664   003028                     u450:
  2665   003028                     l1918:
  2666   003028  5003               	movf	___lwmod@divisor^(0+1280),w,c
  2667   00302A  5C01               	subwf	___lwmod@dividend^(0+1280),w,c
  2668   00302C  5004               	movf	(___lwmod@divisor+1)^(0+1280),w,c
  2669   00302E  5802               	subwfb	(___lwmod@dividend+1)^(0+1280),w,c
  2670   003030  A0D8               	btfss	status,0,c
  2671   003032  EF1D  F018         	goto	u461
  2672   003036  EF1F  F018         	goto	u460
  2673   00303A                     u461:
  2674   00303A  EF23  F018         	goto	l1922
  2675   00303E                     u460:
  2676   00303E  5003               	movf	___lwmod@divisor^(0+1280),w,c
  2677   003040  5E01               	subwf	___lwmod@dividend^(0+1280),f,c
  2678   003042  5004               	movf	(___lwmod@divisor+1)^(0+1280),w,c
  2679   003044  5A02               	subwfb	(___lwmod@dividend+1)^(0+1280),f,c
  2680   003046                     l1922:
  2681   003046  90D8               	bcf	status,0,c
  2682   003048  3204               	rrcf	(___lwmod@divisor+1)^(0+1280),f,c
  2683   00304A  3203               	rrcf	___lwmod@divisor^(0+1280),f,c
  2684   00304C  2E05               	decfsz	___lwmod@counter^(0+1280),f,c
  2685   00304E  EF14  F018         	goto	l1918
  2686   003052                     l766:
  2687   003052  C501  F501         	movff	___lwmod@dividend,?___lwmod
  2688   003056  C502  F502         	movff	___lwmod@dividend+1,?___lwmod+1
  2689   00305A  0012               	return		;funcret
  2690   00305C                     __end_of___lwmod:
  2691                           	callstack 0
  2692                           
  2693 ;; *************** function ___lwdiv *****************
  2694 ;; Defined at:
  2695 ;;		line 7 in file "C:\Program Files\Microchip\xc8\v2.45\pic\sources\c99\common\lwdiv.c"
  2696 ;; Parameters:    Size  Location     Type
  2697 ;;  dividend        2    5[COMRAM] unsigned int 
  2698 ;;  divisor         2    7[COMRAM] unsigned int 
  2699 ;; Auto vars:     Size  Location     Type
  2700 ;;  quotient        2    9[COMRAM] unsigned int 
  2701 ;;  counter         1   11[COMRAM] unsigned char 
  2702 ;; Return value:  Size  Location     Type
  2703 ;;                  2    5[COMRAM] unsigned int 
  2704 ;; Registers used:
  2705 ;;		wreg, status,2, status,0
  2706 ;; Tracked objects:
  2707 ;;		On entry : 0/0
  2708 ;;		On exit  : 0/0
  2709 ;;		Unchanged: 0/0
  2710 ;; Data sizes:     COMRAM   BANK5   BANK6   BANK7   BANK8   BANK9  BANK10  BANK11  BANK12  BANK13  BANK14  BANK15  BANK1
      +6  BANK17  BANK18  BANK19  BANK20  BANK21  BANK22  BANK23  BANK24  BANK25  BANK26  BANK27  BANK28  BANK29  BANK30  BANK3
      +1  BANK32  BANK33  BANK34  BANK35  BANK36
  2711 ;;      Params:         4       0       0       0       0       0       0       0       0       0       0       0       
      +0       0       0       0       0       0       0       0       0       0       0       0       0       0       0       
      +0       0       0       0       0       0
  2712 ;;      Locals:         3       0       0       0       0       0       0       0       0       0       0       0       
      +0       0       0       0       0       0       0       0       0       0       0       0       0       0       0       
      +0       0       0       0       0       0
  2713 ;;      Temps:          0       0       0       0       0       0       0       0       0       0       0       0       
      +0       0       0       0       0       0       0       0       0       0       0       0       0       0       0       
      +0       0       0       0       0       0
  2714 ;;      Totals:         7       0       0       0       0       0       0       0       0       0       0       0       
      +0       0       0       0       0       0       0       0       0       0       0       0       0       0       0       
      +0       0       0       0       0       0
  2715 ;;Total ram usage:        7 bytes
  2716 ;; Hardware stack levels used: 1
  2717 ;; This function calls:
  2718 ;;		Nothing
  2719 ;; This function is called by:
  2720 ;;		_I2C_LCD_ESCRIBE_VAR_INT
  2721 ;; This function uses a non-reentrant model
  2722 ;;
  2723                           
  2724                           	psect	text12
  2725   002EB0                     __ptext12:
  2726                           	callstack 0
  2727   002EB0                     ___lwdiv:
  2728                           	callstack 125
  2729   002EB0  0E00               	movlw	0
  2730   002EB2  6E0B               	movwf	(___lwdiv@quotient+1)^(0+1280),c
  2731   002EB4  0E00               	movlw	0
  2732   002EB6  6E0A               	movwf	___lwdiv@quotient^(0+1280),c
  2733   002EB8  5008               	movf	___lwdiv@divisor^(0+1280),w,c
  2734   002EBA  1009               	iorwf	(___lwdiv@divisor+1)^(0+1280),w,c
  2735   002EBC  B4D8               	btfsc	status,2,c
  2736   002EBE  EF63  F017         	goto	u411
  2737   002EC2  EF65  F017         	goto	u410
  2738   002EC6                     u411:
  2739   002EC6  EF8D  F017         	goto	l756
  2740   002ECA                     u410:
  2741   002ECA  0E01               	movlw	1
  2742   002ECC  6E0C               	movwf	___lwdiv@counter^(0+1280),c
  2743   002ECE  EF6D  F017         	goto	l1896
  2744   002ED2                     l1894:
  2745   002ED2  90D8               	bcf	status,0,c
  2746   002ED4  3608               	rlcf	___lwdiv@divisor^(0+1280),f,c
  2747   002ED6  3609               	rlcf	(___lwdiv@divisor+1)^(0+1280),f,c
  2748   002ED8  2A0C               	incf	___lwdiv@counter^(0+1280),f,c
  2749   002EDA                     l1896:
  2750   002EDA  AE09               	btfss	(___lwdiv@divisor+1)^(0+1280),7,c
  2751   002EDC  EF72  F017         	goto	u421
  2752   002EE0  EF74  F017         	goto	u420
  2753   002EE4                     u421:
  2754   002EE4  EF69  F017         	goto	l1894
  2755   002EE8                     u420:
  2756   002EE8                     l1898:
  2757   002EE8  90D8               	bcf	status,0,c
  2758   002EEA  360A               	rlcf	___lwdiv@quotient^(0+1280),f,c
  2759   002EEC  360B               	rlcf	(___lwdiv@quotient+1)^(0+1280),f,c
  2760   002EEE  5008               	movf	___lwdiv@divisor^(0+1280),w,c
  2761   002EF0  5C06               	subwf	___lwdiv@dividend^(0+1280),w,c
  2762   002EF2  5009               	movf	(___lwdiv@divisor+1)^(0+1280),w,c
  2763   002EF4  5807               	subwfb	(___lwdiv@dividend+1)^(0+1280),w,c
  2764   002EF6  A0D8               	btfss	status,0,c
  2765   002EF8  EF80  F017         	goto	u431
  2766   002EFC  EF82  F017         	goto	u430
  2767   002F00                     u431:
  2768   002F00  EF87  F017         	goto	l1906
  2769   002F04                     u430:
  2770   002F04  5008               	movf	___lwdiv@divisor^(0+1280),w,c
  2771   002F06  5E06               	subwf	___lwdiv@dividend^(0+1280),f,c
  2772   002F08  5009               	movf	(___lwdiv@divisor+1)^(0+1280),w,c
  2773   002F0A  5A07               	subwfb	(___lwdiv@dividend+1)^(0+1280),f,c
  2774   002F0C  800A               	bsf	___lwdiv@quotient^(0+1280),0,c
  2775   002F0E                     l1906:
  2776   002F0E  90D8               	bcf	status,0,c
  2777   002F10  3209               	rrcf	(___lwdiv@divisor+1)^(0+1280),f,c
  2778   002F12  3208               	rrcf	___lwdiv@divisor^(0+1280),f,c
  2779   002F14  2E0C               	decfsz	___lwdiv@counter^(0+1280),f,c
  2780   002F16  EF74  F017         	goto	l1898
  2781   002F1A                     l756:
  2782   002F1A  C50A  F506         	movff	___lwdiv@quotient,?___lwdiv
  2783   002F1E  C50B  F507         	movff	___lwdiv@quotient+1,?___lwdiv+1
  2784   002F22  0012               	return		;funcret
  2785   002F24                     __end_of___lwdiv:
  2786                           	callstack 0
  2787                           
  2788 ;; *************** function _I2C_ESCRIBE_MENSAJE2 *****************
  2789 ;; Defined at:
  2790 ;;		line 105 in file "I2C_LCD.c"
  2791 ;; Parameters:    Size  Location     Type
  2792 ;;  cadena          1    6[COMRAM] PTR const unsigned char 
  2793 ;;		 -> STR_5(3), STR_4(10), STR_3(3), STR_2(10), 
  2794 ;;		 -> STR_1(15), 
  2795 ;; Auto vars:     Size  Location     Type
  2796 ;;  i               1    9[COMRAM] unsigned char 
  2797 ;;  tam             1    8[COMRAM] unsigned char 
  2798 ;; Return value:  Size  Location     Type
  2799 ;;                  1    wreg      void 
  2800 ;; Registers used:
  2801 ;;		wreg, status,2, status,0, tblptrl, tblptrh, tblptru, cstack
  2802 ;; Tracked objects:
  2803 ;;		On entry : 0/0
  2804 ;;		On exit  : 0/0
  2805 ;;		Unchanged: 0/0
  2806 ;; Data sizes:     COMRAM   BANK5   BANK6   BANK7   BANK8   BANK9  BANK10  BANK11  BANK12  BANK13  BANK14  BANK15  BANK1
      +6  BANK17  BANK18  BANK19  BANK20  BANK21  BANK22  BANK23  BANK24  BANK25  BANK26  BANK27  BANK28  BANK29  BANK30  BANK3
      +1  BANK32  BANK33  BANK34  BANK35  BANK36
  2807 ;;      Params:         1       0       0       0       0       0       0       0       0       0       0       0       
      +0       0       0       0       0       0       0       0       0       0       0       0       0       0       0       
      +0       0       0       0       0       0
  2808 ;;      Locals:         2       0       0       0       0       0       0       0       0       0       0       0       
      +0       0       0       0       0       0       0       0       0       0       0       0       0       0       0       
      +0       0       0       0       0       0
  2809 ;;      Temps:          1       0       0       0       0       0       0       0       0       0       0       0       
      +0       0       0       0       0       0       0       0       0       0       0       0       0       0       0       
      +0       0       0       0       0       0
  2810 ;;      Totals:         4       0       0       0       0       0       0       0       0       0       0       0       
      +0       0       0       0       0       0       0       0       0       0       0       0       0       0       0       
      +0       0       0       0       0       0
  2811 ;;Total ram usage:        4 bytes
  2812 ;; Hardware stack levels used: 1
  2813 ;; Hardware stack levels required when called: 2
  2814 ;; This function calls:
  2815 ;;		_I2C_ENVIA_LCD_DATA
  2816 ;;		_strlen
  2817 ;; This function is called by:
  2818 ;;		_main
  2819 ;; This function uses a non-reentrant model
  2820 ;;
  2821                           
  2822                           	psect	text13
  2823   00305C                     __ptext13:
  2824                           	callstack 0
  2825   00305C                     _I2C_ESCRIBE_MENSAJE2:
  2826                           	callstack 124
  2827   00305C                     
  2828                           ;I2C_LCD.c: 106:     unsigned char tam;;I2C_LCD.c: 107:     tam = strlen(cadena);
  2829   00305C  C507  F501         	movff	I2C_ESCRIBE_MENSAJE2@cadena,strlen@s
  2830   003060  EC71  F018         	call	_strlen	;wreg free
  2831   003064  5001               	movf	?_strlen^(0+1280),w,c
  2832   003066  6E09               	movwf	I2C_ESCRIBE_MENSAJE2@tam^(0+1280),c
  2833   003068                     
  2834                           ;I2C_LCD.c: 109:  for(i = 0; i<tam; i++) {
  2835   003068  0E00               	movlw	0
  2836   00306A  6E0A               	movwf	I2C_ESCRIBE_MENSAJE2@i^(0+1280),c
  2837   00306C  EF46  F018         	goto	l1952
  2838   003070                     l1948:
  2839                           
  2840                           ;I2C_LCD.c: 110:   I2C_ENVIA_LCD_DATA(cadena[i]);
  2841   003070  5007               	movf	I2C_ESCRIBE_MENSAJE2@cadena^(0+1280),w,c
  2842   003072  240A               	addwf	I2C_ESCRIBE_MENSAJE2@i^(0+1280),w,c
  2843   003074  6E08               	movwf	??_I2C_ESCRIBE_MENSAJE2^(0+1280),c
  2844   003076  C508  F4F6         	movff	??_I2C_ESCRIBE_MENSAJE2,tblptrl
  2845   00307A                     	if	1	;There is more than 1 active tblptr byte
  2846   00307A  0E25               	movlw	high __smallconst
  2847   00307C  6EF7               	movwf	tblptrh,c
  2848   00307E                     	endif
  2849   00307E                     	if	0	;tblptru may be non-zero
  2850   00307E                     	endif
  2851   00307E                     	if	1	;Program memory is > 0xFFFF, there are 3 active tblptr bytes
  2852   00307E  0E00               	movlw	low (__smallconst shr (0+16))
  2853   003080  6EF8               	movwf	tblptru,c
  2854   003082                     	endif
  2855   003082  0008               	tblrd		*
  2856   003084  50F5               	movf	tablat,w,c
  2857   003086  EC92  F017         	call	_I2C_ENVIA_LCD_DATA
  2858   00308A                     
  2859                           ;I2C_LCD.c: 111:  }
  2860   00308A  2A0A               	incf	I2C_ESCRIBE_MENSAJE2@i^(0+1280),f,c
  2861   00308C                     l1952:
  2862   00308C  5009               	movf	I2C_ESCRIBE_MENSAJE2@tam^(0+1280),w,c
  2863   00308E  5C0A               	subwf	I2C_ESCRIBE_MENSAJE2@i^(0+1280),w,c
  2864   003090  A0D8               	btfss	status,0,c
  2865   003092  EF4D  F018         	goto	u511
  2866   003096  EF4F  F018         	goto	u510
  2867   00309A                     u511:
  2868   00309A  EF38  F018         	goto	l1948
  2869   00309E                     u510:
  2870   00309E  0012               	return		;funcret
  2871   0030A0                     __end_of_I2C_ESCRIBE_MENSAJE2:
  2872                           	callstack 0
  2873                           
  2874 ;; *************** function _strlen *****************
  2875 ;; Defined at:
  2876 ;;		line 5 in file "C:\Program Files\Microchip\xc8\v2.45\pic\sources\c99\common\strlen.c"
  2877 ;; Parameters:    Size  Location     Type
  2878 ;;  s               1    0[COMRAM] PTR const unsigned char 
  2879 ;;		 -> STR_5(3), STR_4(10), STR_3(3), STR_2(10), 
  2880 ;;		 -> STR_1(15), 
  2881 ;; Auto vars:     Size  Location     Type
  2882 ;;  a               1    2[COMRAM] PTR const unsigned char 
  2883 ;;		 -> STR_5(3), STR_4(10), STR_3(3), STR_2(10), 
  2884 ;;		 -> STR_1(15), 
  2885 ;; Return value:  Size  Location     Type
  2886 ;;                  2    0[COMRAM] unsigned int 
  2887 ;; Registers used:
  2888 ;;		wreg, status,2, status,0, tblptrl, tblptrh, tblptru
  2889 ;; Tracked objects:
  2890 ;;		On entry : 0/0
  2891 ;;		On exit  : 0/0
  2892 ;;		Unchanged: 0/0
  2893 ;; Data sizes:     COMRAM   BANK5   BANK6   BANK7   BANK8   BANK9  BANK10  BANK11  BANK12  BANK13  BANK14  BANK15  BANK1
      +6  BANK17  BANK18  BANK19  BANK20  BANK21  BANK22  BANK23  BANK24  BANK25  BANK26  BANK27  BANK28  BANK29  BANK30  BANK3
      +1  BANK32  BANK33  BANK34  BANK35  BANK36
  2894 ;;      Params:         2       0       0       0       0       0       0       0       0       0       0       0       
      +0       0       0       0       0       0       0       0       0       0       0       0       0       0       0       
      +0       0       0       0       0       0
  2895 ;;      Locals:         1       0       0       0       0       0       0       0       0       0       0       0       
      +0       0       0       0       0       0       0       0       0       0       0       0       0       0       0       
      +0       0       0       0       0       0
  2896 ;;      Temps:          0       0       0       0       0       0       0       0       0       0       0       0       
      +0       0       0       0       0       0       0       0       0       0       0       0       0       0       0       
      +0       0       0       0       0       0
  2897 ;;      Totals:         3       0       0       0       0       0       0       0       0       0       0       0       
      +0       0       0       0       0       0       0       0       0       0       0       0       0       0       0       
      +0       0       0       0       0       0
  2898 ;;Total ram usage:        3 bytes
  2899 ;; Hardware stack levels used: 1
  2900 ;; This function calls:
  2901 ;;		Nothing
  2902 ;; This function is called by:
  2903 ;;		_I2C_ESCRIBE_MENSAJE2
  2904 ;; This function uses a non-reentrant model
  2905 ;;
  2906                           
  2907                           	psect	text14
  2908   0030E2                     __ptext14:
  2909                           	callstack 0
  2910   0030E2                     _strlen:
  2911                           	callstack 125
  2912   0030E2  C501  F503         	movff	strlen@s,strlen@a
  2913   0030E6  EF76  F018         	goto	l1698
  2914   0030EA                     l1696:
  2915   0030EA  2A01               	incf	strlen@s^(0+1280),f,c
  2916   0030EC                     l1698:
  2917   0030EC  C501  F4F6         	movff	strlen@s,tblptrl
  2918   0030F0                     	if	1	;There is more than 1 active tblptr byte
  2919   0030F0  0E25               	movlw	high __smallconst
  2920   0030F2  6EF7               	movwf	tblptrh,c
  2921   0030F4                     	endif
  2922   0030F4                     	if	0	;tblptru may be non-zero
  2923   0030F4                     	endif
  2924   0030F4                     	if	1	;Program memory is > 0xFFFF, there are 3 active tblptr bytes
  2925   0030F4  0E00               	movlw	low (__smallconst shr (0+16))
  2926   0030F6  6EF8               	movwf	tblptru,c
  2927   0030F8                     	endif
  2928   0030F8  0008               	tblrd		*
  2929   0030FA  50F5               	movf	tablat,w,c
  2930   0030FC  0900               	iorlw	0
  2931   0030FE  A4D8               	btfss	status,2,c
  2932   003100  EF84  F018         	goto	u401
  2933   003104  EF86  F018         	goto	u400
  2934   003108                     u401:
  2935   003108  EF75  F018         	goto	l1696
  2936   00310C                     u400:
  2937   00310C  5003               	movf	strlen@a^(0+1280),w,c
  2938   00310E  5C01               	subwf	strlen@s^(0+1280),w,c
  2939   003110  6E01               	movwf	?_strlen^(0+1280),c
  2940   003112  6A02               	clrf	(?_strlen+1)^(0+1280),c
  2941   003114  BE01               	btfsc	?_strlen^(0+1280),7,c
  2942   003116  0602               	decf	(?_strlen+1)^(0+1280),f,c
  2943   003118  0012               	return		;funcret
  2944   00311A                     __end_of_strlen:
  2945                           	callstack 0
  2946                           
  2947 ;; *************** function _I2C_ENVIA_LCD_DATA *****************
  2948 ;; Defined at:
  2949 ;;		line 114 in file "I2C_LCD.c"
  2950 ;; Parameters:    Size  Location     Type
  2951 ;;  data            1    wreg     unsigned char 
  2952 ;; Auto vars:     Size  Location     Type
  2953 ;;  data            1    3[COMRAM] unsigned char 
  2954 ;;  lownibble       1    5[COMRAM] unsigned char 
  2955 ;;  highnibble      1    4[COMRAM] unsigned char 
  2956 ;; Return value:  Size  Location     Type
  2957 ;;                  1    wreg      void 
  2958 ;; Registers used:
  2959 ;;		wreg, status,2, status,0, cstack
  2960 ;; Tracked objects:
  2961 ;;		On entry : 0/0
  2962 ;;		On exit  : 0/0
  2963 ;;		Unchanged: 0/0
  2964 ;; Data sizes:     COMRAM   BANK5   BANK6   BANK7   BANK8   BANK9  BANK10  BANK11  BANK12  BANK13  BANK14  BANK15  BANK1
      +6  BANK17  BANK18  BANK19  BANK20  BANK21  BANK22  BANK23  BANK24  BANK25  BANK26  BANK27  BANK28  BANK29  BANK30  BANK3
      +1  BANK32  BANK33  BANK34  BANK35  BANK36
  2965 ;;      Params:         0       0       0       0       0       0       0       0       0       0       0       0       
      +0       0       0       0       0       0       0       0       0       0       0       0       0       0       0       
      +0       0       0       0       0       0
  2966 ;;      Locals:         3       0       0       0       0       0       0       0       0       0       0       0       
      +0       0       0       0       0       0       0       0       0       0       0       0       0       0       0       
      +0       0       0       0       0       0
  2967 ;;      Temps:          1       0       0       0       0       0       0       0       0       0       0       0       
      +0       0       0       0       0       0       0       0       0       0       0       0       0       0       0       
      +0       0       0       0       0       0
  2968 ;;      Totals:         4       0       0       0       0       0       0       0       0       0       0       0       
      +0       0       0       0       0       0       0       0       0       0       0       0       0       0       0       
      +0       0       0       0       0       0
  2969 ;;Total ram usage:        4 bytes
  2970 ;; Hardware stack levels used: 1
  2971 ;; Hardware stack levels required when called: 1
  2972 ;; This function calls:
  2973 ;;		_I2C1_WRITESINGLEBYTE
  2974 ;; This function is called by:
  2975 ;;		_I2C_ESCRIBE_MENSAJE2
  2976 ;;		_I2C_LCD_ESCRIBE_VAR_INT
  2977 ;;		_I2C_ESCRIBE_MENSAJE
  2978 ;;		_I2C_GENERACARACTER
  2979 ;;		_I2C_LCD_ESCRIBE_VAR_CHAR
  2980 ;;		_I2C_LCD_CHAR_GRADO
  2981 ;;		_I2C_LCD_VARCHAR_BITS
  2982 ;;		_I2C_LCD_VARCHAR_HEX
  2983 ;; This function uses a non-reentrant model
  2984 ;;
  2985                           
  2986                           	psect	text15
  2987   002F24                     __ptext15:
  2988                           	callstack 0
  2989   002F24                     _I2C_ENVIA_LCD_DATA:
  2990                           	callstack 124
  2991                           
  2992                           ;incstack = 0
  2993                           ;I2C_ENVIA_LCD_DATA@data stored from wreg
  2994   002F24  6E04               	movwf	I2C_ENVIA_LCD_DATA@data^(0+1280),c
  2995   002F26                     
  2996                           ;I2C_LCD.c: 115:     unsigned char highnibble;;I2C_LCD.c: 116:     unsigned char lownibb
      +                          le;;I2C_LCD.c: 118:     highnibble = (data & 0xF0) | 0x08;
  2997   002F26  5004               	movf	I2C_ENVIA_LCD_DATA@data^(0+1280),w,c
  2998   002F28  0BF0               	andlw	240
  2999   002F2A  0908               	iorlw	8
  3000   002F2C  6E05               	movwf	I2C_ENVIA_LCD_DATA@highnibble^(0+1280),c
  3001                           
  3002                           ;I2C_LCD.c: 119:     lownibble = (unsigned char)(((data & 0x0F)<<4)| 0x08);
  3003   002F2E  C504  F503         	movff	I2C_ENVIA_LCD_DATA@data,??_I2C_ENVIA_LCD_DATA
  3004   002F32  0E0F               	movlw	15
  3005   002F34  1603               	andwf	??_I2C_ENVIA_LCD_DATA^(0+1280),f,c
  3006   002F36  3803               	swapf	??_I2C_ENVIA_LCD_DATA^(0+1280),w,c
  3007   002F38  0BF0               	andlw	240
  3008   002F3A  0908               	iorlw	8
  3009   002F3C  6E06               	movwf	I2C_ENVIA_LCD_DATA@lownibble^(0+1280),c
  3010   002F3E                     
  3011                           ;I2C_LCD.c: 121:     I2C1_WRITESINGLEBYTE(0x27,(highnibble | 0x04 | 0x01));
  3012   002F3E  5005               	movf	I2C_ENVIA_LCD_DATA@highnibble^(0+1280),w,c
  3013   002F40  0905               	iorlw	5
  3014   002F42  6E01               	movwf	I2C1_WRITESINGLEBYTE@dato^(0+1280),c
  3015   002F44  0E27               	movlw	39
  3016   002F46  EC50  F018         	call	_I2C1_WRITESINGLEBYTE
  3017   002F4A                     
  3018                           ;I2C_LCD.c: 122:     _delay((unsigned long)((20)*(32000000UL/4000000.0)));
  3019   002F4A  0E35               	movlw	53
  3020   002F4C                     u1237:
  3021   002F4C  2EE8               	decfsz	wreg,f,c
  3022   002F4E  D7FE               	bra	u1237
  3023   002F50  0000               	nop	
  3024   002F52                     
  3025                           ;I2C_LCD.c: 123:     I2C1_WRITESINGLEBYTE(0x27,(highnibble | 0x01));
  3026   002F52  5005               	movf	I2C_ENVIA_LCD_DATA@highnibble^(0+1280),w,c
  3027   002F54  0901               	iorlw	1
  3028   002F56  6E01               	movwf	I2C1_WRITESINGLEBYTE@dato^(0+1280),c
  3029   002F58  0E27               	movlw	39
  3030   002F5A  EC50  F018         	call	_I2C1_WRITESINGLEBYTE
  3031   002F5E                     
  3032                           ;I2C_LCD.c: 124:     _delay((unsigned long)((20)*(32000000UL/4000000.0)));
  3033   002F5E  0E35               	movlw	53
  3034   002F60                     u1247:
  3035   002F60  2EE8               	decfsz	wreg,f,c
  3036   002F62  D7FE               	bra	u1247
  3037   002F64  0000               	nop	
  3038   002F66                     
  3039                           ;I2C_LCD.c: 126:     I2C1_WRITESINGLEBYTE(0x27,(lownibble | 0x04 | 0x01));
  3040   002F66  5006               	movf	I2C_ENVIA_LCD_DATA@lownibble^(0+1280),w,c
  3041   002F68  0905               	iorlw	5
  3042   002F6A  6E01               	movwf	I2C1_WRITESINGLEBYTE@dato^(0+1280),c
  3043   002F6C  0E27               	movlw	39
  3044   002F6E  EC50  F018         	call	_I2C1_WRITESINGLEBYTE
  3045   002F72                     
  3046                           ;I2C_LCD.c: 127:     _delay((unsigned long)((20)*(32000000UL/4000000.0)));
  3047   002F72  0E35               	movlw	53
  3048   002F74                     u1257:
  3049   002F74  2EE8               	decfsz	wreg,f,c
  3050   002F76  D7FE               	bra	u1257
  3051   002F78  0000               	nop	
  3052   002F7A                     
  3053                           ;I2C_LCD.c: 128:     I2C1_WRITESINGLEBYTE(0x27,(lownibble | 0x01));
  3054   002F7A  5006               	movf	I2C_ENVIA_LCD_DATA@lownibble^(0+1280),w,c
  3055   002F7C  0901               	iorlw	1
  3056   002F7E  6E01               	movwf	I2C1_WRITESINGLEBYTE@dato^(0+1280),c
  3057   002F80  0E27               	movlw	39
  3058   002F82  EC50  F018         	call	_I2C1_WRITESINGLEBYTE
  3059   002F86                     
  3060                           ;I2C_LCD.c: 129:     _delay((unsigned long)((20)*(32000000UL/4000000.0)));
  3061   002F86  0E35               	movlw	53
  3062   002F88                     u1267:
  3063   002F88  2EE8               	decfsz	wreg,f,c
  3064   002F8A  D7FE               	bra	u1267
  3065   002F8C  0000               	nop	
  3066   002F8E  0012               	return		;funcret
  3067   002F90                     __end_of_I2C_ENVIA_LCD_DATA:
  3068                           	callstack 0
  3069                           
  3070 ;; *************** function _I2C1_WRITESINGLEBYTE *****************
  3071 ;; Defined at:
  3072 ;;		line 38 in file "I2C_LCD.c"
  3073 ;; Parameters:    Size  Location     Type
  3074 ;;  direccion       1    wreg     unsigned char 
  3075 ;;  dato            1    0[COMRAM] unsigned char 
  3076 ;; Auto vars:     Size  Location     Type
  3077 ;;  direccion       1    1[COMRAM] unsigned char 
  3078 ;; Return value:  Size  Location     Type
  3079 ;;                  1    wreg      void 
  3080 ;; Registers used:
  3081 ;;		wreg, status,2, status,0
  3082 ;; Tracked objects:
  3083 ;;		On entry : 0/0
  3084 ;;		On exit  : 0/0
  3085 ;;		Unchanged: 0/0
  3086 ;; Data sizes:     COMRAM   BANK5   BANK6   BANK7   BANK8   BANK9  BANK10  BANK11  BANK12  BANK13  BANK14  BANK15  BANK1
      +6  BANK17  BANK18  BANK19  BANK20  BANK21  BANK22  BANK23  BANK24  BANK25  BANK26  BANK27  BANK28  BANK29  BANK30  BANK3
      +1  BANK32  BANK33  BANK34  BANK35  BANK36
  3087 ;;      Params:         1       0       0       0       0       0       0       0       0       0       0       0       
      +0       0       0       0       0       0       0       0       0       0       0       0       0       0       0       
      +0       0       0       0       0       0
  3088 ;;      Locals:         1       0       0       0       0       0       0       0       0       0       0       0       
      +0       0       0       0       0       0       0       0       0       0       0       0       0       0       0       
      +0       0       0       0       0       0
  3089 ;;      Temps:          0       0       0       0       0       0       0       0       0       0       0       0       
      +0       0       0       0       0       0       0       0       0       0       0       0       0       0       0       
      +0       0       0       0       0       0
  3090 ;;      Totals:         2       0       0       0       0       0       0       0       0       0       0       0       
      +0       0       0       0       0       0       0       0       0       0       0       0       0       0       0       
      +0       0       0       0       0       0
  3091 ;;Total ram usage:        2 bytes
  3092 ;; Hardware stack levels used: 1
  3093 ;; This function calls:
  3094 ;;		Nothing
  3095 ;; This function is called by:
  3096 ;;		_I2C_ENVIA_LCD_DATA
  3097 ;;		_I2C_ENVIA_LCD_CMD
  3098 ;;		_I2C_LCD_INIT
  3099 ;; This function uses a non-reentrant model
  3100 ;;
  3101                           
  3102                           	psect	text16
  3103   0030A0                     __ptext16:
  3104                           	callstack 0
  3105   0030A0                     _I2C1_WRITESINGLEBYTE:
  3106                           	callstack 122
  3107                           
  3108                           ;incstack = 0
  3109                           ;I2C1_WRITESINGLEBYTE@direccion stored from wreg
  3110   0030A0  6E02               	movwf	I2C1_WRITESINGLEBYTE@direccion^(0+1280),c
  3111   0030A2                     
  3112                           ;I2C_LCD.c: 39:     I2C1CNT = 1;
  3113   0030A2  0E01               	movlw	1
  3114   0030A4  0102               	movlb	2	; () banked
  3115   0030A6  6F8D               	movwf	141,b	;volatile
  3116   0030A8                     
  3117                           ; BSR set to: 2
  3118                           ;I2C_LCD.c: 40:     I2C1ADB1 = (direccion << 1) & 0xFE;
  3119   0030A8  5002               	movf	I2C1_WRITESINGLEBYTE@direccion^(0+1280),w,c
  3120   0030AA  2402               	addwf	I2C1_WRITESINGLEBYTE@direccion^(0+1280),w,c
  3121   0030AC  0BFE               	andlw	254
  3122   0030AE  6F8F               	movwf	143,b	;volatile
  3123   0030B0                     
  3124                           ; BSR set to: 2
  3125                           ;I2C_LCD.c: 41:     I2C1TXB = dato;
  3126   0030B0  C501  F28C         	movff	I2C1_WRITESINGLEBYTE@dato,652	;volatile
  3127   0030B4                     
  3128                           ; BSR set to: 2
  3129                           ;I2C_LCD.c: 42:     I2C1CON0bits.S = 1;
  3130   0030B4  8B94               	bsf	148,5,b	;volatile
  3131   0030B6                     l42:
  3132                           
  3133                           ; BSR set to: 2
  3134   0030B6  AB99               	btfss	153,5,b	;volatile
  3135   0030B8  EF60  F018         	goto	u351
  3136   0030BC  EF62  F018         	goto	u350
  3137   0030C0                     u351:
  3138   0030C0  EF5B  F018         	goto	l42
  3139   0030C4                     u350:
  3140   0030C4                     l45:
  3141                           
  3142                           ; BSR set to: 2
  3143   0030C4  BB95               	btfsc	149,5,b	;volatile
  3144   0030C6  EF67  F018         	goto	u361
  3145   0030CA  EF69  F018         	goto	u360
  3146   0030CE                     u361:
  3147   0030CE  EF62  F018         	goto	l45
  3148   0030D2                     u360:
  3149   0030D2                     l48:
  3150                           
  3151                           ; BSR set to: 2
  3152   0030D2  A59A               	btfss	154,2,b	;volatile
  3153   0030D4  EF6E  F018         	goto	u371
  3154   0030D8  EF70  F018         	goto	u370
  3155   0030DC                     u371:
  3156   0030DC  EF69  F018         	goto	l48
  3157   0030E0                     u370:
  3158   0030E0                     
  3159                           ; BSR set to: 2
  3160   0030E0  0012               	return		;funcret
  3161   0030E2                     __end_of_I2C1_WRITESINGLEBYTE:
  3162                           	callstack 0
  3163                           
  3164                           	psect	rparam
  3165   000000                     
  3166                           	psect	config
  3167                           
  3168                           ;Config register CONFIG1 @ 0x300000
  3169                           ;	External Oscillator Selection
  3170                           ;	FEXTOSC = OFF, Oscillator not enabled
  3171                           ;	Reset Oscillator Selection
  3172                           ;	RSTOSC = EXTOSC, EXTOSC operating per FEXTOSC bits (device manufacturing default)
  3173   300000                     	org	3145728
  3174   300000  FC                 	db	252
  3175                           
  3176                           ;Config register CONFIG2 @ 0x300001
  3177                           ;	Clock out Enable bit
  3178                           ;	CLKOUTEN = OFF, CLKOUT function is disabled
  3179                           ;	PRLOCKED One-Way Set Enable bit
  3180                           ;	PR1WAY = ON, PRLOCKED bit can be cleared and set only once
  3181                           ;	Clock Switch Enable bit
  3182                           ;	CSWEN = ON, Writing to NOSC and NDIV is allowed
  3183                           ;	Fail-Safe Clock Monitor Enable bit
  3184                           ;	FCMEN = ON, Fail-Safe Clock Monitor enabled
  3185   300001                     	org	3145729
  3186   300001  FF                 	db	255
  3187                           
  3188                           ;Config register CONFIG3 @ 0x300002
  3189                           ;	MCLR Enable bit
  3190                           ;	MCLRE = EXTMCLR, If LVP = 0, MCLR pin is MCLR; If LVP = 1, RE3 pin function is MCLR
  3191                           ;	Power-up timer selection bits
  3192                           ;	PWRTS = PWRT_64, PWRT set at 64ms
  3193                           ;	Multi-vector enable bit
  3194                           ;	MVECEN = ON, Multi-vector enabled, Vector table used for interrupts
  3195                           ;	IVTLOCK bit One-way set enable bit
  3196                           ;	IVT1WAY = ON, IVTLOCKED bit can be cleared and set only once
  3197                           ;	Low Power BOR Enable bit
  3198                           ;	LPBOREN = OFF, Low-Power BOR disabled
  3199                           ;	Brown-out Reset Enable bits
  3200                           ;	BOREN = OFF, Brown-out Reset disabled
  3201   300002                     	org	3145730
  3202   300002  3D                 	db	61
  3203                           
  3204                           ;Config register CONFIG4 @ 0x300003
  3205                           ;	Brown-out Reset Voltage Selection bits
  3206                           ;	BORV = VBOR_1P9, Brown-out Reset Voltage (VBOR) set to 1.9V
  3207                           ;	ZCD Disable bit
  3208                           ;	ZCD = OFF, ZCD module is disabled. ZCD can be enabled by setting the ZCDSEN bit of ZCD
      +                          CON
  3209                           ;	PPSLOCK bit One-Way Set Enable bit
  3210                           ;	PPS1WAY = ON, PPSLOCKED bit can be cleared and set only once; PPS registers remain loc
      +                          ked after one clear/set cycle
  3211                           ;	Stack Full/Underflow Reset Enable bit
  3212                           ;	STVREN = ON, Stack full/underflow will cause Reset
  3213                           ;	Low Voltage Programming Enable bit
  3214                           ;	LVP = OFF, HV on MCLR/VPP must be used for programming
  3215                           ;	Extended Instruction Set Enable bit
  3216                           ;	XINST = OFF, Extended Instruction Set and Indexed Addressing Mode disabled
  3217   300003                     	org	3145731
  3218   300003  DF                 	db	223
  3219                           
  3220                           ;Config register CONFIG5 @ 0x300004
  3221                           ;	WDT Period selection bits
  3222                           ;	WDTCPS = WDTCPS_31, Divider ratio 1:65536; software control of WDTPS
  3223                           ;	WDT operating mode
  3224                           ;	WDTE = OFF, WDT Disabled; SWDTEN is ignored
  3225   300004                     	org	3145732
  3226   300004  9F                 	db	159
  3227                           
  3228                           ;Config register CONFIG6 @ 0x300005
  3229                           ;	WDT Window Select bits
  3230                           ;	WDTCWS = WDTCWS_7, window always open (100%); software control; keyed access not requi
      +                          red
  3231                           ;	WDT input clock selector
  3232                           ;	WDTCCS = SC, Software Control
  3233   300005                     	org	3145733
  3234   300005  FF                 	db	255
  3235                           
  3236                           ;Config register CONFIG7 @ 0x300006
  3237                           ;	Boot Block Size selection bits
  3238                           ;	BBSIZE = BBSIZE_512, Boot Block size is 512 words
  3239                           ;	Boot Block enable bit
  3240                           ;	BBEN = OFF, Boot block disabled
  3241                           ;	Storage Area Flash enable bit
  3242                           ;	SAFEN = OFF, SAF disabled
  3243                           ;	Background Debugger
  3244                           ;	DEBUG = OFF, Background Debugger disabled
  3245   300006                     	org	3145734
  3246   300006  FF                 	db	255
  3247                           
  3248                           ;Config register CONFIG8 @ 0x300007
  3249                           ;	Boot Block Write Protection bit
  3250                           ;	WRTB = OFF, Boot Block not Write protected
  3251                           ;	Configuration Register Write Protection bit
  3252                           ;	WRTC = OFF, Configuration registers not Write protected
  3253                           ;	Data EEPROM Write Protection bit
  3254                           ;	WRTD = OFF, Data EEPROM not Write protected
  3255                           ;	SAF Write protection bit
  3256                           ;	WRTSAF = OFF, SAF not Write Protected
  3257                           ;	Application Block write protection bit
  3258                           ;	WRTAPP = OFF, Application Block not write protected
  3259   300007                     	org	3145735
  3260   300007  FF                 	db	255
  3261                           
  3262                           ;Config register CONFIG10 @ 0x300009
  3263                           ;	PFM and Data EEPROM Code Protection bit
  3264                           ;	CP = OFF, PFM and Data EEPROM code protection disabled
  3265   300009                     	org	3145737
  3266   300009  FF                 	db	255
  3267                           tosu	equ	0x4FF
  3268                           tosh	equ	0x4FE
  3269                           tosl	equ	0x4FD
  3270                           stkptr	equ	0x4FC
  3271                           pclatu	equ	0x4FB
  3272                           pclath	equ	0x4FA
  3273                           pcl	equ	0x4F9
  3274                           tblptru	equ	0x4F8
  3275                           tblptrh	equ	0x4F7
  3276                           tblptrl	equ	0x4F6
  3277                           tablat	equ	0x4F5
  3278                           prodh	equ	0x4F4
  3279                           prodl	equ	0x4F3
  3280                           indf0	equ	0x4EF
  3281                           postinc0	equ	0x4EE
  3282                           postdec0	equ	0x4ED
  3283                           preinc0	equ	0x4EC
  3284                           plusw0	equ	0x4EB
  3285                           fsr0h	equ	0x4EA
  3286                           fsr0l	equ	0x4E9
  3287                           wreg	equ	0x4E8
  3288                           indf1	equ	0x4E7
  3289                           postinc1	equ	0x4E6
  3290                           postdec1	equ	0x4E5
  3291                           preinc1	equ	0x4E4
  3292                           plusw1	equ	0x4E3
  3293                           fsr1h	equ	0x4E2
  3294                           fsr1l	equ	0x4E1
  3295                           bsr	equ	0x4E0
  3296                           indf2	equ	0x4DF
  3297                           postinc2	equ	0x4DE
  3298                           postdec2	equ	0x4DD
  3299                           preinc2	equ	0x4DC
  3300                           plusw2	equ	0x4DB
  3301                           fsr2h	equ	0x4DA
  3302                           fsr2l	equ	0x4D9
  3303                           status	equ	0x4D8

Data Sizes:
    Strings     38
    Constant    0
    Data        0
    BSS         0
    Persistent  0
    Stack       0

Auto Spaces:
    Space          Size  Autos    Used
    COMRAM           95     25      25
    BANK5           160      0       0
    BANK6           256      0       0
    BANK7           256      0       0
    BANK8           256      0       0
    BANK9           256      0       0
    BANK10          256      0       0
    BANK11          256      0       0
    BANK12          256      0       0
    BANK13          256      0       0
    BANK14          256      0       0
    BANK15          256      0       0
    BANK16          256      0       0
    BANK17          256      0       0
    BANK18          256      0       0
    BANK19          256      0       0
    BANK20          256      0       0
    BANK21          256      0       0
    BANK22          256      0       0
    BANK23          256      0       0
    BANK24          256      0       0
    BANK25          256      0       0
    BANK26          256      0       0
    BANK27          256      0       0
    BANK28          256      0       0
    BANK29          256      0       0
    BANK30          256      0       0
    BANK31          256      0       0
    BANK32          256      0       0
    BANK33          256      0       0
    BANK34          256      0       0
    BANK35          256      0       0
    BANK36          256      0       0

Pointer List with Targets:

    I2C_ESCRIBE_MENSAJE2@cadena	PTR const unsigned char  size(1) Largest target is 15
		 -> STR_1(CODE[15]), STR_2(CODE[10]), STR_3(CODE[3]), STR_4(CODE[10]), 
		 -> STR_5(CODE[3]), 

    strlen@a	PTR const unsigned char  size(1) Largest target is 15
		 -> STR_1(CODE[15]), STR_2(CODE[10]), STR_3(CODE[3]), STR_4(CODE[10]), 
		 -> STR_5(CODE[3]), 

    strlen@s	PTR const unsigned char  size(1) Largest target is 15
		 -> STR_1(CODE[15]), STR_2(CODE[10]), STR_3(CODE[3]), STR_4(CODE[10]), 
		 -> STR_5(CODE[3]), 


Critical Paths under _main in COMRAM

    _main->_I2C_LCD_ESCRIBE_VAR_INT
    _configuro->_I2C_LCD_INIT
    _I2C_LCD_INIT->_I2C_CURSOR_ONOFF
    _I2C_CURSOR_ONOFF->_I2C_ENVIA_LCD_CMD
    _I2C_CURSOR_HOME->_I2C_ENVIA_LCD_CMD
    _I2C_BORRAR_LCD->_I2C_ENVIA_LCD_CMD
    _I2C_POS_CURSOR->_I2C_ENVIA_LCD_CMD
    _I2C_ENVIA_LCD_CMD->_I2C1_WRITESINGLEBYTE
    _I2C_LCD_ESCRIBE_VAR_INT->___lwdiv
    ___lwdiv->___lwmod
    _I2C_ESCRIBE_MENSAJE2->_I2C_ENVIA_LCD_DATA
    _I2C_ENVIA_LCD_DATA->_I2C1_WRITESINGLEBYTE

Critical Paths under _main in BANK5

    None.

Critical Paths under _main in BANK6

    None.

Critical Paths under _main in BANK7

    None.

Critical Paths under _main in BANK8

    None.

Critical Paths under _main in BANK9

    None.

Critical Paths under _main in BANK10

    None.

Critical Paths under _main in BANK11

    None.

Critical Paths under _main in BANK12

    None.

Critical Paths under _main in BANK13

    None.

Critical Paths under _main in BANK14

    None.

Critical Paths under _main in BANK15

    None.

Critical Paths under _main in BANK16

    None.

Critical Paths under _main in BANK17

    None.

Critical Paths under _main in BANK18

    None.

Critical Paths under _main in BANK19

    None.

Critical Paths under _main in BANK20

    None.

Critical Paths under _main in BANK21

    None.

Critical Paths under _main in BANK22

    None.

Critical Paths under _main in BANK23

    None.

Critical Paths under _main in BANK24

    None.

Critical Paths under _main in BANK25

    None.

Critical Paths under _main in BANK26

    None.

Critical Paths under _main in BANK27

    None.

Critical Paths under _main in BANK28

    None.

Critical Paths under _main in BANK29

    None.

Critical Paths under _main in BANK30

    None.

Critical Paths under _main in BANK31

    None.

Critical Paths under _main in BANK32

    None.

Critical Paths under _main in BANK33

    None.

Critical Paths under _main in BANK34

    None.

Critical Paths under _main in BANK35

    None.

Critical Paths under _main in BANK36

    None.

Call Graph Tables:

 ---------------------------------------------------------------------------------
 (Depth) Function   	        Calls       Base Space   Used Autos Params    Refs
 ---------------------------------------------------------------------------------
 (0) _main                                                 2     2      0   37509
                                             23 COMRAM     2     2      0
                     _I2C_BORRAR_LCD
               _I2C_ESCRIBE_MENSAJE2
            _I2C_LCD_ESCRIBE_VAR_INT
                     _I2C_POS_CURSOR
                        _Read_HCSR04
                          _configuro
 ---------------------------------------------------------------------------------
 (1) _configuro                                            0     0      0   16430
                       _I2C_LCD_INIT
 ---------------------------------------------------------------------------------
 (2) _I2C_LCD_INIT                                         2     2      0   16430
                                              7 COMRAM     2     2      0
                          _I2C1_INIT
               _I2C1_WRITESINGLEBYTE
                     _I2C_BORRAR_LCD
                    _I2C_CURSOR_HOME
                   _I2C_CURSOR_ONOFF
 ---------------------------------------------------------------------------------
 (3) _I2C_CURSOR_ONOFF                                     1     1      0    4174
                                              6 COMRAM     1     1      0
                  _I2C_ENVIA_LCD_CMD
 ---------------------------------------------------------------------------------
 (3) _I2C_CURSOR_HOME                                      0     0      0    4130
                  _I2C_ENVIA_LCD_CMD
 ---------------------------------------------------------------------------------
 (3) _I2C_BORRAR_LCD                                       0     0      0    4130
                  _I2C_ENVIA_LCD_CMD
 ---------------------------------------------------------------------------------
 (3) _I2C1_INIT                                            0     0      0       0
 ---------------------------------------------------------------------------------
 (1) _Read_HCSR04                                          7     5      2      45
                                              0 COMRAM     7     5      2
 ---------------------------------------------------------------------------------
 (1) _I2C_POS_CURSOR                                       2     1      1    4534
                                              6 COMRAM     2     1      1
                  _I2C_ENVIA_LCD_CMD
 ---------------------------------------------------------------------------------
 (4) _I2C_ENVIA_LCD_CMD                                    4     4      0    4130
                                              2 COMRAM     4     4      0
               _I2C1_WRITESINGLEBYTE
 ---------------------------------------------------------------------------------
 (1) _I2C_LCD_ESCRIBE_VAR_INT                             11     7      4    7580
                                             12 COMRAM    11     7      4
                 _I2C_ENVIA_LCD_DATA
                        _Read_HCSR04 (ARG)
                            ___lwdiv
                            ___lwmod
 ---------------------------------------------------------------------------------
 (2) ___lwmod                                              5     1      4     767
                                              0 COMRAM     5     1      4
 ---------------------------------------------------------------------------------
 (2) ___lwdiv                                              7     3      4     770
                                              5 COMRAM     7     3      4
                            ___lwmod (ARG)
 ---------------------------------------------------------------------------------
 (1) _I2C_ESCRIBE_MENSAJE2                                 4     3      1    4790
                                              6 COMRAM     4     3      1
                 _I2C_ENVIA_LCD_DATA
                             _strlen
 ---------------------------------------------------------------------------------
 (2) _strlen                                               3     1      2     166
                                              0 COMRAM     3     1      2
 ---------------------------------------------------------------------------------
 (2) _I2C_ENVIA_LCD_DATA                                   4     4      0    4130
                                              2 COMRAM     4     4      0
               _I2C1_WRITESINGLEBYTE
 ---------------------------------------------------------------------------------
 (5) _I2C1_WRITESINGLEBYTE                                 2     1      1    3996
                                              0 COMRAM     2     1      1
 ---------------------------------------------------------------------------------
 Estimated maximum stack depth 5
 ---------------------------------------------------------------------------------

 Call Graph Graphs:

 _main (ROOT)
   _I2C_BORRAR_LCD
     _I2C_ENVIA_LCD_CMD
       _I2C1_WRITESINGLEBYTE
   _I2C_ESCRIBE_MENSAJE2
     _I2C_ENVIA_LCD_DATA
       _I2C1_WRITESINGLEBYTE
     _strlen
   _I2C_LCD_ESCRIBE_VAR_INT
     _I2C_ENVIA_LCD_DATA
     _Read_HCSR04 (ARG)
     ___lwdiv (ARG)
       ___lwmod (ARG)
     ___lwmod (ARG)
   _I2C_POS_CURSOR
     _I2C_ENVIA_LCD_CMD
   _Read_HCSR04
   _configuro
     _I2C_LCD_INIT
       _I2C1_INIT
       _I2C1_WRITESINGLEBYTE
       _I2C_BORRAR_LCD
       _I2C_CURSOR_HOME
         _I2C_ENVIA_LCD_CMD
       _I2C_CURSOR_ONOFF
         _I2C_ENVIA_LCD_CMD

 Address spaces:
Name               Size   Autos  Total    Cost      Usage
BITCOMRAM           5F      0       0       0        0.0%
EEDATA             400      0       0       0        0.0%
NULL                 0      0       0       0        0.0%
CODE                 0      0       0       0        0.0%
COMRAM              5F     19      19       1       26.3%
STACK                0      0       0       2        0.0%
DATA                 0      0       0       3        0.0%
BITBANK5            A0      0       0       4        0.0%
BANK5               A0      0       0       5        0.0%
BITBANK6           100      0       0       6        0.0%
BANK6              100      0       0       7        0.0%
BITBANK7           100      0       0       8        0.0%
BANK7              100      0       0       9        0.0%
BITBANK8           100      0       0      10        0.0%
BANK8              100      0       0      11        0.0%
BITBANK9           100      0       0      12        0.0%
BANK9              100      0       0      13        0.0%
BITBANK10          100      0       0      14        0.0%
BANK10             100      0       0      15        0.0%
BITBANK11          100      0       0      16        0.0%
BANK11             100      0       0      17        0.0%
BITBANK12          100      0       0      18        0.0%
BANK12             100      0       0      19        0.0%
BITBANK13          100      0       0      20        0.0%
BANK13             100      0       0      21        0.0%
BITBANK14          100      0       0      22        0.0%
BANK14             100      0       0      23        0.0%
BITBANK15          100      0       0      24        0.0%
BANK15             100      0       0      25        0.0%
BITBANK16          100      0       0      26        0.0%
BANK16             100      0       0      27        0.0%
BITBANK17          100      0       0      28        0.0%
BANK17             100      0       0      29        0.0%
BITBANK18          100      0       0      30        0.0%
BANK18             100      0       0      31        0.0%
BITBANK19          100      0       0      32        0.0%
BANK19             100      0       0      33        0.0%
BITBANK20          100      0       0      34        0.0%
BANK20             100      0       0      35        0.0%
BITBANK21          100      0       0      36        0.0%
BANK21             100      0       0      37        0.0%
BITBANK22          100      0       0      38        0.0%
BANK22             100      0       0      39        0.0%
BITBANK23          100      0       0      40        0.0%
BANK23             100      0       0      41        0.0%
BITBANK24          100      0       0      42        0.0%
BANK24             100      0       0      43        0.0%
BITBANK25          100      0       0      44        0.0%
BANK25             100      0       0      45        0.0%
BITBANK26          100      0       0      46        0.0%
BANK26             100      0       0      47        0.0%
ABS                  0      0       0      48        0.0%
BITBANK27          100      0       0      49        0.0%
BANK27             100      0       0      50        0.0%
BITBANK28          100      0       0      51        0.0%
BANK28             100      0       0      52        0.0%
BITBANK29          100      0       0      53        0.0%
BANK29             100      0       0      54        0.0%
BITBANK30          100      0       0      55        0.0%
BANK30             100      0       0      56        0.0%
BITBANK31          100      0       0      57        0.0%
BANK31             100      0       0      58        0.0%
BITBANK32          100      0       0      59        0.0%
BANK32             100      0       0      60        0.0%
BITBANK33          100      0       0      61        0.0%
BANK33             100      0       0      62        0.0%
BITBANK34          100      0       0      63        0.0%
BANK34             100      0       0      64        0.0%
BITBANK35          100      0       0      65        0.0%
BANK35             100      0       0      66        0.0%
BITBANK36          100      0       0      67        0.0%
BANK36             100      0       0      68        0.0%
BITBIGSFR_1        100      0       0      69        0.0%
BIGRAM            1FFF      0       0      70        0.0%
BITBIGSFRhhh        2F      0       0      71        0.0%
BITBIGSFRhhl         5      0       0      72        0.0%
BITBIGSFRhl          1      0       0      73        0.0%
BITBIGSFRlhhhh       4      0       0      74        0.0%
BITBIGSFRlhhhl      A1      0       0      75        0.0%
BITBIGSFRlhhlh       F      0       0      76        0.0%
BITBIGSFRlhhll       5      0       0      77        0.0%
BITBIGSFRlhl         1      0       0      78        0.0%
BITBIGSFRllhhhh     E6      0       0      79        0.0%
BITBIGSFRllhhhl      2      0       0      80        0.0%
BITBIGSFRllhhhl     7F      0       0      81        0.0%
BITBIGSFRllhhlh      1      0       0      82        0.0%
BITBIGSFRllhhlh      2      0       0      83        0.0%
BITBIGSFRllhlhh      4      0       0      84        0.0%
BITBIGSFRllhlhl      1      0       0      85        0.0%
BITBIGSFRllhll      7D      0       0      86        0.0%
BITBIGSFRlllhhh    159      0       0      87        0.0%
BITBIGSFRlllhhl      1      0       0      88        0.0%
BITBIGSFRlllhl       3      0       0      89        0.0%
BITBIGSFRllll       AD      0       0      90        0.0%
BIGSFR_1             0      0       0     200        0.0%
BIGSFR               0      0       0     200        0.0%
BITSFR_6             0      0       0     200        0.0%
SFR_6                0      0       0     200        0.0%
BITSFR_5             0      0       0     200        0.0%
SFR_5                0      0       0     200        0.0%
BITSFR_4             0      0       0     200        0.0%
SFR_4                0      0       0     200        0.0%
BITSFR_3             0      0       0     200        0.0%
SFR_3                0      0       0     200        0.0%
BITSFR_2             0      0       0     200        0.0%
SFR_2                0      0       0     200        0.0%
BITSFR_1             0      0       0     200        0.0%
SFR_1                0      0       0     200        0.0%
BITSFR               0      0       0     200        0.0%
SFR                  0      0       0     200        0.0%


Microchip Technology PIC18 Macro Assembler V2.45 build 20230818022343 
Symbol Table                                                                                   Mon Dec 04 12:11:06 2023

                              l42 30B6                                l51 30E0                                l45 30C4  
                              l61 2EAE                                l39 31A6                                l48 30D2  
                              l57 2EAE                                l74 31AE                                l91 317C  
                             l103 309E                               l112 2FF6                               l120 2C74  
                             l106 2F8E                               l109 31B6                               l230 2C92  
                             l240 2CD4                               l232 2CA0                               l241 2CD8  
                             l233 2CA4                               l225 314C                               l250 2D1A  
                             l251 2D64                               l243 2CE6                               l235 2CB2  
                             l244 2CEE                               l236 2D54                               l245 2CFA  
                             l237 2CBA                               l229 2C86                               l238 2CC6  
                             l159 2920                               l247 2D08                               l248 2D0C  
                             l763 2F22                               l756 2F1A                               l773 305A  
                             l942 3118                               l766 3052                               l970 317E  
                             l972 318C                               l974 3196                               l976 31A4  
                             u400 310C                               u401 3108                               u410 2ECA  
                             u411 2EC6                               u420 2EE8                               u500 2EA2  
                             u421 2EE4                               u501 2E9E                               u350 30C4  
                             u510 309E                               u430 2F04                               u351 30C0  
                             u511 309A                               u431 2F00                               u360 30D2  
                             u440 300A                               u520 25FC                               u361 30CE  
                             u441 3006                               u521 25F8                               u370 30E0  
                             u450 3028                               u530 2620                               u371 30DC  
                             u451 3024                               u531 261C                               u460 303E  
                             u540 2CA0                               u380 3160                               u461 303A  
                             u541 2C9C                               u381 315C                               u470 2E48  
                             u550 2CB2                               u390 3176                               u471 2E44  
                             u551 2CAE                               u391 3172                               u480 2E66  
                             u560 2CD4                               u481 2E62                               u561 2CD0  
                             u490 2E84                               u570 2CE6                               u491 2E80  
                             u571 2CE2                               u707 2DD4                               u580 2D08  
                             u581 2D04                               u717 2E20                               u590 2D1A  
                             u591 2D16                               u807 29E6                               u727 292C  
                             u817 29F8                               u737 294A                               u907 2A9C  
                             u827 2A0E                               u747 296E                               u917 2AAE  
                             u837 2A22                               u757 2980                               u927 2ABE  
                             u847 2A34                               u767 2996                               u937 2AD0  
                             u857 2A46                               u777 29AA                               u697 2D86  
                             u947 2AE2                               u867 2A56                               u787 29BC  
                             u957 2AF2                               u877 2A68                               u797 29D2  
                             u967 2B04                               u887 2A7A                               u977 2B16  
                             u897 2A8A                               u987 2B26                               u997 2B38  
                             wreg 04E8                      _I2C_LCD_INIT 2922                 _I2C_ENVIA_LCD_CMD 2F90  
                            l2000 289C                              l2004 28DE                              l2030 3136  
                            l2022 311A                              l2040 3140                              l2032 3138  
                            l2024 3128                              l2200 2DCA                              l2050 2C90  
                            l2042 3142                              l2034 313A                              l2026 312C  
                            l2202 2DE2                              l2052 2CBC                              l2044 3148  
                            l2036 313C                              l2028 3130                              l2204 2DEC  
                            l2054 2CC4                              l2062 2D22                              l2046 2C78  
                            l2038 313E                              l2206 2E0E                              l2320 2D36  
                            l2056 2CF0                              l2048 2C88                              l2208 2E16  
                            l2322 26AE                              l2058 2CF8                              l1700 310C  
                            l2324 2782                              l2326 28B0                              l1710 2940  
                            l2190 2D92                              l1640 30A8                              l2328 28F2  
                            l1800 2AF0                              l1720 297E                              l1712 2958  
                            l1704 2922                              l2192 2D96                              l2184 2D66  
                            l1642 30B0                              l1650 2FB6                              l1810 2B1A  
                            l1802 2AF8                              l1730 29B0                              l1722 2986  
                            l1714 2962                              l1706 2926                              l2194 2DA0  
                            l2186 2D74                              l1644 30B4                              l1900 2EEE  
                            l1660 2FE4                              l1652 2FBE                              l1820 2B48  
                            l1812 2B24                              l1804 2B02                              l1740 29E4  
                            l1732 29BA                              l1724 2990                              l1716 296C  
                            l1708 2936                              l2196 2DA8                              l2188 2D7C  
                            l1638 30A2                              l1902 2F04                              l1910 2FF8  
                            l1662 2FEE                              l1654 2FC8                              l1646 2F92  
                            l1670 3166                              l1830 2B72                              l1822 2B4E  
                            l1814 2B2C                              l1806 2B0A                              l1750 2A16  
                            l1742 29EC                              l1734 29C2                              l1726 299E  
                            l1718 2974                              l2198 2DC2                              l1680 2F4A  
                            l1904 2F0C                              l1920 303E                              l1912 300A  
                            l1656 2FD0                              l1648 2FAA                              l1664 31A8  
                            l1672 3176                              l1840 2BA8                              l1832 2B7C  
                            l1824 2B58                              l1816 2B36                              l1808 2B14  
                            l1760 2A44                              l1752 2A20                              l1744 29F6  
                            l1736 29CC                              l1728 29A8                              l1690 2F7A  
                            l1682 2F52                              l1906 2F0E                              l1922 3046  
                            l1914 3012                              l1658 2FDC                              l1930 2E54  
                            l1674 31B0                              l1666 3150                              l1850 2BD2  
                            l1842 2BB0                              l1834 2B8C                              l1826 2B60  
                            l1818 2B3E                              l1770 2A6E                              l1762 2A4A  
                            l1754 2A28                              l1746 29FE                              l1738 29DA  
                            l1692 2F86                              l1684 2F5E                              l1676 2F26  
                            l1908 2F14                              l1924 304C                              l1916 301A  
                            l1940 2EA2                              l1932 2E66                              l1668 3160  
                            l1860 2BFE                              l1852 2BDC                              l1844 2BBA  
                            l1836 2B96                              l1828 2B6A                              l1780 2A9A  
                            l1772 2A78                              l1764 2A54                              l1756 2A32  
                            l1748 2A08                              l1686 2F66                              l1678 2F3E  
                            l1694 30E2                              l1950 308A                              l1942 305C  
                            l1918 3028                              l1934 2E72                              l1926 2E38  
                            l1870 2C28                              l1862 2C06                              l1854 2BE4  
                            l1846 2BC0                              l1838 2B9E                              l1790 2AC4  
                            l1782 2AA2                              l1774 2A7E                              l1766 2A5C  
                            l1758 2A3A                              l1688 2F72                              l1696 30EA  
                            l1952 308C                              l1944 3068                              l1960 25FC  
                            l1936 2E84                              l1928 2E48                              l1880 2C56  
                            l1872 2C32                              l1864 2C10                              l1856 2BEE  
                            l1848 2BCA                              l1792 2ACE                              l1784 2AAC  
                            l1776 2A88                              l1768 2A66                              l1698 30EC  
                            l1946 3068                              l1890 2EB8                              l1970 2678  
                            l1962 2610                              l1954 2528                              l1938 2E90  
                            l1882 2C66                              l1874 2C3A                              l1866 2C18  
                            l1858 2BF4                              l1794 2AD6                              l1786 2AB2  
                            l1778 2A90                              l1948 3070                              l1892 2ECA  
                            l1980 271A                              l1964 2620                              l1956 25E0  
                            l1884 2C6A                              l1876 2C44                              l1868 2C22  
                            l1796 2AE0                              l1788 2ABC                              l1894 2ED2  
                            l1990 27D4                              l1982 2744                              l1974 269A  
                            l1966 263A                              l1958 25EC                              l1886 2C6E  
                            l1878 2C4C                              l1798 2AE6                              l1896 2EDA  
                            l1888 2EB0                              l1992 2806                              l1976 26CC  
                            l1968 2656                              l1898 2EE8                              l1994 2838  
                            l1986 276E                              l1978 26F0                              l1996 286A  
                            l1988 27A8                              STR_1 2501                              STR_2 2510  
                            STR_3 2524                              STR_4 251A                              STR_5 2524  
                            u1007 2B4A                              u1017 2B5A                              u1107 2C00  
                            u1027 2B6C                              u1117 2C12                              u1037 2B82  
                            u1207 2FCA                              u1127 2C24                              u1047 2B98  
                            u1217 2FDE                              u1137 2C34                              u1057 2BAA  
                            u1227 2FF0                              u1147 2C46                              u1067 2BBC  
                            u1237 2F4C                              u1157 2C5C                              u1077 2BCC  
                            u1247 2F60                              u1167 2C8A                              u1087 2BDE  
                            u1257 2F74                              u1177 2CBE                              u1097 2BF0  
                            u1267 2F88                              u1187 2CF2                              u1197 2FB8  
                            _TMR1 031C                ?_I2C_ENVIA_LCD_CMD 0501          I2C_ENVIA_LCD_CMD@command 0504  
                            _main 2D66                     ??_Read_HCSR04 0503                 ??_I2C_CURSOR_HOME 0507  
                            start FFFC               ??_I2C_ENVIA_LCD_CMD 0503                      ___param_bank 0000  
              _I2C_ENVIA_LCD_DATA 2F24                 __end_of_I2C1_INIT 31A8                             ?_main 0501  
                           _T1CLK 0321                             _T1CON 031E                   __end_of___lwdiv 2F24  
                 __end_of___lwmod 305C                             _OSCEN 00B3                             _TMR1H 031D  
                           _TMR1L 031C               ?_I2C_ENVIA_LCD_DATA 0501                             _TRISE 04CA  
       __end_of_I2C_ENVIA_LCD_CMD 2FF8                    _I2C_BORRAR_LCD 31B0                 ?_I2C_CURSOR_ONOFF 0501  
                           tablat 04F5                             status 04D8                ??_I2C_CURSOR_ONOFF 0507  
          I2C_CURSOR_ONOFF@estado 0507              ??_I2C_ENVIA_LCD_DATA 0503                   __initialization 31B8  
                    __end_of_main 2E36               __end_of_Read_HCSR04 2D66           I2C_ESCRIBE_MENSAJE2@tam 0509  
                          ??_main 0518                     __activetblptr 0003          ?_I2C_LCD_ESCRIBE_VAR_INT 050D  
          __end_of_I2C_BORRAR_LCD 31B8                            _ANSELE 0420                            _RB4PPS 020D  
                          _RB5PPS 020E                            _OSCFRQ 00B1     I2C1_WRITESINGLEBYTE@direccion 0502  
                       ??___lwdiv 050A                         ??___lwmod 0505                            isa$std 0001  
                          _strlen 30E2                      __mediumconst 0000                            tblptrh 04F7  
                          tblptrl 04F6                            tblptru 04F8                   ?_I2C_BORRAR_LCD 0501  
                  _I2C_POS_CURSOR 2E36                        __accesstop 0560           __end_of__initialization 31B8  
                     _Read_HCSR04 2C76                     ___rparam_used 0001                    __pcstackCOMRAM 0501  
    I2C_LCD_ESCRIBE_VAR_INT@punto 0510   __end_of_I2C_LCD_ESCRIBE_VAR_INT 2922             I2C_ESCRIBE_MENSAJE2@i 050A  
                 _I2C_CURSOR_HOME 31A8            __end_of_I2C_POS_CURSOR 2EB0                 Read_HCSR04@numero 0507  
                         _I2C1CNT 028D                           _I2C1TXB 028C       I2C_ENVIA_LCD_DATA@lownibble 0506  
                         ?_strlen 0501                         _I2C1_INIT 317E                           _OSCCON1 00AD  
    __end_of_I2C_ESCRIBE_MENSAJE2 30A0                   ?_I2C_POS_CURSOR 0507        I2C_ESCRIBE_MENSAJE2@cadena 0507  
                         __Hparam 0000                           __Lparam 0000                 __end_of_configuro 314E  
                         ___lwdiv 2EB0                           ___lwmod 2FF8                      __psmallconst 2500  
                         __pcinit 31B8                           __ramtop 2500                           __ptext0 2D66  
                         __ptext1 311A                           __ptext2 2922                           __ptext3 314E  
                         __ptext4 31A8                           __ptext5 31B0                           __ptext6 317E  
                         __ptext7 2C76                           __ptext8 2E36                           __ptext9 2F90  
         __end_of_I2C_CURSOR_HOME 31B0                       _I2C1CLKbits 029C                         _T1CONbits 031E  
                      ?_I2C1_INIT 0501        I2C_ENVIA_LCD_CMD@lownibble 0506                       _I2C1PIRbits 029A  
            end_of_initialization 31B8  I2C_LCD_ESCRIBE_VAR_INT@n_digitos 050F                I2C_POS_CURSOR@fila 0508  
                         strlen@a 0503                           strlen@s 0501                         _PORTCbits 04D0  
                ??_I2C_BORRAR_LCD 0507                         _TRISBbits 04C7                         _TRISCbits 04C8  
                    ?_Read_HCSR04 0501              _I2C_ESCRIBE_MENSAJE2 305C     I2C_LCD_ESCRIBE_VAR_INT@decena 0516  
   I2C_LCD_ESCRIBE_VAR_INT@millar 0514     I2C_LCD_ESCRIBE_VAR_INT@numero 050D     I2C_LCD_ESCRIBE_VAR_INT@unidad 0517  
                ?_I2C_CURSOR_HOME 0501                       ??_I2C1_INIT 0501                    __end_of_strlen 311A  
             start_initialization 31B8                     ?_I2C_LCD_INIT 0501      __end_of_I2C1_WRITESINGLEBYTE 30E2  
           ?_I2C_ESCRIBE_MENSAJE2 0507      I2C_ENVIA_LCD_DATA@highnibble 0505                  _I2C_CURSOR_ONOFF 314E  
                        ??_strlen 0503                  ??_I2C_POS_CURSOR 0508                    ??_I2C_LCD_INIT 0508  
              Read_HCSR04@cuentas 0505           _I2C_LCD_ESCRIBE_VAR_INT 2528                  ___lwdiv@dividend 0506  
  I2C_LCD_ESCRIBE_VAR_INT@centena 0515                          _I2C1ADB1 028F                          ?___lwdiv 0506  
                        ?___lwmod 0501                         _configuro 311A                       __smallconst 2500  
                ___lwdiv@quotient 050A                          _LATEbits 04C2            ??_I2C_ESCRIBE_MENSAJE2 0508  
                   _I2C1STAT1bits 0299              _I2C1_WRITESINGLEBYTE 30A0            I2C_ENVIA_LCD_DATA@data 0504  
                      ?_configuro 0501       I2C_ENVIA_LCD_CMD@highnibble 0505         ??_I2C_LCD_ESCRIBE_VAR_INT 0511  
      __end_of_I2C_ENVIA_LCD_DATA 2F90             I2C_POS_CURSOR@columna 0507                          __Hrparam 0000  
            __end_of_I2C_LCD_INIT 2C76                          __Lrparam 0000             ?_I2C1_WRITESINGLEBYTE 0501  
                      _ANSELBbits 0408                        _ANSELCbits 0410                      _I2C1CON0bits 0294  
                    _I2C1CON1bits 0295                      _I2C1CON2bits 0296                   ___lwdiv@divisor 0508  
        I2C1_WRITESINGLEBYTE@dato 0501                   ___lwdiv@counter 050C                          __ptext10 2528  
                        __ptext11 2FF8                          __ptext12 2EB0                          __ptext13 305C  
                        __ptext14 30E2                          __ptext15 2F24                          __ptext16 30A0  
        __end_of_I2C_CURSOR_ONOFF 317E                          isa$xinst 0000                        _ODCONBbits 040A  
                     ??_configuro 050A                  ___lwmod@dividend 0501   I2C_LCD_ESCRIBE_VAR_INT@d_millar 0513  
          ??_I2C1_WRITESINGLEBYTE 0502                   ___lwmod@divisor 0503                   ___lwmod@counter 0505  
