

Microchip MPLAB XC8 Assembler V2.46 build 20240104201356 
                                                                                               Mon Oct 21 10:52:31 2024

Microchip MPLAB XC8 C Compiler v2.46 (Free license) build 20240104201356 Og1 
     1                           	processor	18F57Q43
     2                           	fnconf	rparam,??,?,0
     3                           	pagewidth 120
     4                           	opt	flic
     5                           	psect	idataBANK5,global,class=CODE,delta=1,noexec
     6                           	psect	smallconst,global,reloc=2,class=SMALLCONST,delta=1,noexec
     7                           	psect	cinit,global,reloc=2,class=CODE,delta=1
     8                           	psect	bssCOMRAM,global,class=COMRAM,space=1,delta=1,lowdata,noexec
     9                           	psect	dataBANK5,global,class=BANK5,space=1,delta=1,lowdata,noexec
    10                           	psect	cstackCOMRAM,global,class=COMRAM,space=1,delta=1,lowdata,noexec
    11                           	psect	text0,global,reloc=2,class=CODE,delta=1
    12                           	psect	text1,global,reloc=2,class=CODE,delta=1,group=2
    13                           	psect	text2,global,reloc=2,class=CODE,delta=1,group=2
    14                           	psect	text3,global,reloc=2,class=CODE,delta=1
    15                           	psect	text4,global,reloc=2,class=CODE,delta=1,group=1
    16                           	psect	text5,global,reloc=2,class=CODE,delta=1,group=1
    17                           	psect	text6,global,reloc=2,class=CODE,delta=1
    18                           	psect	text7,global,reloc=2,class=CODE,delta=1
    19                           	psect	text8,global,reloc=2,class=CODE,delta=1
    20                           	psect	text9,global,reloc=2,class=CODE,delta=1
    21                           	psect	text10,global,reloc=2,class=CODE,delta=1
    22                           	psect	text11,global,reloc=2,class=CODE,delta=1
    23                           	psect	text12,global,reloc=2,class=CODE,delta=1
    24                           	psect	text13,global,reloc=2,class=CODE,delta=1
    25                           	psect	text14,global,reloc=2,class=CODE,delta=1
    26                           	psect	text15,global,reloc=2,class=CODE,delta=1
    27                           	psect	text16,global,reloc=2,class=CODE,delta=1
    28                           	psect	text17,global,reloc=2,class=CODE,delta=1
    29                           	psect	text18,global,reloc=2,class=CODE,delta=1,group=2
    30                           	psect	text19,global,reloc=2,class=CODE,delta=1
    31                           	psect	text20,global,reloc=2,class=CODE,delta=1
    32                           	psect	text21,global,reloc=4,class=CODE,delta=1
    33                           	psect	text22,global,reloc=4,class=CODE,delta=1
    34                           	psect	ivt0x8,global,reloc=2,class=CODE,delta=1,noexec,keep,optim=
    35                           	psect	intsave_regs,global,class=BIGRAM,space=1,delta=1,noexec
    36                           	psect	rparam,global,class=COMRAM,space=1,delta=1,noexec
    37                           	psect	config,global,abs,ovrld,class=CONFIG,space=4,delta=1,noexec
    38   000000                     
    39                           ; Generated 18/12/2023 GMT
    40                           ; 
    41                           ; Copyright © 2023, Microchip Technology Inc. and its subsidiaries ("Microchip")
    42                           ; All rights reserved.
    43                           ; 
    44                           ; This software is developed by Microchip Technology Inc. and its subsidiaries ("Microch
      +                          ip").
    45                           ; 
    46                           ; Redistribution and use in source and binary forms, with or without modification, are
    47                           ; permitted provided that the following conditions are met:
    48                           ; 
    49                           ;     1. Redistributions of source code must retain the above copyright notice, this lis
      +                          t of
    50                           ;        conditions and the following disclaimer.
    51                           ; 
    52                           ;     2. Redistributions in binary form must reproduce the above copyright notice, this 
      +                          list
    53                           ;        of conditions and the following disclaimer in the documentation and/or other
    54                           ;        materials provided with the distribution. Publication is not required when
    55                           ;        this file is used in an embedded application.
    56                           ; 
    57                           ;     3. Microchip's name may not be used to endorse or promote products derived from th
      +                          is
    58                           ;        software without specific prior written permission.
    59                           ; 
    60                           ; THIS SOFTWARE IS PROVIDED BY MICROCHIP "AS IS" AND ANY EXPRESS OR IMPLIED WARRANTIES,
    61                           ; INCLUDING, BUT NOT LIMITED TO, THE IMPLIED WARRANTIES OF MERCHANTABILITY AND FITNESS F
      +                          OR
    62                           ; PURPOSE ARE DISCLAIMED.  IN NO EVENT SHALL MICROCHIP BE LIABLE FOR ANY DIRECT, INDIREC
      +                          T,
    63                           ; INCIDENTAL, SPECIAL, EXEMPLARY, OR CONSEQUENTIAL DAMAGES (INCLUDING BUT NOT LIMITED TO
    64                           ; PROCUREMENT OF SUBSTITUTE GOODS OR SERVICES; LOSS OF USE, DATA OR PROFITS; OR BUSINESS
    65                           ; INTERRUPTION) HOWSOEVER CAUSED AND ON ANY THEORY OF LIABILITY, WHETHER IN CONTRACT, ST
      +                          RICT
    66                           ; LIABILITY, OR TORT (INCLUDING NEGLIGENCE OR OTHERWISE) ARISING IN ANY WAY OUT OF THE U
      +                          SE OF
    67                           ; THIS SOFTWARE, EVEN IF ADVISED OF THE POSSIBILITY OF SUCH DAMAGE.
    68                           ; 
    69                           ; 
    70                           ; Code-generator required, PIC18F57Q43 Definitions
    71                           ; 
    72                           ; SFR Addresses
    73   000000                     
    74                           	psect	idataBANK5
    75   003434                     __pidataBANK5:
    76                           	callstack 0
    77                           
    78                           ;initializer for _letra_a
    79   003434  30                 	db	48
    80   003435  78                 	db	120
    81   003436  CC                 	db	204
    82   003437  CC                 	db	204
    83   003438  FC                 	db	252
    84   003439  CC                 	db	204
    85   00343A  CC                 	db	204
    86   00343B  00                 	db	0
    87                           
    88                           ;initializer for _num_9
    89   00343C  78                 	db	120
    90   00343D  CC                 	db	204
    91   00343E  CC                 	db	204
    92   00343F  7C                 	db	124
    93   003440  0C                 	db	12
    94   003441  18                 	db	24
    95   003442  70                 	db	112
    96   003443  00                 	db	0
    97                           
    98                           ;initializer for _num_8
    99   003444  78                 	db	120
   100   003445  CC                 	db	204
   101   003446  CC                 	db	204
   102   003447  78                 	db	120
   103   003448  CC                 	db	204
   104   003449  CC                 	db	204
   105   00344A  78                 	db	120
   106   00344B  00                 	db	0
   107                           
   108                           ;initializer for _num_7
   109   00344C  FC                 	db	252
   110   00344D  CC                 	db	204
   111   00344E  0C                 	db	12
   112   00344F  18                 	db	24
   113   003450  30                 	db	48
   114   003451  30                 	db	48
   115   003452  30                 	db	48
   116   003453  00                 	db	0
   117                           
   118                           ;initializer for _num_6
   119   003454  38                 	db	56
   120   003455  60                 	db	96
   121   003456  C0                 	db	192
   122   003457  F8                 	db	248
   123   003458  CC                 	db	204
   124   003459  CC                 	db	204
   125   00345A  78                 	db	120
   126   00345B  00                 	db	0
   127                           
   128                           ;initializer for _num_5
   129   00345C  FC                 	db	252
   130   00345D  C0                 	db	192
   131   00345E  F8                 	db	248
   132   00345F  0C                 	db	12
   133   003460  0C                 	db	12
   134   003461  CC                 	db	204
   135   003462  78                 	db	120
   136   003463  00                 	db	0
   137                           
   138                           ;initializer for _num_4
   139   003464  1C                 	db	28
   140   003465  3C                 	db	60
   141   003466  6C                 	db	108
   142   003467  CC                 	db	204
   143   003468  FE                 	db	254
   144   003469  0C                 	db	12
   145   00346A  1E                 	db	30
   146   00346B  00                 	db	0
   147                           
   148                           ;initializer for _num_3
   149   00346C  78                 	db	120
   150   00346D  CC                 	db	204
   151   00346E  0C                 	db	12
   152   00346F  38                 	db	56
   153   003470  0C                 	db	12
   154   003471  CC                 	db	204
   155   003472  78                 	db	120
   156   003473  00                 	db	0
   157                           
   158                           ;initializer for _num_2
   159   003474  78                 	db	120
   160   003475  CC                 	db	204
   161   003476  0C                 	db	12
   162   003477  38                 	db	56
   163   003478  60                 	db	96
   164   003479  CC                 	db	204
   165   00347A  FC                 	db	252
   166   00347B  00                 	db	0
   167                           
   168                           ;initializer for _num_1
   169   00347C  30                 	db	48
   170   00347D  70                 	db	112
   171   00347E  30                 	db	48
   172   00347F  30                 	db	48
   173   003480  30                 	db	48
   174   003481  30                 	db	48
   175   003482  FC                 	db	252
   176   003483  00                 	db	0
   177                           
   178                           ;initializer for _num_0
   179   003484  78                 	db	120
   180   003485  CC                 	db	204
   181   003486  DC                 	db	220
   182   003487  FC                 	db	252
   183   003488  EC                 	db	236
   184   003489  CC                 	db	204
   185   00348A  7C                 	db	124
   186   00348B  00                 	db	0
   187   000000                     _LATD	set	1217
   188   000000                     _OSCCON1	set	173
   189   000000                     _ANSELCbits	set	1040
   190   000000                     _ANSELD	set	1048
   191   000000                     _LATDbits	set	1217
   192   000000                     _LATEbits	set	1218
   193   000000                     _TRISCbits	set	1224
   194   000000                     _TRISD	set	1225
   195   000000                     _TRISE	set	1226
   196   000000                     _PORTD	set	1233
   197   000000                     _INTCON0bits	set	1238
   198   000000                     _ANSELE	set	1056
   199   000000                     _PIE3bits	set	1185
   200   000000                     _LATCbits	set	1216
   201   000000                     _OSCFRQ	set	177
   202   000000                     _OSCEN	set	179
   203   000000                     _TMR0H	set	793
   204   000000                     _T0CON0	set	794
   205   000000                     _T0CON1	set	795
   206   000000                     _PIR3bits	set	1201
   207                           
   208                           	psect	smallconst
   209   002500                     __psmallconst:
   210                           	callstack 0
   211   002500  00                 	db	0
   212   002501                     STR_1:
   213   002501  50                 	db	80	;'P'
   214   002502  72                 	db	114	;'r'
   215   002503  75                 	db	117	;'u'
   216   002504  65                 	db	101	;'e'
   217   002505  62                 	db	98	;'b'
   218   002506  61                 	db	97	;'a'
   219   002507  20                 	db	32
   220   002508  4D                 	db	77	;'M'
   221   002509  41                 	db	65	;'A'
   222   00250A  58                 	db	88	;'X'
   223   00250B  37                 	db	55	;'7'
   224   00250C  32                 	db	50	;'2'
   225   00250D  31                 	db	49	;'1'
   226   00250E  39                 	db	57	;'9'
   227   00250F  00                 	db	0
   228   002510                     STR_2:
   229   002510  4D                 	db	77	;'M'
   230   002511  61                 	db	97	;'a'
   231   002512  74                 	db	116	;'t'
   232   002513  72                 	db	114	;'r'
   233   002514  69                 	db	105	;'i'
   234   002515  7A                 	db	122	;'z'
   235   002516  20                 	db	32
   236   002517  38                 	db	56	;'8'
   237   002518  78                 	db	120	;'x'
   238   002519  38                 	db	56	;'8'
   239   00251A  00                 	db	0
   240   00251B  00                 	db	0	; dummy byte at the end
   241   000000                     
   242                           ; #config settings
   243                           
   244                           	psect	cinit
   245   0035BC                     __pcinit:
   246                           	callstack 0
   247   0035BC                     start_initialization:
   248                           	callstack 0
   249   0035BC                     __initialization:
   250                           	callstack 0
   251                           
   252                           ; Initialize objects allocated to BANK5 (88 bytes)
   253                           ; load TBLPTR registers with __pidataBANK5
   254   0035BC  0E34               	movlw	low __pidataBANK5
   255   0035BE  6EF6               	movwf	tblptrl,c
   256   0035C0  0E34               	movlw	high __pidataBANK5
   257   0035C2  6EF7               	movwf	tblptrh,c
   258   0035C4  0E00               	movlw	low (__pidataBANK5 shr (0+16))
   259   0035C6  6EF8               	movwf	tblptru,c
   260   0035C8  EE01  F160         	lfsr	0,__pdataBANK5
   261   0035CC  EE10 F058          	lfsr	1,88
   262   0035D0                     copy_data0:
   263   0035D0  0009               	tblrd		*+
   264   0035D2  C4F5 F4EE          	movff	tablat,postinc0
   265   0035D6  50E5               	movf	postdec1,w,c
   266   0035D8  50E1               	movf	fsr1l,w,c
   267   0035DA  E1FA               	bnz	copy_data0
   268                           
   269                           ; Clear objects allocated to COMRAM (6 bytes)
   270   0035DC  6A58               	clrf	(__pbssCOMRAM+5)& (0+255),c
   271   0035DE  6A57               	clrf	(__pbssCOMRAM+4)& (0+255),c
   272   0035E0  6A56               	clrf	(__pbssCOMRAM+3)& (0+255),c
   273   0035E2  6A55               	clrf	(__pbssCOMRAM+2)& (0+255),c
   274   0035E4  6A54               	clrf	(__pbssCOMRAM+1)& (0+255),c
   275   0035E6  6A53               	clrf	__pbssCOMRAM& (0+255),c
   276                           
   277                           ;
   278                           ; Setup IVTBASE
   279                           ;
   280   0035E8  0104               	movlb	4
   281   0035EA  0E08               	movlw	(ivt0x8_base shr 0)& (0+255)
   282   0035EC  6F5D               	movwf	93,b
   283   0035EE  0E00               	movlw	(ivt0x8_base shr (0+8))& (0+255)
   284   0035F0  6F5E               	movwf	94,b
   285   0035F2  0E00               	movlw	(ivt0x8_base shr (0+16))& (0+255)
   286   0035F4  6F5F               	movwf	95,b
   287   0035F6                     end_of_initialization:
   288                           	callstack 0
   289   0035F6                     __end_of__initialization:
   290                           	callstack 0
   291   0035F6  0100               	movlb	0
   292   0035F8  EFB2  F017         	goto	_main	;jump to C main() function
   293                           
   294                           	psect	bssCOMRAM
   295   000553                     __pbssCOMRAM:
   296                           	callstack 0
   297   000553                     _desplazamiento:
   298                           	callstack 0
   299   000553                     	ds	1
   300   000554                     _variablazo:
   301                           	callstack 0
   302   000554                     	ds	1
   303   000555                     _deco_unidad:
   304                           	callstack 0
   305   000555                     	ds	1
   306   000556                     _deco_decena:
   307                           	callstack 0
   308   000556                     	ds	1
   309   000557                     _deco_centena:
   310                           	callstack 0
   311   000557                     	ds	1
   312   000558                     _concatenado:
   313                           	callstack 0
   314   000558                     	ds	1
   315                           
   316                           	psect	dataBANK5
   317   000560                     __pdataBANK5:
   318                           	callstack 0
   319   000560                     _letra_a:
   320                           	callstack 0
   321   000560                     	ds	8
   322   000568                     _num_9:
   323                           	callstack 0
   324   000568                     	ds	8
   325   000570                     _num_8:
   326                           	callstack 0
   327   000570                     	ds	8
   328   000578                     _num_7:
   329                           	callstack 0
   330   000578                     	ds	8
   331   000580                     _num_6:
   332                           	callstack 0
   333   000580                     	ds	8
   334   000588                     _num_5:
   335                           	callstack 0
   336   000588                     	ds	8
   337   000590                     _num_4:
   338                           	callstack 0
   339   000590                     	ds	8
   340   000598                     _num_3:
   341                           	callstack 0
   342   000598                     	ds	8
   343   0005A0                     _num_2:
   344                           	callstack 0
   345   0005A0                     	ds	8
   346   0005A8                     _num_1:
   347                           	callstack 0
   348   0005A8                     	ds	8
   349   0005B0                     _num_0:
   350                           	callstack 0
   351   0005B0                     	ds	8
   352                           
   353                           	psect	cstackCOMRAM
   354   000501                     __pcstackCOMRAM:
   355                           	callstack 0
   356   000501                     ?_strlen:
   357                           	callstack 0
   358   000501                     ?___awmod:
   359                           	callstack 0
   360   000501                     ENVIA_NIBBLE@dato:
   361                           	callstack 0
   362   000501                     LEER_LCD@aux:
   363                           	callstack 0
   364   000501                     MAX7219_WriteData2@dato:
   365                           	callstack 0
   366   000501                     strlen@s:
   367                           	callstack 0
   368   000501                     ___awmod@dividend:
   369                           	callstack 0
   370   000501                     strcat@dest:
   371                           	callstack 0
   372   000501                     strcpy@dest:
   373                           	callstack 0
   374                           
   375                           ; 2 bytes @ 0x0
   376   000501                     	ds	1
   377   000502                     ??_ENVIA_CHAR:
   378   000502                     ??_MAX7219_WriteData2:
   379   000502                     ENVIA_LCD_CMD@dato:
   380                           	callstack 0
   381                           
   382                           ; 1 bytes @ 0x1
   383   000502                     	ds	1
   384   000503                     ENVIA_CHAR@dato:
   385                           	callstack 0
   386   000503                     ENVIA_LCD_CMD@aux:
   387                           	callstack 0
   388   000503                     strlen@a:
   389                           	callstack 0
   390   000503                     ___awmod@divisor:
   391                           	callstack 0
   392   000503                     strcat@src:
   393                           	callstack 0
   394   000503                     strcpy@src:
   395                           	callstack 0
   396                           
   397                           ; 2 bytes @ 0x2
   398   000503                     	ds	1
   399   000504                     ??_LCD_CONFIG:
   400   000504                     POS_CURSOR@columna:
   401                           	callstack 0
   402   000504                     CURSOR_ONOFF@estado:
   403                           	callstack 0
   404   000504                     ENVIA_CHAR@aux:
   405                           	callstack 0
   406   000504                     MAX7219_WriteData2@comando:
   407                           	callstack 0
   408                           
   409                           ; 1 bytes @ 0x3
   410   000504                     	ds	1
   411   000505                     ??_LCD_INIT:
   412   000505                     POS_CURSOR@fila:
   413                           	callstack 0
   414   000505                     ESCRIBE_MENSAJE2@cadena:
   415                           	callstack 0
   416   000505                     MAX7219_WriteData2@var_x:
   417                           	callstack 0
   418   000505                     ___awmod@counter:
   419                           	callstack 0
   420   000505                     strcat@i:
   421                           	callstack 0
   422   000505                     strcpy@d:
   423                           	callstack 0
   424                           
   425                           ; 2 bytes @ 0x4
   426   000505                     	ds	1
   427   000506                     ??_ESCRIBE_MENSAJE2:
   428   000506                     ___awmod@sign:
   429                           	callstack 0
   430                           
   431                           ; 1 bytes @ 0x5
   432   000506                     	ds	1
   433   000507                     ??_configuro:
   434   000507                     ?___awdiv:
   435                           	callstack 0
   436   000507                     ESCRIBE_MENSAJE2@tam:
   437                           	callstack 0
   438   000507                     ___awdiv@dividend:
   439                           	callstack 0
   440                           
   441                           ; 2 bytes @ 0x6
   442   000507                     	ds	1
   443   000508                     ESCRIBE_MENSAJE2@i:
   444                           	callstack 0
   445                           
   446                           ; 1 bytes @ 0x7
   447   000508                     	ds	1
   448   000509                     ___awdiv@divisor:
   449                           	callstack 0
   450                           
   451                           ; 2 bytes @ 0x8
   452   000509                     	ds	2
   453   00050B                     ___awdiv@counter:
   454                           	callstack 0
   455                           
   456                           ; 1 bytes @ 0xA
   457   00050B                     	ds	1
   458   00050C                     ___awdiv@sign:
   459                           	callstack 0
   460                           
   461                           ; 1 bytes @ 0xB
   462   00050C                     	ds	1
   463   00050D                     ___awdiv@quotient:
   464                           	callstack 0
   465                           
   466                           ; 2 bytes @ 0xC
   467   00050D                     	ds	2
   468   00050F                     decodificacion@centena:
   469                           	callstack 0
   470                           
   471                           ; 1 bytes @ 0xE
   472   00050F                     	ds	1
   473   000510                     decodificacion@decena:
   474                           	callstack 0
   475                           
   476                           ; 1 bytes @ 0xF
   477   000510                     	ds	1
   478   000511                     decodificacion@unidad:
   479                           	callstack 0
   480                           
   481                           ; 1 bytes @ 0x10
   482   000511                     	ds	1
   483   000512                     decodificacion@numero:
   484                           	callstack 0
   485                           
   486                           ; 1 bytes @ 0x11
   487   000512                     	ds	1
   488   000513                     decodificacion@i:
   489                           	callstack 0
   490                           
   491                           ; 2 bytes @ 0x12
   492   000513                     	ds	2
   493   000515                     decodificacion@i_421:
   494                           	callstack 0
   495                           
   496                           ; 2 bytes @ 0x14
   497   000515                     	ds	2
   498   000517                     decodificacion@i_422:
   499                           	callstack 0
   500                           
   501                           ; 2 bytes @ 0x16
   502   000517                     	ds	2
   503   000519                     decodificacion@i_423:
   504                           	callstack 0
   505                           
   506                           ; 2 bytes @ 0x18
   507   000519                     	ds	2
   508   00051B                     decodificacion@i_424:
   509                           	callstack 0
   510                           
   511                           ; 2 bytes @ 0x1A
   512   00051B                     	ds	2
   513   00051D                     decodificacion@i_425:
   514                           	callstack 0
   515                           
   516                           ; 2 bytes @ 0x1C
   517   00051D                     	ds	2
   518   00051F                     decodificacion@i_426:
   519                           	callstack 0
   520                           
   521                           ; 2 bytes @ 0x1E
   522   00051F                     	ds	2
   523   000521                     decodificacion@i_427:
   524                           	callstack 0
   525                           
   526                           ; 2 bytes @ 0x20
   527   000521                     	ds	2
   528   000523                     decodificacion@i_428:
   529                           	callstack 0
   530                           
   531                           ; 2 bytes @ 0x22
   532   000523                     	ds	2
   533   000525                     decodificacion@i_429:
   534                           	callstack 0
   535                           
   536                           ; 2 bytes @ 0x24
   537   000525                     	ds	2
   538   000527                     decodificacion@i_430:
   539                           	callstack 0
   540                           
   541                           ; 2 bytes @ 0x26
   542   000527                     	ds	2
   543   000529                     decodificacion@i_431:
   544                           	callstack 0
   545                           
   546                           ; 2 bytes @ 0x28
   547   000529                     	ds	2
   548   00052B                     decodificacion@i_432:
   549                           	callstack 0
   550                           
   551                           ; 2 bytes @ 0x2A
   552   00052B                     	ds	2
   553   00052D                     decodificacion@i_433:
   554                           	callstack 0
   555                           
   556                           ; 2 bytes @ 0x2C
   557   00052D                     	ds	2
   558   00052F                     decodificacion@i_434:
   559                           	callstack 0
   560                           
   561                           ; 2 bytes @ 0x2E
   562   00052F                     	ds	2
   563   000531                     decodificacion@i_435:
   564                           	callstack 0
   565                           
   566                           ; 2 bytes @ 0x30
   567   000531                     	ds	2
   568   000533                     decodificacion@i_436:
   569                           	callstack 0
   570                           
   571                           ; 2 bytes @ 0x32
   572   000533                     	ds	2
   573   000535                     decodificacion@i_437:
   574                           	callstack 0
   575                           
   576                           ; 2 bytes @ 0x34
   577   000535                     	ds	2
   578   000537                     decodificacion@i_438:
   579                           	callstack 0
   580                           
   581                           ; 2 bytes @ 0x36
   582   000537                     	ds	2
   583   000539                     decodificacion@i_439:
   584                           	callstack 0
   585                           
   586                           ; 2 bytes @ 0x38
   587   000539                     	ds	2
   588   00053B                     decodificacion@i_440:
   589                           	callstack 0
   590                           
   591                           ; 2 bytes @ 0x3A
   592   00053B                     	ds	2
   593   00053D                     decodificacion@i_441:
   594                           	callstack 0
   595                           
   596                           ; 2 bytes @ 0x3C
   597   00053D                     	ds	2
   598   00053F                     decodificacion@i_442:
   599                           	callstack 0
   600                           
   601                           ; 2 bytes @ 0x3E
   602   00053F                     	ds	2
   603   000541                     decodificacion@i_443:
   604                           	callstack 0
   605                           
   606                           ; 2 bytes @ 0x40
   607   000541                     	ds	2
   608   000543                     decodificacion@i_444:
   609                           	callstack 0
   610                           
   611                           ; 2 bytes @ 0x42
   612   000543                     	ds	2
   613   000545                     decodificacion@i_445:
   614                           	callstack 0
   615                           
   616                           ; 2 bytes @ 0x44
   617   000545                     	ds	2
   618   000547                     decodificacion@i_446:
   619                           	callstack 0
   620                           
   621                           ; 2 bytes @ 0x46
   622   000547                     	ds	2
   623   000549                     decodificacion@i_447:
   624                           	callstack 0
   625                           
   626                           ; 2 bytes @ 0x48
   627   000549                     	ds	2
   628   00054B                     decodificacion@i_448:
   629                           	callstack 0
   630                           
   631                           ; 2 bytes @ 0x4A
   632   00054B                     	ds	2
   633   00054D                     decodificacion@i_449:
   634                           	callstack 0
   635                           
   636                           ; 2 bytes @ 0x4C
   637   00054D                     	ds	2
   638   00054F                     ??_main:
   639                           
   640                           ; 1 bytes @ 0x4E
   641   00054F                     	ds	2
   642   000551                     main@cuenta:
   643                           	callstack 0
   644                           
   645                           ; 2 bytes @ 0x50
   646   000551                     	ds	2
   647                           
   648 ;;
   649 ;;Main: autosize = 0, tempsize = 2, incstack = 0, save=0
   650 ;;
   651 ;; *************** function _main *****************
   652 ;; Defined at:
   653 ;;		line 263 in file "maincode02.c"
   654 ;; Parameters:    Size  Location     Type
   655 ;;		None
   656 ;; Auto vars:     Size  Location     Type
   657 ;;  cuenta          2   80[COMRAM] unsigned int 
   658 ;; Return value:  Size  Location     Type
   659 ;;                  1    wreg      void 
   660 ;; Registers used:
   661 ;;		wreg, fsr1l, fsr1h, fsr2l, fsr2h, status,2, status,0, tblptrl, tblptrh, tblptru, cstack
   662 ;; Tracked objects:
   663 ;;		On entry : 0/0
   664 ;;		On exit  : 0/0
   665 ;;		Unchanged: 0/0
   666 ;; Data sizes:     COMRAM   BANK5   BANK6   BANK7   BANK8   BANK9  BANK10  BANK11  BANK12  BANK13  BANK14  BANK15  BANK1
      +6  BANK17  BANK18  BANK19  BANK20  BANK21  BANK22  BANK23  BANK24  BANK25  BANK26  BANK27  BANK28  BANK29  BANK30  BANK3
      +1  BANK32  BANK33  BANK34  BANK35  BANK36
   667 ;;      Params:         0       0       0       0       0       0       0       0       0       0       0       0       
      +0       0       0       0       0       0       0       0       0       0       0       0       0       0       0       
      +0       0       0       0       0       0
   668 ;;      Locals:         2       0       0       0       0       0       0       0       0       0       0       0       
      +0       0       0       0       0       0       0       0       0       0       0       0       0       0       0       
      +0       0       0       0       0       0
   669 ;;      Temps:          2       0       0       0       0       0       0       0       0       0       0       0       
      +0       0       0       0       0       0       0       0       0       0       0       0       0       0       0       
      +0       0       0       0       0       0
   670 ;;      Totals:         4       0       0       0       0       0       0       0       0       0       0       0       
      +0       0       0       0       0       0       0       0       0       0       0       0       0       0       0       
      +0       0       0       0       0       0
   671 ;;Total ram usage:        4 bytes
   672 ;; Hardware stack levels required when called: 6
   673 ;; This function calls:
   674 ;;		_ESCRIBE_MENSAJE2
   675 ;;		_MAX7219_WriteData2
   676 ;;		_POS_CURSOR
   677 ;;		_configuro
   678 ;;		_decodificacion
   679 ;;		_strcat
   680 ;;		_strcpy
   681 ;; This function is called by:
   682 ;;		Startup code after reset
   683 ;; This function uses a non-reentrant model
   684 ;;
   685                           
   686                           	psect	text0
   687   002F64                     __ptext0:
   688                           	callstack 0
   689   002F64                     _main:
   690                           	callstack 121
   691   002F64                     
   692                           ;maincode02.c: 264:     configuro();
   693   002F64  EC6F  F01A         	call	_configuro	;wreg free
   694                           
   695                           ;maincode02.c: 265:     POS_CURSOR(1,0);
   696   002F68  0E00               	movlw	0
   697   002F6A  6E04               	movwf	POS_CURSOR@columna^(0+1280),c
   698   002F6C  0E01               	movlw	1
   699   002F6E  EC40  F019         	call	_POS_CURSOR
   700   002F72                     
   701                           ;maincode02.c: 266:     ESCRIBE_MENSAJE2("Prueba MAX7219");
   702   002F72  0E01               	movlw	low STR_1
   703   002F74  6E05               	movwf	ESCRIBE_MENSAJE2@cadena^(0+1280),c
   704   002F76  ECBC  F01A         	call	_ESCRIBE_MENSAJE2	;wreg free
   705   002F7A                     
   706                           ;maincode02.c: 267:     POS_CURSOR(2,0);
   707   002F7A  0E00               	movlw	0
   708   002F7C  6E04               	movwf	POS_CURSOR@columna^(0+1280),c
   709   002F7E  0E02               	movlw	2
   710   002F80  EC40  F019         	call	_POS_CURSOR
   711                           
   712                           ;maincode02.c: 268:     ESCRIBE_MENSAJE2("Matriz 8x8");
   713   002F84  0E10               	movlw	low STR_2
   714   002F86  6E05               	movwf	ESCRIBE_MENSAJE2@cadena^(0+1280),c
   715   002F88  ECBC  F01A         	call	_ESCRIBE_MENSAJE2	;wreg free
   716   002F8C                     
   717                           ;maincode02.c: 269:     MAX7219_WriteData2(0x01,0xFF);
   718   002F8C  0EFF               	movlw	255
   719   002F8E  6E01               	movwf	MAX7219_WriteData2@dato^(0+1280),c
   720   002F90  0E01               	movlw	1
   721   002F92  ECE9  F018         	call	_MAX7219_WriteData2
   722   002F96                     
   723                           ;maincode02.c: 270:     MAX7219_WriteData2(0x02,0x00);
   724   002F96  0E00               	movlw	0
   725   002F98  6E01               	movwf	MAX7219_WriteData2@dato^(0+1280),c
   726   002F9A  0E02               	movlw	2
   727   002F9C  ECE9  F018         	call	_MAX7219_WriteData2
   728   002FA0                     
   729                           ;maincode02.c: 271:     MAX7219_WriteData2(0x03,0xFF);
   730   002FA0  0EFF               	movlw	255
   731   002FA2  6E01               	movwf	MAX7219_WriteData2@dato^(0+1280),c
   732   002FA4  0E03               	movlw	3
   733   002FA6  ECE9  F018         	call	_MAX7219_WriteData2
   734   002FAA                     
   735                           ;maincode02.c: 272:     MAX7219_WriteData2(0x04,0x00);
   736   002FAA  0E00               	movlw	0
   737   002FAC  6E01               	movwf	MAX7219_WriteData2@dato^(0+1280),c
   738   002FAE  0E04               	movlw	4
   739   002FB0  ECE9  F018         	call	_MAX7219_WriteData2
   740   002FB4                     
   741                           ;maincode02.c: 273:     MAX7219_WriteData2(0x05,0xFF);
   742   002FB4  0EFF               	movlw	255
   743   002FB6  6E01               	movwf	MAX7219_WriteData2@dato^(0+1280),c
   744   002FB8  0E05               	movlw	5
   745   002FBA  ECE9  F018         	call	_MAX7219_WriteData2
   746   002FBE                     
   747                           ;maincode02.c: 274:     MAX7219_WriteData2(0x06,0x00);
   748   002FBE  0E00               	movlw	0
   749   002FC0  6E01               	movwf	MAX7219_WriteData2@dato^(0+1280),c
   750   002FC2  0E06               	movlw	6
   751   002FC4  ECE9  F018         	call	_MAX7219_WriteData2
   752   002FC8                     
   753                           ;maincode02.c: 275:     MAX7219_WriteData2(0x07,0xFF);
   754   002FC8  0EFF               	movlw	255
   755   002FCA  6E01               	movwf	MAX7219_WriteData2@dato^(0+1280),c
   756   002FCC  0E07               	movlw	7
   757   002FCE  ECE9  F018         	call	_MAX7219_WriteData2
   758   002FD2                     
   759                           ;maincode02.c: 276:     MAX7219_WriteData2(0x08,0x00);
   760   002FD2  0E00               	movlw	0
   761   002FD4  6E01               	movwf	MAX7219_WriteData2@dato^(0+1280),c
   762   002FD6  0E08               	movlw	8
   763   002FD8  ECE9  F018         	call	_MAX7219_WriteData2
   764   002FDC                     
   765                           ;maincode02.c: 277:     _delay((unsigned long)((3000)*(32000000UL/4000.0)));
   766   002FDC  0E7A               	movlw	122
   767   002FDE  6E50               	movwf	(??_main+1)^(0+1280),c
   768   002FE0  0EC1               	movlw	193
   769   002FE2  6E4F               	movwf	??_main^(0+1280),c
   770   002FE4  0E82               	movlw	130
   771   002FE6                     u1377:
   772   002FE6  2EE8               	decfsz	wreg,f,c
   773   002FE8  D7FE               	bra	u1377
   774   002FEA  2E4F               	decfsz	??_main^(0+1280),f,c
   775   002FEC  D7FC               	bra	u1377
   776   002FEE  2E50               	decfsz	(??_main+1)^(0+1280),f,c
   777   002FF0  D7FA               	bra	u1377
   778   002FF2                     l2707:
   779                           
   780                           ;maincode02.c: 279:         unsigned int cuenta;;maincode02.c: 280:         for(cuenta=0
      +                          ;cuenta<200;cuenta++){
   781   002FF2  0E00               	movlw	0
   782   002FF4  6E52               	movwf	(main@cuenta+1)^(0+1280),c
   783   002FF6  0E00               	movlw	0
   784   002FF8  6E51               	movwf	main@cuenta^(0+1280),c
   785   002FFA                     l2713:
   786                           
   787                           ;maincode02.c: 281:             decodificacion(cuenta);
   788   002FFA  5051               	movf	main@cuenta^(0+1280),w,c
   789   002FFC  EC8E  F012         	call	_decodificacion
   790                           
   791                           ;maincode02.c: 282:             strcpy(concatenado, deco_centena);
   792   003000  0E58               	movlw	low _concatenado
   793   003002  6E01               	movwf	strcpy@dest^(0+1280),c
   794   003004  0E05               	movlw	high _concatenado
   795   003006  6E02               	movwf	(strcpy@dest+1)^(0+1280),c
   796   003008  0E57               	movlw	low _deco_centena
   797   00300A  6E03               	movwf	strcpy@src^(0+1280),c
   798   00300C  0E05               	movlw	high _deco_centena
   799   00300E  6E04               	movwf	(strcpy@src+1)^(0+1280),c
   800   003010  EC1A  F01B         	call	_strcpy	;wreg free
   801                           
   802                           ;maincode02.c: 283:             strcat(concatenado, deco_decena);
   803   003014  0E58               	movlw	low _concatenado
   804   003016  6E01               	movwf	strcat@dest^(0+1280),c
   805   003018  0E05               	movlw	high _concatenado
   806   00301A  6E02               	movwf	(strcat@dest+1)^(0+1280),c
   807   00301C  0E56               	movlw	low _deco_decena
   808   00301E  6E03               	movwf	strcat@src^(0+1280),c
   809   003020  0E05               	movlw	high _deco_decena
   810   003022  6E04               	movwf	(strcat@src+1)^(0+1280),c
   811   003024  ECE9  F019         	call	_strcat	;wreg free
   812                           
   813                           ;maincode02.c: 284:             strcat(concatenado, deco_unidad);
   814   003028  0E58               	movlw	low _concatenado
   815   00302A  6E01               	movwf	strcat@dest^(0+1280),c
   816   00302C  0E05               	movlw	high _concatenado
   817   00302E  6E02               	movwf	(strcat@dest+1)^(0+1280),c
   818   003030  0E55               	movlw	low _deco_unidad
   819   003032  6E03               	movwf	strcat@src^(0+1280),c
   820   003034  0E05               	movlw	high _deco_unidad
   821   003036  6E04               	movwf	(strcat@src+1)^(0+1280),c
   822   003038  ECE9  F019         	call	_strcat	;wreg free
   823   00303C                     
   824                           ;maincode02.c: 285:         }
   825   00303C  4A51               	infsnz	main@cuenta^(0+1280),f,c
   826   00303E  2A52               	incf	(main@cuenta+1)^(0+1280),f,c
   827   003040  5052               	movf	(main@cuenta+1)^(0+1280),w,c
   828   003042  E109               	bnz	u1360
   829   003044  0EC8               	movlw	200
   830   003046  5C51               	subwf	main@cuenta^(0+1280),w,c
   831   003048  A0D8               	btfss	status,0,c
   832   00304A  EF29  F018         	goto	u1361
   833   00304E  EF2B  F018         	goto	u1360
   834   003052                     u1361:
   835   003052  EFFD  F017         	goto	l2713
   836   003056                     u1360:
   837   003056  EFF9  F017         	goto	l2707
   838   00305A  EF81  F000         	goto	start
   839   00305E                     __end_of_main:
   840                           	callstack 0
   841                           
   842 ;; *************** function _strcpy *****************
   843 ;; Defined at:
   844 ;;		line 3 in file "C:\Program Files\Microchip\xc8\v2.46\pic\sources\c99\common\strcpy.c"
   845 ;; Parameters:    Size  Location     Type
   846 ;;  dest            2    0[COMRAM] PTR unsigned char 
   847 ;;		 -> concatenado(1), 
   848 ;;  src             2    2[COMRAM] PTR const unsigned char 
   849 ;;		 -> deco_centena(1), 
   850 ;; Auto vars:     Size  Location     Type
   851 ;;  d               2    4[COMRAM] PTR unsigned char 
   852 ;;		 -> concatenado(1), 
   853 ;; Return value:  Size  Location     Type
   854 ;;                  2    0[COMRAM] PTR unsigned char 
   855 ;; Registers used:
   856 ;;		wreg, fsr1l, fsr1h, fsr2l, fsr2h, status,2, status,0
   857 ;; Tracked objects:
   858 ;;		On entry : 0/0
   859 ;;		On exit  : 0/0
   860 ;;		Unchanged: 0/0
   861 ;; Data sizes:     COMRAM   BANK5   BANK6   BANK7   BANK8   BANK9  BANK10  BANK11  BANK12  BANK13  BANK14  BANK15  BANK1
      +6  BANK17  BANK18  BANK19  BANK20  BANK21  BANK22  BANK23  BANK24  BANK25  BANK26  BANK27  BANK28  BANK29  BANK30  BANK3
      +1  BANK32  BANK33  BANK34  BANK35  BANK36
   862 ;;      Params:         4       0       0       0       0       0       0       0       0       0       0       0       
      +0       0       0       0       0       0       0       0       0       0       0       0       0       0       0       
      +0       0       0       0       0       0
   863 ;;      Locals:         2       0       0       0       0       0       0       0       0       0       0       0       
      +0       0       0       0       0       0       0       0       0       0       0       0       0       0       0       
      +0       0       0       0       0       0
   864 ;;      Temps:          0       0       0       0       0       0       0       0       0       0       0       0       
      +0       0       0       0       0       0       0       0       0       0       0       0       0       0       0       
      +0       0       0       0       0       0
   865 ;;      Totals:         6       0       0       0       0       0       0       0       0       0       0       0       
      +0       0       0       0       0       0       0       0       0       0       0       0       0       0       0       
      +0       0       0       0       0       0
   866 ;;Total ram usage:        6 bytes
   867 ;; Hardware stack levels used: 1
   868 ;; Hardware stack levels required when called: 1
   869 ;; This function calls:
   870 ;;		Nothing
   871 ;; This function is called by:
   872 ;;		_main
   873 ;; This function uses a non-reentrant model
   874 ;;
   875                           
   876                           	psect	text1
   877   003634                     __ptext1:
   878                           	callstack 0
   879   003634                     _strcpy:
   880                           	callstack 125
   881   003634  C501  F505         	movff	strcpy@dest,strcpy@d
   882   003638  C502  F506         	movff	strcpy@dest+1,strcpy@d+1
   883   00363C                     l2633:
   884   00363C  C503  F4D9         	movff	strcpy@src,fsr2l
   885   003640  C504  F4DA         	movff	strcpy@src+1,fsr2h
   886   003644  4A03               	infsnz	strcpy@src^(0+1280),f,c
   887   003646  2A04               	incf	(strcpy@src+1)^(0+1280),f,c
   888   003648  C505  F4E1         	movff	strcpy@d,fsr1l
   889   00364C  C506  F4E2         	movff	strcpy@d+1,fsr1h
   890   003650  4A05               	infsnz	strcpy@d^(0+1280),f,c
   891   003652  2A06               	incf	(strcpy@d+1)^(0+1280),f,c
   892   003654  C4DF F4E7          	movff	indf2,indf1
   893   003658  50E7               	movf	indf1,w,c
   894   00365A  A4D8               	btfss	status,2,c
   895   00365C  EF32  F01B         	goto	u1331
   896   003660  EF34  F01B         	goto	u1330
   897   003664                     u1331:
   898   003664  EF1E  F01B         	goto	l2633
   899   003668                     u1330:
   900   003668  0012               	return		;funcret
   901   00366A                     __end_of_strcpy:
   902                           	callstack 0
   903                           
   904 ;; *************** function _strcat *****************
   905 ;; Defined at:
   906 ;;		line 3 in file "C:\Program Files\Microchip\xc8\v2.46\pic\sources\c99\common\strcat.c"
   907 ;; Parameters:    Size  Location     Type
   908 ;;  dest            2    0[COMRAM] PTR unsigned char 
   909 ;;		 -> concatenado(1), 
   910 ;;  src             2    2[COMRAM] PTR const unsigned char 
   911 ;;		 -> deco_unidad(1), deco_decena(1), 
   912 ;; Auto vars:     Size  Location     Type
   913 ;;  i               2    4[COMRAM] unsigned int 
   914 ;; Return value:  Size  Location     Type
   915 ;;                  2    0[COMRAM] PTR unsigned char 
   916 ;; Registers used:
   917 ;;		wreg, fsr1l, fsr1h, fsr2l, fsr2h, status,2, status,0
   918 ;; Tracked objects:
   919 ;;		On entry : 0/0
   920 ;;		On exit  : 0/0
   921 ;;		Unchanged: 0/0
   922 ;; Data sizes:     COMRAM   BANK5   BANK6   BANK7   BANK8   BANK9  BANK10  BANK11  BANK12  BANK13  BANK14  BANK15  BANK1
      +6  BANK17  BANK18  BANK19  BANK20  BANK21  BANK22  BANK23  BANK24  BANK25  BANK26  BANK27  BANK28  BANK29  BANK30  BANK3
      +1  BANK32  BANK33  BANK34  BANK35  BANK36
   923 ;;      Params:         4       0       0       0       0       0       0       0       0       0       0       0       
      +0       0       0       0       0       0       0       0       0       0       0       0       0       0       0       
      +0       0       0       0       0       0
   924 ;;      Locals:         2       0       0       0       0       0       0       0       0       0       0       0       
      +0       0       0       0       0       0       0       0       0       0       0       0       0       0       0       
      +0       0       0       0       0       0
   925 ;;      Temps:          0       0       0       0       0       0       0       0       0       0       0       0       
      +0       0       0       0       0       0       0       0       0       0       0       0       0       0       0       
      +0       0       0       0       0       0
   926 ;;      Totals:         6       0       0       0       0       0       0       0       0       0       0       0       
      +0       0       0       0       0       0       0       0       0       0       0       0       0       0       0       
      +0       0       0       0       0       0
   927 ;;Total ram usage:        6 bytes
   928 ;; Hardware stack levels used: 1
   929 ;; Hardware stack levels required when called: 1
   930 ;; This function calls:
   931 ;;		Nothing
   932 ;; This function is called by:
   933 ;;		_main
   934 ;; This function uses a non-reentrant model
   935 ;;
   936                           
   937                           	psect	text2
   938   0033D2                     __ptext2:
   939                           	callstack 0
   940   0033D2                     _strcat:
   941                           	callstack 125
   942   0033D2  0E00               	movlw	0
   943   0033D4  6E06               	movwf	(strcat@i+1)^(0+1280),c
   944   0033D6  0E00               	movlw	0
   945   0033D8  6E05               	movwf	strcat@i^(0+1280),c
   946   0033DA  EFF1  F019         	goto	l2639
   947   0033DE                     l2637:
   948   0033DE  4A05               	infsnz	strcat@i^(0+1280),f,c
   949   0033E0  2A06               	incf	(strcat@i+1)^(0+1280),f,c
   950   0033E2                     l2639:
   951   0033E2  5005               	movf	strcat@i^(0+1280),w,c
   952   0033E4  2401               	addwf	strcat@dest^(0+1280),w,c
   953   0033E6  6ED9               	movwf	fsr2l,c
   954   0033E8  5006               	movf	(strcat@i+1)^(0+1280),w,c
   955   0033EA  2002               	addwfc	(strcat@dest+1)^(0+1280),w,c
   956   0033EC  6EDA               	movwf	fsr2h,c
   957   0033EE  50DF               	movf	indf2,w,c
   958   0033F0  A4D8               	btfss	status,2,c
   959   0033F2  EFFD  F019         	goto	u1341
   960   0033F6  EFFF  F019         	goto	u1340
   961   0033FA                     u1341:
   962   0033FA  EFEF  F019         	goto	l2637
   963   0033FE                     u1340:
   964   0033FE  EF05  F01A         	goto	l2643
   965   003402                     l2641:
   966   003402  4A05               	infsnz	strcat@i^(0+1280),f,c
   967   003404  2A06               	incf	(strcat@i+1)^(0+1280),f,c
   968   003406  4A03               	infsnz	strcat@src^(0+1280),f,c
   969   003408  2A04               	incf	(strcat@src+1)^(0+1280),f,c
   970   00340A                     l2643:
   971   00340A  C503  F4D9         	movff	strcat@src,fsr2l
   972   00340E  C504  F4DA         	movff	strcat@src+1,fsr2h
   973   003412  5005               	movf	strcat@i^(0+1280),w,c
   974   003414  2401               	addwf	strcat@dest^(0+1280),w,c
   975   003416  6EE1               	movwf	fsr1l,c
   976   003418  5006               	movf	(strcat@i+1)^(0+1280),w,c
   977   00341A  2002               	addwfc	(strcat@dest+1)^(0+1280),w,c
   978   00341C  6EE2               	movwf	fsr1h,c
   979   00341E  C4DF F4E7          	movff	indf2,indf1
   980   003422  50E7               	movf	indf1,w,c
   981   003424  A4D8               	btfss	status,2,c
   982   003426  EF17  F01A         	goto	u1351
   983   00342A  EF19  F01A         	goto	u1350
   984   00342E                     u1351:
   985   00342E  EF01  F01A         	goto	l2641
   986   003432                     u1350:
   987   003432  0012               	return		;funcret
   988   003434                     __end_of_strcat:
   989                           	callstack 0
   990                           
   991 ;; *************** function _decodificacion *****************
   992 ;; Defined at:
   993 ;;		line 99 in file "maincode02.c"
   994 ;; Parameters:    Size  Location     Type
   995 ;;  numero          1    wreg     unsigned char 
   996 ;; Auto vars:     Size  Location     Type
   997 ;;  numero          1   17[COMRAM] unsigned char 
   998 ;;  i               2   76[COMRAM] int 
   999 ;;  i               2   74[COMRAM] int 
  1000 ;;  i               2   72[COMRAM] int 
  1001 ;;  i               2   70[COMRAM] int 
  1002 ;;  i               2   68[COMRAM] int 
  1003 ;;  i               2   66[COMRAM] int 
  1004 ;;  i               2   64[COMRAM] int 
  1005 ;;  i               2   62[COMRAM] int 
  1006 ;;  i               2   60[COMRAM] int 
  1007 ;;  i               2   58[COMRAM] int 
  1008 ;;  i               2   56[COMRAM] int 
  1009 ;;  i               2   54[COMRAM] int 
  1010 ;;  i               2   52[COMRAM] int 
  1011 ;;  i               2   50[COMRAM] int 
  1012 ;;  i               2   48[COMRAM] int 
  1013 ;;  i               2   46[COMRAM] int 
  1014 ;;  i               2   44[COMRAM] int 
  1015 ;;  i               2   42[COMRAM] int 
  1016 ;;  i               2   40[COMRAM] int 
  1017 ;;  i               2   38[COMRAM] int 
  1018 ;;  i               2   36[COMRAM] int 
  1019 ;;  i               2   34[COMRAM] int 
  1020 ;;  i               2   32[COMRAM] int 
  1021 ;;  i               2   30[COMRAM] int 
  1022 ;;  i               2   28[COMRAM] int 
  1023 ;;  i               2   26[COMRAM] int 
  1024 ;;  i               2   24[COMRAM] int 
  1025 ;;  i               2   22[COMRAM] int 
  1026 ;;  i               2   20[COMRAM] int 
  1027 ;;  i               2   18[COMRAM] int 
  1028 ;;  unidad          1   16[COMRAM] unsigned char 
  1029 ;;  decena          1   15[COMRAM] unsigned char 
  1030 ;;  centena         1   14[COMRAM] unsigned char 
  1031 ;; Return value:  Size  Location     Type
  1032 ;;                  1    wreg      void 
  1033 ;; Registers used:
  1034 ;;		wreg, fsr1l, fsr1h, fsr2l, fsr2h, status,2, status,0, cstack
  1035 ;; Tracked objects:
  1036 ;;		On entry : 0/0
  1037 ;;		On exit  : 0/0
  1038 ;;		Unchanged: 0/0
  1039 ;; Data sizes:     COMRAM   BANK5   BANK6   BANK7   BANK8   BANK9  BANK10  BANK11  BANK12  BANK13  BANK14  BANK15  BANK1
      +6  BANK17  BANK18  BANK19  BANK20  BANK21  BANK22  BANK23  BANK24  BANK25  BANK26  BANK27  BANK28  BANK29  BANK30  BANK3
      +1  BANK32  BANK33  BANK34  BANK35  BANK36
  1040 ;;      Params:         0       0       0       0       0       0       0       0       0       0       0       0       
      +0       0       0       0       0       0       0       0       0       0       0       0       0       0       0       
      +0       0       0       0       0       0
  1041 ;;      Locals:        64       0       0       0       0       0       0       0       0       0       0       0       
      +0       0       0       0       0       0       0       0       0       0       0       0       0       0       0       
      +0       0       0       0       0       0
  1042 ;;      Temps:          0       0       0       0       0       0       0       0       0       0       0       0       
      +0       0       0       0       0       0       0       0       0       0       0       0       0       0       0       
      +0       0       0       0       0       0
  1043 ;;      Totals:        64       0       0       0       0       0       0       0       0       0       0       0       
      +0       0       0       0       0       0       0       0       0       0       0       0       0       0       0       
      +0       0       0       0       0       0
  1044 ;;Total ram usage:       64 bytes
  1045 ;; Hardware stack levels used: 1
  1046 ;; Hardware stack levels required when called: 2
  1047 ;; This function calls:
  1048 ;;		___awdiv
  1049 ;;		___awmod
  1050 ;; This function is called by:
  1051 ;;		_main
  1052 ;; This function uses a non-reentrant model
  1053 ;;
  1054                           
  1055                           	psect	text3
  1056   00251C                     __ptext3:
  1057                           	callstack 0
  1058   00251C                     _decodificacion:
  1059                           	callstack 124
  1060                           
  1061                           ;incstack = 0
  1062                           ;decodificacion@numero stored from wreg
  1063   00251C  6E12               	movwf	decodificacion@numero^(0+1280),c
  1064   00251E                     
  1065                           ;maincode02.c: 100:     unsigned char centena, decena, unidad;;maincode02.c: 101:     ce
      +                          ntena = numero / 100;
  1066   00251E  C512  F507         	movff	decodificacion@numero,___awdiv@dividend
  1067   002522  6A08               	clrf	(___awdiv@dividend+1)^(0+1280),c
  1068   002524  0E00               	movlw	0
  1069   002526  6E0A               	movwf	(___awdiv@divisor+1)^(0+1280),c
  1070   002528  0E64               	movlw	100
  1071   00252A  6E09               	movwf	___awdiv@divisor^(0+1280),c
  1072   00252C  EC2F  F018         	call	___awdiv	;wreg free
  1073   002530  5007               	movf	?___awdiv^(0+1280),w,c
  1074   002532  6E0F               	movwf	decodificacion@centena^(0+1280),c
  1075                           
  1076                           ;maincode02.c: 102:     decena = (numero % 100) / 10;
  1077   002534  0E00               	movlw	0
  1078   002536  6E04               	movwf	(___awmod@divisor+1)^(0+1280),c
  1079   002538  0E64               	movlw	100
  1080   00253A  6E03               	movwf	___awmod@divisor^(0+1280),c
  1081   00253C  C512  F501         	movff	decodificacion@numero,___awmod@dividend
  1082   002540  6A02               	clrf	(___awmod@dividend+1)^(0+1280),c
  1083   002542  EC91  F018         	call	___awmod	;wreg free
  1084   002546  C501  F507         	movff	?___awmod,___awdiv@dividend
  1085   00254A  C502  F508         	movff	?___awmod+1,___awdiv@dividend+1
  1086   00254E  0E00               	movlw	0
  1087   002550  6E0A               	movwf	(___awdiv@divisor+1)^(0+1280),c
  1088   002552  0E0A               	movlw	10
  1089   002554  6E09               	movwf	___awdiv@divisor^(0+1280),c
  1090   002556  EC2F  F018         	call	___awdiv	;wreg free
  1091   00255A  5007               	movf	?___awdiv^(0+1280),w,c
  1092   00255C  6E10               	movwf	decodificacion@decena^(0+1280),c
  1093                           
  1094                           ;maincode02.c: 103:     unidad = numero % 10;
  1095   00255E  C512  F501         	movff	decodificacion@numero,___awmod@dividend
  1096   002562  6A02               	clrf	(___awmod@dividend+1)^(0+1280),c
  1097   002564  0E00               	movlw	0
  1098   002566  6E04               	movwf	(___awmod@divisor+1)^(0+1280),c
  1099   002568  0E0A               	movlw	10
  1100   00256A  6E03               	movwf	___awmod@divisor^(0+1280),c
  1101   00256C  EC91  F018         	call	___awmod	;wreg free
  1102   002570  5001               	movf	?___awmod^(0+1280),w,c
  1103   002572  6E11               	movwf	decodificacion@unidad^(0+1280),c
  1104                           
  1105                           ;maincode02.c: 104:     switch(centena){
  1106   002574  EF38  F014         	goto	l2381
  1107   002578                     l2259:
  1108                           
  1109                           ;maincode02.c: 106:             for (int i = 0; i < 8; i++) {
  1110   002578  0E00               	movlw	0
  1111   00257A  6E14               	movwf	(decodificacion@i+1)^(0+1280),c
  1112   00257C  0E00               	movlw	0
  1113   00257E  6E13               	movwf	decodificacion@i^(0+1280),c
  1114   002580                     l2261:
  1115   002580  BE14               	btfsc	(decodificacion@i+1)^(0+1280),7,c
  1116   002582  EFCC  F012         	goto	u1031
  1117   002586  5014               	movf	(decodificacion@i+1)^(0+1280),w,c
  1118   002588  E109               	bnz	u1030
  1119   00258A  0E08               	movlw	8
  1120   00258C  5C13               	subwf	decodificacion@i^(0+1280),w,c
  1121   00258E  A0D8               	btfss	status,0,c
  1122   002590  EFCC  F012         	goto	u1031
  1123   002594  EFCE  F012         	goto	u1030
  1124   002598                     u1031:
  1125   002598  EFD0  F012         	goto	l2265
  1126   00259C                     u1030:
  1127   00259C  EFDF  F015         	goto	l2505
  1128   0025A0                     l2265:
  1129                           
  1130                           ;maincode02.c: 107:                 deco_centena[i] = num_0[i];
  1131   0025A0  0EB0               	movlw	low _num_0
  1132   0025A2  2413               	addwf	decodificacion@i^(0+1280),w,c
  1133   0025A4  6ED9               	movwf	fsr2l,c
  1134   0025A6  0E05               	movlw	high _num_0
  1135   0025A8  2014               	addwfc	(decodificacion@i+1)^(0+1280),w,c
  1136   0025AA  6EDA               	movwf	fsr2h,c
  1137   0025AC  0E57               	movlw	low _deco_centena
  1138   0025AE  2413               	addwf	decodificacion@i^(0+1280),w,c
  1139   0025B0  6EE1               	movwf	fsr1l,c
  1140   0025B2  0E05               	movlw	high _deco_centena
  1141   0025B4  2014               	addwfc	(decodificacion@i+1)^(0+1280),w,c
  1142   0025B6  6EE2               	movwf	fsr1h,c
  1143   0025B8  C4DF F4E7          	movff	indf2,indf1
  1144   0025BC                     
  1145                           ;maincode02.c: 108:             }
  1146   0025BC  4A13               	infsnz	decodificacion@i^(0+1280),f,c
  1147   0025BE  2A14               	incf	(decodificacion@i+1)^(0+1280),f,c
  1148   0025C0  EFC0  F012         	goto	l2261
  1149   0025C4                     l2271:
  1150                           
  1151                           ;maincode02.c: 111:             for (int i = 0; i < 8; i++) {
  1152   0025C4  0E00               	movlw	0
  1153   0025C6  6E16               	movwf	(decodificacion@i_421+1)^(0+1280),c
  1154   0025C8  0E00               	movlw	0
  1155   0025CA  6E15               	movwf	decodificacion@i_421^(0+1280),c
  1156   0025CC                     l2273:
  1157   0025CC  BE16               	btfsc	(decodificacion@i_421+1)^(0+1280),7,c
  1158   0025CE  EFF2  F012         	goto	u1041
  1159   0025D2  5016               	movf	(decodificacion@i_421+1)^(0+1280),w,c
  1160   0025D4  E109               	bnz	u1040
  1161   0025D6  0E08               	movlw	8
  1162   0025D8  5C15               	subwf	decodificacion@i_421^(0+1280),w,c
  1163   0025DA  A0D8               	btfss	status,0,c
  1164   0025DC  EFF2  F012         	goto	u1041
  1165   0025E0  EFF4  F012         	goto	u1040
  1166   0025E4                     u1041:
  1167   0025E4  EFF6  F012         	goto	l2277
  1168   0025E8                     u1040:
  1169   0025E8  EFDF  F015         	goto	l2505
  1170   0025EC                     l2277:
  1171                           
  1172                           ;maincode02.c: 112:                 deco_centena[i] = num_1[i];
  1173   0025EC  0EA8               	movlw	low _num_1
  1174   0025EE  2415               	addwf	decodificacion@i_421^(0+1280),w,c
  1175   0025F0  6ED9               	movwf	fsr2l,c
  1176   0025F2  0E05               	movlw	high _num_1
  1177   0025F4  2016               	addwfc	(decodificacion@i_421+1)^(0+1280),w,c
  1178   0025F6  6EDA               	movwf	fsr2h,c
  1179   0025F8  0E57               	movlw	low _deco_centena
  1180   0025FA  2415               	addwf	decodificacion@i_421^(0+1280),w,c
  1181   0025FC  6EE1               	movwf	fsr1l,c
  1182   0025FE  0E05               	movlw	high _deco_centena
  1183   002600  2016               	addwfc	(decodificacion@i_421+1)^(0+1280),w,c
  1184   002602  6EE2               	movwf	fsr1h,c
  1185   002604  C4DF F4E7          	movff	indf2,indf1
  1186   002608                     
  1187                           ;maincode02.c: 113:             }
  1188   002608  4A15               	infsnz	decodificacion@i_421^(0+1280),f,c
  1189   00260A  2A16               	incf	(decodificacion@i_421+1)^(0+1280),f,c
  1190   00260C  EFE6  F012         	goto	l2273
  1191   002610                     l2283:
  1192                           
  1193                           ;maincode02.c: 116:             for (int i = 0; i < 8; i++) {
  1194   002610  0E00               	movlw	0
  1195   002612  6E18               	movwf	(decodificacion@i_422+1)^(0+1280),c
  1196   002614  0E00               	movlw	0
  1197   002616  6E17               	movwf	decodificacion@i_422^(0+1280),c
  1198   002618                     l2285:
  1199   002618  BE18               	btfsc	(decodificacion@i_422+1)^(0+1280),7,c
  1200   00261A  EF18  F013         	goto	u1051
  1201   00261E  5018               	movf	(decodificacion@i_422+1)^(0+1280),w,c
  1202   002620  E109               	bnz	u1050
  1203   002622  0E08               	movlw	8
  1204   002624  5C17               	subwf	decodificacion@i_422^(0+1280),w,c
  1205   002626  A0D8               	btfss	status,0,c
  1206   002628  EF18  F013         	goto	u1051
  1207   00262C  EF1A  F013         	goto	u1050
  1208   002630                     u1051:
  1209   002630  EF1C  F013         	goto	l2289
  1210   002634                     u1050:
  1211   002634  EFDF  F015         	goto	l2505
  1212   002638                     l2289:
  1213                           
  1214                           ;maincode02.c: 117:                 deco_centena[i] = num_2[i];
  1215   002638  0EA0               	movlw	low _num_2
  1216   00263A  2417               	addwf	decodificacion@i_422^(0+1280),w,c
  1217   00263C  6ED9               	movwf	fsr2l,c
  1218   00263E  0E05               	movlw	high _num_2
  1219   002640  2018               	addwfc	(decodificacion@i_422+1)^(0+1280),w,c
  1220   002642  6EDA               	movwf	fsr2h,c
  1221   002644  0E57               	movlw	low _deco_centena
  1222   002646  2417               	addwf	decodificacion@i_422^(0+1280),w,c
  1223   002648  6EE1               	movwf	fsr1l,c
  1224   00264A  0E05               	movlw	high _deco_centena
  1225   00264C  2018               	addwfc	(decodificacion@i_422+1)^(0+1280),w,c
  1226   00264E  6EE2               	movwf	fsr1h,c
  1227   002650  C4DF F4E7          	movff	indf2,indf1
  1228   002654                     
  1229                           ;maincode02.c: 118:             }
  1230   002654  4A17               	infsnz	decodificacion@i_422^(0+1280),f,c
  1231   002656  2A18               	incf	(decodificacion@i_422+1)^(0+1280),f,c
  1232   002658  EF0C  F013         	goto	l2285
  1233   00265C                     l2295:
  1234                           
  1235                           ;maincode02.c: 121:             for (int i = 0; i < 8; i++) {
  1236   00265C  0E00               	movlw	0
  1237   00265E  6E1A               	movwf	(decodificacion@i_423+1)^(0+1280),c
  1238   002660  0E00               	movlw	0
  1239   002662  6E19               	movwf	decodificacion@i_423^(0+1280),c
  1240   002664                     l2297:
  1241   002664  BE1A               	btfsc	(decodificacion@i_423+1)^(0+1280),7,c
  1242   002666  EF3E  F013         	goto	u1061
  1243   00266A  501A               	movf	(decodificacion@i_423+1)^(0+1280),w,c
  1244   00266C  E109               	bnz	u1060
  1245   00266E  0E08               	movlw	8
  1246   002670  5C19               	subwf	decodificacion@i_423^(0+1280),w,c
  1247   002672  A0D8               	btfss	status,0,c
  1248   002674  EF3E  F013         	goto	u1061
  1249   002678  EF40  F013         	goto	u1060
  1250   00267C                     u1061:
  1251   00267C  EF42  F013         	goto	l2301
  1252   002680                     u1060:
  1253   002680  EFDF  F015         	goto	l2505
  1254   002684                     l2301:
  1255                           
  1256                           ;maincode02.c: 122:                 deco_centena[i] = num_3[i];
  1257   002684  0E98               	movlw	low _num_3
  1258   002686  2419               	addwf	decodificacion@i_423^(0+1280),w,c
  1259   002688  6ED9               	movwf	fsr2l,c
  1260   00268A  0E05               	movlw	high _num_3
  1261   00268C  201A               	addwfc	(decodificacion@i_423+1)^(0+1280),w,c
  1262   00268E  6EDA               	movwf	fsr2h,c
  1263   002690  0E57               	movlw	low _deco_centena
  1264   002692  2419               	addwf	decodificacion@i_423^(0+1280),w,c
  1265   002694  6EE1               	movwf	fsr1l,c
  1266   002696  0E05               	movlw	high _deco_centena
  1267   002698  201A               	addwfc	(decodificacion@i_423+1)^(0+1280),w,c
  1268   00269A  6EE2               	movwf	fsr1h,c
  1269   00269C  C4DF F4E7          	movff	indf2,indf1
  1270   0026A0                     
  1271                           ;maincode02.c: 123:             }
  1272   0026A0  4A19               	infsnz	decodificacion@i_423^(0+1280),f,c
  1273   0026A2  2A1A               	incf	(decodificacion@i_423+1)^(0+1280),f,c
  1274   0026A4  EF32  F013         	goto	l2297
  1275   0026A8                     l2307:
  1276                           
  1277                           ;maincode02.c: 126:             for (int i = 0; i < 8; i++) {
  1278   0026A8  0E00               	movlw	0
  1279   0026AA  6E1C               	movwf	(decodificacion@i_424+1)^(0+1280),c
  1280   0026AC  0E00               	movlw	0
  1281   0026AE  6E1B               	movwf	decodificacion@i_424^(0+1280),c
  1282   0026B0                     l2309:
  1283   0026B0  BE1C               	btfsc	(decodificacion@i_424+1)^(0+1280),7,c
  1284   0026B2  EF64  F013         	goto	u1071
  1285   0026B6  501C               	movf	(decodificacion@i_424+1)^(0+1280),w,c
  1286   0026B8  E109               	bnz	u1070
  1287   0026BA  0E08               	movlw	8
  1288   0026BC  5C1B               	subwf	decodificacion@i_424^(0+1280),w,c
  1289   0026BE  A0D8               	btfss	status,0,c
  1290   0026C0  EF64  F013         	goto	u1071
  1291   0026C4  EF66  F013         	goto	u1070
  1292   0026C8                     u1071:
  1293   0026C8  EF68  F013         	goto	l2313
  1294   0026CC                     u1070:
  1295   0026CC  EFDF  F015         	goto	l2505
  1296   0026D0                     l2313:
  1297                           
  1298                           ;maincode02.c: 127:                 deco_centena[i] = num_4[i];
  1299   0026D0  0E90               	movlw	low _num_4
  1300   0026D2  241B               	addwf	decodificacion@i_424^(0+1280),w,c
  1301   0026D4  6ED9               	movwf	fsr2l,c
  1302   0026D6  0E05               	movlw	high _num_4
  1303   0026D8  201C               	addwfc	(decodificacion@i_424+1)^(0+1280),w,c
  1304   0026DA  6EDA               	movwf	fsr2h,c
  1305   0026DC  0E57               	movlw	low _deco_centena
  1306   0026DE  241B               	addwf	decodificacion@i_424^(0+1280),w,c
  1307   0026E0  6EE1               	movwf	fsr1l,c
  1308   0026E2  0E05               	movlw	high _deco_centena
  1309   0026E4  201C               	addwfc	(decodificacion@i_424+1)^(0+1280),w,c
  1310   0026E6  6EE2               	movwf	fsr1h,c
  1311   0026E8  C4DF F4E7          	movff	indf2,indf1
  1312   0026EC                     
  1313                           ;maincode02.c: 128:             }
  1314   0026EC  4A1B               	infsnz	decodificacion@i_424^(0+1280),f,c
  1315   0026EE  2A1C               	incf	(decodificacion@i_424+1)^(0+1280),f,c
  1316   0026F0  EF58  F013         	goto	l2309
  1317   0026F4                     l2319:
  1318                           
  1319                           ;maincode02.c: 131:             for (int i = 0; i < 8; i++) {
  1320   0026F4  0E00               	movlw	0
  1321   0026F6  6E1E               	movwf	(decodificacion@i_425+1)^(0+1280),c
  1322   0026F8  0E00               	movlw	0
  1323   0026FA  6E1D               	movwf	decodificacion@i_425^(0+1280),c
  1324   0026FC                     l2321:
  1325   0026FC  BE1E               	btfsc	(decodificacion@i_425+1)^(0+1280),7,c
  1326   0026FE  EF8A  F013         	goto	u1081
  1327   002702  501E               	movf	(decodificacion@i_425+1)^(0+1280),w,c
  1328   002704  E109               	bnz	u1080
  1329   002706  0E08               	movlw	8
  1330   002708  5C1D               	subwf	decodificacion@i_425^(0+1280),w,c
  1331   00270A  A0D8               	btfss	status,0,c
  1332   00270C  EF8A  F013         	goto	u1081
  1333   002710  EF8C  F013         	goto	u1080
  1334   002714                     u1081:
  1335   002714  EF8E  F013         	goto	l2325
  1336   002718                     u1080:
  1337   002718  EFDF  F015         	goto	l2505
  1338   00271C                     l2325:
  1339                           
  1340                           ;maincode02.c: 132:                 deco_centena[i] = num_5[i];
  1341   00271C  0E88               	movlw	low _num_5
  1342   00271E  241D               	addwf	decodificacion@i_425^(0+1280),w,c
  1343   002720  6ED9               	movwf	fsr2l,c
  1344   002722  0E05               	movlw	high _num_5
  1345   002724  201E               	addwfc	(decodificacion@i_425+1)^(0+1280),w,c
  1346   002726  6EDA               	movwf	fsr2h,c
  1347   002728  0E57               	movlw	low _deco_centena
  1348   00272A  241D               	addwf	decodificacion@i_425^(0+1280),w,c
  1349   00272C  6EE1               	movwf	fsr1l,c
  1350   00272E  0E05               	movlw	high _deco_centena
  1351   002730  201E               	addwfc	(decodificacion@i_425+1)^(0+1280),w,c
  1352   002732  6EE2               	movwf	fsr1h,c
  1353   002734  C4DF F4E7          	movff	indf2,indf1
  1354   002738                     
  1355                           ;maincode02.c: 133:             }
  1356   002738  4A1D               	infsnz	decodificacion@i_425^(0+1280),f,c
  1357   00273A  2A1E               	incf	(decodificacion@i_425+1)^(0+1280),f,c
  1358   00273C  EF7E  F013         	goto	l2321
  1359   002740                     l2331:
  1360                           
  1361                           ;maincode02.c: 136:             for (int i = 0; i < 8; i++) {
  1362   002740  0E00               	movlw	0
  1363   002742  6E20               	movwf	(decodificacion@i_426+1)^(0+1280),c
  1364   002744  0E00               	movlw	0
  1365   002746  6E1F               	movwf	decodificacion@i_426^(0+1280),c
  1366   002748                     l2333:
  1367   002748  BE20               	btfsc	(decodificacion@i_426+1)^(0+1280),7,c
  1368   00274A  EFB0  F013         	goto	u1091
  1369   00274E  5020               	movf	(decodificacion@i_426+1)^(0+1280),w,c
  1370   002750  E109               	bnz	u1090
  1371   002752  0E08               	movlw	8
  1372   002754  5C1F               	subwf	decodificacion@i_426^(0+1280),w,c
  1373   002756  A0D8               	btfss	status,0,c
  1374   002758  EFB0  F013         	goto	u1091
  1375   00275C  EFB2  F013         	goto	u1090
  1376   002760                     u1091:
  1377   002760  EFB4  F013         	goto	l2337
  1378   002764                     u1090:
  1379   002764  EFDF  F015         	goto	l2505
  1380   002768                     l2337:
  1381                           
  1382                           ;maincode02.c: 137:                 deco_centena[i] = num_6[i];
  1383   002768  0E80               	movlw	low _num_6
  1384   00276A  241F               	addwf	decodificacion@i_426^(0+1280),w,c
  1385   00276C  6ED9               	movwf	fsr2l,c
  1386   00276E  0E05               	movlw	high _num_6
  1387   002770  2020               	addwfc	(decodificacion@i_426+1)^(0+1280),w,c
  1388   002772  6EDA               	movwf	fsr2h,c
  1389   002774  0E57               	movlw	low _deco_centena
  1390   002776  241F               	addwf	decodificacion@i_426^(0+1280),w,c
  1391   002778  6EE1               	movwf	fsr1l,c
  1392   00277A  0E05               	movlw	high _deco_centena
  1393   00277C  2020               	addwfc	(decodificacion@i_426+1)^(0+1280),w,c
  1394   00277E  6EE2               	movwf	fsr1h,c
  1395   002780  C4DF F4E7          	movff	indf2,indf1
  1396   002784                     
  1397                           ;maincode02.c: 138:             }
  1398   002784  4A1F               	infsnz	decodificacion@i_426^(0+1280),f,c
  1399   002786  2A20               	incf	(decodificacion@i_426+1)^(0+1280),f,c
  1400   002788  EFA4  F013         	goto	l2333
  1401   00278C                     l2343:
  1402                           
  1403                           ;maincode02.c: 141:             for (int i = 0; i < 8; i++) {
  1404   00278C  0E00               	movlw	0
  1405   00278E  6E22               	movwf	(decodificacion@i_427+1)^(0+1280),c
  1406   002790  0E00               	movlw	0
  1407   002792  6E21               	movwf	decodificacion@i_427^(0+1280),c
  1408   002794                     l2345:
  1409   002794  BE22               	btfsc	(decodificacion@i_427+1)^(0+1280),7,c
  1410   002796  EFD6  F013         	goto	u1101
  1411   00279A  5022               	movf	(decodificacion@i_427+1)^(0+1280),w,c
  1412   00279C  E109               	bnz	u1100
  1413   00279E  0E08               	movlw	8
  1414   0027A0  5C21               	subwf	decodificacion@i_427^(0+1280),w,c
  1415   0027A2  A0D8               	btfss	status,0,c
  1416   0027A4  EFD6  F013         	goto	u1101
  1417   0027A8  EFD8  F013         	goto	u1100
  1418   0027AC                     u1101:
  1419   0027AC  EFDA  F013         	goto	l2349
  1420   0027B0                     u1100:
  1421   0027B0  EFDF  F015         	goto	l2505
  1422   0027B4                     l2349:
  1423                           
  1424                           ;maincode02.c: 142:                 deco_centena[i] = num_7[i];
  1425   0027B4  0E78               	movlw	low _num_7
  1426   0027B6  2421               	addwf	decodificacion@i_427^(0+1280),w,c
  1427   0027B8  6ED9               	movwf	fsr2l,c
  1428   0027BA  0E05               	movlw	high _num_7
  1429   0027BC  2022               	addwfc	(decodificacion@i_427+1)^(0+1280),w,c
  1430   0027BE  6EDA               	movwf	fsr2h,c
  1431   0027C0  0E57               	movlw	low _deco_centena
  1432   0027C2  2421               	addwf	decodificacion@i_427^(0+1280),w,c
  1433   0027C4  6EE1               	movwf	fsr1l,c
  1434   0027C6  0E05               	movlw	high _deco_centena
  1435   0027C8  2022               	addwfc	(decodificacion@i_427+1)^(0+1280),w,c
  1436   0027CA  6EE2               	movwf	fsr1h,c
  1437   0027CC  C4DF F4E7          	movff	indf2,indf1
  1438   0027D0                     
  1439                           ;maincode02.c: 143:             }
  1440   0027D0  4A21               	infsnz	decodificacion@i_427^(0+1280),f,c
  1441   0027D2  2A22               	incf	(decodificacion@i_427+1)^(0+1280),f,c
  1442   0027D4  EFCA  F013         	goto	l2345
  1443   0027D8                     l2355:
  1444                           
  1445                           ;maincode02.c: 146:             for (int i = 0; i < 8; i++) {
  1446   0027D8  0E00               	movlw	0
  1447   0027DA  6E24               	movwf	(decodificacion@i_428+1)^(0+1280),c
  1448   0027DC  0E00               	movlw	0
  1449   0027DE  6E23               	movwf	decodificacion@i_428^(0+1280),c
  1450   0027E0                     l2357:
  1451   0027E0  BE24               	btfsc	(decodificacion@i_428+1)^(0+1280),7,c
  1452   0027E2  EFFC  F013         	goto	u1111
  1453   0027E6  5024               	movf	(decodificacion@i_428+1)^(0+1280),w,c
  1454   0027E8  E109               	bnz	u1110
  1455   0027EA  0E08               	movlw	8
  1456   0027EC  5C23               	subwf	decodificacion@i_428^(0+1280),w,c
  1457   0027EE  A0D8               	btfss	status,0,c
  1458   0027F0  EFFC  F013         	goto	u1111
  1459   0027F4  EFFE  F013         	goto	u1110
  1460   0027F8                     u1111:
  1461   0027F8  EF00  F014         	goto	l2361
  1462   0027FC                     u1110:
  1463   0027FC  EFDF  F015         	goto	l2505
  1464   002800                     l2361:
  1465                           
  1466                           ;maincode02.c: 147:                 deco_centena[i] = num_8[i];
  1467   002800  0E70               	movlw	low _num_8
  1468   002802  2423               	addwf	decodificacion@i_428^(0+1280),w,c
  1469   002804  6ED9               	movwf	fsr2l,c
  1470   002806  0E05               	movlw	high _num_8
  1471   002808  2024               	addwfc	(decodificacion@i_428+1)^(0+1280),w,c
  1472   00280A  6EDA               	movwf	fsr2h,c
  1473   00280C  0E57               	movlw	low _deco_centena
  1474   00280E  2423               	addwf	decodificacion@i_428^(0+1280),w,c
  1475   002810  6EE1               	movwf	fsr1l,c
  1476   002812  0E05               	movlw	high _deco_centena
  1477   002814  2024               	addwfc	(decodificacion@i_428+1)^(0+1280),w,c
  1478   002816  6EE2               	movwf	fsr1h,c
  1479   002818  C4DF F4E7          	movff	indf2,indf1
  1480   00281C                     
  1481                           ;maincode02.c: 148:             }
  1482   00281C  4A23               	infsnz	decodificacion@i_428^(0+1280),f,c
  1483   00281E  2A24               	incf	(decodificacion@i_428+1)^(0+1280),f,c
  1484   002820  EFF0  F013         	goto	l2357
  1485   002824                     l2367:
  1486                           
  1487                           ;maincode02.c: 151:             for (int i = 0; i < 8; i++) {
  1488   002824  0E00               	movlw	0
  1489   002826  6E26               	movwf	(decodificacion@i_429+1)^(0+1280),c
  1490   002828  0E00               	movlw	0
  1491   00282A  6E25               	movwf	decodificacion@i_429^(0+1280),c
  1492   00282C                     l2369:
  1493   00282C  BE26               	btfsc	(decodificacion@i_429+1)^(0+1280),7,c
  1494   00282E  EF22  F014         	goto	u1121
  1495   002832  5026               	movf	(decodificacion@i_429+1)^(0+1280),w,c
  1496   002834  E109               	bnz	u1120
  1497   002836  0E08               	movlw	8
  1498   002838  5C25               	subwf	decodificacion@i_429^(0+1280),w,c
  1499   00283A  A0D8               	btfss	status,0,c
  1500   00283C  EF22  F014         	goto	u1121
  1501   002840  EF24  F014         	goto	u1120
  1502   002844                     u1121:
  1503   002844  EF26  F014         	goto	l2373
  1504   002848                     u1120:
  1505   002848  EFDF  F015         	goto	l2505
  1506   00284C                     l2373:
  1507                           
  1508                           ;maincode02.c: 152:                 deco_centena[i] = num_9[i];
  1509   00284C  0E68               	movlw	low _num_9
  1510   00284E  2425               	addwf	decodificacion@i_429^(0+1280),w,c
  1511   002850  6ED9               	movwf	fsr2l,c
  1512   002852  0E05               	movlw	high _num_9
  1513   002854  2026               	addwfc	(decodificacion@i_429+1)^(0+1280),w,c
  1514   002856  6EDA               	movwf	fsr2h,c
  1515   002858  0E57               	movlw	low _deco_centena
  1516   00285A  2425               	addwf	decodificacion@i_429^(0+1280),w,c
  1517   00285C  6EE1               	movwf	fsr1l,c
  1518   00285E  0E05               	movlw	high _deco_centena
  1519   002860  2026               	addwfc	(decodificacion@i_429+1)^(0+1280),w,c
  1520   002862  6EE2               	movwf	fsr1h,c
  1521   002864  C4DF F4E7          	movff	indf2,indf1
  1522   002868                     
  1523                           ;maincode02.c: 153:             }
  1524   002868  4A25               	infsnz	decodificacion@i_429^(0+1280),f,c
  1525   00286A  2A26               	incf	(decodificacion@i_429+1)^(0+1280),f,c
  1526   00286C  EF16  F014         	goto	l2369
  1527   002870                     l2381:
  1528   002870  500F               	movf	decodificacion@centena^(0+1280),w,c
  1529                           
  1530                           ; Switch size 1, requested type "simple"
  1531                           ; Number of cases is 10, Range of values is 0 to 9
  1532                           ; switch strategies available:
  1533                           ; Name         Instructions Cycles
  1534                           ; simple_byte           31    16 (average)
  1535                           ;	Chosen strategy is simple_byte
  1536   002872  0A00               	xorlw	0	; case 0
  1537   002874  B4D8               	btfsc	status,2,c
  1538   002876  EFBC  F012         	goto	l2259
  1539   00287A  0A01               	xorlw	1	; case 1
  1540   00287C  B4D8               	btfsc	status,2,c
  1541   00287E  EFE2  F012         	goto	l2271
  1542   002882  0A03               	xorlw	3	; case 2
  1543   002884  B4D8               	btfsc	status,2,c
  1544   002886  EF08  F013         	goto	l2283
  1545   00288A  0A01               	xorlw	1	; case 3
  1546   00288C  B4D8               	btfsc	status,2,c
  1547   00288E  EF2E  F013         	goto	l2295
  1548   002892  0A07               	xorlw	7	; case 4
  1549   002894  B4D8               	btfsc	status,2,c
  1550   002896  EF54  F013         	goto	l2307
  1551   00289A  0A01               	xorlw	1	; case 5
  1552   00289C  B4D8               	btfsc	status,2,c
  1553   00289E  EF7A  F013         	goto	l2319
  1554   0028A2  0A03               	xorlw	3	; case 6
  1555   0028A4  B4D8               	btfsc	status,2,c
  1556   0028A6  EFA0  F013         	goto	l2331
  1557   0028AA  0A01               	xorlw	1	; case 7
  1558   0028AC  B4D8               	btfsc	status,2,c
  1559   0028AE  EFC6  F013         	goto	l2343
  1560   0028B2  0A0F               	xorlw	15	; case 8
  1561   0028B4  B4D8               	btfsc	status,2,c
  1562   0028B6  EFEC  F013         	goto	l2355
  1563   0028BA  0A01               	xorlw	1	; case 9
  1564   0028BC  B4D8               	btfsc	status,2,c
  1565   0028BE  EF12  F014         	goto	l2367
  1566   0028C2  EFDF  F015         	goto	l2505
  1567   0028C6                     l2383:
  1568                           
  1569                           ;maincode02.c: 158:             for (int i = 0; i < 8; i++) {
  1570   0028C6  0E00               	movlw	0
  1571   0028C8  6E28               	movwf	(decodificacion@i_430+1)^(0+1280),c
  1572   0028CA  0E00               	movlw	0
  1573   0028CC  6E27               	movwf	decodificacion@i_430^(0+1280),c
  1574   0028CE                     l2385:
  1575   0028CE  BE28               	btfsc	(decodificacion@i_430+1)^(0+1280),7,c
  1576   0028D0  EF73  F014         	goto	u1131
  1577   0028D4  5028               	movf	(decodificacion@i_430+1)^(0+1280),w,c
  1578   0028D6  E109               	bnz	u1130
  1579   0028D8  0E08               	movlw	8
  1580   0028DA  5C27               	subwf	decodificacion@i_430^(0+1280),w,c
  1581   0028DC  A0D8               	btfss	status,0,c
  1582   0028DE  EF73  F014         	goto	u1131
  1583   0028E2  EF75  F014         	goto	u1130
  1584   0028E6                     u1131:
  1585   0028E6  EF77  F014         	goto	l2389
  1586   0028EA                     u1130:
  1587   0028EA  EF86  F017         	goto	l2629
  1588   0028EE                     l2389:
  1589                           
  1590                           ;maincode02.c: 159:                 deco_decena[i] = num_0[i];
  1591   0028EE  0EB0               	movlw	low _num_0
  1592   0028F0  2427               	addwf	decodificacion@i_430^(0+1280),w,c
  1593   0028F2  6ED9               	movwf	fsr2l,c
  1594   0028F4  0E05               	movlw	high _num_0
  1595   0028F6  2028               	addwfc	(decodificacion@i_430+1)^(0+1280),w,c
  1596   0028F8  6EDA               	movwf	fsr2h,c
  1597   0028FA  0E56               	movlw	low _deco_decena
  1598   0028FC  2427               	addwf	decodificacion@i_430^(0+1280),w,c
  1599   0028FE  6EE1               	movwf	fsr1l,c
  1600   002900  0E05               	movlw	high _deco_decena
  1601   002902  2028               	addwfc	(decodificacion@i_430+1)^(0+1280),w,c
  1602   002904  6EE2               	movwf	fsr1h,c
  1603   002906  C4DF F4E7          	movff	indf2,indf1
  1604   00290A                     
  1605                           ;maincode02.c: 160:             }
  1606   00290A  4A27               	infsnz	decodificacion@i_430^(0+1280),f,c
  1607   00290C  2A28               	incf	(decodificacion@i_430+1)^(0+1280),f,c
  1608   00290E  EF67  F014         	goto	l2385
  1609   002912                     l2395:
  1610                           
  1611                           ;maincode02.c: 163:             for (int i = 0; i < 8; i++) {
  1612   002912  0E00               	movlw	0
  1613   002914  6E2A               	movwf	(decodificacion@i_431+1)^(0+1280),c
  1614   002916  0E00               	movlw	0
  1615   002918  6E29               	movwf	decodificacion@i_431^(0+1280),c
  1616   00291A                     l2397:
  1617   00291A  BE2A               	btfsc	(decodificacion@i_431+1)^(0+1280),7,c
  1618   00291C  EF99  F014         	goto	u1141
  1619   002920  502A               	movf	(decodificacion@i_431+1)^(0+1280),w,c
  1620   002922  E109               	bnz	u1140
  1621   002924  0E08               	movlw	8
  1622   002926  5C29               	subwf	decodificacion@i_431^(0+1280),w,c
  1623   002928  A0D8               	btfss	status,0,c
  1624   00292A  EF99  F014         	goto	u1141
  1625   00292E  EF9B  F014         	goto	u1140
  1626   002932                     u1141:
  1627   002932  EF9D  F014         	goto	l2401
  1628   002936                     u1140:
  1629   002936  EF86  F017         	goto	l2629
  1630   00293A                     l2401:
  1631                           
  1632                           ;maincode02.c: 164:                 deco_decena[i] = num_1[i];
  1633   00293A  0EA8               	movlw	low _num_1
  1634   00293C  2429               	addwf	decodificacion@i_431^(0+1280),w,c
  1635   00293E  6ED9               	movwf	fsr2l,c
  1636   002940  0E05               	movlw	high _num_1
  1637   002942  202A               	addwfc	(decodificacion@i_431+1)^(0+1280),w,c
  1638   002944  6EDA               	movwf	fsr2h,c
  1639   002946  0E56               	movlw	low _deco_decena
  1640   002948  2429               	addwf	decodificacion@i_431^(0+1280),w,c
  1641   00294A  6EE1               	movwf	fsr1l,c
  1642   00294C  0E05               	movlw	high _deco_decena
  1643   00294E  202A               	addwfc	(decodificacion@i_431+1)^(0+1280),w,c
  1644   002950  6EE2               	movwf	fsr1h,c
  1645   002952  C4DF F4E7          	movff	indf2,indf1
  1646   002956                     
  1647                           ;maincode02.c: 165:             }
  1648   002956  4A29               	infsnz	decodificacion@i_431^(0+1280),f,c
  1649   002958  2A2A               	incf	(decodificacion@i_431+1)^(0+1280),f,c
  1650   00295A  EF8D  F014         	goto	l2397
  1651   00295E                     l2407:
  1652                           
  1653                           ;maincode02.c: 168:             for (int i = 0; i < 8; i++) {
  1654   00295E  0E00               	movlw	0
  1655   002960  6E2C               	movwf	(decodificacion@i_432+1)^(0+1280),c
  1656   002962  0E00               	movlw	0
  1657   002964  6E2B               	movwf	decodificacion@i_432^(0+1280),c
  1658   002966                     l2409:
  1659   002966  BE2C               	btfsc	(decodificacion@i_432+1)^(0+1280),7,c
  1660   002968  EFBF  F014         	goto	u1151
  1661   00296C  502C               	movf	(decodificacion@i_432+1)^(0+1280),w,c
  1662   00296E  E109               	bnz	u1150
  1663   002970  0E08               	movlw	8
  1664   002972  5C2B               	subwf	decodificacion@i_432^(0+1280),w,c
  1665   002974  A0D8               	btfss	status,0,c
  1666   002976  EFBF  F014         	goto	u1151
  1667   00297A  EFC1  F014         	goto	u1150
  1668   00297E                     u1151:
  1669   00297E  EFC3  F014         	goto	l2413
  1670   002982                     u1150:
  1671   002982  EF86  F017         	goto	l2629
  1672   002986                     l2413:
  1673                           
  1674                           ;maincode02.c: 169:                 deco_decena[i] = num_2[i];
  1675   002986  0EA0               	movlw	low _num_2
  1676   002988  242B               	addwf	decodificacion@i_432^(0+1280),w,c
  1677   00298A  6ED9               	movwf	fsr2l,c
  1678   00298C  0E05               	movlw	high _num_2
  1679   00298E  202C               	addwfc	(decodificacion@i_432+1)^(0+1280),w,c
  1680   002990  6EDA               	movwf	fsr2h,c
  1681   002992  0E56               	movlw	low _deco_decena
  1682   002994  242B               	addwf	decodificacion@i_432^(0+1280),w,c
  1683   002996  6EE1               	movwf	fsr1l,c
  1684   002998  0E05               	movlw	high _deco_decena
  1685   00299A  202C               	addwfc	(decodificacion@i_432+1)^(0+1280),w,c
  1686   00299C  6EE2               	movwf	fsr1h,c
  1687   00299E  C4DF F4E7          	movff	indf2,indf1
  1688   0029A2                     
  1689                           ;maincode02.c: 170:             }
  1690   0029A2  4A2B               	infsnz	decodificacion@i_432^(0+1280),f,c
  1691   0029A4  2A2C               	incf	(decodificacion@i_432+1)^(0+1280),f,c
  1692   0029A6  EFB3  F014         	goto	l2409
  1693   0029AA                     l2419:
  1694                           
  1695                           ;maincode02.c: 173:             for (int i = 0; i < 8; i++) {
  1696   0029AA  0E00               	movlw	0
  1697   0029AC  6E2E               	movwf	(decodificacion@i_433+1)^(0+1280),c
  1698   0029AE  0E00               	movlw	0
  1699   0029B0  6E2D               	movwf	decodificacion@i_433^(0+1280),c
  1700   0029B2                     l2421:
  1701   0029B2  BE2E               	btfsc	(decodificacion@i_433+1)^(0+1280),7,c
  1702   0029B4  EFE5  F014         	goto	u1161
  1703   0029B8  502E               	movf	(decodificacion@i_433+1)^(0+1280),w,c
  1704   0029BA  E109               	bnz	u1160
  1705   0029BC  0E08               	movlw	8
  1706   0029BE  5C2D               	subwf	decodificacion@i_433^(0+1280),w,c
  1707   0029C0  A0D8               	btfss	status,0,c
  1708   0029C2  EFE5  F014         	goto	u1161
  1709   0029C6  EFE7  F014         	goto	u1160
  1710   0029CA                     u1161:
  1711   0029CA  EFE9  F014         	goto	l2425
  1712   0029CE                     u1160:
  1713   0029CE  EF86  F017         	goto	l2629
  1714   0029D2                     l2425:
  1715                           
  1716                           ;maincode02.c: 174:                 deco_decena[i] = num_3[i];
  1717   0029D2  0E98               	movlw	low _num_3
  1718   0029D4  242D               	addwf	decodificacion@i_433^(0+1280),w,c
  1719   0029D6  6ED9               	movwf	fsr2l,c
  1720   0029D8  0E05               	movlw	high _num_3
  1721   0029DA  202E               	addwfc	(decodificacion@i_433+1)^(0+1280),w,c
  1722   0029DC  6EDA               	movwf	fsr2h,c
  1723   0029DE  0E56               	movlw	low _deco_decena
  1724   0029E0  242D               	addwf	decodificacion@i_433^(0+1280),w,c
  1725   0029E2  6EE1               	movwf	fsr1l,c
  1726   0029E4  0E05               	movlw	high _deco_decena
  1727   0029E6  202E               	addwfc	(decodificacion@i_433+1)^(0+1280),w,c
  1728   0029E8  6EE2               	movwf	fsr1h,c
  1729   0029EA  C4DF F4E7          	movff	indf2,indf1
  1730   0029EE                     
  1731                           ;maincode02.c: 175:             }
  1732   0029EE  4A2D               	infsnz	decodificacion@i_433^(0+1280),f,c
  1733   0029F0  2A2E               	incf	(decodificacion@i_433+1)^(0+1280),f,c
  1734   0029F2  EFD9  F014         	goto	l2421
  1735   0029F6                     l2431:
  1736                           
  1737                           ;maincode02.c: 178:             for (int i = 0; i < 8; i++) {
  1738   0029F6  0E00               	movlw	0
  1739   0029F8  6E30               	movwf	(decodificacion@i_434+1)^(0+1280),c
  1740   0029FA  0E00               	movlw	0
  1741   0029FC  6E2F               	movwf	decodificacion@i_434^(0+1280),c
  1742   0029FE                     l2433:
  1743   0029FE  BE30               	btfsc	(decodificacion@i_434+1)^(0+1280),7,c
  1744   002A00  EF0B  F015         	goto	u1171
  1745   002A04  5030               	movf	(decodificacion@i_434+1)^(0+1280),w,c
  1746   002A06  E109               	bnz	u1170
  1747   002A08  0E08               	movlw	8
  1748   002A0A  5C2F               	subwf	decodificacion@i_434^(0+1280),w,c
  1749   002A0C  A0D8               	btfss	status,0,c
  1750   002A0E  EF0B  F015         	goto	u1171
  1751   002A12  EF0D  F015         	goto	u1170
  1752   002A16                     u1171:
  1753   002A16  EF0F  F015         	goto	l2437
  1754   002A1A                     u1170:
  1755   002A1A  EF86  F017         	goto	l2629
  1756   002A1E                     l2437:
  1757                           
  1758                           ;maincode02.c: 179:                 deco_decena[i] = num_4[i];
  1759   002A1E  0E90               	movlw	low _num_4
  1760   002A20  242F               	addwf	decodificacion@i_434^(0+1280),w,c
  1761   002A22  6ED9               	movwf	fsr2l,c
  1762   002A24  0E05               	movlw	high _num_4
  1763   002A26  2030               	addwfc	(decodificacion@i_434+1)^(0+1280),w,c
  1764   002A28  6EDA               	movwf	fsr2h,c
  1765   002A2A  0E56               	movlw	low _deco_decena
  1766   002A2C  242F               	addwf	decodificacion@i_434^(0+1280),w,c
  1767   002A2E  6EE1               	movwf	fsr1l,c
  1768   002A30  0E05               	movlw	high _deco_decena
  1769   002A32  2030               	addwfc	(decodificacion@i_434+1)^(0+1280),w,c
  1770   002A34  6EE2               	movwf	fsr1h,c
  1771   002A36  C4DF F4E7          	movff	indf2,indf1
  1772   002A3A                     
  1773                           ;maincode02.c: 180:             }
  1774   002A3A  4A2F               	infsnz	decodificacion@i_434^(0+1280),f,c
  1775   002A3C  2A30               	incf	(decodificacion@i_434+1)^(0+1280),f,c
  1776   002A3E  EFFF  F014         	goto	l2433
  1777   002A42                     l2443:
  1778                           
  1779                           ;maincode02.c: 183:             for (int i = 0; i < 8; i++) {
  1780   002A42  0E00               	movlw	0
  1781   002A44  6E32               	movwf	(decodificacion@i_435+1)^(0+1280),c
  1782   002A46  0E00               	movlw	0
  1783   002A48  6E31               	movwf	decodificacion@i_435^(0+1280),c
  1784   002A4A                     l2445:
  1785   002A4A  BE32               	btfsc	(decodificacion@i_435+1)^(0+1280),7,c
  1786   002A4C  EF31  F015         	goto	u1181
  1787   002A50  5032               	movf	(decodificacion@i_435+1)^(0+1280),w,c
  1788   002A52  E109               	bnz	u1180
  1789   002A54  0E08               	movlw	8
  1790   002A56  5C31               	subwf	decodificacion@i_435^(0+1280),w,c
  1791   002A58  A0D8               	btfss	status,0,c
  1792   002A5A  EF31  F015         	goto	u1181
  1793   002A5E  EF33  F015         	goto	u1180
  1794   002A62                     u1181:
  1795   002A62  EF35  F015         	goto	l2449
  1796   002A66                     u1180:
  1797   002A66  EF86  F017         	goto	l2629
  1798   002A6A                     l2449:
  1799                           
  1800                           ;maincode02.c: 184:                 deco_decena[i] = num_5[i];
  1801   002A6A  0E88               	movlw	low _num_5
  1802   002A6C  2431               	addwf	decodificacion@i_435^(0+1280),w,c
  1803   002A6E  6ED9               	movwf	fsr2l,c
  1804   002A70  0E05               	movlw	high _num_5
  1805   002A72  2032               	addwfc	(decodificacion@i_435+1)^(0+1280),w,c
  1806   002A74  6EDA               	movwf	fsr2h,c
  1807   002A76  0E56               	movlw	low _deco_decena
  1808   002A78  2431               	addwf	decodificacion@i_435^(0+1280),w,c
  1809   002A7A  6EE1               	movwf	fsr1l,c
  1810   002A7C  0E05               	movlw	high _deco_decena
  1811   002A7E  2032               	addwfc	(decodificacion@i_435+1)^(0+1280),w,c
  1812   002A80  6EE2               	movwf	fsr1h,c
  1813   002A82  C4DF F4E7          	movff	indf2,indf1
  1814   002A86                     
  1815                           ;maincode02.c: 185:             }
  1816   002A86  4A31               	infsnz	decodificacion@i_435^(0+1280),f,c
  1817   002A88  2A32               	incf	(decodificacion@i_435+1)^(0+1280),f,c
  1818   002A8A  EF25  F015         	goto	l2445
  1819   002A8E                     l2455:
  1820                           
  1821                           ;maincode02.c: 188:             for (int i = 0; i < 8; i++) {
  1822   002A8E  0E00               	movlw	0
  1823   002A90  6E34               	movwf	(decodificacion@i_436+1)^(0+1280),c
  1824   002A92  0E00               	movlw	0
  1825   002A94  6E33               	movwf	decodificacion@i_436^(0+1280),c
  1826   002A96                     l2457:
  1827   002A96  BE34               	btfsc	(decodificacion@i_436+1)^(0+1280),7,c
  1828   002A98  EF57  F015         	goto	u1191
  1829   002A9C  5034               	movf	(decodificacion@i_436+1)^(0+1280),w,c
  1830   002A9E  E109               	bnz	u1190
  1831   002AA0  0E08               	movlw	8
  1832   002AA2  5C33               	subwf	decodificacion@i_436^(0+1280),w,c
  1833   002AA4  A0D8               	btfss	status,0,c
  1834   002AA6  EF57  F015         	goto	u1191
  1835   002AAA  EF59  F015         	goto	u1190
  1836   002AAE                     u1191:
  1837   002AAE  EF5B  F015         	goto	l2461
  1838   002AB2                     u1190:
  1839   002AB2  EF86  F017         	goto	l2629
  1840   002AB6                     l2461:
  1841                           
  1842                           ;maincode02.c: 189:                 deco_decena[i] = num_6[i];
  1843   002AB6  0E80               	movlw	low _num_6
  1844   002AB8  2433               	addwf	decodificacion@i_436^(0+1280),w,c
  1845   002ABA  6ED9               	movwf	fsr2l,c
  1846   002ABC  0E05               	movlw	high _num_6
  1847   002ABE  2034               	addwfc	(decodificacion@i_436+1)^(0+1280),w,c
  1848   002AC0  6EDA               	movwf	fsr2h,c
  1849   002AC2  0E56               	movlw	low _deco_decena
  1850   002AC4  2433               	addwf	decodificacion@i_436^(0+1280),w,c
  1851   002AC6  6EE1               	movwf	fsr1l,c
  1852   002AC8  0E05               	movlw	high _deco_decena
  1853   002ACA  2034               	addwfc	(decodificacion@i_436+1)^(0+1280),w,c
  1854   002ACC  6EE2               	movwf	fsr1h,c
  1855   002ACE  C4DF F4E7          	movff	indf2,indf1
  1856   002AD2                     
  1857                           ;maincode02.c: 190:             }
  1858   002AD2  4A33               	infsnz	decodificacion@i_436^(0+1280),f,c
  1859   002AD4  2A34               	incf	(decodificacion@i_436+1)^(0+1280),f,c
  1860   002AD6  EF4B  F015         	goto	l2457
  1861   002ADA                     l2467:
  1862                           
  1863                           ;maincode02.c: 193:             for (int i = 0; i < 8; i++) {
  1864   002ADA  0E00               	movlw	0
  1865   002ADC  6E36               	movwf	(decodificacion@i_437+1)^(0+1280),c
  1866   002ADE  0E00               	movlw	0
  1867   002AE0  6E35               	movwf	decodificacion@i_437^(0+1280),c
  1868   002AE2                     l2469:
  1869   002AE2  BE36               	btfsc	(decodificacion@i_437+1)^(0+1280),7,c
  1870   002AE4  EF7D  F015         	goto	u1201
  1871   002AE8  5036               	movf	(decodificacion@i_437+1)^(0+1280),w,c
  1872   002AEA  E109               	bnz	u1200
  1873   002AEC  0E08               	movlw	8
  1874   002AEE  5C35               	subwf	decodificacion@i_437^(0+1280),w,c
  1875   002AF0  A0D8               	btfss	status,0,c
  1876   002AF2  EF7D  F015         	goto	u1201
  1877   002AF6  EF7F  F015         	goto	u1200
  1878   002AFA                     u1201:
  1879   002AFA  EF81  F015         	goto	l2473
  1880   002AFE                     u1200:
  1881   002AFE  EF86  F017         	goto	l2629
  1882   002B02                     l2473:
  1883                           
  1884                           ;maincode02.c: 194:                 deco_decena[i] = num_7[i];
  1885   002B02  0E78               	movlw	low _num_7
  1886   002B04  2435               	addwf	decodificacion@i_437^(0+1280),w,c
  1887   002B06  6ED9               	movwf	fsr2l,c
  1888   002B08  0E05               	movlw	high _num_7
  1889   002B0A  2036               	addwfc	(decodificacion@i_437+1)^(0+1280),w,c
  1890   002B0C  6EDA               	movwf	fsr2h,c
  1891   002B0E  0E56               	movlw	low _deco_decena
  1892   002B10  2435               	addwf	decodificacion@i_437^(0+1280),w,c
  1893   002B12  6EE1               	movwf	fsr1l,c
  1894   002B14  0E05               	movlw	high _deco_decena
  1895   002B16  2036               	addwfc	(decodificacion@i_437+1)^(0+1280),w,c
  1896   002B18  6EE2               	movwf	fsr1h,c
  1897   002B1A  C4DF F4E7          	movff	indf2,indf1
  1898   002B1E                     
  1899                           ;maincode02.c: 195:             }
  1900   002B1E  4A35               	infsnz	decodificacion@i_437^(0+1280),f,c
  1901   002B20  2A36               	incf	(decodificacion@i_437+1)^(0+1280),f,c
  1902   002B22  EF71  F015         	goto	l2469
  1903   002B26                     l2479:
  1904                           
  1905                           ;maincode02.c: 198:             for (int i = 0; i < 8; i++) {
  1906   002B26  0E00               	movlw	0
  1907   002B28  6E38               	movwf	(decodificacion@i_438+1)^(0+1280),c
  1908   002B2A  0E00               	movlw	0
  1909   002B2C  6E37               	movwf	decodificacion@i_438^(0+1280),c
  1910   002B2E                     l2481:
  1911   002B2E  BE38               	btfsc	(decodificacion@i_438+1)^(0+1280),7,c
  1912   002B30  EFA3  F015         	goto	u1211
  1913   002B34  5038               	movf	(decodificacion@i_438+1)^(0+1280),w,c
  1914   002B36  E109               	bnz	u1210
  1915   002B38  0E08               	movlw	8
  1916   002B3A  5C37               	subwf	decodificacion@i_438^(0+1280),w,c
  1917   002B3C  A0D8               	btfss	status,0,c
  1918   002B3E  EFA3  F015         	goto	u1211
  1919   002B42  EFA5  F015         	goto	u1210
  1920   002B46                     u1211:
  1921   002B46  EFA7  F015         	goto	l2485
  1922   002B4A                     u1210:
  1923   002B4A  EF86  F017         	goto	l2629
  1924   002B4E                     l2485:
  1925                           
  1926                           ;maincode02.c: 199:                 deco_decena[i] = num_8[i];
  1927   002B4E  0E70               	movlw	low _num_8
  1928   002B50  2437               	addwf	decodificacion@i_438^(0+1280),w,c
  1929   002B52  6ED9               	movwf	fsr2l,c
  1930   002B54  0E05               	movlw	high _num_8
  1931   002B56  2038               	addwfc	(decodificacion@i_438+1)^(0+1280),w,c
  1932   002B58  6EDA               	movwf	fsr2h,c
  1933   002B5A  0E56               	movlw	low _deco_decena
  1934   002B5C  2437               	addwf	decodificacion@i_438^(0+1280),w,c
  1935   002B5E  6EE1               	movwf	fsr1l,c
  1936   002B60  0E05               	movlw	high _deco_decena
  1937   002B62  2038               	addwfc	(decodificacion@i_438+1)^(0+1280),w,c
  1938   002B64  6EE2               	movwf	fsr1h,c
  1939   002B66  C4DF F4E7          	movff	indf2,indf1
  1940   002B6A                     
  1941                           ;maincode02.c: 200:             }
  1942   002B6A  4A37               	infsnz	decodificacion@i_438^(0+1280),f,c
  1943   002B6C  2A38               	incf	(decodificacion@i_438+1)^(0+1280),f,c
  1944   002B6E  EF97  F015         	goto	l2481
  1945   002B72                     l2491:
  1946                           
  1947                           ;maincode02.c: 203:             for (int i = 0; i < 8; i++) {
  1948   002B72  0E00               	movlw	0
  1949   002B74  6E3A               	movwf	(decodificacion@i_439+1)^(0+1280),c
  1950   002B76  0E00               	movlw	0
  1951   002B78  6E39               	movwf	decodificacion@i_439^(0+1280),c
  1952   002B7A                     l2493:
  1953   002B7A  BE3A               	btfsc	(decodificacion@i_439+1)^(0+1280),7,c
  1954   002B7C  EFC9  F015         	goto	u1221
  1955   002B80  503A               	movf	(decodificacion@i_439+1)^(0+1280),w,c
  1956   002B82  E109               	bnz	u1220
  1957   002B84  0E08               	movlw	8
  1958   002B86  5C39               	subwf	decodificacion@i_439^(0+1280),w,c
  1959   002B88  A0D8               	btfss	status,0,c
  1960   002B8A  EFC9  F015         	goto	u1221
  1961   002B8E  EFCB  F015         	goto	u1220
  1962   002B92                     u1221:
  1963   002B92  EFCD  F015         	goto	l2497
  1964   002B96                     u1220:
  1965   002B96  EF86  F017         	goto	l2629
  1966   002B9A                     l2497:
  1967                           
  1968                           ;maincode02.c: 204:                 deco_decena[i] = num_9[i];
  1969   002B9A  0E68               	movlw	low _num_9
  1970   002B9C  2439               	addwf	decodificacion@i_439^(0+1280),w,c
  1971   002B9E  6ED9               	movwf	fsr2l,c
  1972   002BA0  0E05               	movlw	high _num_9
  1973   002BA2  203A               	addwfc	(decodificacion@i_439+1)^(0+1280),w,c
  1974   002BA4  6EDA               	movwf	fsr2h,c
  1975   002BA6  0E56               	movlw	low _deco_decena
  1976   002BA8  2439               	addwf	decodificacion@i_439^(0+1280),w,c
  1977   002BAA  6EE1               	movwf	fsr1l,c
  1978   002BAC  0E05               	movlw	high _deco_decena
  1979   002BAE  203A               	addwfc	(decodificacion@i_439+1)^(0+1280),w,c
  1980   002BB0  6EE2               	movwf	fsr1h,c
  1981   002BB2  C4DF F4E7          	movff	indf2,indf1
  1982   002BB6                     
  1983                           ;maincode02.c: 205:             }
  1984   002BB6  4A39               	infsnz	decodificacion@i_439^(0+1280),f,c
  1985   002BB8  2A3A               	incf	(decodificacion@i_439+1)^(0+1280),f,c
  1986   002BBA  EFBD  F015         	goto	l2493
  1987   002BBE                     l2505:
  1988   002BBE  5010               	movf	decodificacion@decena^(0+1280),w,c
  1989                           
  1990                           ; Switch size 1, requested type "simple"
  1991                           ; Number of cases is 10, Range of values is 0 to 9
  1992                           ; switch strategies available:
  1993                           ; Name         Instructions Cycles
  1994                           ; simple_byte           31    16 (average)
  1995                           ;	Chosen strategy is simple_byte
  1996   002BC0  0A00               	xorlw	0	; case 0
  1997   002BC2  B4D8               	btfsc	status,2,c
  1998   002BC4  EF63  F014         	goto	l2383
  1999   002BC8  0A01               	xorlw	1	; case 1
  2000   002BCA  B4D8               	btfsc	status,2,c
  2001   002BCC  EF89  F014         	goto	l2395
  2002   002BD0  0A03               	xorlw	3	; case 2
  2003   002BD2  B4D8               	btfsc	status,2,c
  2004   002BD4  EFAF  F014         	goto	l2407
  2005   002BD8  0A01               	xorlw	1	; case 3
  2006   002BDA  B4D8               	btfsc	status,2,c
  2007   002BDC  EFD5  F014         	goto	l2419
  2008   002BE0  0A07               	xorlw	7	; case 4
  2009   002BE2  B4D8               	btfsc	status,2,c
  2010   002BE4  EFFB  F014         	goto	l2431
  2011   002BE8  0A01               	xorlw	1	; case 5
  2012   002BEA  B4D8               	btfsc	status,2,c
  2013   002BEC  EF21  F015         	goto	l2443
  2014   002BF0  0A03               	xorlw	3	; case 6
  2015   002BF2  B4D8               	btfsc	status,2,c
  2016   002BF4  EF47  F015         	goto	l2455
  2017   002BF8  0A01               	xorlw	1	; case 7
  2018   002BFA  B4D8               	btfsc	status,2,c
  2019   002BFC  EF6D  F015         	goto	l2467
  2020   002C00  0A0F               	xorlw	15	; case 8
  2021   002C02  B4D8               	btfsc	status,2,c
  2022   002C04  EF93  F015         	goto	l2479
  2023   002C08  0A01               	xorlw	1	; case 9
  2024   002C0A  B4D8               	btfsc	status,2,c
  2025   002C0C  EFB9  F015         	goto	l2491
  2026   002C10  EF86  F017         	goto	l2629
  2027   002C14                     l2507:
  2028                           
  2029                           ;maincode02.c: 211:             for (int i = 0; i < 8; i++) {
  2030   002C14  0E00               	movlw	0
  2031   002C16  6E3C               	movwf	(decodificacion@i_440+1)^(0+1280),c
  2032   002C18  0E00               	movlw	0
  2033   002C1A  6E3B               	movwf	decodificacion@i_440^(0+1280),c
  2034   002C1C                     l2509:
  2035   002C1C  BE3C               	btfsc	(decodificacion@i_440+1)^(0+1280),7,c
  2036   002C1E  EF1A  F016         	goto	u1231
  2037   002C22  503C               	movf	(decodificacion@i_440+1)^(0+1280),w,c
  2038   002C24  E109               	bnz	u1230
  2039   002C26  0E08               	movlw	8
  2040   002C28  5C3B               	subwf	decodificacion@i_440^(0+1280),w,c
  2041   002C2A  A0D8               	btfss	status,0,c
  2042   002C2C  EF1A  F016         	goto	u1231
  2043   002C30  EF1C  F016         	goto	u1230
  2044   002C34                     u1231:
  2045   002C34  EF1E  F016         	goto	l2513
  2046   002C38                     u1230:
  2047   002C38  EFB1  F017         	goto	l388
  2048   002C3C                     l2513:
  2049                           
  2050                           ;maincode02.c: 212:                 deco_unidad[i] = num_0[i];
  2051   002C3C  0EB0               	movlw	low _num_0
  2052   002C3E  243B               	addwf	decodificacion@i_440^(0+1280),w,c
  2053   002C40  6ED9               	movwf	fsr2l,c
  2054   002C42  0E05               	movlw	high _num_0
  2055   002C44  203C               	addwfc	(decodificacion@i_440+1)^(0+1280),w,c
  2056   002C46  6EDA               	movwf	fsr2h,c
  2057   002C48  0E55               	movlw	low _deco_unidad
  2058   002C4A  243B               	addwf	decodificacion@i_440^(0+1280),w,c
  2059   002C4C  6EE1               	movwf	fsr1l,c
  2060   002C4E  0E05               	movlw	high _deco_unidad
  2061   002C50  203C               	addwfc	(decodificacion@i_440+1)^(0+1280),w,c
  2062   002C52  6EE2               	movwf	fsr1h,c
  2063   002C54  C4DF F4E7          	movff	indf2,indf1
  2064   002C58                     
  2065                           ;maincode02.c: 213:             }
  2066   002C58  4A3B               	infsnz	decodificacion@i_440^(0+1280),f,c
  2067   002C5A  2A3C               	incf	(decodificacion@i_440+1)^(0+1280),f,c
  2068   002C5C  EF0E  F016         	goto	l2509
  2069   002C60                     l2519:
  2070                           
  2071                           ;maincode02.c: 216:             for (int i = 0; i < 8; i++) {
  2072   002C60  0E00               	movlw	0
  2073   002C62  6E3E               	movwf	(decodificacion@i_441+1)^(0+1280),c
  2074   002C64  0E00               	movlw	0
  2075   002C66  6E3D               	movwf	decodificacion@i_441^(0+1280),c
  2076   002C68                     l2521:
  2077   002C68  BE3E               	btfsc	(decodificacion@i_441+1)^(0+1280),7,c
  2078   002C6A  EF40  F016         	goto	u1241
  2079   002C6E  503E               	movf	(decodificacion@i_441+1)^(0+1280),w,c
  2080   002C70  E109               	bnz	u1240
  2081   002C72  0E08               	movlw	8
  2082   002C74  5C3D               	subwf	decodificacion@i_441^(0+1280),w,c
  2083   002C76  A0D8               	btfss	status,0,c
  2084   002C78  EF40  F016         	goto	u1241
  2085   002C7C  EF42  F016         	goto	u1240
  2086   002C80                     u1241:
  2087   002C80  EF44  F016         	goto	l2525
  2088   002C84                     u1240:
  2089   002C84  EFB1  F017         	goto	l388
  2090   002C88                     l2525:
  2091                           
  2092                           ;maincode02.c: 217:                 deco_unidad[i] = num_1[i];
  2093   002C88  0EA8               	movlw	low _num_1
  2094   002C8A  243D               	addwf	decodificacion@i_441^(0+1280),w,c
  2095   002C8C  6ED9               	movwf	fsr2l,c
  2096   002C8E  0E05               	movlw	high _num_1
  2097   002C90  203E               	addwfc	(decodificacion@i_441+1)^(0+1280),w,c
  2098   002C92  6EDA               	movwf	fsr2h,c
  2099   002C94  0E55               	movlw	low _deco_unidad
  2100   002C96  243D               	addwf	decodificacion@i_441^(0+1280),w,c
  2101   002C98  6EE1               	movwf	fsr1l,c
  2102   002C9A  0E05               	movlw	high _deco_unidad
  2103   002C9C  203E               	addwfc	(decodificacion@i_441+1)^(0+1280),w,c
  2104   002C9E  6EE2               	movwf	fsr1h,c
  2105   002CA0  C4DF F4E7          	movff	indf2,indf1
  2106   002CA4                     
  2107                           ;maincode02.c: 218:             }
  2108   002CA4  4A3D               	infsnz	decodificacion@i_441^(0+1280),f,c
  2109   002CA6  2A3E               	incf	(decodificacion@i_441+1)^(0+1280),f,c
  2110   002CA8  EF34  F016         	goto	l2521
  2111   002CAC                     l2531:
  2112                           
  2113                           ;maincode02.c: 221:             for (int i = 0; i < 8; i++) {
  2114   002CAC  0E00               	movlw	0
  2115   002CAE  6E40               	movwf	(decodificacion@i_442+1)^(0+1280),c
  2116   002CB0  0E00               	movlw	0
  2117   002CB2  6E3F               	movwf	decodificacion@i_442^(0+1280),c
  2118   002CB4                     l2533:
  2119   002CB4  BE40               	btfsc	(decodificacion@i_442+1)^(0+1280),7,c
  2120   002CB6  EF66  F016         	goto	u1251
  2121   002CBA  5040               	movf	(decodificacion@i_442+1)^(0+1280),w,c
  2122   002CBC  E109               	bnz	u1250
  2123   002CBE  0E08               	movlw	8
  2124   002CC0  5C3F               	subwf	decodificacion@i_442^(0+1280),w,c
  2125   002CC2  A0D8               	btfss	status,0,c
  2126   002CC4  EF66  F016         	goto	u1251
  2127   002CC8  EF68  F016         	goto	u1250
  2128   002CCC                     u1251:
  2129   002CCC  EF6A  F016         	goto	l2537
  2130   002CD0                     u1250:
  2131   002CD0  EFB1  F017         	goto	l388
  2132   002CD4                     l2537:
  2133                           
  2134                           ;maincode02.c: 222:                 deco_unidad[i] = num_2[i];
  2135   002CD4  0EA0               	movlw	low _num_2
  2136   002CD6  243F               	addwf	decodificacion@i_442^(0+1280),w,c
  2137   002CD8  6ED9               	movwf	fsr2l,c
  2138   002CDA  0E05               	movlw	high _num_2
  2139   002CDC  2040               	addwfc	(decodificacion@i_442+1)^(0+1280),w,c
  2140   002CDE  6EDA               	movwf	fsr2h,c
  2141   002CE0  0E55               	movlw	low _deco_unidad
  2142   002CE2  243F               	addwf	decodificacion@i_442^(0+1280),w,c
  2143   002CE4  6EE1               	movwf	fsr1l,c
  2144   002CE6  0E05               	movlw	high _deco_unidad
  2145   002CE8  2040               	addwfc	(decodificacion@i_442+1)^(0+1280),w,c
  2146   002CEA  6EE2               	movwf	fsr1h,c
  2147   002CEC  C4DF F4E7          	movff	indf2,indf1
  2148   002CF0                     
  2149                           ;maincode02.c: 223:             }
  2150   002CF0  4A3F               	infsnz	decodificacion@i_442^(0+1280),f,c
  2151   002CF2  2A40               	incf	(decodificacion@i_442+1)^(0+1280),f,c
  2152   002CF4  EF5A  F016         	goto	l2533
  2153   002CF8                     l2543:
  2154                           
  2155                           ;maincode02.c: 226:             for (int i = 0; i < 8; i++) {
  2156   002CF8  0E00               	movlw	0
  2157   002CFA  6E42               	movwf	(decodificacion@i_443+1)^(0+1280),c
  2158   002CFC  0E00               	movlw	0
  2159   002CFE  6E41               	movwf	decodificacion@i_443^(0+1280),c
  2160   002D00                     l2545:
  2161   002D00  BE42               	btfsc	(decodificacion@i_443+1)^(0+1280),7,c
  2162   002D02  EF8C  F016         	goto	u1261
  2163   002D06  5042               	movf	(decodificacion@i_443+1)^(0+1280),w,c
  2164   002D08  E109               	bnz	u1260
  2165   002D0A  0E08               	movlw	8
  2166   002D0C  5C41               	subwf	decodificacion@i_443^(0+1280),w,c
  2167   002D0E  A0D8               	btfss	status,0,c
  2168   002D10  EF8C  F016         	goto	u1261
  2169   002D14  EF8E  F016         	goto	u1260
  2170   002D18                     u1261:
  2171   002D18  EF90  F016         	goto	l2549
  2172   002D1C                     u1260:
  2173   002D1C  EFB1  F017         	goto	l388
  2174   002D20                     l2549:
  2175                           
  2176                           ;maincode02.c: 227:                 deco_unidad[i] = num_3[i];
  2177   002D20  0E98               	movlw	low _num_3
  2178   002D22  2441               	addwf	decodificacion@i_443^(0+1280),w,c
  2179   002D24  6ED9               	movwf	fsr2l,c
  2180   002D26  0E05               	movlw	high _num_3
  2181   002D28  2042               	addwfc	(decodificacion@i_443+1)^(0+1280),w,c
  2182   002D2A  6EDA               	movwf	fsr2h,c
  2183   002D2C  0E55               	movlw	low _deco_unidad
  2184   002D2E  2441               	addwf	decodificacion@i_443^(0+1280),w,c
  2185   002D30  6EE1               	movwf	fsr1l,c
  2186   002D32  0E05               	movlw	high _deco_unidad
  2187   002D34  2042               	addwfc	(decodificacion@i_443+1)^(0+1280),w,c
  2188   002D36  6EE2               	movwf	fsr1h,c
  2189   002D38  C4DF F4E7          	movff	indf2,indf1
  2190   002D3C                     
  2191                           ;maincode02.c: 228:             }
  2192   002D3C  4A41               	infsnz	decodificacion@i_443^(0+1280),f,c
  2193   002D3E  2A42               	incf	(decodificacion@i_443+1)^(0+1280),f,c
  2194   002D40  EF80  F016         	goto	l2545
  2195   002D44                     l2555:
  2196                           
  2197                           ;maincode02.c: 231:             for (int i = 0; i < 8; i++) {
  2198   002D44  0E00               	movlw	0
  2199   002D46  6E44               	movwf	(decodificacion@i_444+1)^(0+1280),c
  2200   002D48  0E00               	movlw	0
  2201   002D4A  6E43               	movwf	decodificacion@i_444^(0+1280),c
  2202   002D4C                     l2557:
  2203   002D4C  BE44               	btfsc	(decodificacion@i_444+1)^(0+1280),7,c
  2204   002D4E  EFB2  F016         	goto	u1271
  2205   002D52  5044               	movf	(decodificacion@i_444+1)^(0+1280),w,c
  2206   002D54  E109               	bnz	u1270
  2207   002D56  0E08               	movlw	8
  2208   002D58  5C43               	subwf	decodificacion@i_444^(0+1280),w,c
  2209   002D5A  A0D8               	btfss	status,0,c
  2210   002D5C  EFB2  F016         	goto	u1271
  2211   002D60  EFB4  F016         	goto	u1270
  2212   002D64                     u1271:
  2213   002D64  EFB6  F016         	goto	l2561
  2214   002D68                     u1270:
  2215   002D68  EFB1  F017         	goto	l388
  2216   002D6C                     l2561:
  2217                           
  2218                           ;maincode02.c: 232:                 deco_unidad[i] = num_4[i];
  2219   002D6C  0E90               	movlw	low _num_4
  2220   002D6E  2443               	addwf	decodificacion@i_444^(0+1280),w,c
  2221   002D70  6ED9               	movwf	fsr2l,c
  2222   002D72  0E05               	movlw	high _num_4
  2223   002D74  2044               	addwfc	(decodificacion@i_444+1)^(0+1280),w,c
  2224   002D76  6EDA               	movwf	fsr2h,c
  2225   002D78  0E55               	movlw	low _deco_unidad
  2226   002D7A  2443               	addwf	decodificacion@i_444^(0+1280),w,c
  2227   002D7C  6EE1               	movwf	fsr1l,c
  2228   002D7E  0E05               	movlw	high _deco_unidad
  2229   002D80  2044               	addwfc	(decodificacion@i_444+1)^(0+1280),w,c
  2230   002D82  6EE2               	movwf	fsr1h,c
  2231   002D84  C4DF F4E7          	movff	indf2,indf1
  2232   002D88                     
  2233                           ;maincode02.c: 233:             }
  2234   002D88  4A43               	infsnz	decodificacion@i_444^(0+1280),f,c
  2235   002D8A  2A44               	incf	(decodificacion@i_444+1)^(0+1280),f,c
  2236   002D8C  EFA6  F016         	goto	l2557
  2237   002D90                     l2567:
  2238                           
  2239                           ;maincode02.c: 236:             for (int i = 0; i < 8; i++) {
  2240   002D90  0E00               	movlw	0
  2241   002D92  6E46               	movwf	(decodificacion@i_445+1)^(0+1280),c
  2242   002D94  0E00               	movlw	0
  2243   002D96  6E45               	movwf	decodificacion@i_445^(0+1280),c
  2244   002D98                     l2569:
  2245   002D98  BE46               	btfsc	(decodificacion@i_445+1)^(0+1280),7,c
  2246   002D9A  EFD8  F016         	goto	u1281
  2247   002D9E  5046               	movf	(decodificacion@i_445+1)^(0+1280),w,c
  2248   002DA0  E109               	bnz	u1280
  2249   002DA2  0E08               	movlw	8
  2250   002DA4  5C45               	subwf	decodificacion@i_445^(0+1280),w,c
  2251   002DA6  A0D8               	btfss	status,0,c
  2252   002DA8  EFD8  F016         	goto	u1281
  2253   002DAC  EFDA  F016         	goto	u1280
  2254   002DB0                     u1281:
  2255   002DB0  EFDC  F016         	goto	l2573
  2256   002DB4                     u1280:
  2257   002DB4  EFB1  F017         	goto	l388
  2258   002DB8                     l2573:
  2259                           
  2260                           ;maincode02.c: 237:                 deco_unidad[i] = num_5[i];
  2261   002DB8  0E88               	movlw	low _num_5
  2262   002DBA  2445               	addwf	decodificacion@i_445^(0+1280),w,c
  2263   002DBC  6ED9               	movwf	fsr2l,c
  2264   002DBE  0E05               	movlw	high _num_5
  2265   002DC0  2046               	addwfc	(decodificacion@i_445+1)^(0+1280),w,c
  2266   002DC2  6EDA               	movwf	fsr2h,c
  2267   002DC4  0E55               	movlw	low _deco_unidad
  2268   002DC6  2445               	addwf	decodificacion@i_445^(0+1280),w,c
  2269   002DC8  6EE1               	movwf	fsr1l,c
  2270   002DCA  0E05               	movlw	high _deco_unidad
  2271   002DCC  2046               	addwfc	(decodificacion@i_445+1)^(0+1280),w,c
  2272   002DCE  6EE2               	movwf	fsr1h,c
  2273   002DD0  C4DF F4E7          	movff	indf2,indf1
  2274   002DD4                     
  2275                           ;maincode02.c: 238:             }
  2276   002DD4  4A45               	infsnz	decodificacion@i_445^(0+1280),f,c
  2277   002DD6  2A46               	incf	(decodificacion@i_445+1)^(0+1280),f,c
  2278   002DD8  EFCC  F016         	goto	l2569
  2279   002DDC                     l2579:
  2280                           
  2281                           ;maincode02.c: 241:             for (int i = 0; i < 8; i++) {
  2282   002DDC  0E00               	movlw	0
  2283   002DDE  6E48               	movwf	(decodificacion@i_446+1)^(0+1280),c
  2284   002DE0  0E00               	movlw	0
  2285   002DE2  6E47               	movwf	decodificacion@i_446^(0+1280),c
  2286   002DE4                     l2581:
  2287   002DE4  BE48               	btfsc	(decodificacion@i_446+1)^(0+1280),7,c
  2288   002DE6  EFFE  F016         	goto	u1291
  2289   002DEA  5048               	movf	(decodificacion@i_446+1)^(0+1280),w,c
  2290   002DEC  E109               	bnz	u1290
  2291   002DEE  0E08               	movlw	8
  2292   002DF0  5C47               	subwf	decodificacion@i_446^(0+1280),w,c
  2293   002DF2  A0D8               	btfss	status,0,c
  2294   002DF4  EFFE  F016         	goto	u1291
  2295   002DF8  EF00  F017         	goto	u1290
  2296   002DFC                     u1291:
  2297   002DFC  EF02  F017         	goto	l2585
  2298   002E00                     u1290:
  2299   002E00  EFB1  F017         	goto	l388
  2300   002E04                     l2585:
  2301                           
  2302                           ;maincode02.c: 242:                 deco_unidad[i] = num_6[i];
  2303   002E04  0E80               	movlw	low _num_6
  2304   002E06  2447               	addwf	decodificacion@i_446^(0+1280),w,c
  2305   002E08  6ED9               	movwf	fsr2l,c
  2306   002E0A  0E05               	movlw	high _num_6
  2307   002E0C  2048               	addwfc	(decodificacion@i_446+1)^(0+1280),w,c
  2308   002E0E  6EDA               	movwf	fsr2h,c
  2309   002E10  0E55               	movlw	low _deco_unidad
  2310   002E12  2447               	addwf	decodificacion@i_446^(0+1280),w,c
  2311   002E14  6EE1               	movwf	fsr1l,c
  2312   002E16  0E05               	movlw	high _deco_unidad
  2313   002E18  2048               	addwfc	(decodificacion@i_446+1)^(0+1280),w,c
  2314   002E1A  6EE2               	movwf	fsr1h,c
  2315   002E1C  C4DF F4E7          	movff	indf2,indf1
  2316   002E20                     
  2317                           ;maincode02.c: 243:             }
  2318   002E20  4A47               	infsnz	decodificacion@i_446^(0+1280),f,c
  2319   002E22  2A48               	incf	(decodificacion@i_446+1)^(0+1280),f,c
  2320   002E24  EFF2  F016         	goto	l2581
  2321   002E28                     l2591:
  2322                           
  2323                           ;maincode02.c: 246:             for (int i = 0; i < 8; i++) {
  2324   002E28  0E00               	movlw	0
  2325   002E2A  6E4A               	movwf	(decodificacion@i_447+1)^(0+1280),c
  2326   002E2C  0E00               	movlw	0
  2327   002E2E  6E49               	movwf	decodificacion@i_447^(0+1280),c
  2328   002E30                     l2593:
  2329   002E30  BE4A               	btfsc	(decodificacion@i_447+1)^(0+1280),7,c
  2330   002E32  EF24  F017         	goto	u1301
  2331   002E36  504A               	movf	(decodificacion@i_447+1)^(0+1280),w,c
  2332   002E38  E109               	bnz	u1300
  2333   002E3A  0E08               	movlw	8
  2334   002E3C  5C49               	subwf	decodificacion@i_447^(0+1280),w,c
  2335   002E3E  A0D8               	btfss	status,0,c
  2336   002E40  EF24  F017         	goto	u1301
  2337   002E44  EF26  F017         	goto	u1300
  2338   002E48                     u1301:
  2339   002E48  EF28  F017         	goto	l2597
  2340   002E4C                     u1300:
  2341   002E4C  EFB1  F017         	goto	l388
  2342   002E50                     l2597:
  2343                           
  2344                           ;maincode02.c: 247:                 deco_unidad[i] = num_7[i];
  2345   002E50  0E78               	movlw	low _num_7
  2346   002E52  2449               	addwf	decodificacion@i_447^(0+1280),w,c
  2347   002E54  6ED9               	movwf	fsr2l,c
  2348   002E56  0E05               	movlw	high _num_7
  2349   002E58  204A               	addwfc	(decodificacion@i_447+1)^(0+1280),w,c
  2350   002E5A  6EDA               	movwf	fsr2h,c
  2351   002E5C  0E55               	movlw	low _deco_unidad
  2352   002E5E  2449               	addwf	decodificacion@i_447^(0+1280),w,c
  2353   002E60  6EE1               	movwf	fsr1l,c
  2354   002E62  0E05               	movlw	high _deco_unidad
  2355   002E64  204A               	addwfc	(decodificacion@i_447+1)^(0+1280),w,c
  2356   002E66  6EE2               	movwf	fsr1h,c
  2357   002E68  C4DF F4E7          	movff	indf2,indf1
  2358   002E6C                     
  2359                           ;maincode02.c: 248:             }
  2360   002E6C  4A49               	infsnz	decodificacion@i_447^(0+1280),f,c
  2361   002E6E  2A4A               	incf	(decodificacion@i_447+1)^(0+1280),f,c
  2362   002E70  EF18  F017         	goto	l2593
  2363   002E74                     l2603:
  2364                           
  2365                           ;maincode02.c: 251:             for (int i = 0; i < 8; i++) {
  2366   002E74  0E00               	movlw	0
  2367   002E76  6E4C               	movwf	(decodificacion@i_448+1)^(0+1280),c
  2368   002E78  0E00               	movlw	0
  2369   002E7A  6E4B               	movwf	decodificacion@i_448^(0+1280),c
  2370   002E7C                     l2605:
  2371   002E7C  BE4C               	btfsc	(decodificacion@i_448+1)^(0+1280),7,c
  2372   002E7E  EF4A  F017         	goto	u1311
  2373   002E82  504C               	movf	(decodificacion@i_448+1)^(0+1280),w,c
  2374   002E84  E109               	bnz	u1310
  2375   002E86  0E08               	movlw	8
  2376   002E88  5C4B               	subwf	decodificacion@i_448^(0+1280),w,c
  2377   002E8A  A0D8               	btfss	status,0,c
  2378   002E8C  EF4A  F017         	goto	u1311
  2379   002E90  EF4C  F017         	goto	u1310
  2380   002E94                     u1311:
  2381   002E94  EF4E  F017         	goto	l2609
  2382   002E98                     u1310:
  2383   002E98  EFB1  F017         	goto	l388
  2384   002E9C                     l2609:
  2385                           
  2386                           ;maincode02.c: 252:                 deco_unidad[i] = num_8[i];
  2387   002E9C  0E70               	movlw	low _num_8
  2388   002E9E  244B               	addwf	decodificacion@i_448^(0+1280),w,c
  2389   002EA0  6ED9               	movwf	fsr2l,c
  2390   002EA2  0E05               	movlw	high _num_8
  2391   002EA4  204C               	addwfc	(decodificacion@i_448+1)^(0+1280),w,c
  2392   002EA6  6EDA               	movwf	fsr2h,c
  2393   002EA8  0E55               	movlw	low _deco_unidad
  2394   002EAA  244B               	addwf	decodificacion@i_448^(0+1280),w,c
  2395   002EAC  6EE1               	movwf	fsr1l,c
  2396   002EAE  0E05               	movlw	high _deco_unidad
  2397   002EB0  204C               	addwfc	(decodificacion@i_448+1)^(0+1280),w,c
  2398   002EB2  6EE2               	movwf	fsr1h,c
  2399   002EB4  C4DF F4E7          	movff	indf2,indf1
  2400   002EB8                     
  2401                           ;maincode02.c: 253:             }
  2402   002EB8  4A4B               	infsnz	decodificacion@i_448^(0+1280),f,c
  2403   002EBA  2A4C               	incf	(decodificacion@i_448+1)^(0+1280),f,c
  2404   002EBC  EF3E  F017         	goto	l2605
  2405   002EC0                     l2615:
  2406                           
  2407                           ;maincode02.c: 256:             for (int i = 0; i < 8; i++) {
  2408   002EC0  0E00               	movlw	0
  2409   002EC2  6E4E               	movwf	(decodificacion@i_449+1)^(0+1280),c
  2410   002EC4  0E00               	movlw	0
  2411   002EC6  6E4D               	movwf	decodificacion@i_449^(0+1280),c
  2412   002EC8                     l2617:
  2413   002EC8  BE4E               	btfsc	(decodificacion@i_449+1)^(0+1280),7,c
  2414   002ECA  EF70  F017         	goto	u1321
  2415   002ECE  504E               	movf	(decodificacion@i_449+1)^(0+1280),w,c
  2416   002ED0  E109               	bnz	u1320
  2417   002ED2  0E08               	movlw	8
  2418   002ED4  5C4D               	subwf	decodificacion@i_449^(0+1280),w,c
  2419   002ED6  A0D8               	btfss	status,0,c
  2420   002ED8  EF70  F017         	goto	u1321
  2421   002EDC  EF72  F017         	goto	u1320
  2422   002EE0                     u1321:
  2423   002EE0  EF74  F017         	goto	l2621
  2424   002EE4                     u1320:
  2425   002EE4  EFB1  F017         	goto	l388
  2426   002EE8                     l2621:
  2427                           
  2428                           ;maincode02.c: 257:                 deco_unidad[i] = num_9[i];
  2429   002EE8  0E68               	movlw	low _num_9
  2430   002EEA  244D               	addwf	decodificacion@i_449^(0+1280),w,c
  2431   002EEC  6ED9               	movwf	fsr2l,c
  2432   002EEE  0E05               	movlw	high _num_9
  2433   002EF0  204E               	addwfc	(decodificacion@i_449+1)^(0+1280),w,c
  2434   002EF2  6EDA               	movwf	fsr2h,c
  2435   002EF4  0E55               	movlw	low _deco_unidad
  2436   002EF6  244D               	addwf	decodificacion@i_449^(0+1280),w,c
  2437   002EF8  6EE1               	movwf	fsr1l,c
  2438   002EFA  0E05               	movlw	high _deco_unidad
  2439   002EFC  204E               	addwfc	(decodificacion@i_449+1)^(0+1280),w,c
  2440   002EFE  6EE2               	movwf	fsr1h,c
  2441   002F00  C4DF F4E7          	movff	indf2,indf1
  2442   002F04                     
  2443                           ;maincode02.c: 258:             }
  2444   002F04  4A4D               	infsnz	decodificacion@i_449^(0+1280),f,c
  2445   002F06  2A4E               	incf	(decodificacion@i_449+1)^(0+1280),f,c
  2446   002F08  EF64  F017         	goto	l2617
  2447   002F0C                     l2629:
  2448   002F0C  5011               	movf	decodificacion@unidad^(0+1280),w,c
  2449                           
  2450                           ; Switch size 1, requested type "simple"
  2451                           ; Number of cases is 10, Range of values is 0 to 9
  2452                           ; switch strategies available:
  2453                           ; Name         Instructions Cycles
  2454                           ; simple_byte           31    16 (average)
  2455                           ;	Chosen strategy is simple_byte
  2456   002F0E  0A00               	xorlw	0	; case 0
  2457   002F10  B4D8               	btfsc	status,2,c
  2458   002F12  EF0A  F016         	goto	l2507
  2459   002F16  0A01               	xorlw	1	; case 1
  2460   002F18  B4D8               	btfsc	status,2,c
  2461   002F1A  EF30  F016         	goto	l2519
  2462   002F1E  0A03               	xorlw	3	; case 2
  2463   002F20  B4D8               	btfsc	status,2,c
  2464   002F22  EF56  F016         	goto	l2531
  2465   002F26  0A01               	xorlw	1	; case 3
  2466   002F28  B4D8               	btfsc	status,2,c
  2467   002F2A  EF7C  F016         	goto	l2543
  2468   002F2E  0A07               	xorlw	7	; case 4
  2469   002F30  B4D8               	btfsc	status,2,c
  2470   002F32  EFA2  F016         	goto	l2555
  2471   002F36  0A01               	xorlw	1	; case 5
  2472   002F38  B4D8               	btfsc	status,2,c
  2473   002F3A  EFC8  F016         	goto	l2567
  2474   002F3E  0A03               	xorlw	3	; case 6
  2475   002F40  B4D8               	btfsc	status,2,c
  2476   002F42  EFEE  F016         	goto	l2579
  2477   002F46  0A01               	xorlw	1	; case 7
  2478   002F48  B4D8               	btfsc	status,2,c
  2479   002F4A  EF14  F017         	goto	l2591
  2480   002F4E  0A0F               	xorlw	15	; case 8
  2481   002F50  B4D8               	btfsc	status,2,c
  2482   002F52  EF3A  F017         	goto	l2603
  2483   002F56  0A01               	xorlw	1	; case 9
  2484   002F58  B4D8               	btfsc	status,2,c
  2485   002F5A  EF60  F017         	goto	l2615
  2486   002F5E  EFB1  F017         	goto	l388
  2487   002F62                     l388:
  2488   002F62  0012               	return		;funcret
  2489   002F64                     __end_of_decodificacion:
  2490                           	callstack 0
  2491                           
  2492 ;; *************** function ___awmod *****************
  2493 ;; Defined at:
  2494 ;;		line 7 in file "C:\Program Files\Microchip\xc8\v2.46\pic\sources\c99\common\awmod.c"
  2495 ;; Parameters:    Size  Location     Type
  2496 ;;  dividend        2    0[COMRAM] int 
  2497 ;;  divisor         2    2[COMRAM] int 
  2498 ;; Auto vars:     Size  Location     Type
  2499 ;;  sign            1    5[COMRAM] unsigned char 
  2500 ;;  counter         1    4[COMRAM] unsigned char 
  2501 ;; Return value:  Size  Location     Type
  2502 ;;                  2    0[COMRAM] int 
  2503 ;; Registers used:
  2504 ;;		wreg, status,2, status,0
  2505 ;; Tracked objects:
  2506 ;;		On entry : 0/0
  2507 ;;		On exit  : 0/0
  2508 ;;		Unchanged: 0/0
  2509 ;; Data sizes:     COMRAM   BANK5   BANK6   BANK7   BANK8   BANK9  BANK10  BANK11  BANK12  BANK13  BANK14  BANK15  BANK1
      +6  BANK17  BANK18  BANK19  BANK20  BANK21  BANK22  BANK23  BANK24  BANK25  BANK26  BANK27  BANK28  BANK29  BANK30  BANK3
      +1  BANK32  BANK33  BANK34  BANK35  BANK36
  2510 ;;      Params:         4       0       0       0       0       0       0       0       0       0       0       0       
      +0       0       0       0       0       0       0       0       0       0       0       0       0       0       0       
      +0       0       0       0       0       0
  2511 ;;      Locals:         2       0       0       0       0       0       0       0       0       0       0       0       
      +0       0       0       0       0       0       0       0       0       0       0       0       0       0       0       
      +0       0       0       0       0       0
  2512 ;;      Temps:          0       0       0       0       0       0       0       0       0       0       0       0       
      +0       0       0       0       0       0       0       0       0       0       0       0       0       0       0       
      +0       0       0       0       0       0
  2513 ;;      Totals:         6       0       0       0       0       0       0       0       0       0       0       0       
      +0       0       0       0       0       0       0       0       0       0       0       0       0       0       0       
      +0       0       0       0       0       0
  2514 ;;Total ram usage:        6 bytes
  2515 ;; Hardware stack levels used: 1
  2516 ;; Hardware stack levels required when called: 1
  2517 ;; This function calls:
  2518 ;;		Nothing
  2519 ;; This function is called by:
  2520 ;;		_decodificacion
  2521 ;;		_LCD_ESCRIBE_VAR_CHAR
  2522 ;; This function uses a non-reentrant model
  2523 ;;
  2524                           
  2525                           	psect	text4
  2526   003122                     __ptext4:
  2527                           	callstack 0
  2528   003122                     ___awmod:
  2529                           	callstack 124
  2530   003122  0E00               	movlw	0
  2531   003124  6E06               	movwf	___awmod@sign^(0+1280),c
  2532   003126  BE02               	btfsc	(___awmod@dividend+1)^(0+1280),7,c
  2533   003128  EF9A  F018         	goto	u910
  2534   00312C  EF98  F018         	goto	u911
  2535   003130                     u911:
  2536   003130  EFA0  F018         	goto	l2173
  2537   003134                     u910:
  2538   003134  6C01               	negf	___awmod@dividend^(0+1280),c
  2539   003136  1E02               	comf	(___awmod@dividend+1)^(0+1280),f,c
  2540   003138  B0D8               	btfsc	status,0,c
  2541   00313A  2A02               	incf	(___awmod@dividend+1)^(0+1280),f,c
  2542   00313C  0E01               	movlw	1
  2543   00313E  6E06               	movwf	___awmod@sign^(0+1280),c
  2544   003140                     l2173:
  2545   003140  BE04               	btfsc	(___awmod@divisor+1)^(0+1280),7,c
  2546   003142  EFA7  F018         	goto	u920
  2547   003146  EFA5  F018         	goto	u921
  2548   00314A                     u921:
  2549   00314A  EFAB  F018         	goto	l2177
  2550   00314E                     u920:
  2551   00314E  6C03               	negf	___awmod@divisor^(0+1280),c
  2552   003150  1E04               	comf	(___awmod@divisor+1)^(0+1280),f,c
  2553   003152  B0D8               	btfsc	status,0,c
  2554   003154  2A04               	incf	(___awmod@divisor+1)^(0+1280),f,c
  2555   003156                     l2177:
  2556   003156  5003               	movf	___awmod@divisor^(0+1280),w,c
  2557   003158  1004               	iorwf	(___awmod@divisor+1)^(0+1280),w,c
  2558   00315A  B4D8               	btfsc	status,2,c
  2559   00315C  EFB2  F018         	goto	u931
  2560   003160  EFB4  F018         	goto	u930
  2561   003164                     u931:
  2562   003164  EFD8  F018         	goto	l2193
  2563   003168                     u930:
  2564   003168  0E01               	movlw	1
  2565   00316A  6E05               	movwf	___awmod@counter^(0+1280),c
  2566   00316C  EFBC  F018         	goto	l2183
  2567   003170                     l2181:
  2568   003170  90D8               	bcf	status,0,c
  2569   003172  3603               	rlcf	___awmod@divisor^(0+1280),f,c
  2570   003174  3604               	rlcf	(___awmod@divisor+1)^(0+1280),f,c
  2571   003176  2A05               	incf	___awmod@counter^(0+1280),f,c
  2572   003178                     l2183:
  2573   003178  AE04               	btfss	(___awmod@divisor+1)^(0+1280),7,c
  2574   00317A  EFC1  F018         	goto	u941
  2575   00317E  EFC3  F018         	goto	u940
  2576   003182                     u941:
  2577   003182  EFB8  F018         	goto	l2181
  2578   003186                     u940:
  2579   003186                     l2185:
  2580   003186  5003               	movf	___awmod@divisor^(0+1280),w,c
  2581   003188  5C01               	subwf	___awmod@dividend^(0+1280),w,c
  2582   00318A  5004               	movf	(___awmod@divisor+1)^(0+1280),w,c
  2583   00318C  5802               	subwfb	(___awmod@dividend+1)^(0+1280),w,c
  2584   00318E  A0D8               	btfss	status,0,c
  2585   003190  EFCC  F018         	goto	u951
  2586   003194  EFCE  F018         	goto	u950
  2587   003198                     u951:
  2588   003198  EFD2  F018         	goto	l2189
  2589   00319C                     u950:
  2590   00319C  5003               	movf	___awmod@divisor^(0+1280),w,c
  2591   00319E  5E01               	subwf	___awmod@dividend^(0+1280),f,c
  2592   0031A0  5004               	movf	(___awmod@divisor+1)^(0+1280),w,c
  2593   0031A2  5A02               	subwfb	(___awmod@dividend+1)^(0+1280),f,c
  2594   0031A4                     l2189:
  2595   0031A4  90D8               	bcf	status,0,c
  2596   0031A6  3204               	rrcf	(___awmod@divisor+1)^(0+1280),f,c
  2597   0031A8  3203               	rrcf	___awmod@divisor^(0+1280),f,c
  2598   0031AA  2E05               	decfsz	___awmod@counter^(0+1280),f,c
  2599   0031AC  EFC3  F018         	goto	l2185
  2600   0031B0                     l2193:
  2601   0031B0  5006               	movf	___awmod@sign^(0+1280),w,c
  2602   0031B2  B4D8               	btfsc	status,2,c
  2603   0031B4  EFDE  F018         	goto	u961
  2604   0031B8  EFE0  F018         	goto	u960
  2605   0031BC                     u961:
  2606   0031BC  EFE4  F018         	goto	l2197
  2607   0031C0                     u960:
  2608   0031C0  6C01               	negf	___awmod@dividend^(0+1280),c
  2609   0031C2  1E02               	comf	(___awmod@dividend+1)^(0+1280),f,c
  2610   0031C4  B0D8               	btfsc	status,0,c
  2611   0031C6  2A02               	incf	(___awmod@dividend+1)^(0+1280),f,c
  2612   0031C8                     l2197:
  2613   0031C8  C501  F501         	movff	___awmod@dividend,?___awmod
  2614   0031CC  C502  F502         	movff	___awmod@dividend+1,?___awmod+1
  2615   0031D0  0012               	return		;funcret
  2616   0031D2                     __end_of___awmod:
  2617                           	callstack 0
  2618                           
  2619 ;; *************** function ___awdiv *****************
  2620 ;; Defined at:
  2621 ;;		line 7 in file "C:\Program Files\Microchip\xc8\v2.46\pic\sources\c99\common\awdiv.c"
  2622 ;; Parameters:    Size  Location     Type
  2623 ;;  dividend        2    6[COMRAM] int 
  2624 ;;  divisor         2    8[COMRAM] int 
  2625 ;; Auto vars:     Size  Location     Type
  2626 ;;  quotient        2   12[COMRAM] int 
  2627 ;;  sign            1   11[COMRAM] unsigned char 
  2628 ;;  counter         1   10[COMRAM] unsigned char 
  2629 ;; Return value:  Size  Location     Type
  2630 ;;                  2    6[COMRAM] int 
  2631 ;; Registers used:
  2632 ;;		wreg, status,2, status,0
  2633 ;; Tracked objects:
  2634 ;;		On entry : 0/0
  2635 ;;		On exit  : 0/0
  2636 ;;		Unchanged: 0/0
  2637 ;; Data sizes:     COMRAM   BANK5   BANK6   BANK7   BANK8   BANK9  BANK10  BANK11  BANK12  BANK13  BANK14  BANK15  BANK1
      +6  BANK17  BANK18  BANK19  BANK20  BANK21  BANK22  BANK23  BANK24  BANK25  BANK26  BANK27  BANK28  BANK29  BANK30  BANK3
      +1  BANK32  BANK33  BANK34  BANK35  BANK36
  2638 ;;      Params:         4       0       0       0       0       0       0       0       0       0       0       0       
      +0       0       0       0       0       0       0       0       0       0       0       0       0       0       0       
      +0       0       0       0       0       0
  2639 ;;      Locals:         4       0       0       0       0       0       0       0       0       0       0       0       
      +0       0       0       0       0       0       0       0       0       0       0       0       0       0       0       
      +0       0       0       0       0       0
  2640 ;;      Temps:          0       0       0       0       0       0       0       0       0       0       0       0       
      +0       0       0       0       0       0       0       0       0       0       0       0       0       0       0       
      +0       0       0       0       0       0
  2641 ;;      Totals:         8       0       0       0       0       0       0       0       0       0       0       0       
      +0       0       0       0       0       0       0       0       0       0       0       0       0       0       0       
      +0       0       0       0       0       0
  2642 ;;Total ram usage:        8 bytes
  2643 ;; Hardware stack levels used: 1
  2644 ;; Hardware stack levels required when called: 1
  2645 ;; This function calls:
  2646 ;;		Nothing
  2647 ;; This function is called by:
  2648 ;;		_decodificacion
  2649 ;;		_LCD_ESCRIBE_VAR_CHAR
  2650 ;; This function uses a non-reentrant model
  2651 ;;
  2652                           
  2653                           	psect	text5
  2654   00305E                     __ptext5:
  2655                           	callstack 0
  2656   00305E                     ___awdiv:
  2657                           	callstack 124
  2658   00305E  0E00               	movlw	0
  2659   003060  6E0C               	movwf	___awdiv@sign^(0+1280),c
  2660   003062  BE0A               	btfsc	(___awdiv@divisor+1)^(0+1280),7,c
  2661   003064  EF38  F018         	goto	u850
  2662   003068  EF36  F018         	goto	u851
  2663   00306C                     u851:
  2664   00306C  EF3E  F018         	goto	l2129
  2665   003070                     u850:
  2666   003070  6C09               	negf	___awdiv@divisor^(0+1280),c
  2667   003072  1E0A               	comf	(___awdiv@divisor+1)^(0+1280),f,c
  2668   003074  B0D8               	btfsc	status,0,c
  2669   003076  2A0A               	incf	(___awdiv@divisor+1)^(0+1280),f,c
  2670   003078  0E01               	movlw	1
  2671   00307A  6E0C               	movwf	___awdiv@sign^(0+1280),c
  2672   00307C                     l2129:
  2673   00307C  BE08               	btfsc	(___awdiv@dividend+1)^(0+1280),7,c
  2674   00307E  EF45  F018         	goto	u860
  2675   003082  EF43  F018         	goto	u861
  2676   003086                     u861:
  2677   003086  EF4B  F018         	goto	l2135
  2678   00308A                     u860:
  2679   00308A  6C07               	negf	___awdiv@dividend^(0+1280),c
  2680   00308C  1E08               	comf	(___awdiv@dividend+1)^(0+1280),f,c
  2681   00308E  B0D8               	btfsc	status,0,c
  2682   003090  2A08               	incf	(___awdiv@dividend+1)^(0+1280),f,c
  2683   003092  0E01               	movlw	1
  2684   003094  1A0C               	xorwf	___awdiv@sign^(0+1280),f,c
  2685   003096                     l2135:
  2686   003096  0E00               	movlw	0
  2687   003098  6E0E               	movwf	(___awdiv@quotient+1)^(0+1280),c
  2688   00309A  0E00               	movlw	0
  2689   00309C  6E0D               	movwf	___awdiv@quotient^(0+1280),c
  2690   00309E  5009               	movf	___awdiv@divisor^(0+1280),w,c
  2691   0030A0  100A               	iorwf	(___awdiv@divisor+1)^(0+1280),w,c
  2692   0030A2  B4D8               	btfsc	status,2,c
  2693   0030A4  EF56  F018         	goto	u871
  2694   0030A8  EF58  F018         	goto	u870
  2695   0030AC                     u871:
  2696   0030AC  EF80  F018         	goto	l2157
  2697   0030B0                     u870:
  2698   0030B0  0E01               	movlw	1
  2699   0030B2  6E0B               	movwf	___awdiv@counter^(0+1280),c
  2700   0030B4  EF60  F018         	goto	l2143
  2701   0030B8                     l2141:
  2702   0030B8  90D8               	bcf	status,0,c
  2703   0030BA  3609               	rlcf	___awdiv@divisor^(0+1280),f,c
  2704   0030BC  360A               	rlcf	(___awdiv@divisor+1)^(0+1280),f,c
  2705   0030BE  2A0B               	incf	___awdiv@counter^(0+1280),f,c
  2706   0030C0                     l2143:
  2707   0030C0  AE0A               	btfss	(___awdiv@divisor+1)^(0+1280),7,c
  2708   0030C2  EF65  F018         	goto	u881
  2709   0030C6  EF67  F018         	goto	u880
  2710   0030CA                     u881:
  2711   0030CA  EF5C  F018         	goto	l2141
  2712   0030CE                     u880:
  2713   0030CE                     l2145:
  2714   0030CE  90D8               	bcf	status,0,c
  2715   0030D0  360D               	rlcf	___awdiv@quotient^(0+1280),f,c
  2716   0030D2  360E               	rlcf	(___awdiv@quotient+1)^(0+1280),f,c
  2717   0030D4  5009               	movf	___awdiv@divisor^(0+1280),w,c
  2718   0030D6  5C07               	subwf	___awdiv@dividend^(0+1280),w,c
  2719   0030D8  500A               	movf	(___awdiv@divisor+1)^(0+1280),w,c
  2720   0030DA  5808               	subwfb	(___awdiv@dividend+1)^(0+1280),w,c
  2721   0030DC  A0D8               	btfss	status,0,c
  2722   0030DE  EF73  F018         	goto	u891
  2723   0030E2  EF75  F018         	goto	u890
  2724   0030E6                     u891:
  2725   0030E6  EF7A  F018         	goto	l2153
  2726   0030EA                     u890:
  2727   0030EA  5009               	movf	___awdiv@divisor^(0+1280),w,c
  2728   0030EC  5E07               	subwf	___awdiv@dividend^(0+1280),f,c
  2729   0030EE  500A               	movf	(___awdiv@divisor+1)^(0+1280),w,c
  2730   0030F0  5A08               	subwfb	(___awdiv@dividend+1)^(0+1280),f,c
  2731   0030F2  800D               	bsf	___awdiv@quotient^(0+1280),0,c
  2732   0030F4                     l2153:
  2733   0030F4  90D8               	bcf	status,0,c
  2734   0030F6  320A               	rrcf	(___awdiv@divisor+1)^(0+1280),f,c
  2735   0030F8  3209               	rrcf	___awdiv@divisor^(0+1280),f,c
  2736   0030FA  2E0B               	decfsz	___awdiv@counter^(0+1280),f,c
  2737   0030FC  EF67  F018         	goto	l2145
  2738   003100                     l2157:
  2739   003100  500C               	movf	___awdiv@sign^(0+1280),w,c
  2740   003102  B4D8               	btfsc	status,2,c
  2741   003104  EF86  F018         	goto	u901
  2742   003108  EF88  F018         	goto	u900
  2743   00310C                     u901:
  2744   00310C  EF8C  F018         	goto	l2161
  2745   003110                     u900:
  2746   003110  6C0D               	negf	___awdiv@quotient^(0+1280),c
  2747   003112  1E0E               	comf	(___awdiv@quotient+1)^(0+1280),f,c
  2748   003114  B0D8               	btfsc	status,0,c
  2749   003116  2A0E               	incf	(___awdiv@quotient+1)^(0+1280),f,c
  2750   003118                     l2161:
  2751   003118  C50D  F507         	movff	___awdiv@quotient,?___awdiv
  2752   00311C  C50E  F508         	movff	___awdiv@quotient+1,?___awdiv+1
  2753   003120  0012               	return		;funcret
  2754   003122                     __end_of___awdiv:
  2755                           	callstack 0
  2756                           
  2757 ;; *************** function _configuro *****************
  2758 ;; Defined at:
  2759 ;;		line 36 in file "maincode02.c"
  2760 ;; Parameters:    Size  Location     Type
  2761 ;;		None
  2762 ;; Auto vars:     Size  Location     Type
  2763 ;;		None
  2764 ;; Return value:  Size  Location     Type
  2765 ;;                  1    wreg      void 
  2766 ;; Registers used:
  2767 ;;		wreg, status,2, status,0, cstack
  2768 ;; Tracked objects:
  2769 ;;		On entry : 0/0
  2770 ;;		On exit  : 0/0
  2771 ;;		Unchanged: 0/0
  2772 ;; Data sizes:     COMRAM   BANK5   BANK6   BANK7   BANK8   BANK9  BANK10  BANK11  BANK12  BANK13  BANK14  BANK15  BANK1
      +6  BANK17  BANK18  BANK19  BANK20  BANK21  BANK22  BANK23  BANK24  BANK25  BANK26  BANK27  BANK28  BANK29  BANK30  BANK3
      +1  BANK32  BANK33  BANK34  BANK35  BANK36
  2773 ;;      Params:         0       0       0       0       0       0       0       0       0       0       0       0       
      +0       0       0       0       0       0       0       0       0       0       0       0       0       0       0       
      +0       0       0       0       0       0
  2774 ;;      Locals:         0       0       0       0       0       0       0       0       0       0       0       0       
      +0       0       0       0       0       0       0       0       0       0       0       0       0       0       0       
      +0       0       0       0       0       0
  2775 ;;      Temps:          2       0       0       0       0       0       0       0       0       0       0       0       
      +0       0       0       0       0       0       0       0       0       0       0       0       0       0       0       
      +0       0       0       0       0       0
  2776 ;;      Totals:         2       0       0       0       0       0       0       0       0       0       0       0       
      +0       0       0       0       0       0       0       0       0       0       0       0       0       0       0       
      +0       0       0       0       0       0
  2777 ;;Total ram usage:        2 bytes
  2778 ;; Hardware stack levels used: 1
  2779 ;; Hardware stack levels required when called: 5
  2780 ;; This function calls:
  2781 ;;		_LCD_INIT
  2782 ;;		_MAX7219_Init
  2783 ;;		_MAX7219_WriteData2
  2784 ;; This function is called by:
  2785 ;;		_main
  2786 ;; This function uses a non-reentrant model
  2787 ;;
  2788                           
  2789                           	psect	text6
  2790   0034DE                     __ptext6:
  2791                           	callstack 0
  2792   0034DE                     _configuro:
  2793                           	callstack 121
  2794   0034DE                     
  2795                           ;maincode02.c: 38:     OSCCON1 = 0x60;
  2796   0034DE  0E60               	movlw	96
  2797   0034E0  0100               	movlb	0	; () banked
  2798   0034E2  6FAD               	movwf	173,b	;volatile
  2799                           
  2800                           ;maincode02.c: 39:     OSCFRQ = 0x06;
  2801   0034E4  0E06               	movlw	6
  2802   0034E6  6FB1               	movwf	177,b	;volatile
  2803                           
  2804                           ;maincode02.c: 40:     OSCEN = 0x40;
  2805   0034E8  0E40               	movlw	64
  2806   0034EA  6FB3               	movwf	179,b	;volatile
  2807                           
  2808                           ;maincode02.c: 42:     T0CON1 = 0x4E;
  2809   0034EC  0E4E               	movlw	78
  2810   0034EE  0103               	movlb	3	; () banked
  2811   0034F0  6F1B               	movwf	27,b	;volatile
  2812                           
  2813                           ;maincode02.c: 43:     T0CON0 = 0x80;
  2814   0034F2  0E80               	movlw	128
  2815   0034F4  6F1A               	movwf	26,b	;volatile
  2816                           
  2817                           ;maincode02.c: 44:     TMR0H = 146;
  2818   0034F6  0E92               	movlw	146
  2819   0034F8  6F19               	movwf	25,b	;volatile
  2820   0034FA                     
  2821                           ; BSR set to: 3
  2822                           ;maincode02.c: 46:     PIE3bits.TMR0IE = 1;
  2823   0034FA  8EA1               	bsf	161,7,c	;volatile
  2824   0034FC                     
  2825                           ; BSR set to: 3
  2826                           ;maincode02.c: 47:     INTCON0bits.GIE = 1;
  2827   0034FC  8ED6               	bsf	214,7,c	;volatile
  2828   0034FE                     
  2829                           ; BSR set to: 3
  2830                           ;maincode02.c: 48:     PIR3bits.TMR0IF = 0;
  2831   0034FE  9EB1               	bcf	177,7,c	;volatile
  2832   003500                     
  2833                           ; BSR set to: 3
  2834                           ;maincode02.c: 50:     LCD_INIT();
  2835   003500  ECB6  F019         	call	_LCD_INIT	;wreg free
  2836   003504                     
  2837                           ;maincode02.c: 52:     MAX7219_Init();
  2838   003504  EC96  F01A         	call	_MAX7219_Init	;wreg free
  2839   003508                     
  2840                           ;maincode02.c: 53:     MAX7219_WriteData2(0x0A, 0x0F);
  2841   003508  0E0F               	movlw	15
  2842   00350A  6E01               	movwf	MAX7219_WriteData2@dato^(0+1280),c
  2843   00350C  0E0A               	movlw	10
  2844   00350E  ECE9  F018         	call	_MAX7219_WriteData2
  2845   003512                     
  2846                           ;maincode02.c: 54:     _delay((unsigned long)((100)*(32000000UL/4000.0)));
  2847   003512  0E05               	movlw	5
  2848   003514  6E08               	movwf	(??_configuro+1)^(0+1280),c
  2849   003516  0E0F               	movlw	15
  2850   003518  6E07               	movwf	??_configuro^(0+1280),c
  2851   00351A  0EF1               	movlw	241
  2852   00351C                     u1387:
  2853   00351C  2EE8               	decfsz	wreg,f,c
  2854   00351E  D7FE               	bra	u1387
  2855   003520  2E07               	decfsz	??_configuro^(0+1280),f,c
  2856   003522  D7FC               	bra	u1387
  2857   003524  2E08               	decfsz	(??_configuro+1)^(0+1280),f,c
  2858   003526  D7FA               	bra	u1387
  2859   003528  0000               	nop	
  2860   00352A  0012               	return		;funcret
  2861   00352C                     __end_of_configuro:
  2862                           	callstack 0
  2863                           
  2864 ;; *************** function _MAX7219_Init *****************
  2865 ;; Defined at:
  2866 ;;		line 11 in file "MAX7219.c"
  2867 ;; Parameters:    Size  Location     Type
  2868 ;;		None
  2869 ;; Auto vars:     Size  Location     Type
  2870 ;;		None
  2871 ;; Return value:  Size  Location     Type
  2872 ;;                  1    wreg      void 
  2873 ;; Registers used:
  2874 ;;		wreg, status,2, status,0, cstack
  2875 ;; Tracked objects:
  2876 ;;		On entry : 0/0
  2877 ;;		On exit  : 0/0
  2878 ;;		Unchanged: 0/0
  2879 ;; Data sizes:     COMRAM   BANK5   BANK6   BANK7   BANK8   BANK9  BANK10  BANK11  BANK12  BANK13  BANK14  BANK15  BANK1
      +6  BANK17  BANK18  BANK19  BANK20  BANK21  BANK22  BANK23  BANK24  BANK25  BANK26  BANK27  BANK28  BANK29  BANK30  BANK3
      +1  BANK32  BANK33  BANK34  BANK35  BANK36
  2880 ;;      Params:         0       0       0       0       0       0       0       0       0       0       0       0       
      +0       0       0       0       0       0       0       0       0       0       0       0       0       0       0       
      +0       0       0       0       0       0
  2881 ;;      Locals:         0       0       0       0       0       0       0       0       0       0       0       0       
      +0       0       0       0       0       0       0       0       0       0       0       0       0       0       0       
      +0       0       0       0       0       0
  2882 ;;      Temps:          0       0       0       0       0       0       0       0       0       0       0       0       
      +0       0       0       0       0       0       0       0       0       0       0       0       0       0       0       
      +0       0       0       0       0       0
  2883 ;;      Totals:         0       0       0       0       0       0       0       0       0       0       0       0       
      +0       0       0       0       0       0       0       0       0       0       0       0       0       0       0       
      +0       0       0       0       0       0
  2884 ;;Total ram usage:        0 bytes
  2885 ;; Hardware stack levels used: 1
  2886 ;; Hardware stack levels required when called: 2
  2887 ;; This function calls:
  2888 ;;		_MAX7219_WriteData2
  2889 ;; This function is called by:
  2890 ;;		_configuro
  2891 ;; This function uses a non-reentrant model
  2892 ;;
  2893                           
  2894                           	psect	text7
  2895   00352C                     __ptext7:
  2896                           	callstack 0
  2897   00352C                     _MAX7219_Init:
  2898                           	callstack 123
  2899   00352C                     
  2900                           ;MAX7219.c: 12:     TRISCbits.TRISC0 = 0;
  2901   00352C  90C8               	bcf	200,0,c	;volatile
  2902                           
  2903                           ;MAX7219.c: 13:     ANSELCbits.ANSELC0 = 0;
  2904   00352E  0104               	movlb	4	; () banked
  2905   003530  9110               	bcf	16,0,b	;volatile
  2906   003532                     
  2907                           ; BSR set to: 4
  2908                           ;MAX7219.c: 14:     TRISE = 0xFC;
  2909   003532  0EFC               	movlw	252
  2910   003534  6ECA               	movwf	202,c	;volatile
  2911                           
  2912                           ;MAX7219.c: 15:     ANSELE = 0xFC;
  2913   003536  0EFC               	movlw	252
  2914   003538  6F20               	movwf	32,b	;volatile
  2915   00353A                     
  2916                           ; BSR set to: 4
  2917                           ;MAX7219.c: 16:     MAX7219_WriteData2(0x0C, 0x00);
  2918   00353A  0E00               	movlw	0
  2919   00353C  6E01               	movwf	MAX7219_WriteData2@dato^(0+1280),c
  2920   00353E  0E0C               	movlw	12
  2921   003540  ECE9  F018         	call	_MAX7219_WriteData2
  2922   003544                     
  2923                           ;MAX7219.c: 17:     MAX7219_WriteData2(0x0F, 0x00);
  2924   003544  0E00               	movlw	0
  2925   003546  6E01               	movwf	MAX7219_WriteData2@dato^(0+1280),c
  2926   003548  0E0F               	movlw	15
  2927   00354A  ECE9  F018         	call	_MAX7219_WriteData2
  2928   00354E                     
  2929                           ;MAX7219.c: 18:     MAX7219_WriteData2(0x0A, 0x03);
  2930   00354E  0E03               	movlw	3
  2931   003550  6E01               	movwf	MAX7219_WriteData2@dato^(0+1280),c
  2932   003552  0E0A               	movlw	10
  2933   003554  ECE9  F018         	call	_MAX7219_WriteData2
  2934   003558                     
  2935                           ;MAX7219.c: 19:     MAX7219_WriteData2(0x0B, 0x07);
  2936   003558  0E07               	movlw	7
  2937   00355A  6E01               	movwf	MAX7219_WriteData2@dato^(0+1280),c
  2938   00355C  0E0B               	movlw	11
  2939   00355E  ECE9  F018         	call	_MAX7219_WriteData2
  2940   003562                     
  2941                           ;MAX7219.c: 20:     MAX7219_WriteData2(0x0C, 0x01);
  2942   003562  0E01               	movlw	1
  2943   003564  6E01               	movwf	MAX7219_WriteData2@dato^(0+1280),c
  2944   003566  0E0C               	movlw	12
  2945   003568  ECE9  F018         	call	_MAX7219_WriteData2
  2946   00356C                     
  2947                           ;MAX7219.c: 21:     MAX7219_WriteData2(0x09, 0x00);
  2948   00356C  0E00               	movlw	0
  2949   00356E  6E01               	movwf	MAX7219_WriteData2@dato^(0+1280),c
  2950   003570  0E09               	movlw	9
  2951   003572  ECE9  F018         	call	_MAX7219_WriteData2
  2952   003576  0012               	return		;funcret
  2953   003578                     __end_of_MAX7219_Init:
  2954                           	callstack 0
  2955                           
  2956 ;; *************** function _MAX7219_WriteData2 *****************
  2957 ;; Defined at:
  2958 ;;		line 58 in file "MAX7219.c"
  2959 ;; Parameters:    Size  Location     Type
  2960 ;;  comando         1    wreg     unsigned char 
  2961 ;;  dato            1    0[COMRAM] unsigned char 
  2962 ;; Auto vars:     Size  Location     Type
  2963 ;;  comando         1    3[COMRAM] unsigned char 
  2964 ;;  var_x           1    4[COMRAM] unsigned char 
  2965 ;; Return value:  Size  Location     Type
  2966 ;;                  1    wreg      void 
  2967 ;; Registers used:
  2968 ;;		wreg, status,2, status,0
  2969 ;; Tracked objects:
  2970 ;;		On entry : 0/0
  2971 ;;		On exit  : 0/0
  2972 ;;		Unchanged: 0/0
  2973 ;; Data sizes:     COMRAM   BANK5   BANK6   BANK7   BANK8   BANK9  BANK10  BANK11  BANK12  BANK13  BANK14  BANK15  BANK1
      +6  BANK17  BANK18  BANK19  BANK20  BANK21  BANK22  BANK23  BANK24  BANK25  BANK26  BANK27  BANK28  BANK29  BANK30  BANK3
      +1  BANK32  BANK33  BANK34  BANK35  BANK36
  2974 ;;      Params:         1       0       0       0       0       0       0       0       0       0       0       0       
      +0       0       0       0       0       0       0       0       0       0       0       0       0       0       0       
      +0       0       0       0       0       0
  2975 ;;      Locals:         2       0       0       0       0       0       0       0       0       0       0       0       
      +0       0       0       0       0       0       0       0       0       0       0       0       0       0       0       
      +0       0       0       0       0       0
  2976 ;;      Temps:          2       0       0       0       0       0       0       0       0       0       0       0       
      +0       0       0       0       0       0       0       0       0       0       0       0       0       0       0       
      +0       0       0       0       0       0
  2977 ;;      Totals:         5       0       0       0       0       0       0       0       0       0       0       0       
      +0       0       0       0       0       0       0       0       0       0       0       0       0       0       0       
      +0       0       0       0       0       0
  2978 ;;Total ram usage:        5 bytes
  2979 ;; Hardware stack levels used: 1
  2980 ;; Hardware stack levels required when called: 1
  2981 ;; This function calls:
  2982 ;;		Nothing
  2983 ;; This function is called by:
  2984 ;;		_MAX7219_Init
  2985 ;;		_configuro
  2986 ;;		_main
  2987 ;;		_MAX7219_WriteAll
  2988 ;; This function uses a non-reentrant model
  2989 ;;
  2990                           
  2991                           	psect	text8
  2992   0031D2                     __ptext8:
  2993                           	callstack 0
  2994   0031D2                     _MAX7219_WriteData2:
  2995                           	callstack 124
  2996                           
  2997                           ;incstack = 0
  2998                           ;MAX7219_WriteData2@comando stored from wreg
  2999   0031D2  6E04               	movwf	MAX7219_WriteData2@comando^(0+1280),c
  3000   0031D4                     
  3001                           ;MAX7219.c: 60:  unsigned char var_x;;MAX7219.c: 61:  LATCbits.LATC0 = 1;
  3002   0031D4  80C0               	bsf	192,0,c	;volatile
  3003                           
  3004                           ;MAX7219.c: 62:  LATEbits.LATE0 = 0;
  3005   0031D6  90C2               	bcf	194,0,c	;volatile
  3006                           
  3007                           ;MAX7219.c: 63:  LATEbits.LATE1 = 0;
  3008   0031D8  92C2               	bcf	194,1,c	;volatile
  3009                           
  3010                           ;MAX7219.c: 65:  LATCbits.LATC0 = 0;
  3011   0031DA  90C0               	bcf	192,0,c	;volatile
  3012   0031DC                     
  3013                           ;MAX7219.c: 67:  for(var_x=0;var_x<8;var_x++){
  3014   0031DC  0E00               	movlw	0
  3015   0031DE  6E05               	movwf	MAX7219_WriteData2@var_x^(0+1280),c
  3016   0031E0                     l190:
  3017                           
  3018                           ;MAX7219.c: 68:         LATEbits.LATE0 = 0;
  3019   0031E0  90C2               	bcf	194,0,c	;volatile
  3020   0031E2                     
  3021                           ;MAX7219.c: 69:   if(comando & (1<<(7-var_x))){
  3022   0031E2  5005               	movf	MAX7219_WriteData2@var_x^(0+1280),w,c
  3023   0031E4  0807               	sublw	7
  3024   0031E6  6E02               	movwf	??_MAX7219_WriteData2^(0+1280),c
  3025   0031E8  0E01               	movlw	1
  3026   0031EA  6E03               	movwf	(??_MAX7219_WriteData2+1)^(0+1280),c
  3027   0031EC  2A02               	incf	??_MAX7219_WriteData2^(0+1280),f,c
  3028   0031EE  EFFB  F018         	goto	u784
  3029   0031F2                     u785:
  3030   0031F2  90D8               	bcf	status,0,c
  3031   0031F4  3603               	rlcf	(??_MAX7219_WriteData2+1)^(0+1280),f,c
  3032   0031F6                     u784:
  3033   0031F6  2E02               	decfsz	??_MAX7219_WriteData2^(0+1280),f,c
  3034   0031F8  EFF9  F018         	goto	u785
  3035   0031FC  5003               	movf	(??_MAX7219_WriteData2+1)^(0+1280),w,c
  3036   0031FE  1404               	andwf	MAX7219_WriteData2@comando^(0+1280),w,c
  3037   003200  0900               	iorlw	0
  3038   003202  B4D8               	btfsc	status,2,c
  3039   003204  EF06  F019         	goto	u791
  3040   003208  EF08  F019         	goto	u790
  3041   00320C                     u791:
  3042   00320C  EF0B  F019         	goto	l192
  3043   003210                     u790:
  3044   003210                     
  3045                           ;MAX7219.c: 70:    LATEbits.LATE1 = 1;
  3046   003210  82C2               	bsf	194,1,c	;volatile
  3047                           
  3048                           ;MAX7219.c: 71:   }
  3049   003212  EF0C  F019         	goto	l193
  3050   003216                     l192:
  3051                           
  3052                           ;MAX7219.c: 73:    LATEbits.LATE1 = 0;
  3053   003216  92C2               	bcf	194,1,c	;volatile
  3054   003218                     l193:
  3055                           
  3056                           ;MAX7219.c: 75:   LATEbits.LATE0 = 1;
  3057   003218  80C2               	bsf	194,0,c	;volatile
  3058   00321A                     
  3059                           ;MAX7219.c: 76:  }
  3060   00321A  2A05               	incf	MAX7219_WriteData2@var_x^(0+1280),f,c
  3061   00321C  0E07               	movlw	7
  3062   00321E  6405               	cpfsgt	MAX7219_WriteData2@var_x^(0+1280),c
  3063   003220  EF14  F019         	goto	u801
  3064   003224  EF16  F019         	goto	u800
  3065   003228                     u801:
  3066   003228  EFF0  F018         	goto	l190
  3067   00322C                     u800:
  3068   00322C                     
  3069                           ;MAX7219.c: 79:  for(var_x=0;var_x<8;var_x++){
  3070   00322C  0E00               	movlw	0
  3071   00322E  6E05               	movwf	MAX7219_WriteData2@var_x^(0+1280),c
  3072   003230                     l194:
  3073                           
  3074                           ;MAX7219.c: 80:   LATEbits.LATE0 = 0;
  3075   003230  90C2               	bcf	194,0,c	;volatile
  3076   003232                     
  3077                           ;MAX7219.c: 81:   if(dato & (1<<(7-var_x))){
  3078   003232  5005               	movf	MAX7219_WriteData2@var_x^(0+1280),w,c
  3079   003234  0807               	sublw	7
  3080   003236  6E02               	movwf	??_MAX7219_WriteData2^(0+1280),c
  3081   003238  0E01               	movlw	1
  3082   00323A  6E03               	movwf	(??_MAX7219_WriteData2+1)^(0+1280),c
  3083   00323C  2A02               	incf	??_MAX7219_WriteData2^(0+1280),f,c
  3084   00323E  EF23  F019         	goto	u814
  3085   003242                     u815:
  3086   003242  90D8               	bcf	status,0,c
  3087   003244  3603               	rlcf	(??_MAX7219_WriteData2+1)^(0+1280),f,c
  3088   003246                     u814:
  3089   003246  2E02               	decfsz	??_MAX7219_WriteData2^(0+1280),f,c
  3090   003248  EF21  F019         	goto	u815
  3091   00324C  5003               	movf	(??_MAX7219_WriteData2+1)^(0+1280),w,c
  3092   00324E  1401               	andwf	MAX7219_WriteData2@dato^(0+1280),w,c
  3093   003250  0900               	iorlw	0
  3094   003252  B4D8               	btfsc	status,2,c
  3095   003254  EF2E  F019         	goto	u821
  3096   003258  EF30  F019         	goto	u820
  3097   00325C                     u821:
  3098   00325C  EF33  F019         	goto	l196
  3099   003260                     u820:
  3100   003260                     
  3101                           ;MAX7219.c: 82:    LATEbits.LATE1 = 1;
  3102   003260  82C2               	bsf	194,1,c	;volatile
  3103                           
  3104                           ;MAX7219.c: 83:   }
  3105   003262  EF34  F019         	goto	l197
  3106   003266                     l196:
  3107                           
  3108                           ;MAX7219.c: 85:    LATEbits.LATE1 = 0;
  3109   003266  92C2               	bcf	194,1,c	;volatile
  3110   003268                     l197:
  3111                           
  3112                           ;MAX7219.c: 87:   LATEbits.LATE0 = 1;
  3113   003268  80C2               	bsf	194,0,c	;volatile
  3114   00326A                     
  3115                           ;MAX7219.c: 88:  }
  3116   00326A  2A05               	incf	MAX7219_WriteData2@var_x^(0+1280),f,c
  3117   00326C  0E07               	movlw	7
  3118   00326E  6405               	cpfsgt	MAX7219_WriteData2@var_x^(0+1280),c
  3119   003270  EF3C  F019         	goto	u831
  3120   003274  EF3E  F019         	goto	u830
  3121   003278                     u831:
  3122   003278  EF18  F019         	goto	l194
  3123   00327C                     u830:
  3124   00327C                     
  3125                           ;MAX7219.c: 89:  LATCbits.LATC0 = 1;
  3126   00327C  80C0               	bsf	192,0,c	;volatile
  3127   00327E  0012               	return		;funcret
  3128   003280                     __end_of_MAX7219_WriteData2:
  3129                           	callstack 0
  3130                           
  3131 ;; *************** function _LCD_INIT *****************
  3132 ;; Defined at:
  3133 ;;		line 182 in file "LCD.c"
  3134 ;; Parameters:    Size  Location     Type
  3135 ;;		None
  3136 ;; Auto vars:     Size  Location     Type
  3137 ;;		None
  3138 ;; Return value:  Size  Location     Type
  3139 ;;                  1    wreg      void 
  3140 ;; Registers used:
  3141 ;;		wreg, status,2, status,0, cstack
  3142 ;; Tracked objects:
  3143 ;;		On entry : 0/0
  3144 ;;		On exit  : 0/0
  3145 ;;		Unchanged: 0/0
  3146 ;; Data sizes:     COMRAM   BANK5   BANK6   BANK7   BANK8   BANK9  BANK10  BANK11  BANK12  BANK13  BANK14  BANK15  BANK1
      +6  BANK17  BANK18  BANK19  BANK20  BANK21  BANK22  BANK23  BANK24  BANK25  BANK26  BANK27  BANK28  BANK29  BANK30  BANK3
      +1  BANK32  BANK33  BANK34  BANK35  BANK36
  3147 ;;      Params:         0       0       0       0       0       0       0       0       0       0       0       0       
      +0       0       0       0       0       0       0       0       0       0       0       0       0       0       0       
      +0       0       0       0       0       0
  3148 ;;      Locals:         0       0       0       0       0       0       0       0       0       0       0       0       
      +0       0       0       0       0       0       0       0       0       0       0       0       0       0       0       
      +0       0       0       0       0       0
  3149 ;;      Temps:          2       0       0       0       0       0       0       0       0       0       0       0       
      +0       0       0       0       0       0       0       0       0       0       0       0       0       0       0       
      +0       0       0       0       0       0
  3150 ;;      Totals:         2       0       0       0       0       0       0       0       0       0       0       0       
      +0       0       0       0       0       0       0       0       0       0       0       0       0       0       0       
      +0       0       0       0       0       0
  3151 ;;Total ram usage:        2 bytes
  3152 ;; Hardware stack levels used: 1
  3153 ;; Hardware stack levels required when called: 4
  3154 ;; This function calls:
  3155 ;;		_BORRAR_LCD
  3156 ;;		_CURSOR_HOME
  3157 ;;		_CURSOR_ONOFF
  3158 ;;		_LCD_CONFIG
  3159 ;; This function is called by:
  3160 ;;		_configuro
  3161 ;; This function uses a non-reentrant model
  3162 ;;
  3163                           
  3164                           	psect	text9
  3165   00336C                     __ptext9:
  3166                           	callstack 0
  3167   00336C                     _LCD_INIT:
  3168                           	callstack 121
  3169   00336C                     
  3170                           ;LCD.c: 183:     _delay((unsigned long)((500)*(32000000UL/4000.0)));
  3171   00336C  0E15               	movlw	21
  3172   00336E  6E06               	movwf	(??_LCD_INIT+1)^(0+1280),c
  3173   003370  0E4B               	movlw	75
  3174   003372  6E05               	movwf	??_LCD_INIT^(0+1280),c
  3175   003374  0EBE               	movlw	190
  3176   003376                     u1397:
  3177   003376  2EE8               	decfsz	wreg,f,c
  3178   003378  D7FE               	bra	u1397
  3179   00337A  2E05               	decfsz	??_LCD_INIT^(0+1280),f,c
  3180   00337C  D7FC               	bra	u1397
  3181   00337E  2E06               	decfsz	(??_LCD_INIT+1)^(0+1280),f,c
  3182   003380  D7FA               	bra	u1397
  3183   003382  D000               	nop2	
  3184   003384                     
  3185                           ;LCD.c: 184:     TRISD = 0x00;
  3186   003384  0E00               	movlw	0
  3187   003386  6EC9               	movwf	201,c	;volatile
  3188   003388                     
  3189                           ;LCD.c: 185:     ANSELD = 0x00;
  3190   003388  0E00               	movlw	0
  3191   00338A  0104               	movlb	4	; () banked
  3192   00338C  6F18               	movwf	24,b	;volatile
  3193                           
  3194                           ;LCD.c: 186:     _delay((unsigned long)((30)*(32000000UL/4000.0)));
  3195   00338E  0E02               	movlw	2
  3196   003390  6E06               	movwf	(??_LCD_INIT+1)^(0+1280),c
  3197   003392  0E38               	movlw	56
  3198   003394  6E05               	movwf	??_LCD_INIT^(0+1280),c
  3199   003396  0EAD               	movlw	173
  3200   003398                     u1407:
  3201   003398  2EE8               	decfsz	wreg,f,c
  3202   00339A  D7FE               	bra	u1407
  3203   00339C  2E05               	decfsz	??_LCD_INIT^(0+1280),f,c
  3204   00339E  D7FC               	bra	u1407
  3205   0033A0  2E06               	decfsz	(??_LCD_INIT+1)^(0+1280),f,c
  3206   0033A2  D7FA               	bra	u1407
  3207   0033A4  0000               	nop	
  3208   0033A6                     
  3209                           ;LCD.c: 187:     LCD_CONFIG();
  3210   0033A6  EC46  F01A         	call	_LCD_CONFIG	;wreg free
  3211   0033AA                     
  3212                           ;LCD.c: 188:     _delay((unsigned long)((30)*(32000000UL/4000.0)));
  3213   0033AA  0E02               	movlw	2
  3214   0033AC  6E06               	movwf	(??_LCD_INIT+1)^(0+1280),c
  3215   0033AE  0E38               	movlw	56
  3216   0033B0  6E05               	movwf	??_LCD_INIT^(0+1280),c
  3217   0033B2  0EAD               	movlw	173
  3218   0033B4                     u1417:
  3219   0033B4  2EE8               	decfsz	wreg,f,c
  3220   0033B6  D7FE               	bra	u1417
  3221   0033B8  2E05               	decfsz	??_LCD_INIT^(0+1280),f,c
  3222   0033BA  D7FC               	bra	u1417
  3223   0033BC  2E06               	decfsz	(??_LCD_INIT+1)^(0+1280),f,c
  3224   0033BE  D7FA               	bra	u1417
  3225   0033C0  0000               	nop	
  3226                           
  3227                           ;LCD.c: 189:     BORRAR_LCD();
  3228   0033C2  ECA2  F01B         	call	_BORRAR_LCD	;wreg free
  3229                           
  3230                           ;LCD.c: 190:     CURSOR_HOME();
  3231   0033C6  EC9E  F01B         	call	_CURSOR_HOME	;wreg free
  3232                           
  3233                           ;LCD.c: 191:     CURSOR_ONOFF(1);
  3234   0033CA  0E01               	movlw	1
  3235   0033CC  EC68  F01B         	call	_CURSOR_ONOFF
  3236   0033D0  0012               	return		;funcret
  3237   0033D2                     __end_of_LCD_INIT:
  3238                           	callstack 0
  3239                           
  3240 ;; *************** function _LCD_CONFIG *****************
  3241 ;; Defined at:
  3242 ;;		line 94 in file "LCD.c"
  3243 ;; Parameters:    Size  Location     Type
  3244 ;;		None
  3245 ;; Auto vars:     Size  Location     Type
  3246 ;;		None
  3247 ;; Return value:  Size  Location     Type
  3248 ;;                  1    wreg      void 
  3249 ;; Registers used:
  3250 ;;		wreg, status,2, status,0, cstack
  3251 ;; Tracked objects:
  3252 ;;		On entry : 0/0
  3253 ;;		On exit  : 0/0
  3254 ;;		Unchanged: 0/0
  3255 ;; Data sizes:     COMRAM   BANK5   BANK6   BANK7   BANK8   BANK9  BANK10  BANK11  BANK12  BANK13  BANK14  BANK15  BANK1
      +6  BANK17  BANK18  BANK19  BANK20  BANK21  BANK22  BANK23  BANK24  BANK25  BANK26  BANK27  BANK28  BANK29  BANK30  BANK3
      +1  BANK32  BANK33  BANK34  BANK35  BANK36
  3256 ;;      Params:         0       0       0       0       0       0       0       0       0       0       0       0       
      +0       0       0       0       0       0       0       0       0       0       0       0       0       0       0       
      +0       0       0       0       0       0
  3257 ;;      Locals:         0       0       0       0       0       0       0       0       0       0       0       0       
      +0       0       0       0       0       0       0       0       0       0       0       0       0       0       0       
      +0       0       0       0       0       0
  3258 ;;      Temps:          1       0       0       0       0       0       0       0       0       0       0       0       
      +0       0       0       0       0       0       0       0       0       0       0       0       0       0       0       
      +0       0       0       0       0       0
  3259 ;;      Totals:         1       0       0       0       0       0       0       0       0       0       0       0       
      +0       0       0       0       0       0       0       0       0       0       0       0       0       0       0       
      +0       0       0       0       0       0
  3260 ;;Total ram usage:        1 bytes
  3261 ;; Hardware stack levels used: 1
  3262 ;; Hardware stack levels required when called: 3
  3263 ;; This function calls:
  3264 ;;		_ENVIA_LCD_CMD
  3265 ;;		_ENVIA_NIBBLE
  3266 ;; This function is called by:
  3267 ;;		_LCD_INIT
  3268 ;; This function uses a non-reentrant model
  3269 ;;
  3270                           
  3271                           	psect	text10
  3272   00348C                     __ptext10:
  3273                           	callstack 0
  3274   00348C                     _LCD_CONFIG:
  3275                           	callstack 121
  3276   00348C                     
  3277                           ;LCD.c: 96:  LATDbits.LATD0 = 0;
  3278   00348C  90C1               	bcf	193,0,c	;volatile
  3279                           
  3280                           ;LCD.c: 97:  LATDbits.LATD1 = 0;
  3281   00348E  92C1               	bcf	193,1,c	;volatile
  3282   003490                     
  3283                           ;LCD.c: 98:  ENVIA_NIBBLE(0x30);
  3284   003490  0E30               	movlw	48
  3285   003492  EC90  F01B         	call	_ENVIA_NIBBLE
  3286   003496                     
  3287                           ;LCD.c: 99:     _delay((unsigned long)((3)*(32000000UL/4000.0)));
  3288   003496  0E20               	movlw	32
  3289   003498  6E04               	movwf	??_LCD_CONFIG^(0+1280),c
  3290   00349A  0E2A               	movlw	42
  3291   00349C                     u1427:
  3292   00349C  2EE8               	decfsz	wreg,f,c
  3293   00349E  D7FE               	bra	u1427
  3294   0034A0  2E04               	decfsz	??_LCD_CONFIG^(0+1280),f,c
  3295   0034A2  D7FC               	bra	u1427
  3296   0034A4                     
  3297                           ;LCD.c: 100:  ENVIA_NIBBLE(0x30);
  3298   0034A4  0E30               	movlw	48
  3299   0034A6  EC90  F01B         	call	_ENVIA_NIBBLE
  3300                           
  3301                           ;LCD.c: 102:  _delay((unsigned long)((100)*(32000000UL/4000000.0)));
  3302   0034AA  0EA0               	movlw	160
  3303   0034AC                     u1437:
  3304   0034AC  D000               	nop2	
  3305   0034AE  2EE8               	decfsz	wreg,f,c
  3306   0034B0  D7FD               	bra	u1437
  3307   0034B2                     
  3308                           ;LCD.c: 103:     ENVIA_NIBBLE(0x30);
  3309   0034B2  0E30               	movlw	48
  3310   0034B4  EC90  F01B         	call	_ENVIA_NIBBLE
  3311   0034B8                     
  3312                           ;LCD.c: 104:  ENVIA_NIBBLE(0x20);
  3313   0034B8  0E20               	movlw	32
  3314   0034BA  EC90  F01B         	call	_ENVIA_NIBBLE
  3315   0034BE                     
  3316                           ;LCD.c: 105:  ENVIA_LCD_CMD(0x01);
  3317   0034BE  0E01               	movlw	1
  3318   0034C0  EC35  F01B         	call	_ENVIA_LCD_CMD
  3319   0034C4                     
  3320                           ;LCD.c: 106:  ENVIA_LCD_CMD(0x28);
  3321   0034C4  0E28               	movlw	40
  3322   0034C6  EC35  F01B         	call	_ENVIA_LCD_CMD
  3323   0034CA                     
  3324                           ;LCD.c: 107:  ENVIA_LCD_CMD(0x0F);
  3325   0034CA  0E0F               	movlw	15
  3326   0034CC  EC35  F01B         	call	_ENVIA_LCD_CMD
  3327   0034D0                     
  3328                           ;LCD.c: 108:  ENVIA_LCD_CMD(0x06);
  3329   0034D0  0E06               	movlw	6
  3330   0034D2  EC35  F01B         	call	_ENVIA_LCD_CMD
  3331   0034D6                     
  3332                           ;LCD.c: 109:  ENVIA_LCD_CMD(0x01);
  3333   0034D6  0E01               	movlw	1
  3334   0034D8  EC35  F01B         	call	_ENVIA_LCD_CMD
  3335   0034DC  0012               	return		;funcret
  3336   0034DE                     __end_of_LCD_CONFIG:
  3337                           	callstack 0
  3338                           
  3339 ;; *************** function _CURSOR_ONOFF *****************
  3340 ;; Defined at:
  3341 ;;		line 54 in file "LCD.c"
  3342 ;; Parameters:    Size  Location     Type
  3343 ;;  estado          1    wreg     unsigned char 
  3344 ;; Auto vars:     Size  Location     Type
  3345 ;;  estado          1    3[COMRAM] unsigned char 
  3346 ;; Return value:  Size  Location     Type
  3347 ;;                  1    wreg      void 
  3348 ;; Registers used:
  3349 ;;		wreg, status,2, status,0, cstack
  3350 ;; Tracked objects:
  3351 ;;		On entry : 0/0
  3352 ;;		On exit  : 0/0
  3353 ;;		Unchanged: 0/0
  3354 ;; Data sizes:     COMRAM   BANK5   BANK6   BANK7   BANK8   BANK9  BANK10  BANK11  BANK12  BANK13  BANK14  BANK15  BANK1
      +6  BANK17  BANK18  BANK19  BANK20  BANK21  BANK22  BANK23  BANK24  BANK25  BANK26  BANK27  BANK28  BANK29  BANK30  BANK3
      +1  BANK32  BANK33  BANK34  BANK35  BANK36
  3355 ;;      Params:         0       0       0       0       0       0       0       0       0       0       0       0       
      +0       0       0       0       0       0       0       0       0       0       0       0       0       0       0       
      +0       0       0       0       0       0
  3356 ;;      Locals:         1       0       0       0       0       0       0       0       0       0       0       0       
      +0       0       0       0       0       0       0       0       0       0       0       0       0       0       0       
      +0       0       0       0       0       0
  3357 ;;      Temps:          0       0       0       0       0       0       0       0       0       0       0       0       
      +0       0       0       0       0       0       0       0       0       0       0       0       0       0       0       
      +0       0       0       0       0       0
  3358 ;;      Totals:         1       0       0       0       0       0       0       0       0       0       0       0       
      +0       0       0       0       0       0       0       0       0       0       0       0       0       0       0       
      +0       0       0       0       0       0
  3359 ;;Total ram usage:        1 bytes
  3360 ;; Hardware stack levels used: 1
  3361 ;; Hardware stack levels required when called: 3
  3362 ;; This function calls:
  3363 ;;		_ENVIA_LCD_CMD
  3364 ;; This function is called by:
  3365 ;;		_LCD_INIT
  3366 ;; This function uses a non-reentrant model
  3367 ;;
  3368                           
  3369                           	psect	text11
  3370   0036D0                     __ptext11:
  3371                           	callstack 0
  3372   0036D0                     _CURSOR_ONOFF:
  3373                           	callstack 121
  3374                           
  3375                           ;incstack = 0
  3376                           ;CURSOR_ONOFF@estado stored from wreg
  3377   0036D0  6E04               	movwf	CURSOR_ONOFF@estado^(0+1280),c
  3378   0036D2                     
  3379                           ;LCD.c: 55:  if(estado == 0) ENVIA_LCD_CMD(0x0E);
  3380   0036D2  5004               	movf	CURSOR_ONOFF@estado^(0+1280),w,c
  3381   0036D4  A4D8               	btfss	status,2,c
  3382   0036D6  EF6F  F01B         	goto	u21
  3383   0036DA  EF71  F01B         	goto	u20
  3384   0036DE                     u21:
  3385   0036DE  EF74  F01B         	goto	l1181
  3386   0036E2                     u20:
  3387   0036E2  0E0E               	movlw	14
  3388   0036E4  EC35  F01B         	call	_ENVIA_LCD_CMD
  3389   0036E8                     l1181:
  3390                           
  3391                           ;LCD.c: 56:  if(estado == 1) ENVIA_LCD_CMD(0x0C);
  3392   0036E8  0404               	decf	CURSOR_ONOFF@estado^(0+1280),w,c
  3393   0036EA  A4D8               	btfss	status,2,c
  3394   0036EC  EF7A  F01B         	goto	u31
  3395   0036F0  EF7C  F01B         	goto	u30
  3396   0036F4                     u31:
  3397   0036F4  EF7F  F01B         	goto	l62
  3398   0036F8                     u30:
  3399   0036F8  0E0C               	movlw	12
  3400   0036FA  EC35  F01B         	call	_ENVIA_LCD_CMD
  3401   0036FE                     l62:
  3402   0036FE  0012               	return		;funcret
  3403   003700                     __end_of_CURSOR_ONOFF:
  3404                           	callstack 0
  3405                           
  3406 ;; *************** function _CURSOR_HOME *****************
  3407 ;; Defined at:
  3408 ;;		line 34 in file "LCD.c"
  3409 ;; Parameters:    Size  Location     Type
  3410 ;;		None
  3411 ;; Auto vars:     Size  Location     Type
  3412 ;;		None
  3413 ;; Return value:  Size  Location     Type
  3414 ;;                  1    wreg      void 
  3415 ;; Registers used:
  3416 ;;		wreg, status,2, status,0, cstack
  3417 ;; Tracked objects:
  3418 ;;		On entry : 0/0
  3419 ;;		On exit  : 0/0
  3420 ;;		Unchanged: 0/0
  3421 ;; Data sizes:     COMRAM   BANK5   BANK6   BANK7   BANK8   BANK9  BANK10  BANK11  BANK12  BANK13  BANK14  BANK15  BANK1
      +6  BANK17  BANK18  BANK19  BANK20  BANK21  BANK22  BANK23  BANK24  BANK25  BANK26  BANK27  BANK28  BANK29  BANK30  BANK3
      +1  BANK32  BANK33  BANK34  BANK35  BANK36
  3422 ;;      Params:         0       0       0       0       0       0       0       0       0       0       0       0       
      +0       0       0       0       0       0       0       0       0       0       0       0       0       0       0       
      +0       0       0       0       0       0
  3423 ;;      Locals:         0       0       0       0       0       0       0       0       0       0       0       0       
      +0       0       0       0       0       0       0       0       0       0       0       0       0       0       0       
      +0       0       0       0       0       0
  3424 ;;      Temps:          0       0       0       0       0       0       0       0       0       0       0       0       
      +0       0       0       0       0       0       0       0       0       0       0       0       0       0       0       
      +0       0       0       0       0       0
  3425 ;;      Totals:         0       0       0       0       0       0       0       0       0       0       0       0       
      +0       0       0       0       0       0       0       0       0       0       0       0       0       0       0       
      +0       0       0       0       0       0
  3426 ;;Total ram usage:        0 bytes
  3427 ;; Hardware stack levels used: 1
  3428 ;; Hardware stack levels required when called: 3
  3429 ;; This function calls:
  3430 ;;		_ENVIA_LCD_CMD
  3431 ;; This function is called by:
  3432 ;;		_LCD_INIT
  3433 ;; This function uses a non-reentrant model
  3434 ;;
  3435                           
  3436                           	psect	text12
  3437   00373C                     __ptext12:
  3438                           	callstack 0
  3439   00373C                     _CURSOR_HOME:
  3440                           	callstack 121
  3441   00373C                     
  3442                           ;LCD.c: 35:  ENVIA_LCD_CMD(0x02);
  3443   00373C  0E02               	movlw	2
  3444   00373E  EC35  F01B         	call	_ENVIA_LCD_CMD
  3445   003742  0012               	return		;funcret
  3446   003744                     __end_of_CURSOR_HOME:
  3447                           	callstack 0
  3448                           
  3449 ;; *************** function _BORRAR_LCD *****************
  3450 ;; Defined at:
  3451 ;;		line 90 in file "LCD.c"
  3452 ;; Parameters:    Size  Location     Type
  3453 ;;		None
  3454 ;; Auto vars:     Size  Location     Type
  3455 ;;		None
  3456 ;; Return value:  Size  Location     Type
  3457 ;;                  1    wreg      void 
  3458 ;; Registers used:
  3459 ;;		wreg, status,2, status,0, cstack
  3460 ;; Tracked objects:
  3461 ;;		On entry : 0/0
  3462 ;;		On exit  : 0/0
  3463 ;;		Unchanged: 0/0
  3464 ;; Data sizes:     COMRAM   BANK5   BANK6   BANK7   BANK8   BANK9  BANK10  BANK11  BANK12  BANK13  BANK14  BANK15  BANK1
      +6  BANK17  BANK18  BANK19  BANK20  BANK21  BANK22  BANK23  BANK24  BANK25  BANK26  BANK27  BANK28  BANK29  BANK30  BANK3
      +1  BANK32  BANK33  BANK34  BANK35  BANK36
  3465 ;;      Params:         0       0       0       0       0       0       0       0       0       0       0       0       
      +0       0       0       0       0       0       0       0       0       0       0       0       0       0       0       
      +0       0       0       0       0       0
  3466 ;;      Locals:         0       0       0       0       0       0       0       0       0       0       0       0       
      +0       0       0       0       0       0       0       0       0       0       0       0       0       0       0       
      +0       0       0       0       0       0
  3467 ;;      Temps:          0       0       0       0       0       0       0       0       0       0       0       0       
      +0       0       0       0       0       0       0       0       0       0       0       0       0       0       0       
      +0       0       0       0       0       0
  3468 ;;      Totals:         0       0       0       0       0       0       0       0       0       0       0       0       
      +0       0       0       0       0       0       0       0       0       0       0       0       0       0       0       
      +0       0       0       0       0       0
  3469 ;;Total ram usage:        0 bytes
  3470 ;; Hardware stack levels used: 1
  3471 ;; Hardware stack levels required when called: 3
  3472 ;; This function calls:
  3473 ;;		_ENVIA_LCD_CMD
  3474 ;; This function is called by:
  3475 ;;		_LCD_INIT
  3476 ;; This function uses a non-reentrant model
  3477 ;;
  3478                           
  3479                           	psect	text13
  3480   003744                     __ptext13:
  3481                           	callstack 0
  3482   003744                     _BORRAR_LCD:
  3483                           	callstack 121
  3484   003744                     
  3485                           ;LCD.c: 91:  ENVIA_LCD_CMD(0x01);
  3486   003744  0E01               	movlw	1
  3487   003746  EC35  F01B         	call	_ENVIA_LCD_CMD
  3488   00374A  0012               	return		;funcret
  3489   00374C                     __end_of_BORRAR_LCD:
  3490                           	callstack 0
  3491                           
  3492 ;; *************** function _POS_CURSOR *****************
  3493 ;; Defined at:
  3494 ;;		line 9 in file "LCD.c"
  3495 ;; Parameters:    Size  Location     Type
  3496 ;;  fila            1    wreg     unsigned char 
  3497 ;;  columna         1    3[COMRAM] unsigned char 
  3498 ;; Auto vars:     Size  Location     Type
  3499 ;;  fila            1    4[COMRAM] unsigned char 
  3500 ;; Return value:  Size  Location     Type
  3501 ;;                  1    wreg      void 
  3502 ;; Registers used:
  3503 ;;		wreg, status,2, status,0, cstack
  3504 ;; Tracked objects:
  3505 ;;		On entry : 0/0
  3506 ;;		On exit  : 0/0
  3507 ;;		Unchanged: 0/0
  3508 ;; Data sizes:     COMRAM   BANK5   BANK6   BANK7   BANK8   BANK9  BANK10  BANK11  BANK12  BANK13  BANK14  BANK15  BANK1
      +6  BANK17  BANK18  BANK19  BANK20  BANK21  BANK22  BANK23  BANK24  BANK25  BANK26  BANK27  BANK28  BANK29  BANK30  BANK3
      +1  BANK32  BANK33  BANK34  BANK35  BANK36
  3509 ;;      Params:         1       0       0       0       0       0       0       0       0       0       0       0       
      +0       0       0       0       0       0       0       0       0       0       0       0       0       0       0       
      +0       0       0       0       0       0
  3510 ;;      Locals:         1       0       0       0       0       0       0       0       0       0       0       0       
      +0       0       0       0       0       0       0       0       0       0       0       0       0       0       0       
      +0       0       0       0       0       0
  3511 ;;      Temps:          0       0       0       0       0       0       0       0       0       0       0       0       
      +0       0       0       0       0       0       0       0       0       0       0       0       0       0       0       
      +0       0       0       0       0       0
  3512 ;;      Totals:         2       0       0       0       0       0       0       0       0       0       0       0       
      +0       0       0       0       0       0       0       0       0       0       0       0       0       0       0       
      +0       0       0       0       0       0
  3513 ;;Total ram usage:        2 bytes
  3514 ;; Hardware stack levels used: 1
  3515 ;; Hardware stack levels required when called: 3
  3516 ;; This function calls:
  3517 ;;		_ENVIA_LCD_CMD
  3518 ;; This function is called by:
  3519 ;;		_main
  3520 ;; This function uses a non-reentrant model
  3521 ;;
  3522                           
  3523                           	psect	text14
  3524   003280                     __ptext14:
  3525                           	callstack 0
  3526   003280                     _POS_CURSOR:
  3527                           	callstack 123
  3528                           
  3529                           ;incstack = 0
  3530                           ;POS_CURSOR@fila stored from wreg
  3531   003280  6E05               	movwf	POS_CURSOR@fila^(0+1280),c
  3532   003282                     
  3533                           ;LCD.c: 10:  if(fila == 1){
  3534   003282  0405               	decf	POS_CURSOR@fila^(0+1280),w,c
  3535   003284  A4D8               	btfss	status,2,c
  3536   003286  EF47  F019         	goto	u971
  3537   00328A  EF49  F019         	goto	u970
  3538   00328E                     u971:
  3539   00328E  EF4F  F019         	goto	l2205
  3540   003292                     u970:
  3541   003292                     
  3542                           ;LCD.c: 11:   ENVIA_LCD_CMD(0x80+columna);
  3543   003292  5004               	movf	POS_CURSOR@columna^(0+1280),w,c
  3544   003294  0F80               	addlw	128
  3545   003296  EC35  F01B         	call	_ENVIA_LCD_CMD
  3546                           
  3547                           ;LCD.c: 12:  }
  3548   00329A  EF7C  F019         	goto	l32
  3549   00329E                     l2205:
  3550   00329E  0E02               	movlw	2
  3551   0032A0  1805               	xorwf	POS_CURSOR@fila^(0+1280),w,c
  3552   0032A2  A4D8               	btfss	status,2,c
  3553   0032A4  EF56  F019         	goto	u981
  3554   0032A8  EF58  F019         	goto	u980
  3555   0032AC                     u981:
  3556   0032AC  EF5E  F019         	goto	l2209
  3557   0032B0                     u980:
  3558   0032B0                     
  3559                           ;LCD.c: 14:   ENVIA_LCD_CMD(0xC0+columna);
  3560   0032B0  5004               	movf	POS_CURSOR@columna^(0+1280),w,c
  3561   0032B2  0FC0               	addlw	192
  3562   0032B4  EC35  F01B         	call	_ENVIA_LCD_CMD
  3563                           
  3564                           ;LCD.c: 15:  }
  3565   0032B8  EF7C  F019         	goto	l32
  3566   0032BC                     l2209:
  3567   0032BC  0E03               	movlw	3
  3568   0032BE  1805               	xorwf	POS_CURSOR@fila^(0+1280),w,c
  3569   0032C0  A4D8               	btfss	status,2,c
  3570   0032C2  EF65  F019         	goto	u991
  3571   0032C6  EF67  F019         	goto	u990
  3572   0032CA                     u991:
  3573   0032CA  EF6D  F019         	goto	l2213
  3574   0032CE                     u990:
  3575   0032CE                     
  3576                           ;LCD.c: 17:   ENVIA_LCD_CMD(0x94+columna);
  3577   0032CE  5004               	movf	POS_CURSOR@columna^(0+1280),w,c
  3578   0032D0  0F94               	addlw	148
  3579   0032D2  EC35  F01B         	call	_ENVIA_LCD_CMD
  3580                           
  3581                           ;LCD.c: 18:  }
  3582   0032D6  EF7C  F019         	goto	l32
  3583   0032DA                     l2213:
  3584   0032DA  0E04               	movlw	4
  3585   0032DC  1805               	xorwf	POS_CURSOR@fila^(0+1280),w,c
  3586   0032DE  A4D8               	btfss	status,2,c
  3587   0032E0  EF74  F019         	goto	u1001
  3588   0032E4  EF76  F019         	goto	u1000
  3589   0032E8                     u1001:
  3590   0032E8  EF7C  F019         	goto	l28
  3591   0032EC                     u1000:
  3592   0032EC                     
  3593                           ;LCD.c: 20:   ENVIA_LCD_CMD(0xD4+columna);
  3594   0032EC  5004               	movf	POS_CURSOR@columna^(0+1280),w,c
  3595   0032EE  0FD4               	addlw	212
  3596   0032F0  EC35  F01B         	call	_ENVIA_LCD_CMD
  3597   0032F4  EF7C  F019         	goto	l32
  3598   0032F8                     l28:
  3599   0032F8                     l32:
  3600   0032F8  0012               	return		;funcret
  3601   0032FA                     __end_of_POS_CURSOR:
  3602                           	callstack 0
  3603                           
  3604 ;; *************** function _ENVIA_LCD_CMD *****************
  3605 ;; Defined at:
  3606 ;;		line 123 in file "LCD.c"
  3607 ;; Parameters:    Size  Location     Type
  3608 ;;  dato            1    wreg     unsigned char 
  3609 ;; Auto vars:     Size  Location     Type
  3610 ;;  dato            1    1[COMRAM] unsigned char 
  3611 ;;  aux             1    2[COMRAM] unsigned char 
  3612 ;; Return value:  Size  Location     Type
  3613 ;;                  1    wreg      void 
  3614 ;; Registers used:
  3615 ;;		wreg, status,2, status,0, cstack
  3616 ;; Tracked objects:
  3617 ;;		On entry : 0/0
  3618 ;;		On exit  : 0/0
  3619 ;;		Unchanged: 0/0
  3620 ;; Data sizes:     COMRAM   BANK5   BANK6   BANK7   BANK8   BANK9  BANK10  BANK11  BANK12  BANK13  BANK14  BANK15  BANK1
      +6  BANK17  BANK18  BANK19  BANK20  BANK21  BANK22  BANK23  BANK24  BANK25  BANK26  BANK27  BANK28  BANK29  BANK30  BANK3
      +1  BANK32  BANK33  BANK34  BANK35  BANK36
  3621 ;;      Params:         0       0       0       0       0       0       0       0       0       0       0       0       
      +0       0       0       0       0       0       0       0       0       0       0       0       0       0       0       
      +0       0       0       0       0       0
  3622 ;;      Locals:         2       0       0       0       0       0       0       0       0       0       0       0       
      +0       0       0       0       0       0       0       0       0       0       0       0       0       0       0       
      +0       0       0       0       0       0
  3623 ;;      Temps:          0       0       0       0       0       0       0       0       0       0       0       0       
      +0       0       0       0       0       0       0       0       0       0       0       0       0       0       0       
      +0       0       0       0       0       0
  3624 ;;      Totals:         2       0       0       0       0       0       0       0       0       0       0       0       
      +0       0       0       0       0       0       0       0       0       0       0       0       0       0       0       
      +0       0       0       0       0       0
  3625 ;;Total ram usage:        2 bytes
  3626 ;; Hardware stack levels used: 1
  3627 ;; Hardware stack levels required when called: 2
  3628 ;; This function calls:
  3629 ;;		_ENVIA_NIBBLE
  3630 ;;		_LEER_LCD
  3631 ;; This function is called by:
  3632 ;;		_POS_CURSOR
  3633 ;;		_CURSOR_HOME
  3634 ;;		_CURSOR_ONOFF
  3635 ;;		_BORRAR_LCD
  3636 ;;		_LCD_CONFIG
  3637 ;;		_BLINK_CURSOR
  3638 ;;		_DISPLAY_ONOFF
  3639 ;;		_CURSOR_SHIFTLEFT
  3640 ;;		_CURSOR_SHIFTRIGHT
  3641 ;;		_DISPLAY_SHIFTLEFT
  3642 ;;		_DISPLAY_SHIFTRIGHT
  3643 ;;		_GENERACARACTER
  3644 ;; This function uses a non-reentrant model
  3645 ;;
  3646                           
  3647                           	psect	text15
  3648   00366A                     __ptext15:
  3649                           	callstack 0
  3650   00366A                     _ENVIA_LCD_CMD:
  3651                           	callstack 121
  3652                           
  3653                           ;incstack = 0
  3654                           ;ENVIA_LCD_CMD@dato stored from wreg
  3655   00366A  6E02               	movwf	ENVIA_LCD_CMD@dato^(0+1280),c
  3656   00366C                     
  3657                           ;LCD.c: 123: void ENVIA_LCD_CMD(unsigned char dato);LCD.c: 124: {;LCD.c: 125:  unsigned 
      +                          char aux;;LCD.c: 126:  LATDbits.LATD0 = 0;
  3658   00366C  90C1               	bcf	193,0,c	;volatile
  3659   00366E                     
  3660                           ;LCD.c: 127:  LEER_LCD();
  3661   00366E  EC7D  F019         	call	_LEER_LCD	;wreg free
  3662   003672                     
  3663                           ;LCD.c: 128:  TRISD = 0b00000000;
  3664   003672  0E00               	movlw	0
  3665   003674  6EC9               	movwf	201,c	;volatile
  3666   003676                     
  3667                           ;LCD.c: 130:         _delay((unsigned long)((100)*(32000000UL/4000000.0)));
  3668   003676  0EA0               	movlw	160
  3669   003678                     u1447:
  3670   003678  D000               	nop2	
  3671   00367A  2EE8               	decfsz	wreg,f,c
  3672   00367C  D7FD               	bra	u1447
  3673   00367E                     
  3674                           ;LCD.c: 131:         LATDbits.LATD1 = 0;
  3675   00367E  92C1               	bcf	193,1,c	;volatile
  3676   003680                     
  3677                           ;LCD.c: 132:  LATDbits.LATD2 = 0;
  3678   003680  94C1               	bcf	193,2,c	;volatile
  3679   003682                     
  3680                           ;LCD.c: 133:  LATDbits.LATD0 = 0;
  3681   003682  90C1               	bcf	193,0,c	;volatile
  3682   003684                     
  3683                           ;LCD.c: 134:  aux = dato & 0xF0;
  3684   003684  5002               	movf	ENVIA_LCD_CMD@dato^(0+1280),w,c
  3685   003686  0BF0               	andlw	240
  3686   003688  6E03               	movwf	ENVIA_LCD_CMD@aux^(0+1280),c
  3687   00368A                     
  3688                           ;LCD.c: 135:  ENVIA_NIBBLE(aux);
  3689   00368A  5003               	movf	ENVIA_LCD_CMD@aux^(0+1280),w,c
  3690   00368C  EC90  F01B         	call	_ENVIA_NIBBLE
  3691   003690                     
  3692                           ;LCD.c: 136:  aux = dato<<4;
  3693   003690  3802               	swapf	ENVIA_LCD_CMD@dato^(0+1280),w,c
  3694   003692  0BF0               	andlw	240
  3695   003694  6E03               	movwf	ENVIA_LCD_CMD@aux^(0+1280),c
  3696   003696                     
  3697                           ;LCD.c: 137:  ENVIA_NIBBLE(aux);
  3698   003696  5003               	movf	ENVIA_LCD_CMD@aux^(0+1280),w,c
  3699   003698  EC90  F01B         	call	_ENVIA_NIBBLE
  3700   00369C  0012               	return		;funcret
  3701   00369E                     __end_of_ENVIA_LCD_CMD:
  3702                           	callstack 0
  3703                           
  3704 ;; *************** function _LEER_LCD *****************
  3705 ;; Defined at:
  3706 ;;		line 140 in file "LCD.c"
  3707 ;; Parameters:    Size  Location     Type
  3708 ;;		None
  3709 ;; Auto vars:     Size  Location     Type
  3710 ;;  aux             1    0[COMRAM] unsigned char 
  3711 ;; Return value:  Size  Location     Type
  3712 ;;                  1    wreg      void 
  3713 ;; Registers used:
  3714 ;;		wreg, status,2, status,0
  3715 ;; Tracked objects:
  3716 ;;		On entry : 0/0
  3717 ;;		On exit  : 0/0
  3718 ;;		Unchanged: 0/0
  3719 ;; Data sizes:     COMRAM   BANK5   BANK6   BANK7   BANK8   BANK9  BANK10  BANK11  BANK12  BANK13  BANK14  BANK15  BANK1
      +6  BANK17  BANK18  BANK19  BANK20  BANK21  BANK22  BANK23  BANK24  BANK25  BANK26  BANK27  BANK28  BANK29  BANK30  BANK3
      +1  BANK32  BANK33  BANK34  BANK35  BANK36
  3720 ;;      Params:         0       0       0       0       0       0       0       0       0       0       0       0       
      +0       0       0       0       0       0       0       0       0       0       0       0       0       0       0       
      +0       0       0       0       0       0
  3721 ;;      Locals:         1       0       0       0       0       0       0       0       0       0       0       0       
      +0       0       0       0       0       0       0       0       0       0       0       0       0       0       0       
      +0       0       0       0       0       0
  3722 ;;      Temps:          0       0       0       0       0       0       0       0       0       0       0       0       
      +0       0       0       0       0       0       0       0       0       0       0       0       0       0       0       
      +0       0       0       0       0       0
  3723 ;;      Totals:         1       0       0       0       0       0       0       0       0       0       0       0       
      +0       0       0       0       0       0       0       0       0       0       0       0       0       0       0       
      +0       0       0       0       0       0
  3724 ;;Total ram usage:        1 bytes
  3725 ;; Hardware stack levels used: 1
  3726 ;; Hardware stack levels required when called: 1
  3727 ;; This function calls:
  3728 ;;		Nothing
  3729 ;; This function is called by:
  3730 ;;		_ENVIA_LCD_CMD
  3731 ;; This function uses a non-reentrant model
  3732 ;;
  3733                           
  3734                           	psect	text16
  3735   0032FA                     __ptext16:
  3736                           	callstack 0
  3737   0032FA                     _LEER_LCD:
  3738                           	callstack 121
  3739   0032FA                     
  3740                           ;LCD.c: 142:  unsigned char aux;;LCD.c: 143:  TRISD = 0xF8;
  3741   0032FA  0EF8               	movlw	248
  3742   0032FC  6EC9               	movwf	201,c	;volatile
  3743   0032FE                     
  3744                           ;LCD.c: 144:  LATDbits.LATD0 = 0;
  3745   0032FE  90C1               	bcf	193,0,c	;volatile
  3746   003300                     
  3747                           ;LCD.c: 145:  LATDbits.LATD1 = 1;
  3748   003300  82C1               	bsf	193,1,c	;volatile
  3749   003302                     
  3750                           ;LCD.c: 146:  LATDbits.LATD2 = 1;
  3751   003302  84C1               	bsf	193,2,c	;volatile
  3752   003304                     
  3753                           ;LCD.c: 147:         _delay((unsigned long)((100)*(32000000UL/4000000.0)));
  3754   003304  0EA0               	movlw	160
  3755   003306                     u1457:
  3756   003306  D000               	nop2	
  3757   003308  2EE8               	decfsz	wreg,f,c
  3758   00330A  D7FD               	bra	u1457
  3759   00330C                     
  3760                           ;LCD.c: 149:  aux = PORTD;
  3761   00330C  C4D1 F501          	movff	1233,LEER_LCD@aux	;volatile
  3762   003310                     
  3763                           ;LCD.c: 150:  LATDbits.LATD2 = 0;
  3764   003310  94C1               	bcf	193,2,c	;volatile
  3765   003312                     
  3766                           ;LCD.c: 151:         _delay((unsigned long)((100)*(32000000UL/4000000.0)));
  3767   003312  0EA0               	movlw	160
  3768   003314                     u1467:
  3769   003314  D000               	nop2	
  3770   003316  2EE8               	decfsz	wreg,f,c
  3771   003318  D7FD               	bra	u1467
  3772   00331A                     
  3773                           ;LCD.c: 153:  LATDbits.LATD2 = 1;
  3774   00331A  84C1               	bsf	193,2,c	;volatile
  3775   00331C                     
  3776                           ;LCD.c: 154:         _delay((unsigned long)((100)*(32000000UL/4000000.0)));
  3777   00331C  0EA0               	movlw	160
  3778   00331E                     u1477:
  3779   00331E  D000               	nop2	
  3780   003320  2EE8               	decfsz	wreg,f,c
  3781   003322  D7FD               	bra	u1477
  3782   003324                     
  3783                           ;LCD.c: 156:  LATDbits.LATD2 = 0;
  3784   003324  94C1               	bcf	193,2,c	;volatile
  3785   003326                     l1137:
  3786                           
  3787                           ;LCD.c: 157:  aux = aux & 0x80;
  3788   003326  5001               	movf	LEER_LCD@aux^(0+1280),w,c
  3789   003328  0B80               	andlw	128
  3790   00332A  6E01               	movwf	LEER_LCD@aux^(0+1280),c
  3791                           
  3792                           ;LCD.c: 158:  while(aux == 0x80)
  3793   00332C  EFAC  F019         	goto	l1151
  3794   003330                     l93:
  3795                           
  3796                           ;LCD.c: 159:         {;LCD.c: 160:             LATDbits.LATD2 = 1;
  3797   003330  84C1               	bsf	193,2,c	;volatile
  3798   003332                     
  3799                           ;LCD.c: 161:             _delay((unsigned long)((100)*(32000000UL/4000000.0)));
  3800   003332  0EA0               	movlw	160
  3801   003334                     u1487:
  3802   003334  D000               	nop2	
  3803   003336  2EE8               	decfsz	wreg,f,c
  3804   003338  D7FD               	bra	u1487
  3805   00333A                     
  3806                           ;LCD.c: 162:             aux = PORTD;
  3807   00333A  C4D1 F501          	movff	1233,LEER_LCD@aux	;volatile
  3808   00333E                     
  3809                           ;LCD.c: 163:             LATDbits.LATD2 = 0;
  3810   00333E  94C1               	bcf	193,2,c	;volatile
  3811                           
  3812                           ;LCD.c: 164:             _delay((unsigned long)((100)*(32000000UL/4000000.0)));
  3813   003340  0EA0               	movlw	160
  3814   003342                     u1497:
  3815   003342  D000               	nop2	
  3816   003344  2EE8               	decfsz	wreg,f,c
  3817   003346  D7FD               	bra	u1497
  3818   003348                     
  3819                           ;LCD.c: 165:             LATDbits.LATD2 = 1;
  3820   003348  84C1               	bsf	193,2,c	;volatile
  3821                           
  3822                           ;LCD.c: 166:             _delay((unsigned long)((100)*(32000000UL/4000000.0)));
  3823   00334A  0EA0               	movlw	160
  3824   00334C                     u1507:
  3825   00334C  D000               	nop2	
  3826   00334E  2EE8               	decfsz	wreg,f,c
  3827   003350  D7FD               	bra	u1507
  3828   003352                     
  3829                           ;LCD.c: 167:             LATDbits.LATD2 = 0;
  3830   003352  94C1               	bcf	193,2,c	;volatile
  3831   003354  EF93  F019         	goto	l1137
  3832   003358                     l1151:
  3833                           
  3834                           ;LCD.c: 158:  while(aux == 0x80)
  3835   003358  0E80               	movlw	128
  3836   00335A  1801               	xorwf	LEER_LCD@aux^(0+1280),w,c
  3837   00335C  B4D8               	btfsc	status,2,c
  3838   00335E  EFB3  F019         	goto	u11
  3839   003362  EFB5  F019         	goto	u10
  3840   003366                     u11:
  3841   003366  EF98  F019         	goto	l93
  3842   00336A                     u10:
  3843   00336A  0012               	return		;funcret
  3844   00336C                     __end_of_LEER_LCD:
  3845                           	callstack 0
  3846                           
  3847 ;; *************** function _ESCRIBE_MENSAJE2 *****************
  3848 ;; Defined at:
  3849 ;;		line 66 in file "LCD.c"
  3850 ;; Parameters:    Size  Location     Type
  3851 ;;  cadena          1    4[COMRAM] PTR const unsigned char 
  3852 ;;		 -> STR_2(11), STR_1(15), 
  3853 ;; Auto vars:     Size  Location     Type
  3854 ;;  i               1    7[COMRAM] unsigned char 
  3855 ;;  tam             1    6[COMRAM] unsigned char 
  3856 ;; Return value:  Size  Location     Type
  3857 ;;                  1    wreg      void 
  3858 ;; Registers used:
  3859 ;;		wreg, status,2, status,0, tblptrl, tblptrh, tblptru, cstack
  3860 ;; Tracked objects:
  3861 ;;		On entry : 0/0
  3862 ;;		On exit  : 0/0
  3863 ;;		Unchanged: 0/0
  3864 ;; Data sizes:     COMRAM   BANK5   BANK6   BANK7   BANK8   BANK9  BANK10  BANK11  BANK12  BANK13  BANK14  BANK15  BANK1
      +6  BANK17  BANK18  BANK19  BANK20  BANK21  BANK22  BANK23  BANK24  BANK25  BANK26  BANK27  BANK28  BANK29  BANK30  BANK3
      +1  BANK32  BANK33  BANK34  BANK35  BANK36
  3865 ;;      Params:         1       0       0       0       0       0       0       0       0       0       0       0       
      +0       0       0       0       0       0       0       0       0       0       0       0       0       0       0       
      +0       0       0       0       0       0
  3866 ;;      Locals:         2       0       0       0       0       0       0       0       0       0       0       0       
      +0       0       0       0       0       0       0       0       0       0       0       0       0       0       0       
      +0       0       0       0       0       0
  3867 ;;      Temps:          1       0       0       0       0       0       0       0       0       0       0       0       
      +0       0       0       0       0       0       0       0       0       0       0       0       0       0       0       
      +0       0       0       0       0       0
  3868 ;;      Totals:         4       0       0       0       0       0       0       0       0       0       0       0       
      +0       0       0       0       0       0       0       0       0       0       0       0       0       0       0       
      +0       0       0       0       0       0
  3869 ;;Total ram usage:        4 bytes
  3870 ;; Hardware stack levels used: 1
  3871 ;; Hardware stack levels required when called: 3
  3872 ;; This function calls:
  3873 ;;		_ENVIA_CHAR
  3874 ;;		_strlen
  3875 ;; This function is called by:
  3876 ;;		_main
  3877 ;; This function uses a non-reentrant model
  3878 ;;
  3879                           
  3880                           	psect	text17
  3881   003578                     __ptext17:
  3882                           	callstack 0
  3883   003578                     _ESCRIBE_MENSAJE2:
  3884                           	callstack 123
  3885   003578                     
  3886                           ;LCD.c: 67:     unsigned char tam;;LCD.c: 68:     tam = strlen(cadena);
  3887   003578  C505  F501         	movff	ESCRIBE_MENSAJE2@cadena,strlen@s
  3888   00357C  ECFE  F01A         	call	_strlen	;wreg free
  3889   003580  5001               	movf	?_strlen^(0+1280),w,c
  3890   003582  6E07               	movwf	ESCRIBE_MENSAJE2@tam^(0+1280),c
  3891   003584                     
  3892                           ;LCD.c: 70:  for(i = 0; i<tam; i++) {
  3893   003584  0E00               	movlw	0
  3894   003586  6E08               	movwf	ESCRIBE_MENSAJE2@i^(0+1280),c
  3895   003588  EFD4  F01A         	goto	l2227
  3896   00358C                     l2223:
  3897                           
  3898                           ;LCD.c: 71:   ENVIA_CHAR(cadena[i]);
  3899   00358C  5005               	movf	ESCRIBE_MENSAJE2@cadena^(0+1280),w,c
  3900   00358E  2408               	addwf	ESCRIBE_MENSAJE2@i^(0+1280),w,c
  3901   003590  6E06               	movwf	??_ESCRIBE_MENSAJE2^(0+1280),c
  3902   003592  C506  F4F6         	movff	??_ESCRIBE_MENSAJE2,tblptrl
  3903   003596                     	if	1	;There is more than 1 active tblptr byte
  3904   003596  0E25               	movlw	high __smallconst
  3905   003598  6EF7               	movwf	tblptrh,c
  3906   00359A                     	endif
  3907   00359A                     	if	0	;tblptru may be non-zero
  3908   00359A                     	endif
  3909   00359A                     	if	1	;Program memory is > 0xFFFF, there are 3 active tblptr bytes
  3910   00359A  0E00               	movlw	low (__smallconst shr (0+16))
  3911   00359C  6EF8               	movwf	tblptru,c
  3912   00359E                     	endif
  3913   00359E  0008               	tblrd		*
  3914   0035A0  50F5               	movf	tablat,w,c
  3915   0035A2  EC4F  F01B         	call	_ENVIA_CHAR
  3916   0035A6                     
  3917                           ;LCD.c: 72:  }
  3918   0035A6  2A08               	incf	ESCRIBE_MENSAJE2@i^(0+1280),f,c
  3919   0035A8                     l2227:
  3920   0035A8  5007               	movf	ESCRIBE_MENSAJE2@tam^(0+1280),w,c
  3921   0035AA  5C08               	subwf	ESCRIBE_MENSAJE2@i^(0+1280),w,c
  3922   0035AC  A0D8               	btfss	status,0,c
  3923   0035AE  EFDB  F01A         	goto	u1011
  3924   0035B2  EFDD  F01A         	goto	u1010
  3925   0035B6                     u1011:
  3926   0035B6  EFC6  F01A         	goto	l2223
  3927   0035BA                     u1010:
  3928   0035BA  0012               	return		;funcret
  3929   0035BC                     __end_of_ESCRIBE_MENSAJE2:
  3930                           	callstack 0
  3931                           
  3932 ;; *************** function _strlen *****************
  3933 ;; Defined at:
  3934 ;;		line 5 in file "C:\Program Files\Microchip\xc8\v2.46\pic\sources\c99\common\strlen.c"
  3935 ;; Parameters:    Size  Location     Type
  3936 ;;  s               1    0[COMRAM] PTR const unsigned char 
  3937 ;;		 -> STR_2(11), STR_1(15), 
  3938 ;; Auto vars:     Size  Location     Type
  3939 ;;  a               1    2[COMRAM] PTR const unsigned char 
  3940 ;;		 -> STR_2(11), STR_1(15), 
  3941 ;; Return value:  Size  Location     Type
  3942 ;;                  2    0[COMRAM] unsigned int 
  3943 ;; Registers used:
  3944 ;;		wreg, status,2, status,0, tblptrl, tblptrh, tblptru
  3945 ;; Tracked objects:
  3946 ;;		On entry : 0/0
  3947 ;;		On exit  : 0/0
  3948 ;;		Unchanged: 0/0
  3949 ;; Data sizes:     COMRAM   BANK5   BANK6   BANK7   BANK8   BANK9  BANK10  BANK11  BANK12  BANK13  BANK14  BANK15  BANK1
      +6  BANK17  BANK18  BANK19  BANK20  BANK21  BANK22  BANK23  BANK24  BANK25  BANK26  BANK27  BANK28  BANK29  BANK30  BANK3
      +1  BANK32  BANK33  BANK34  BANK35  BANK36
  3950 ;;      Params:         2       0       0       0       0       0       0       0       0       0       0       0       
      +0       0       0       0       0       0       0       0       0       0       0       0       0       0       0       
      +0       0       0       0       0       0
  3951 ;;      Locals:         1       0       0       0       0       0       0       0       0       0       0       0       
      +0       0       0       0       0       0       0       0       0       0       0       0       0       0       0       
      +0       0       0       0       0       0
  3952 ;;      Temps:          0       0       0       0       0       0       0       0       0       0       0       0       
      +0       0       0       0       0       0       0       0       0       0       0       0       0       0       0       
      +0       0       0       0       0       0
  3953 ;;      Totals:         3       0       0       0       0       0       0       0       0       0       0       0       
      +0       0       0       0       0       0       0       0       0       0       0       0       0       0       0       
      +0       0       0       0       0       0
  3954 ;;Total ram usage:        3 bytes
  3955 ;; Hardware stack levels used: 1
  3956 ;; Hardware stack levels required when called: 1
  3957 ;; This function calls:
  3958 ;;		Nothing
  3959 ;; This function is called by:
  3960 ;;		_ESCRIBE_MENSAJE2
  3961 ;; This function uses a non-reentrant model
  3962 ;;
  3963                           
  3964                           	psect	text18
  3965   0035FC                     __ptext18:
  3966                           	callstack 0
  3967   0035FC                     _strlen:
  3968                           	callstack 124
  3969   0035FC  C501  F503         	movff	strlen@s,strlen@a
  3970   003600  EF03  F01B         	goto	l2099
  3971   003604                     l2097:
  3972   003604  2A01               	incf	strlen@s^(0+1280),f,c
  3973   003606                     l2099:
  3974   003606  C501  F4F6         	movff	strlen@s,tblptrl
  3975   00360A                     	if	1	;There is more than 1 active tblptr byte
  3976   00360A  0E25               	movlw	high __smallconst
  3977   00360C  6EF7               	movwf	tblptrh,c
  3978   00360E                     	endif
  3979   00360E                     	if	0	;tblptru may be non-zero
  3980   00360E                     	endif
  3981   00360E                     	if	1	;Program memory is > 0xFFFF, there are 3 active tblptr bytes
  3982   00360E  0E00               	movlw	low (__smallconst shr (0+16))
  3983   003610  6EF8               	movwf	tblptru,c
  3984   003612                     	endif
  3985   003612  0008               	tblrd		*
  3986   003614  50F5               	movf	tablat,w,c
  3987   003616  0900               	iorlw	0
  3988   003618  A4D8               	btfss	status,2,c
  3989   00361A  EF11  F01B         	goto	u841
  3990   00361E  EF13  F01B         	goto	u840
  3991   003622                     u841:
  3992   003622  EF02  F01B         	goto	l2097
  3993   003626                     u840:
  3994   003626  5003               	movf	strlen@a^(0+1280),w,c
  3995   003628  5C01               	subwf	strlen@s^(0+1280),w,c
  3996   00362A  6E01               	movwf	?_strlen^(0+1280),c
  3997   00362C  6A02               	clrf	(?_strlen+1)^(0+1280),c
  3998   00362E  BE01               	btfsc	?_strlen^(0+1280),7,c
  3999   003630  0602               	decf	(?_strlen+1)^(0+1280),f,c
  4000   003632  0012               	return		;funcret
  4001   003634                     __end_of_strlen:
  4002                           	callstack 0
  4003                           
  4004 ;; *************** function _ENVIA_CHAR *****************
  4005 ;; Defined at:
  4006 ;;		line 75 in file "LCD.c"
  4007 ;; Parameters:    Size  Location     Type
  4008 ;;  dato            1    wreg     unsigned char 
  4009 ;; Auto vars:     Size  Location     Type
  4010 ;;  dato            1    2[COMRAM] unsigned char 
  4011 ;;  aux             1    3[COMRAM] unsigned char 
  4012 ;; Return value:  Size  Location     Type
  4013 ;;                  1    wreg      void 
  4014 ;; Registers used:
  4015 ;;		wreg, status,2, status,0, cstack
  4016 ;; Tracked objects:
  4017 ;;		On entry : 0/0
  4018 ;;		On exit  : 0/0
  4019 ;;		Unchanged: 0/0
  4020 ;; Data sizes:     COMRAM   BANK5   BANK6   BANK7   BANK8   BANK9  BANK10  BANK11  BANK12  BANK13  BANK14  BANK15  BANK1
      +6  BANK17  BANK18  BANK19  BANK20  BANK21  BANK22  BANK23  BANK24  BANK25  BANK26  BANK27  BANK28  BANK29  BANK30  BANK3
      +1  BANK32  BANK33  BANK34  BANK35  BANK36
  4021 ;;      Params:         0       0       0       0       0       0       0       0       0       0       0       0       
      +0       0       0       0       0       0       0       0       0       0       0       0       0       0       0       
      +0       0       0       0       0       0
  4022 ;;      Locals:         2       0       0       0       0       0       0       0       0       0       0       0       
      +0       0       0       0       0       0       0       0       0       0       0       0       0       0       0       
      +0       0       0       0       0       0
  4023 ;;      Temps:          1       0       0       0       0       0       0       0       0       0       0       0       
      +0       0       0       0       0       0       0       0       0       0       0       0       0       0       0       
      +0       0       0       0       0       0
  4024 ;;      Totals:         3       0       0       0       0       0       0       0       0       0       0       0       
      +0       0       0       0       0       0       0       0       0       0       0       0       0       0       0       
      +0       0       0       0       0       0
  4025 ;;Total ram usage:        3 bytes
  4026 ;; Hardware stack levels used: 1
  4027 ;; Hardware stack levels required when called: 2
  4028 ;; This function calls:
  4029 ;;		_ENVIA_NIBBLE
  4030 ;; This function is called by:
  4031 ;;		_ESCRIBE_MENSAJE2
  4032 ;;		_ESCRIBE_MENSAJE
  4033 ;;		_GENERACARACTER
  4034 ;;		_LCD_ESCRIBE_VAR_CHAR
  4035 ;;		_LCD_ESCRIBE_VAR_INT
  4036 ;;		_LCD_CHAR_GRADO
  4037 ;;		_LCD_VARCHAR_BITS
  4038 ;;		_LCD_VARCHAR_HEX
  4039 ;; This function uses a non-reentrant model
  4040 ;;
  4041                           
  4042                           	psect	text19
  4043   00369E                     __ptext19:
  4044                           	callstack 0
  4045   00369E                     _ENVIA_CHAR:
  4046                           	callstack 123
  4047                           
  4048                           ;incstack = 0
  4049                           ;ENVIA_CHAR@dato stored from wreg
  4050   00369E  6E03               	movwf	ENVIA_CHAR@dato^(0+1280),c
  4051   0036A0                     
  4052                           ;LCD.c: 76:  unsigned char aux;;LCD.c: 77:  LATDbits.LATD0 = 1;
  4053   0036A0  80C1               	bsf	193,0,c	;volatile
  4054   0036A2                     
  4055                           ;LCD.c: 80:     _delay((unsigned long)((250)*(32000000UL/4000000.0)));
  4056   0036A2  0E03               	movlw	3
  4057   0036A4  6E02               	movwf	??_ENVIA_CHAR^(0+1280),c
  4058   0036A6  0E98               	movlw	152
  4059   0036A8                     u1517:
  4060   0036A8  2EE8               	decfsz	wreg,f,c
  4061   0036AA  D7FE               	bra	u1517
  4062   0036AC  2E02               	decfsz	??_ENVIA_CHAR^(0+1280),f,c
  4063   0036AE  D7FC               	bra	u1517
  4064   0036B0                     
  4065                           ;LCD.c: 81:  LATDbits.LATD1 = 0;
  4066   0036B0  92C1               	bcf	193,1,c	;volatile
  4067   0036B2                     
  4068                           ;LCD.c: 82:  LATDbits.LATD2 = 0;
  4069   0036B2  94C1               	bcf	193,2,c	;volatile
  4070   0036B4                     
  4071                           ;LCD.c: 83:  LATDbits.LATD0 = 1;
  4072   0036B4  80C1               	bsf	193,0,c	;volatile
  4073   0036B6                     
  4074                           ;LCD.c: 84:  aux = dato & 0xF0;
  4075   0036B6  5003               	movf	ENVIA_CHAR@dato^(0+1280),w,c
  4076   0036B8  0BF0               	andlw	240
  4077   0036BA  6E04               	movwf	ENVIA_CHAR@aux^(0+1280),c
  4078   0036BC                     
  4079                           ;LCD.c: 85:  ENVIA_NIBBLE(aux);
  4080   0036BC  5004               	movf	ENVIA_CHAR@aux^(0+1280),w,c
  4081   0036BE  EC90  F01B         	call	_ENVIA_NIBBLE
  4082   0036C2                     
  4083                           ;LCD.c: 86:  aux = dato << 4;
  4084   0036C2  3803               	swapf	ENVIA_CHAR@dato^(0+1280),w,c
  4085   0036C4  0BF0               	andlw	240
  4086   0036C6  6E04               	movwf	ENVIA_CHAR@aux^(0+1280),c
  4087   0036C8                     
  4088                           ;LCD.c: 87:  ENVIA_NIBBLE(aux);
  4089   0036C8  5004               	movf	ENVIA_CHAR@aux^(0+1280),w,c
  4090   0036CA  EC90  F01B         	call	_ENVIA_NIBBLE
  4091   0036CE  0012               	return		;funcret
  4092   0036D0                     __end_of_ENVIA_CHAR:
  4093                           	callstack 0
  4094                           
  4095 ;; *************** function _ENVIA_NIBBLE *****************
  4096 ;; Defined at:
  4097 ;;		line 112 in file "LCD.c"
  4098 ;; Parameters:    Size  Location     Type
  4099 ;;  dato            1    wreg     unsigned char 
  4100 ;; Auto vars:     Size  Location     Type
  4101 ;;  dato            1    0[COMRAM] unsigned char 
  4102 ;; Return value:  Size  Location     Type
  4103 ;;                  1    wreg      void 
  4104 ;; Registers used:
  4105 ;;		wreg, status,2, status,0
  4106 ;; Tracked objects:
  4107 ;;		On entry : 0/0
  4108 ;;		On exit  : 0/0
  4109 ;;		Unchanged: 0/0
  4110 ;; Data sizes:     COMRAM   BANK5   BANK6   BANK7   BANK8   BANK9  BANK10  BANK11  BANK12  BANK13  BANK14  BANK15  BANK1
      +6  BANK17  BANK18  BANK19  BANK20  BANK21  BANK22  BANK23  BANK24  BANK25  BANK26  BANK27  BANK28  BANK29  BANK30  BANK3
      +1  BANK32  BANK33  BANK34  BANK35  BANK36
  4111 ;;      Params:         0       0       0       0       0       0       0       0       0       0       0       0       
      +0       0       0       0       0       0       0       0       0       0       0       0       0       0       0       
      +0       0       0       0       0       0
  4112 ;;      Locals:         1       0       0       0       0       0       0       0       0       0       0       0       
      +0       0       0       0       0       0       0       0       0       0       0       0       0       0       0       
      +0       0       0       0       0       0
  4113 ;;      Temps:          0       0       0       0       0       0       0       0       0       0       0       0       
      +0       0       0       0       0       0       0       0       0       0       0       0       0       0       0       
      +0       0       0       0       0       0
  4114 ;;      Totals:         1       0       0       0       0       0       0       0       0       0       0       0       
      +0       0       0       0       0       0       0       0       0       0       0       0       0       0       0       
      +0       0       0       0       0       0
  4115 ;;Total ram usage:        1 bytes
  4116 ;; Hardware stack levels used: 1
  4117 ;; Hardware stack levels required when called: 1
  4118 ;; This function calls:
  4119 ;;		Nothing
  4120 ;; This function is called by:
  4121 ;;		_ENVIA_CHAR
  4122 ;;		_LCD_CONFIG
  4123 ;;		_ENVIA_LCD_CMD
  4124 ;; This function uses a non-reentrant model
  4125 ;;
  4126                           
  4127                           	psect	text20
  4128   003720                     __ptext20:
  4129                           	callstack 0
  4130   003720                     _ENVIA_NIBBLE:
  4131                           	callstack 122
  4132                           
  4133                           ;incstack = 0
  4134                           ;ENVIA_NIBBLE@dato stored from wreg
  4135   003720  6E01               	movwf	ENVIA_NIBBLE@dato^(0+1280),c
  4136   003722                     
  4137                           ;LCD.c: 112: void ENVIA_NIBBLE(unsigned char dato);LCD.c: 113: {;LCD.c: 114:  LATD &= 0x
      +                          0F;
  4138   003722  0E0F               	movlw	15
  4139   003724  16C1               	andwf	193,f,c	;volatile
  4140                           
  4141                           ;LCD.c: 115:  dato &= 0xF0;
  4142   003726  0EF0               	movlw	240
  4143   003728  1601               	andwf	ENVIA_NIBBLE@dato^(0+1280),f,c
  4144                           
  4145                           ;LCD.c: 116:  LATD|= dato;
  4146   00372A  5001               	movf	ENVIA_NIBBLE@dato^(0+1280),w,c	;volatile
  4147   00372C  12C1               	iorwf	193,f,c	;volatile
  4148   00372E                     
  4149                           ;LCD.c: 117:  LATDbits.LATD2 = 1;
  4150   00372E  84C1               	bsf	193,2,c	;volatile
  4151   003730                     
  4152                           ;LCD.c: 119:         _delay((unsigned long)((100)*(32000000UL/4000000.0)));
  4153   003730  0EA0               	movlw	160
  4154   003732                     u1527:
  4155   003732  D000               	nop2	
  4156   003734  2EE8               	decfsz	wreg,f,c
  4157   003736  D7FD               	bra	u1527
  4158   003738                     
  4159                           ;LCD.c: 120:  LATDbits.LATD2 = 0;
  4160   003738  94C1               	bcf	193,2,c	;volatile
  4161   00373A  0012               	return		;funcret
  4162   00373C                     __end_of_ENVIA_NIBBLE:
  4163                           	callstack 0
  4164                           
  4165 ;; *************** function _TMR0_ISR *****************
  4166 ;; Defined at:
  4167 ;;		line 289 in file "maincode02.c"
  4168 ;; Parameters:    Size  Location     Type
  4169 ;;		None
  4170 ;; Auto vars:     Size  Location     Type
  4171 ;;		None
  4172 ;; Return value:  Size  Location     Type
  4173 ;;                  1    wreg      void 
  4174 ;; Registers used:
  4175 ;;		wreg, status,2, status,0
  4176 ;; Tracked objects:
  4177 ;;		On entry : 0/0
  4178 ;;		On exit  : 0/0
  4179 ;;		Unchanged: 0/0
  4180 ;; Data sizes:     COMRAM   BANK5   BANK6   BANK7   BANK8   BANK9  BANK10  BANK11  BANK12  BANK13  BANK14  BANK15  BANK1
      +6  BANK17  BANK18  BANK19  BANK20  BANK21  BANK22  BANK23  BANK24  BANK25  BANK26  BANK27  BANK28  BANK29  BANK30  BANK3
      +1  BANK32  BANK33  BANK34  BANK35  BANK36
  4181 ;;      Params:         0       0       0       0       0       0       0       0       0       0       0       0       
      +0       0       0       0       0       0       0       0       0       0       0       0       0       0       0       
      +0       0       0       0       0       0
  4182 ;;      Locals:         0       0       0       0       0       0       0       0       0       0       0       0       
      +0       0       0       0       0       0       0       0       0       0       0       0       0       0       0       
      +0       0       0       0       0       0
  4183 ;;      Temps:          0       0       0       0       0       0       0       0       0       0       0       0       
      +0       0       0       0       0       0       0       0       0       0       0       0       0       0       0       
      +0       0       0       0       0       0
  4184 ;;      Totals:         0       0       0       0       0       0       0       0       0       0       0       0       
      +0       0       0       0       0       0       0       0       0       0       0       0       0       0       0       
      +0       0       0       0       0       0
  4185 ;;Total ram usage:        0 bytes
  4186 ;; Hardware stack levels used: 1
  4187 ;; This function calls:
  4188 ;;		Nothing
  4189 ;; This function is called by:
  4190 ;;		Interrupt level 2
  4191 ;; This function uses a non-reentrant model
  4192 ;;
  4193                           
  4194                           	psect	text21
  4195   003700                     __ptext21:
  4196                           	callstack 0
  4197   003700                     _TMR0_ISR:
  4198                           	callstack 121
  4199   003700                     
  4200                           ;maincode02.c: 290:     PIR3bits.TMR0IF = 0;
  4201   003700  9EB1               	bcf	177,7,c	;volatile
  4202   003702                     
  4203                           ;maincode02.c: 291:     if(desplazamiento == 40){
  4204   003702  0E28               	movlw	40
  4205   003704  1853               	xorwf	_desplazamiento^(0+1280),w,c
  4206   003706  A4D8               	btfss	status,2,c
  4207   003708  EF88  F01B         	goto	i2u77_41
  4208   00370C  EF8A  F01B         	goto	i2u77_40
  4209   003710                     i2u77_41:
  4210   003710  EF8E  F01B         	goto	i2l2063
  4211   003714                     i2u77_40:
  4212   003714                     
  4213                           ;maincode02.c: 292:         desplazamiento = 0;
  4214   003714  0E00               	movlw	0
  4215   003716  6E53               	movwf	_desplazamiento^(0+1280),c
  4216                           
  4217                           ;maincode02.c: 293:     }
  4218   003718  EF8F  F01B         	goto	i2l405
  4219   00371C                     i2l2063:
  4220                           
  4221                           ;maincode02.c: 295:         desplazamiento++;
  4222   00371C  2A53               	incf	_desplazamiento^(0+1280),f,c
  4223   00371E                     i2l405:
  4224   00371E  0011               	retfie		f
  4225   003720                     __end_of_TMR0_ISR:
  4226                           	callstack 0
  4227                           
  4228 ;; *************** function _default_ISR *****************
  4229 ;; Defined at:
  4230 ;;		line 299 in file "maincode02.c"
  4231 ;; Parameters:    Size  Location     Type
  4232 ;;		None
  4233 ;; Auto vars:     Size  Location     Type
  4234 ;;		None
  4235 ;; Return value:  Size  Location     Type
  4236 ;;                  1    wreg      void 
  4237 ;; Registers used:
  4238 ;;		None
  4239 ;; Tracked objects:
  4240 ;;		On entry : 0/0
  4241 ;;		On exit  : 0/0
  4242 ;;		Unchanged: 0/0
  4243 ;; Data sizes:     COMRAM   BANK5   BANK6   BANK7   BANK8   BANK9  BANK10  BANK11  BANK12  BANK13  BANK14  BANK15  BANK1
      +6  BANK17  BANK18  BANK19  BANK20  BANK21  BANK22  BANK23  BANK24  BANK25  BANK26  BANK27  BANK28  BANK29  BANK30  BANK3
      +1  BANK32  BANK33  BANK34  BANK35  BANK36
  4244 ;;      Params:         0       0       0       0       0       0       0       0       0       0       0       0       
      +0       0       0       0       0       0       0       0       0       0       0       0       0       0       0       
      +0       0       0       0       0       0
  4245 ;;      Locals:         0       0       0       0       0       0       0       0       0       0       0       0       
      +0       0       0       0       0       0       0       0       0       0       0       0       0       0       0       
      +0       0       0       0       0       0
  4246 ;;      Temps:          0       0       0       0       0       0       0       0       0       0       0       0       
      +0       0       0       0       0       0       0       0       0       0       0       0       0       0       0       
      +0       0       0       0       0       0
  4247 ;;      Totals:         0       0       0       0       0       0       0       0       0       0       0       0       
      +0       0       0       0       0       0       0       0       0       0       0       0       0       0       0       
      +0       0       0       0       0       0
  4248 ;;Total ram usage:        0 bytes
  4249 ;; Hardware stack levels used: 1
  4250 ;; This function calls:
  4251 ;;		Nothing
  4252 ;; This function is called by:
  4253 ;;		Interrupt level 2
  4254 ;; This function uses a non-reentrant model
  4255 ;;
  4256                           
  4257                           	psect	text22
  4258   00374C                     __ptext22:
  4259                           	callstack 0
  4260   00374C                     _default_ISR:
  4261                           	callstack 121
  4262   00374C  0011               	retfie		f
  4263   00374E                     __end_of_default_ISR:
  4264                           	callstack 0
  4265                           
  4266                           ;
  4267                           ; H/W Interrupt Vector Table @ 0x8
  4268                           ;
  4269                           
  4270                           	psect	ivt0x8
  4271   000008                     __pivt0x8:
  4272                           	callstack 0
  4273   000008                     ivt0x8_base:
  4274                           	callstack 0
  4275                           
  4276                           ; Vector 0 : SWINT
  4277   000008  0DD3               	dw	_default_ISR shr (0+2)
  4278                           
  4279                           ; Vector 1 : HLVD
  4280   00000A  0DD3               	dw	_default_ISR shr (0+2)
  4281                           
  4282                           ; Vector 2 : OSF
  4283   00000C  0DD3               	dw	_default_ISR shr (0+2)
  4284                           
  4285                           ; Vector 3 : CSW
  4286   00000E  0DD3               	dw	_default_ISR shr (0+2)
  4287                           
  4288                           ; Vector 4 : Undefined
  4289   000010  0040               	dw	ivt0x8_undefint shr (0+2)
  4290                           
  4291                           ; Vector 5 : CLC1
  4292   000012  0DD3               	dw	_default_ISR shr (0+2)
  4293                           
  4294                           ; Vector 6 : Undefined
  4295   000014  0040               	dw	ivt0x8_undefint shr (0+2)
  4296                           
  4297                           ; Vector 7 : IOC
  4298   000016  0DD3               	dw	_default_ISR shr (0+2)
  4299                           
  4300                           ; Vector 8 : INT0
  4301   000018  0DD3               	dw	_default_ISR shr (0+2)
  4302                           
  4303                           ; Vector 9 : ZCD
  4304   00001A  0DD3               	dw	_default_ISR shr (0+2)
  4305                           
  4306                           ; Vector 10 : AD
  4307   00001C  0DD3               	dw	_default_ISR shr (0+2)
  4308                           
  4309                           ; Vector 11 : ACT
  4310   00001E  0DD3               	dw	_default_ISR shr (0+2)
  4311                           
  4312                           ; Vector 12 : CMP1
  4313   000020  0DD3               	dw	_default_ISR shr (0+2)
  4314                           
  4315                           ; Vector 13 : SMT1
  4316   000022  0DD3               	dw	_default_ISR shr (0+2)
  4317                           
  4318                           ; Vector 14 : SMT1PRA
  4319   000024  0DD3               	dw	_default_ISR shr (0+2)
  4320                           
  4321                           ; Vector 15 : SMT1PRW
  4322   000026  0DD3               	dw	_default_ISR shr (0+2)
  4323                           
  4324                           ; Vector 16 : ADT
  4325   000028  0DD3               	dw	_default_ISR shr (0+2)
  4326                           
  4327                           ; Vector 17 : Undefined
  4328   00002A  0040               	dw	ivt0x8_undefint shr (0+2)
  4329                           
  4330                           ; Vector 18 : Undefined
  4331   00002C  0040               	dw	ivt0x8_undefint shr (0+2)
  4332                           
  4333                           ; Vector 19 : Undefined
  4334   00002E  0040               	dw	ivt0x8_undefint shr (0+2)
  4335                           
  4336                           ; Vector 20 : DMA1SCNT
  4337   000030  0DD3               	dw	_default_ISR shr (0+2)
  4338                           
  4339                           ; Vector 21 : DMA1DCNT
  4340   000032  0DD3               	dw	_default_ISR shr (0+2)
  4341                           
  4342                           ; Vector 22 : DMA1OR
  4343   000034  0DD3               	dw	_default_ISR shr (0+2)
  4344                           
  4345                           ; Vector 23 : DMA1A
  4346   000036  0DD3               	dw	_default_ISR shr (0+2)
  4347                           
  4348                           ; Vector 24 : SPI1RX
  4349   000038  0DD3               	dw	_default_ISR shr (0+2)
  4350                           
  4351                           ; Vector 25 : SPI1TX
  4352   00003A  0DD3               	dw	_default_ISR shr (0+2)
  4353                           
  4354                           ; Vector 26 : SPI1
  4355   00003C  0DD3               	dw	_default_ISR shr (0+2)
  4356                           
  4357                           ; Vector 27 : TMR2
  4358   00003E  0DD3               	dw	_default_ISR shr (0+2)
  4359                           
  4360                           ; Vector 28 : TMR1
  4361   000040  0DD3               	dw	_default_ISR shr (0+2)
  4362                           
  4363                           ; Vector 29 : TMR1G
  4364   000042  0DD3               	dw	_default_ISR shr (0+2)
  4365                           
  4366                           ; Vector 30 : CCP1
  4367   000044  0DD3               	dw	_default_ISR shr (0+2)
  4368                           
  4369                           ; Vector 31 : TMR0
  4370   000046  0DC0               	dw	_TMR0_ISR shr (0+2)
  4371                           
  4372                           ; Vector 32 : U1RX
  4373   000048  0DD3               	dw	_default_ISR shr (0+2)
  4374                           
  4375                           ; Vector 33 : U1TX
  4376   00004A  0DD3               	dw	_default_ISR shr (0+2)
  4377                           
  4378                           ; Vector 34 : U1E
  4379   00004C  0DD3               	dw	_default_ISR shr (0+2)
  4380                           
  4381                           ; Vector 35 : U1
  4382   00004E  0DD3               	dw	_default_ISR shr (0+2)
  4383                           
  4384                           ; Vector 36 : Undefined
  4385   000050  0040               	dw	ivt0x8_undefint shr (0+2)
  4386                           
  4387                           ; Vector 37 : Undefined
  4388   000052  0040               	dw	ivt0x8_undefint shr (0+2)
  4389                           
  4390                           ; Vector 38 : PWM1PR
  4391   000054  0DD3               	dw	_default_ISR shr (0+2)
  4392                           
  4393                           ; Vector 39 : PWM1
  4394   000056  0DD3               	dw	_default_ISR shr (0+2)
  4395                           
  4396                           ; Vector 40 : SPI2RX
  4397   000058  0DD3               	dw	_default_ISR shr (0+2)
  4398                           
  4399                           ; Vector 41 : SPI2TX
  4400   00005A  0DD3               	dw	_default_ISR shr (0+2)
  4401                           
  4402                           ; Vector 42 : SPI2
  4403   00005C  0DD3               	dw	_default_ISR shr (0+2)
  4404                           
  4405                           ; Vector 43 : Undefined
  4406   00005E  0040               	dw	ivt0x8_undefint shr (0+2)
  4407                           
  4408                           ; Vector 44 : TMR3
  4409   000060  0DD3               	dw	_default_ISR shr (0+2)
  4410                           
  4411                           ; Vector 45 : TMR3G
  4412   000062  0DD3               	dw	_default_ISR shr (0+2)
  4413                           
  4414                           ; Vector 46 : PWM2PR
  4415   000064  0DD3               	dw	_default_ISR shr (0+2)
  4416                           
  4417                           ; Vector 47 : PWM2
  4418   000066  0DD3               	dw	_default_ISR shr (0+2)
  4419                           
  4420                           ; Vector 48 : INT1
  4421   000068  0DD3               	dw	_default_ISR shr (0+2)
  4422                           
  4423                           ; Vector 49 : CLC2
  4424   00006A  0DD3               	dw	_default_ISR shr (0+2)
  4425                           
  4426                           ; Vector 50 : CWG1
  4427   00006C  0DD3               	dw	_default_ISR shr (0+2)
  4428                           
  4429                           ; Vector 51 : NCO1
  4430   00006E  0DD3               	dw	_default_ISR shr (0+2)
  4431                           
  4432                           ; Vector 52 : DMA2SCNT
  4433   000070  0DD3               	dw	_default_ISR shr (0+2)
  4434                           
  4435                           ; Vector 53 : DMA2DCNT
  4436   000072  0DD3               	dw	_default_ISR shr (0+2)
  4437                           
  4438                           ; Vector 54 : DMA2OR
  4439   000074  0DD3               	dw	_default_ISR shr (0+2)
  4440                           
  4441                           ; Vector 55 : DMA2A
  4442   000076  0DD3               	dw	_default_ISR shr (0+2)
  4443                           
  4444                           ; Vector 56 : I2C1RX
  4445   000078  0DD3               	dw	_default_ISR shr (0+2)
  4446                           
  4447                           ; Vector 57 : I2C1TX
  4448   00007A  0DD3               	dw	_default_ISR shr (0+2)
  4449                           
  4450                           ; Vector 58 : I2C1
  4451   00007C  0DD3               	dw	_default_ISR shr (0+2)
  4452                           
  4453                           ; Vector 59 : I2C1E
  4454   00007E  0DD3               	dw	_default_ISR shr (0+2)
  4455                           
  4456                           ; Vector 60 : Undefined
  4457   000080  0040               	dw	ivt0x8_undefint shr (0+2)
  4458                           
  4459                           ; Vector 61 : CLC3
  4460   000082  0DD3               	dw	_default_ISR shr (0+2)
  4461                           
  4462                           ; Vector 62 : PWM3PR
  4463   000084  0DD3               	dw	_default_ISR shr (0+2)
  4464                           
  4465                           ; Vector 63 : PWM3
  4466   000086  0DD3               	dw	_default_ISR shr (0+2)
  4467                           
  4468                           ; Vector 64 : U2RX
  4469   000088  0DD3               	dw	_default_ISR shr (0+2)
  4470                           
  4471                           ; Vector 65 : U2TX
  4472   00008A  0DD3               	dw	_default_ISR shr (0+2)
  4473                           
  4474                           ; Vector 66 : U2E
  4475   00008C  0DD3               	dw	_default_ISR shr (0+2)
  4476                           
  4477                           ; Vector 67 : U2
  4478   00008E  0DD3               	dw	_default_ISR shr (0+2)
  4479                           
  4480                           ; Vector 68 : TMR5
  4481   000090  0DD3               	dw	_default_ISR shr (0+2)
  4482                           
  4483                           ; Vector 69 : TMR5G
  4484   000092  0DD3               	dw	_default_ISR shr (0+2)
  4485                           
  4486                           ; Vector 70 : CCP2
  4487   000094  0DD3               	dw	_default_ISR shr (0+2)
  4488                           
  4489                           ; Vector 71 : SCAN
  4490   000096  0DD3               	dw	_default_ISR shr (0+2)
  4491                           
  4492                           ; Vector 72 : U3RX
  4493   000098  0DD3               	dw	_default_ISR shr (0+2)
  4494                           
  4495                           ; Vector 73 : U3TX
  4496   00009A  0DD3               	dw	_default_ISR shr (0+2)
  4497                           
  4498                           ; Vector 74 : U3E
  4499   00009C  0DD3               	dw	_default_ISR shr (0+2)
  4500                           
  4501                           ; Vector 75 : U3
  4502   00009E  0DD3               	dw	_default_ISR shr (0+2)
  4503                           
  4504                           ; Vector 76 : Undefined
  4505   0000A0  0040               	dw	ivt0x8_undefint shr (0+2)
  4506                           
  4507                           ; Vector 77 : CLC4
  4508   0000A2  0DD3               	dw	_default_ISR shr (0+2)
  4509                           
  4510                           ; Vector 78 : Undefined
  4511   0000A4  0040               	dw	ivt0x8_undefint shr (0+2)
  4512                           
  4513                           ; Vector 79 : Undefined
  4514   0000A6  0040               	dw	ivt0x8_undefint shr (0+2)
  4515                           
  4516                           ; Vector 80 : INT2
  4517   0000A8  0DD3               	dw	_default_ISR shr (0+2)
  4518                           
  4519                           ; Vector 81 : CLC5
  4520   0000AA  0DD3               	dw	_default_ISR shr (0+2)
  4521                           
  4522                           ; Vector 82 : CWG2
  4523   0000AC  0DD3               	dw	_default_ISR shr (0+2)
  4524                           
  4525                           ; Vector 83 : NCO2
  4526   0000AE  0DD3               	dw	_default_ISR shr (0+2)
  4527                           
  4528                           ; Vector 84 : DMA3SCNT
  4529   0000B0  0DD3               	dw	_default_ISR shr (0+2)
  4530                           
  4531                           ; Vector 85 : DMA3DCNT
  4532   0000B2  0DD3               	dw	_default_ISR shr (0+2)
  4533                           
  4534                           ; Vector 86 : DMA3OR
  4535   0000B4  0DD3               	dw	_default_ISR shr (0+2)
  4536                           
  4537                           ; Vector 87 : DMA3A
  4538   0000B6  0DD3               	dw	_default_ISR shr (0+2)
  4539                           
  4540                           ; Vector 88 : CCP3
  4541   0000B8  0DD3               	dw	_default_ISR shr (0+2)
  4542                           
  4543                           ; Vector 89 : CLC6
  4544   0000BA  0DD3               	dw	_default_ISR shr (0+2)
  4545                           
  4546                           ; Vector 90 : CWG3
  4547   0000BC  0DD3               	dw	_default_ISR shr (0+2)
  4548                           
  4549                           ; Vector 91 : TMR4
  4550   0000BE  0DD3               	dw	_default_ISR shr (0+2)
  4551                           
  4552                           ; Vector 92 : DMA4SCNT
  4553   0000C0  0DD3               	dw	_default_ISR shr (0+2)
  4554                           
  4555                           ; Vector 93 : DMA4DCNT
  4556   0000C2  0DD3               	dw	_default_ISR shr (0+2)
  4557                           
  4558                           ; Vector 94 : DMA4OR
  4559   0000C4  0DD3               	dw	_default_ISR shr (0+2)
  4560                           
  4561                           ; Vector 95 : DMA4A
  4562   0000C6  0DD3               	dw	_default_ISR shr (0+2)
  4563                           
  4564                           ; Vector 96 : U4RX
  4565   0000C8  0DD3               	dw	_default_ISR shr (0+2)
  4566                           
  4567                           ; Vector 97 : U4TX
  4568   0000CA  0DD3               	dw	_default_ISR shr (0+2)
  4569                           
  4570                           ; Vector 98 : U4E
  4571   0000CC  0DD3               	dw	_default_ISR shr (0+2)
  4572                           
  4573                           ; Vector 99 : U4
  4574   0000CE  0DD3               	dw	_default_ISR shr (0+2)
  4575                           
  4576                           ; Vector 100 : DMA5SCNT
  4577   0000D0  0DD3               	dw	_default_ISR shr (0+2)
  4578                           
  4579                           ; Vector 101 : DMA5DCNT
  4580   0000D2  0DD3               	dw	_default_ISR shr (0+2)
  4581                           
  4582                           ; Vector 102 : DMA5OR
  4583   0000D4  0DD3               	dw	_default_ISR shr (0+2)
  4584                           
  4585                           ; Vector 103 : DMA5A
  4586   0000D6  0DD3               	dw	_default_ISR shr (0+2)
  4587                           
  4588                           ; Vector 104 : U5RX
  4589   0000D8  0DD3               	dw	_default_ISR shr (0+2)
  4590                           
  4591                           ; Vector 105 : U5TX
  4592   0000DA  0DD3               	dw	_default_ISR shr (0+2)
  4593                           
  4594                           ; Vector 106 : U5E
  4595   0000DC  0DD3               	dw	_default_ISR shr (0+2)
  4596                           
  4597                           ; Vector 107 : U5
  4598   0000DE  0DD3               	dw	_default_ISR shr (0+2)
  4599                           
  4600                           ; Vector 108 : DMA6SCNT
  4601   0000E0  0DD3               	dw	_default_ISR shr (0+2)
  4602                           
  4603                           ; Vector 109 : DMA6DCNT
  4604   0000E2  0DD3               	dw	_default_ISR shr (0+2)
  4605                           
  4606                           ; Vector 110 : DMA6OR
  4607   0000E4  0DD3               	dw	_default_ISR shr (0+2)
  4608                           
  4609                           ; Vector 111 : DMA6A
  4610   0000E6  0DD3               	dw	_default_ISR shr (0+2)
  4611                           
  4612                           ; Vector 112 : Undefined
  4613   0000E8  0040               	dw	ivt0x8_undefint shr (0+2)
  4614                           
  4615                           ; Vector 113 : CLC7
  4616   0000EA  0DD3               	dw	_default_ISR shr (0+2)
  4617                           
  4618                           ; Vector 114 : CMP2
  4619   0000EC  0DD3               	dw	_default_ISR shr (0+2)
  4620                           
  4621                           ; Vector 115 : NCO3
  4622   0000EE  0DD3               	dw	_default_ISR shr (0+2)
  4623                           
  4624                           ; Vector 116 : Undefined
  4625   0000F0  0040               	dw	ivt0x8_undefint shr (0+2)
  4626                           
  4627                           ; Vector 117 : Undefined
  4628   0000F2  0040               	dw	ivt0x8_undefint shr (0+2)
  4629                           
  4630                           ; Vector 118 : Undefined
  4631   0000F4  0040               	dw	ivt0x8_undefint shr (0+2)
  4632                           
  4633                           ; Vector 119 : Undefined
  4634   0000F6  0040               	dw	ivt0x8_undefint shr (0+2)
  4635                           
  4636                           ; Vector 120 : NVM
  4637   0000F8  0DD3               	dw	_default_ISR shr (0+2)
  4638                           
  4639                           ; Vector 121 : CLC8
  4640   0000FA  0DD3               	dw	_default_ISR shr (0+2)
  4641                           
  4642                           ; Vector 122 : CRC
  4643   0000FC  0DD3               	dw	_default_ISR shr (0+2)
  4644                           
  4645                           ; Vector 123 : TMR6
  4646   0000FE  0DD3               	dw	_default_ISR shr (0+2)
  4647   000100                     ivt0x8_undefint:
  4648                           	callstack 0
  4649   000100  00FF               	reset	
  4650                           
  4651                           	psect	rparam
  4652   000000                     
  4653                           	psect	config
  4654                           
  4655                           ;Config register CONFIG1 @ 0x300000
  4656                           ;	External Oscillator Selection
  4657                           ;	FEXTOSC = OFF, Oscillator not enabled
  4658                           ;	Reset Oscillator Selection
  4659                           ;	RSTOSC = EXTOSC, EXTOSC operating per FEXTOSC bits (device manufacturing default)
  4660   300000                     	org	3145728
  4661   300000  FC                 	db	252
  4662                           
  4663                           ;Config register CONFIG2 @ 0x300001
  4664                           ;	Clock out Enable bit
  4665                           ;	CLKOUTEN = OFF, CLKOUT function is disabled
  4666                           ;	PRLOCKED One-Way Set Enable bit
  4667                           ;	PR1WAY = ON, PRLOCKED bit can be cleared and set only once
  4668                           ;	Clock Switch Enable bit
  4669                           ;	CSWEN = ON, Writing to NOSC and NDIV is allowed
  4670                           ;	Fail-Safe Clock Monitor Enable bit
  4671                           ;	FCMEN = ON, Fail-Safe Clock Monitor enabled
  4672   300001                     	org	3145729
  4673   300001  FF                 	db	255
  4674                           
  4675                           ;Config register CONFIG3 @ 0x300002
  4676                           ;	MCLR Enable bit
  4677                           ;	MCLRE = EXTMCLR, If LVP = 0, MCLR pin is MCLR; If LVP = 1, RE3 pin function is MCLR
  4678                           ;	Power-up timer selection bits
  4679                           ;	PWRTS = PWRT_64, PWRT set at 64ms
  4680                           ;	Multi-vector enable bit
  4681                           ;	MVECEN = ON, Multi-vector enabled, Vector table used for interrupts
  4682                           ;	IVTLOCK bit One-way set enable bit
  4683                           ;	IVT1WAY = ON, IVTLOCKED bit can be cleared and set only once
  4684                           ;	Low Power BOR Enable bit
  4685                           ;	LPBOREN = OFF, Low-Power BOR disabled
  4686                           ;	Brown-out Reset Enable bits
  4687                           ;	BOREN = OFF, Brown-out Reset disabled
  4688   300002                     	org	3145730
  4689   300002  3D                 	db	61
  4690                           
  4691                           ;Config register CONFIG4 @ 0x300003
  4692                           ;	Brown-out Reset Voltage Selection bits
  4693                           ;	BORV = VBOR_1P9, Brown-out Reset Voltage (VBOR) set to 1.9V
  4694                           ;	ZCD Disable bit
  4695                           ;	ZCD = OFF, ZCD module is disabled. ZCD can be enabled by setting the ZCDSEN bit of ZCD
      +                          CON
  4696                           ;	PPSLOCK bit One-Way Set Enable bit
  4697                           ;	PPS1WAY = ON, PPSLOCKED bit can be cleared and set only once; PPS registers remain loc
      +                          ked after one clear/set cycle
  4698                           ;	Stack Full/Underflow Reset Enable bit
  4699                           ;	STVREN = ON, Stack full/underflow will cause Reset
  4700                           ;	Low Voltage Programming Enable bit
  4701                           ;	LVP = OFF, HV on MCLR/VPP must be used for programming
  4702                           ;	Extended Instruction Set Enable bit
  4703                           ;	XINST = OFF, Extended Instruction Set and Indexed Addressing Mode disabled
  4704   300003                     	org	3145731
  4705   300003  DF                 	db	223
  4706                           
  4707                           ;Config register CONFIG5 @ 0x300004
  4708                           ;	WDT Period selection bits
  4709                           ;	WDTCPS = WDTCPS_31, Divider ratio 1:65536; software control of WDTPS
  4710                           ;	WDT operating mode
  4711                           ;	WDTE = OFF, WDT Disabled; SWDTEN is ignored
  4712   300004                     	org	3145732
  4713   300004  9F                 	db	159
  4714                           
  4715                           ;Config register CONFIG6 @ 0x300005
  4716                           ;	WDT Window Select bits
  4717                           ;	WDTCWS = WDTCWS_7, window always open (100%); software control; keyed access not requi
      +                          red
  4718                           ;	WDT input clock selector
  4719                           ;	WDTCCS = SC, Software Control
  4720   300005                     	org	3145733
  4721   300005  FF                 	db	255
  4722                           
  4723                           ;Config register CONFIG7 @ 0x300006
  4724                           ;	Boot Block Size selection bits
  4725                           ;	BBSIZE = BBSIZE_512, Boot Block size is 512 words
  4726                           ;	Boot Block enable bit
  4727                           ;	BBEN = OFF, Boot block disabled
  4728                           ;	Storage Area Flash enable bit
  4729                           ;	SAFEN = OFF, SAF disabled
  4730                           ;	Background Debugger
  4731                           ;	DEBUG = OFF, Background Debugger disabled
  4732   300006                     	org	3145734
  4733   300006  FF                 	db	255
  4734                           
  4735                           ;Config register CONFIG8 @ 0x300007
  4736                           ;	Boot Block Write Protection bit
  4737                           ;	WRTB = OFF, Boot Block not Write protected
  4738                           ;	Configuration Register Write Protection bit
  4739                           ;	WRTC = OFF, Configuration registers not Write protected
  4740                           ;	Data EEPROM Write Protection bit
  4741                           ;	WRTD = OFF, Data EEPROM not Write protected
  4742                           ;	SAF Write protection bit
  4743                           ;	WRTSAF = OFF, SAF not Write Protected
  4744                           ;	Application Block write protection bit
  4745                           ;	WRTAPP = OFF, Application Block not write protected
  4746   300007                     	org	3145735
  4747   300007  FF                 	db	255
  4748                           
  4749                           ;Config register CONFIG10 @ 0x300009
  4750                           ;	PFM and Data EEPROM Code Protection bit
  4751                           ;	CP = OFF, PFM and Data EEPROM code protection disabled
  4752   300009                     	org	3145737
  4753   300009  FF                 	db	255
  4754                           tosu	equ	0x4FF
  4755                           tosh	equ	0x4FE
  4756                           tosl	equ	0x4FD
  4757                           stkptr	equ	0x4FC
  4758                           pclatu	equ	0x4FB
  4759                           pclath	equ	0x4FA
  4760                           pcl	equ	0x4F9
  4761                           tblptru	equ	0x4F8
  4762                           tblptrh	equ	0x4F7
  4763                           tblptrl	equ	0x4F6
  4764                           tablat	equ	0x4F5
  4765                           prodh	equ	0x4F4
  4766                           prodl	equ	0x4F3
  4767                           indf0	equ	0x4EF
  4768                           postinc0	equ	0x4EE
  4769                           postdec0	equ	0x4ED
  4770                           preinc0	equ	0x4EC
  4771                           plusw0	equ	0x4EB
  4772                           fsr0h	equ	0x4EA
  4773                           fsr0l	equ	0x4E9
  4774                           wreg	equ	0x4E8
  4775                           indf1	equ	0x4E7
  4776                           postinc1	equ	0x4E6
  4777                           postdec1	equ	0x4E5
  4778                           preinc1	equ	0x4E4
  4779                           plusw1	equ	0x4E3
  4780                           fsr1h	equ	0x4E2
  4781                           fsr1l	equ	0x4E1
  4782                           bsr	equ	0x4E0
  4783                           indf2	equ	0x4DF
  4784                           postinc2	equ	0x4DE
  4785                           postdec2	equ	0x4DD
  4786                           preinc2	equ	0x4DC
  4787                           plusw2	equ	0x4DB
  4788                           fsr2h	equ	0x4DA
  4789                           fsr2l	equ	0x4D9
  4790                           status	equ	0x4D8

Data Sizes:
    Strings     26
    Constant    0
    Data        88
    BSS         6
    Persistent  0
    Stack       0

Auto Spaces:
    Space          Size  Autos    Used
    COMRAM           95     82      88
    BANK5           160      0      88
    BANK6           256      0       0
    BANK7           256      0       0
    BANK8           256      0       0
    BANK9           256      0       0
    BANK10          256      0       0
    BANK11          256      0       0
    BANK12          256      0       0
    BANK13          256      0       0
    BANK14          256      0       0
    BANK15          256      0       0
    BANK16          256      0       0
    BANK17          256      0       0
    BANK18          256      0       0
    BANK19          256      0       0
    BANK20          256      0       0
    BANK21          256      0       0
    BANK22          256      0       0
    BANK23          256      0       0
    BANK24          256      0       0
    BANK25          256      0       0
    BANK26          256      0       0
    BANK27          256      0       0
    BANK28          256      0       0
    BANK29          256      0       0
    BANK30          256      0       0
    BANK31          256      0       0
    BANK32          256      0       0
    BANK33          256      0       0
    BANK34          256      0       0
    BANK35          256      0       0
    BANK36          256      0       0

Pointer List with Targets:

    ESCRIBE_MENSAJE2@cadena	PTR const unsigned char  size(1) Largest target is 15
		 -> STR_1(CODE[15]), STR_2(CODE[11]), 

    sp__strcat	PTR unsigned char  size(2) Largest target is 1
		 -> concatenado(COMRAM[1]), 

    sp__strcpy	PTR unsigned char  size(2) Largest target is 1
		 -> concatenado(COMRAM[1]), 

    strcat@dest	PTR unsigned char  size(2) Largest target is 1
		 -> concatenado(COMRAM[1]), 

    strcat@src	PTR const unsigned char  size(2) Largest target is 1
		 -> deco_decena(COMRAM[1]), deco_unidad(COMRAM[1]), 

    strcpy@d	PTR unsigned char  size(2) Largest target is 1
		 -> concatenado(COMRAM[1]), 

    strcpy@dest	PTR unsigned char  size(2) Largest target is 1
		 -> concatenado(COMRAM[1]), 

    strcpy@src	PTR const unsigned char  size(2) Largest target is 1
		 -> deco_centena(COMRAM[1]), 

    strlen@a	PTR const unsigned char  size(1) Largest target is 15
		 -> STR_1(CODE[15]), STR_2(CODE[11]), 

    strlen@s	PTR const unsigned char  size(1) Largest target is 15
		 -> STR_1(CODE[15]), STR_2(CODE[11]), 


Critical Paths under _main in COMRAM

    _main->_decodificacion
    _decodificacion->___awdiv
    ___awdiv->___awmod
    _configuro->_LCD_INIT
    _MAX7219_Init->_MAX7219_WriteData2
    _LCD_INIT->_CURSOR_ONOFF
    _LCD_INIT->_LCD_CONFIG
    _LCD_CONFIG->_ENVIA_LCD_CMD
    _CURSOR_ONOFF->_ENVIA_LCD_CMD
    _CURSOR_HOME->_ENVIA_LCD_CMD
    _BORRAR_LCD->_ENVIA_LCD_CMD
    _POS_CURSOR->_ENVIA_LCD_CMD
    _ENVIA_LCD_CMD->_ENVIA_NIBBLE
    _ENVIA_LCD_CMD->_LEER_LCD
    _ESCRIBE_MENSAJE2->_ENVIA_CHAR
    _ENVIA_CHAR->_ENVIA_NIBBLE

Critical Paths under _TMR0_ISR in COMRAM

    None.

Critical Paths under _default_ISR in COMRAM

    None.

Critical Paths under _main in BANK5

    None.

Critical Paths under _TMR0_ISR in BANK5

    None.

Critical Paths under _default_ISR in BANK5

    None.

Critical Paths under _main in BANK6

    None.

Critical Paths under _TMR0_ISR in BANK6

    None.

Critical Paths under _default_ISR in BANK6

    None.

Critical Paths under _main in BANK7

    None.

Critical Paths under _TMR0_ISR in BANK7

    None.

Critical Paths under _default_ISR in BANK7

    None.

Critical Paths under _main in BANK8

    None.

Critical Paths under _TMR0_ISR in BANK8

    None.

Critical Paths under _default_ISR in BANK8

    None.

Critical Paths under _main in BANK9

    None.

Critical Paths under _TMR0_ISR in BANK9

    None.

Critical Paths under _default_ISR in BANK9

    None.

Critical Paths under _main in BANK10

    None.

Critical Paths under _TMR0_ISR in BANK10

    None.

Critical Paths under _default_ISR in BANK10

    None.

Critical Paths under _main in BANK11

    None.

Critical Paths under _TMR0_ISR in BANK11

    None.

Critical Paths under _default_ISR in BANK11

    None.

Critical Paths under _main in BANK12

    None.

Critical Paths under _TMR0_ISR in BANK12

    None.

Critical Paths under _default_ISR in BANK12

    None.

Critical Paths under _main in BANK13

    None.

Critical Paths under _TMR0_ISR in BANK13

    None.

Critical Paths under _default_ISR in BANK13

    None.

Critical Paths under _main in BANK14

    None.

Critical Paths under _TMR0_ISR in BANK14

    None.

Critical Paths under _default_ISR in BANK14

    None.

Critical Paths under _main in BANK15

    None.

Critical Paths under _TMR0_ISR in BANK15

    None.

Critical Paths under _default_ISR in BANK15

    None.

Critical Paths under _main in BANK16

    None.

Critical Paths under _TMR0_ISR in BANK16

    None.

Critical Paths under _default_ISR in BANK16

    None.

Critical Paths under _main in BANK17

    None.

Critical Paths under _TMR0_ISR in BANK17

    None.

Critical Paths under _default_ISR in BANK17

    None.

Critical Paths under _main in BANK18

    None.

Critical Paths under _TMR0_ISR in BANK18

    None.

Critical Paths under _default_ISR in BANK18

    None.

Critical Paths under _main in BANK19

    None.

Critical Paths under _TMR0_ISR in BANK19

    None.

Critical Paths under _default_ISR in BANK19

    None.

Critical Paths under _main in BANK20

    None.

Critical Paths under _TMR0_ISR in BANK20

    None.

Critical Paths under _default_ISR in BANK20

    None.

Critical Paths under _main in BANK21

    None.

Critical Paths under _TMR0_ISR in BANK21

    None.

Critical Paths under _default_ISR in BANK21

    None.

Critical Paths under _main in BANK22

    None.

Critical Paths under _TMR0_ISR in BANK22

    None.

Critical Paths under _default_ISR in BANK22

    None.

Critical Paths under _main in BANK23

    None.

Critical Paths under _TMR0_ISR in BANK23

    None.

Critical Paths under _default_ISR in BANK23

    None.

Critical Paths under _main in BANK24

    None.

Critical Paths under _TMR0_ISR in BANK24

    None.

Critical Paths under _default_ISR in BANK24

    None.

Critical Paths under _main in BANK25

    None.

Critical Paths under _TMR0_ISR in BANK25

    None.

Critical Paths under _default_ISR in BANK25

    None.

Critical Paths under _main in BANK26

    None.

Critical Paths under _TMR0_ISR in BANK26

    None.

Critical Paths under _default_ISR in BANK26

    None.

Critical Paths under _main in BANK27

    None.

Critical Paths under _TMR0_ISR in BANK27

    None.

Critical Paths under _default_ISR in BANK27

    None.

Critical Paths under _main in BANK28

    None.

Critical Paths under _TMR0_ISR in BANK28

    None.

Critical Paths under _default_ISR in BANK28

    None.

Critical Paths under _main in BANK29

    None.

Critical Paths under _TMR0_ISR in BANK29

    None.

Critical Paths under _default_ISR in BANK29

    None.

Critical Paths under _main in BANK30

    None.

Critical Paths under _TMR0_ISR in BANK30

    None.

Critical Paths under _default_ISR in BANK30

    None.

Critical Paths under _main in BANK31

    None.

Critical Paths under _TMR0_ISR in BANK31

    None.

Critical Paths under _default_ISR in BANK31

    None.

Critical Paths under _main in BANK32

    None.

Critical Paths under _TMR0_ISR in BANK32

    None.

Critical Paths under _default_ISR in BANK32

    None.

Critical Paths under _main in BANK33

    None.

Critical Paths under _TMR0_ISR in BANK33

    None.

Critical Paths under _default_ISR in BANK33

    None.

Critical Paths under _main in BANK34

    None.

Critical Paths under _TMR0_ISR in BANK34

    None.

Critical Paths under _default_ISR in BANK34

    None.

Critical Paths under _main in BANK35

    None.

Critical Paths under _TMR0_ISR in BANK35

    None.

Critical Paths under _default_ISR in BANK35

    None.

Critical Paths under _main in BANK36

    None.

Critical Paths under _TMR0_ISR in BANK36

    None.

Critical Paths under _default_ISR in BANK36

    None.

Call Graph Tables:

 ---------------------------------------------------------------------------------
 (Depth) Function   	        Calls       Base Space   Used Autos Params    Refs
 ---------------------------------------------------------------------------------
 (0) _main                                                 4     4      0   11184
                                             78 COMRAM     4     4      0
                   _ESCRIBE_MENSAJE2
                 _MAX7219_WriteData2
                         _POS_CURSOR
                          _configuro
                     _decodificacion
                             _strcat
                             _strcpy
 ---------------------------------------------------------------------------------
 (1) _strcpy                                               6     2      4     225
                                              0 COMRAM     6     2      4
 ---------------------------------------------------------------------------------
 (1) _strcat                                               6     2      4     424
                                              0 COMRAM     6     2      4
 ---------------------------------------------------------------------------------
 (1) _decodificacion                                      64    64      0    4799
                                             14 COMRAM    64    64      0
                            ___awdiv
                            ___awmod
 ---------------------------------------------------------------------------------
 (2) ___awmod                                              6     2      4    1056
                                              0 COMRAM     6     2      4
 ---------------------------------------------------------------------------------
 (2) ___awdiv                                              8     4      4     908
                                              6 COMRAM     8     4      4
                            ___awmod (ARG)
 ---------------------------------------------------------------------------------
 (1) _configuro                                            2     2      0    3317
                                              6 COMRAM     2     2      0
                           _LCD_INIT
                       _MAX7219_Init
                 _MAX7219_WriteData2
 ---------------------------------------------------------------------------------
 (2) _MAX7219_Init                                         0     0      0    1396
                 _MAX7219_WriteData2
 ---------------------------------------------------------------------------------
 (2) _MAX7219_WriteData2                                   5     4      1    1396
                                              0 COMRAM     5     4      1
 ---------------------------------------------------------------------------------
 (2) _LCD_INIT                                             2     2      0     525
                                              4 COMRAM     2     2      0
                         _BORRAR_LCD
                        _CURSOR_HOME
                       _CURSOR_ONOFF
                         _LCD_CONFIG
 ---------------------------------------------------------------------------------
 (3) _LCD_CONFIG                                           1     1      0     135
                                              3 COMRAM     1     1      0
                      _ENVIA_LCD_CMD
                       _ENVIA_NIBBLE
 ---------------------------------------------------------------------------------
 (3) _CURSOR_ONOFF                                         1     1      0     150
                                              3 COMRAM     1     1      0
                      _ENVIA_LCD_CMD
 ---------------------------------------------------------------------------------
 (3) _CURSOR_HOME                                          0     0      0     120
                      _ENVIA_LCD_CMD
 ---------------------------------------------------------------------------------
 (3) _BORRAR_LCD                                           0     0      0     120
                      _ENVIA_LCD_CMD
 ---------------------------------------------------------------------------------
 (1) _POS_CURSOR                                           2     1      1     448
                                              3 COMRAM     2     1      1
                      _ENVIA_LCD_CMD
 ---------------------------------------------------------------------------------
 (4) _ENVIA_LCD_CMD                                        2     2      0     120
                                              1 COMRAM     2     2      0
                       _ENVIA_NIBBLE
                           _LEER_LCD
 ---------------------------------------------------------------------------------
 (5) _LEER_LCD                                             1     1      0      45
                                              0 COMRAM     1     1      0
 ---------------------------------------------------------------------------------
 (1) _ESCRIBE_MENSAJE2                                     4     3      1     507
                                              4 COMRAM     4     3      1
                         _ENVIA_CHAR
                             _strlen
 ---------------------------------------------------------------------------------
 (2) _strlen                                               3     1      2     166
                                              0 COMRAM     3     1      2
 ---------------------------------------------------------------------------------
 (2) _ENVIA_CHAR                                           3     3      0      75
                                              1 COMRAM     3     3      0
                       _ENVIA_NIBBLE
 ---------------------------------------------------------------------------------
 (4) _ENVIA_NIBBLE                                         1     1      0      15
                                              0 COMRAM     1     1      0
 ---------------------------------------------------------------------------------
 Estimated maximum stack depth 5
 ---------------------------------------------------------------------------------
 (Depth) Function   	        Calls       Base Space   Used Autos Params    Refs
 ---------------------------------------------------------------------------------
 (6) _TMR0_ISR                                             0     0      0       0
 ---------------------------------------------------------------------------------
 Estimated maximum stack depth 6
 ---------------------------------------------------------------------------------
 (Depth) Function   	        Calls       Base Space   Used Autos Params    Refs
 ---------------------------------------------------------------------------------
 (6) _default_ISR                                          0     0      0       0
 ---------------------------------------------------------------------------------
 Estimated maximum stack depth 6
 ---------------------------------------------------------------------------------

 Call Graph Graphs:

 _main (ROOT)
   _ESCRIBE_MENSAJE2
     _ENVIA_CHAR
       _ENVIA_NIBBLE
     _strlen
   _MAX7219_WriteData2
   _POS_CURSOR
     _ENVIA_LCD_CMD
       _ENVIA_NIBBLE
       _LEER_LCD
   _configuro
     _LCD_INIT
       _BORRAR_LCD
         _ENVIA_LCD_CMD
       _CURSOR_HOME
         _ENVIA_LCD_CMD
       _CURSOR_ONOFF
         _ENVIA_LCD_CMD
       _LCD_CONFIG
         _ENVIA_LCD_CMD
         _ENVIA_NIBBLE
     _MAX7219_Init
       _MAX7219_WriteData2
     _MAX7219_WriteData2
   _decodificacion
     ___awdiv
       ___awmod (ARG)
     ___awmod
   _strcat
   _strcpy

 _TMR0_ISR (ROOT)

 _default_ISR (ROOT)

 Address spaces:
Name               Size   Autos  Total    Cost      Usage
BIGRAM            1FFF      0       0      70        0.0%
EEDATA             400      0       0       0        0.0%
BITBIGSFRlllhhh    265      0       0      81        0.0%
BITBIGSFR_1        100      0       0      69        0.0%
BITBANK36          100      0       0      67        0.0%
BANK36             100      0       0      68        0.0%
BITBANK35          100      0       0      65        0.0%
BANK35             100      0       0      66        0.0%
BITBANK34          100      0       0      63        0.0%
BANK34             100      0       0      64        0.0%
BITBANK33          100      0       0      61        0.0%
BANK33             100      0       0      62        0.0%
BITBANK32          100      0       0      59        0.0%
BANK32             100      0       0      60        0.0%
BITBANK31          100      0       0      57        0.0%
BANK31             100      0       0      58        0.0%
BITBANK30          100      0       0      55        0.0%
BANK30             100      0       0      56        0.0%
BITBANK29          100      0       0      53        0.0%
BANK29             100      0       0      54        0.0%
BITBANK28          100      0       0      51        0.0%
BANK28             100      0       0      52        0.0%
BITBANK27          100      0       0      48        0.0%
BANK27             100      0       0      49        0.0%
BITBANK26          100      0       0      46        0.0%
BANK26             100      0       0      47        0.0%
BITBANK25          100      0       0      44        0.0%
BANK25             100      0       0      45        0.0%
BITBANK24          100      0       0      42        0.0%
BANK24             100      0       0      43        0.0%
BITBANK23          100      0       0      40        0.0%
BANK23             100      0       0      41        0.0%
BITBANK22          100      0       0      38        0.0%
BANK22             100      0       0      39        0.0%
BITBANK21          100      0       0      36        0.0%
BANK21             100      0       0      37        0.0%
BITBANK20          100      0       0      34        0.0%
BANK20             100      0       0      35        0.0%
BITBANK19          100      0       0      32        0.0%
BANK19             100      0       0      33        0.0%
BITBANK18          100      0       0      30        0.0%
BANK18             100      0       0      31        0.0%
BITBANK17          100      0       0      28        0.0%
BANK17             100      0       0      29        0.0%
BITBANK16          100      0       0      26        0.0%
BANK16             100      0       0      27        0.0%
BITBANK15          100      0       0      24        0.0%
BANK15             100      0       0      25        0.0%
BITBANK14          100      0       0      22        0.0%
BANK14             100      0       0      23        0.0%
BITBANK13          100      0       0      20        0.0%
BANK13             100      0       0      21        0.0%
BITBANK12          100      0       0      18        0.0%
BANK12             100      0       0      19        0.0%
BITBANK11          100      0       0      16        0.0%
BANK11             100      0       0      17        0.0%
BITBANK10          100      0       0      14        0.0%
BANK10             100      0       0      15        0.0%
BITBANK9           100      0       0      12        0.0%
BANK9              100      0       0      13        0.0%
BITBANK8           100      0       0      10        0.0%
BANK8              100      0       0      11        0.0%
BITBANK7           100      0       0       8        0.0%
BANK7              100      0       0       9        0.0%
BITBANK6           100      0       0       6        0.0%
BANK6              100      0       0       7        0.0%
BITBIGSFRlllhhh     F4      0       0      80        0.0%
BITBIGSFRllll       AD      0       0      84        0.0%
BITBANK5            A0      0       0       4        0.0%
BANK5               A0      0      58       5       55.0%
BITBIGSFRlhhl       80      0       0      77        0.0%
BITCOMRAM           5F      0       0       0        0.0%
COMRAM              5F     52      58       1       92.6%
BITBIGSFRhhhh       29      0       0      71        0.0%
BITBIGSFRlhhhl       F      0       0      76        0.0%
BITBIGSFRlhhhh       E      0       0      75        0.0%
BITBIGSFRllh         7      0       0      79        0.0%
BITBIGSFRlhl         7      0       0      78        0.0%
BITBIGSFRhhl         6      0       0      73        0.0%
BITBIGSFRhl          5      0       0      74        0.0%
BITBIGSFRhhhl        4      0       0      72        0.0%
BITBIGSFRlllhl       3      0       0      83        0.0%
BITBIGSFRlllhhl      1      0       0      82        0.0%
BIGSFR_1             0      0       0     200        0.0%
BIGSFR               0      0       0     200        0.0%
BITSFR_6             0      0       0     200        0.0%
SFR_6                0      0       0     200        0.0%
BITSFR_5             0      0       0     200        0.0%
SFR_5                0      0       0     200        0.0%
BITSFR_4             0      0       0     200        0.0%
SFR_4                0      0       0     200        0.0%
BITSFR_3             0      0       0     200        0.0%
SFR_3                0      0       0     200        0.0%
BITSFR_2             0      0       0     200        0.0%
SFR_2                0      0       0     200        0.0%
BITSFR_1             0      0       0     200        0.0%
SFR_1                0      0       0     200        0.0%
BITSFR               0      0       0     200        0.0%
SFR                  0      0       0     200        0.0%
STACK                0      0       0       2        0.0%
NULL                 0      0       0       0        0.0%
ABS                  0      0      B0      50        0.0%
DATA                 0      0      B0       3        0.0%
CODE                 0      0       0       0        0.0%


Microchip Technology PIC18 Macro Assembler V2.46 build 20240104201356 
Symbol Table                                                                                   Mon Oct 21 10:52:31 2024

                        l32 32F8                          l28 32F8                          l45 3742  
                        l62 36FE                          l80 374A                          l74 35BA  
                        l83 34DC                          l77 36CE                          l93 3330  
                        l86 373A                          l95 336A                          l89 369C  
                        u10 336A                          u11 3366                          u20 36E2  
                        u21 36DE                          u30 36F8                          u31 36F4  
              ___awdiv@sign 050C               ENVIA_CHAR@aux 0504                         l103 33D0  
                       l180 3576                         l190 31E0                         l192 3216  
                       l193 3218                         l194 3230                         l195 327C  
                       l196 3266                         l197 3268                         l269 352A  
                       l198 327E                         l644 3120                         l388 2F62  
                       l657 31D0                         u800 322C                         u801 3228  
                       u820 3260                         u900 3110                         u821 325C  
                       u901 310C                         u830 327C                         u814 3246  
                       u910 3134                         u831 3278                         u815 3242  
                       u911 3130                         u840 3626                         u920 314E  
                       u841 3622                         u921 314A                         u850 3070  
                       u930 3168                         u851 306C                         u931 3164  
                       u860 308A                         u940 3186                         u861 3086  
                       u941 3182                         u790 3210                         u870 30B0  
                       u950 319C                         u791 320C                         u871 30AC  
                       u951 3198                         u784 31F6                         u880 30CE  
                       u960 31C0                         u785 31F2                         u881 30CA  
                       u961 31BC                         u970 3292                         u890 30EA  
                       u971 328E                         u891 30E6                         u980 32B0  
                       u981 32AC                         u990 32CE                         u991 32CA  
              ___awmod@sign 0506                 LEER_LCD@aux 0501                         wreg 04E8  
              ?_CURSOR_HOME 0501              ??_ENVIA_NIBBLE 0501              ENVIA_CHAR@dato 0503  
                      l1111 3730                        l1113 3738                        l1105 3632  
                      l1121 3302                        l1201 34C4                        l1107 3722  
                      l1131 331A                        l1123 3304                        l1115 32FA  
                      l1203 34CA                        l1109 372E                        l2101 3626  
                      l1141 333A                        l1133 331C                        l1125 330C  
                      l1117 32FE                        l1205 34D0                        l1143 333E  
                      l1151 3358                        l1135 3324                        l1127 3310  
                      l1119 3300                        l1207 34D6                        l2111 3544  
                      l1241 36A2                        l1145 3348                        l1137 3326  
                      l1129 3312                        l1161 367E                        l1153 366C  
                      l2201 3282                        l2113 354E                        l2105 352C  
                      l2121 305E                        l1251 36BC                        l1243 36B0  
                      l1147 3352                        l1139 3332                        l1171 3690  
                      l1163 3680                        l1155 366E                        l2211 32CE  
                      l2203 3292                        l2115 3558                        l2107 3532  
                      l2131 308A                        l2123 3062                        l1253 36C2  
                      l1245 36B2                        l2221 3584                        l1173 3696  
                      l1165 3682                        l1157 3672                        l2213 32DA  
                      l2205 329E                        l1181 36E8                        l2117 3562  
                      l2109 353A                        l2141 30B8                        l2133 3092  
                      l2125 3070                        l2301 2684                        l1093 3432  
                      l1255 36C8                        l1247 36B4                        l1239 36A0  
                      l2223 358C                        l1167 3684                        l1159 3676  
                      l2215 32EC                        l2207 32B0                        l1175 373C  
                      l1183 36F8                        l1191 3496                        l1271 3388  
                      l2119 356C                        l2231 34FA                        l2151 30F2  
                      l2143 30C0                        l2135 3096                        l2127 3078  
                      l2303 26A0                        l1249 36B6                        l2225 35A6  
                      l2217 3578                        l1169 368A                        l2209 32BC  
                      l1185 3744                        l1177 36D2                        l1193 34A4  
                      l1273 33A6                        l2081 322C                        l2073 31E2  
                      l2065 31D4                        l2241 3508                        l2233 34FC  
                      l2161 3118                        l2153 30F4                        l2145 30CE  
                      l2137 309E                        l2129 307C                        l2401 293A  
                      l2321 26FC                        l2313 26D0                        l2227 35A8  
                      l2219 3584                        l1179 36E2                        l1195 34B2  
                      l1187 348C                        l1275 33AA                        l1267 336C  
                      l2091 326A                        l2075 3210                        l2067 31DC  
                      l2243 3512                        l2235 34FE                        l2155 30FA  
                      l2147 30D4                        l2139 30B0                        l2171 313C  
                      l2403 2956                        l2331 2740                        l2315 26EC  
                      l2307 26A8                        l1099 3668                        l1197 34B8  
                      l1189 3490                        l1269 3384                        l2093 326C  
                      l2077 321A                        l2237 3500                        l2229 34DE  
                      l2149 30EA                        l2157 3100                        l2181 3170  
                      l2173 3140                        l2165 3122                        l2421 29B2  
                      l2413 2986                        l2333 2748                        l2325 271C  
                      l2309 26B0                        l2261 2580                        l2095 35FC  
                      l1199 34BE                        l2087 3232                        l2079 321C  
                      l2239 3504                        l2159 3110                        l2191 31AA  
                      l2183 3178                        l2175 314E                        l2167 3126  
                      l2431 29F6                        l2415 29A2                        l2407 295E  
                      l2351 27D0                        l2343 278C                        l2327 2738  
                      l2319 26F4                        l2271 25C4                        l2097 3604  
                      l2089 3260                        l2185 3186                        l2193 31B0  
                      l2177 3156                        l2169 3134                        l2521 2C68  
                      l2513 2C3C                        l2433 29FE                        l2425 29D2  
                      l2409 2966                        l2361 2800                        l2345 2794  
                      l2337 2768                        l2273 25CC                        l2505 2BBE  
                      l2265 25A0                        l2257 251E                        l2099 3606  
                      l2195 31C0                        l2187 319C                        l2179 3168  
                      l2611 2EB8                        l2603 2E74                        l2531 2CAC  
                      l2515 2C58                        l2507 2C14                        l2451 2A86  
                      l2443 2A42                        l2427 29EE                        l2419 29AA  
                      l2363 281C                        l2355 27D8                        l2339 2784  
                      l2291 2654                        l2283 2610                        l2267 25BC  
                      l2259 2578                        l2197 31C8                        l2189 31A4  
                      l2621 2EE8                        l2605 2E7C                        l2533 2CB4  
                      l2525 2C88                        l2509 2C1C                        l2461 2AB6  
                      l2445 2A4A                        l2437 2A1E                        l2373 284C  
                      l2357 27E0                        l2349 27B4                        l2285 2618  
                      l2277 25EC                        l2381 2870                        l2701 2FC8  
                      l2623 2F04                        l2615 2EC0                        l2551 2D3C  
                      l2543 2CF8                        l2527 2CA4                        l2519 2C60  
                      l2463 2AD2                        l2455 2A8E                        l2439 2A3A  
                      l2391 290A                        l2383 28C6                        l2375 2868  
                      l2367 2824                        l2295 265C                        l2279 2608  
                      l2631 3634                        l2703 2FD2                        l2617 2EC8  
                      l2609 2E9C                        l2561 2D6C                        l2545 2D00  
                      l2537 2CD4                        l2481 2B2E                        l2473 2B02  
                      l2457 2A96                        l2449 2A6A                        l2385 28CE  
                      l2369 282C                        l2297 2664                        l2289 2638  
                      l2641 3402                        l2633 363C                        l2713 2FFA  
                      l2705 2FDC                        l2563 2D88                        l2555 2D44  
                      l2539 2CF0                        l2491 2B72                        l2475 2B1E  
                      l2467 2ADA                        l2395 2912                        l2643 340A  
                      l2635 33D2                        l2715 303C                        l2707 2FF2  
                      l2581 2DE4                        l2573 2DB8                        l2557 2D4C  
                      l2549 2D20                        l2493 2B7A                        l2485 2B4E  
                      l2469 2AE2                        l2397 291A                        l2629 2F0C  
                      l2389 28EE                        l2637 33DE                        l2717 3040  
                      l2591 2E28                        l2575 2DD4                        l2567 2D90  
                      l2487 2B6A                        l2479 2B26                        l2639 33E2  
                      l2593 2E30                        l2585 2E04                        l2569 2D98  
                      l2497 2B9A                        l2587 2E20                        l2579 2DDC  
                      l2499 2BB6                        l2691 2F96                        l2683 2F64  
                      l2597 2E50                        l2693 2FA0                        l2685 2F72  
                      l2599 2E6C                        l2695 2FAA                        l2687 2F7A  
                      l2697 2FB4                        l2689 2F8C                        l2699 2FBE  
                      STR_1 2501                        STR_2 2510                        u1000 32EC  
                      u1001 32E8                        u1010 35BA                        u1011 35B6  
                      u1100 27B0                        u1101 27AC                        u1110 27FC  
                      u1030 259C                        u1111 27F8                        u1031 2598  
                      u1200 2AFE                        u1120 2848                        u1040 25E8  
                      u1201 2AFA                        u1121 2844                        u1041 25E4  
                      u1210 2B4A                        u1130 28EA                        u1050 2634  
                      u1211 2B46                        u1131 28E6                        u1051 2630  
                      u1300 2E4C                        u1220 2B96                        u1140 2936  
                      u1060 2680                        u1301 2E48                        u1221 2B92  
                      u1141 2932                        u1061 267C                        u1310 2E98  
                      u1230 2C38                        u1150 2982                        u1070 26CC  
                      u1311 2E94                        u1231 2C34                        u1151 297E  
                      u1071 26C8                        u1320 2EE4                        u1240 2C84  
                      u1160 29CE                        u1080 2718                        u1321 2EE0  
                      u1241 2C80                        u1161 29CA                        u1081 2714  
                      u1250 2CD0                        u1170 2A1A                        u1090 2764  
                      u1330 3668                        u1251 2CCC                        u1171 2A16  
                      u1091 2760                        u1331 3664                        u1260 2D1C  
                      u1180 2A66                        u1340 33FE                        u1261 2D18  
                      u1181 2A62                        u1341 33FA                        u1270 2D68  
                      u1190 2AB2                        u1350 3432                        u1407 3398  
                      u1271 2D64                        u1191 2AAE                        u1351 342E  
                      u1280 2DB4                        u1360 3056                        _LATD 04C1  
                      u1417 33B4                        u1281 2DB0                        u1361 3052  
                      u1290 2E00                        u1507 334C                        u1427 349C  
                      u1291 2DFC                        u1517 36A8                        u1437 34AC  
                      u1527 3732                        u1447 3678                        u1457 3306  
                      u1377 2FE6                        u1467 3314                        u1387 351C  
                      u1477 331E                        u1397 3376                        u1487 3334  
                      u1497 3342                        _main 2F64                        fsr1h 04E2  
                      fsr2h 04DA                        indf1 04E7                        indf2 04DF  
                      fsr1l 04E1                        fsr2l 04D9                        start 0102  
             ?_CURSOR_ONOFF 0501              _decodificacion 251C                ___param_bank 0000  
           ??_ENVIA_LCD_CMD 0502            __end_of_LCD_INIT 33D2            __end_of_LEER_LCD 336C  
                     ?_main 0501             __end_of___awdiv 3122             __end_of___awmod 31D2  
           ___awdiv@divisor 0509                       i2l410 374C                       i2l405 371E  
           ___awdiv@counter 050B                       _OSCEN 00B3                       _TMR0H 0319  
                     _PORTD 04D1                       _TRISD 04C9                       _TRISE 04CA  
          __end_of_TMR0_ISR 3720                       _num_0 05B0                       _num_1 05A8  
                     _num_2 05A0                       _num_3 0598                       _num_4 0590  
                     _num_5 0588                       _num_6 0580                       _num_7 0578  
                     _num_8 0570                       _num_9 0568                 ?_POS_CURSOR 0504  
                     tablat 04F5        __end_of_MAX7219_Init 3578                       status 04D8  
    __end_of_decodificacion 2F64              ??_CURSOR_ONOFF 0504             __initialization 35BC  
              __end_of_main 305E                      ??_main 054F               __activetblptr 0003  
          ___awdiv@dividend 0507                      _ANSELD 0418                      _ANSELE 0420  
                    _T0CON0 031A                      _T0CON1 031B                      i2l2061 3714  
                    i2l2063 371C                      i2l2057 3700                      i2l2059 3702  
                    _OSCFRQ 00B1             ?_decodificacion 0501                   ??___awdiv 050B  
                 ??___awmod 0505        __end_of_ENVIA_NIBBLE 373C            ___awdiv@quotient 050D  
           ___awmod@divisor 0503                      isa$std 0001             ___awmod@counter 0505  
                    _strcat 33D2                      _strcpy 3634                      _strlen 35FC  
              __mediumconst 0000                      tblptrh 04F7                      tblptrl 04F6  
                    tblptru 04F8                ??_BORRAR_LCD 0504                   ?_LCD_INIT 0501  
                 ?_LEER_LCD 0501                  __accesstop 0560     __end_of__initialization 35F6  
              _deco_centena 0557                ??_LCD_CONFIG 0504               ___rparam_used 0001  
              ??_ENVIA_CHAR 0502              __pcstackCOMRAM 0501                __pidataBANK5 3434  
                 ?_TMR0_ISR 0501              ivt0x8_undefint 0100          __end_of_BORRAR_LCD 374C  
          _ESCRIBE_MENSAJE2 3578            ENVIA_LCD_CMD@aux 0503        __end_of_CURSOR_ONOFF 3700  
        __end_of_LCD_CONFIG 34DE          __end_of_ENVIA_CHAR 36D0                  ??_LCD_INIT 0505  
                ??_LEER_LCD 0501            ENVIA_NIBBLE@dato 0501                     IVTBASEH 045E  
                   IVTBASEL 045D                     IVTBASEU 045F             decodificacion@i 0513  
                ??_TMR0_ISR 0501                     ?_strcat 0501                _MAX7219_Init 352C  
                   ?_strcpy 0501                     ?_strlen 0501                     _OSCCON1 00AD  
                   i2u77_40 3714         decodificacion@i_421 0515                     i2u77_41 3710  
       decodificacion@i_430 0527         decodificacion@i_422 0517         decodificacion@i_431 0529  
       decodificacion@i_423 0519         decodificacion@i_440 053B         decodificacion@i_432 052B  
       decodificacion@i_424 051B         decodificacion@i_441 053D         decodificacion@i_433 052D  
       decodificacion@i_425 051D         decodificacion@i_442 053F         decodificacion@i_434 052F  
       decodificacion@i_426 051F         decodificacion@i_443 0541         decodificacion@i_435 0531  
       decodificacion@i_427 0521         decodificacion@i_444 0543         decodificacion@i_436 0533  
       decodificacion@i_428 0523         decodificacion@i_445 0545         decodificacion@i_437 0535  
       decodificacion@i_429 0525         decodificacion@i_446 0547         decodificacion@i_438 0537  
       decodificacion@i_447 0549         decodificacion@i_439 0539         decodificacion@i_448 054B  
       decodificacion@i_449 054D                ??_POS_CURSOR 0505                     __Hparam 0000  
                   __Lparam 0000           __end_of_configuro 352C                     ___awdiv 305E  
                   ___awmod 3122                __psmallconst 2500       __end_of_ENVIA_LCD_CMD 369E  
                   __pcinit 35BC          __end_of_POS_CURSOR 32FA                     __ramtop 2500  
                   __ptext0 2F64                     __ptext1 3634                     __ptext2 33D2  
                   __ptext3 251C                     __ptext4 3122                     __ptext5 305E  
                   __ptext6 34DE                     __ptext7 352C                     __ptext8 31D2  
                   __ptext9 336C                     _letra_a 0560            ___awmod@dividend 0501  
             ??_default_ISR 0501            ??_decodificacion 050F                _ENVIA_NIBBLE 3720  
      end_of_initialization 35F6                     postdec1 04E5                     postinc0 04EE  
                _variablazo 0554                     strcat@i 0505                     strcpy@d 0505  
                   strlen@a 0503                     strlen@s 0501      MAX7219_WriteData2@dato 0501  
 MAX7219_WriteData2@comando 0504           ESCRIBE_MENSAJE2@i 0508  __end_of_MAX7219_WriteData2 3280  
                 _TRISCbits 04C8       decodificacion@centena 050F         __end_of_default_ISR 374E  
                main@cuenta 0551    __end_of_ESCRIBE_MENSAJE2 35BC                _CURSOR_ONOFF 36D0  
        CURSOR_ONOFF@estado 0504              __end_of_strcat 3434              __end_of_strcpy 366A  
            __end_of_strlen 3634               ??_CURSOR_HOME 0504         start_initialization 35BC  
                ivt0x8_base 0008           ENVIA_LCD_CMD@dato 0502                 __pdataBANK5 0560  
                  ??_strcat 0505                    ??_strcpy 0505                    ??_strlen 0503  
               _deco_decena 0556                 __pbssCOMRAM 0553                 _default_ISR 374C  
               _deco_unidad 0555         __end_of_CURSOR_HOME 3744                    ?___awdiv 0507  
                  ?___awmod 0501                   _configuro 34DE                 __smallconst 2500  
            _desplazamiento 0553                    _LCD_INIT 336C                    _LEER_LCD 32FA  
                  _LATCbits 04C0                    _LATDbits 04C1                    _LATEbits 04C2  
               _concatenado 0558                    _PIE3bits 04A1                    _PIR3bits 04B1  
                  _TMR0_ISR 3700        decodificacion@decena 0510              POS_CURSOR@fila 0505  
                ?_configuro 0501      ESCRIBE_MENSAJE2@cadena 0505        decodificacion@numero 0512  
      decodificacion@unidad 0511                 _CURSOR_HOME 373C                 _INTCON0bits 04D6  
                 copy_data0 35D0          _MAX7219_WriteData2 31D2                    __Hrparam 0000  
         ?_ESCRIBE_MENSAJE2 0505                    __Lrparam 0000         ?_MAX7219_WriteData2 0501  
        ??_ESCRIBE_MENSAJE2 0506                  _ANSELCbits 0410                  strcat@dest 0501  
                  __pivt0x8 0008        ??_MAX7219_WriteData2 0502                    __ptext10 348C  
                  __ptext11 36D0                    __ptext20 3720                    __ptext12 373C  
                  __ptext21 3700                    __ptext13 3744                    __ptext22 374C  
                  __ptext14 3280                    __ptext15 366A                    __ptext16 32FA  
                  __ptext17 3578                    __ptext18 35FC                    __ptext19 369E  
                _BORRAR_LCD 3744                  strcpy@dest 0501                  _LCD_CONFIG 348C  
                _ENVIA_CHAR 369E                    isa$xinst 0000               _ENVIA_LCD_CMD 366A  
               ??_configuro 0507               ?_MAX7219_Init 0501                ?_default_ISR 0501  
                  intlevel2 0000                   strcat@src 0503                   strcpy@src 0503  
            ?_ENVIA_LCD_CMD 0501              ??_MAX7219_Init 0506         ESCRIBE_MENSAJE2@tam 0507  
               ?_BORRAR_LCD 0501               ?_ENVIA_NIBBLE 0501                  _POS_CURSOR 3280  
   MAX7219_WriteData2@var_x 0505                 ?_LCD_CONFIG 0501                 ?_ENVIA_CHAR 0501  
         POS_CURSOR@columna 0504  
