

Microchip MPLAB XC8 Assembler V2.46 build 20240104201356 
                                                                                               Mon Jun 10 18:31:05 2024

Microchip MPLAB XC8 C Compiler v2.46 (Free license) build 20240104201356 Og1 
     1                           	processor	18F57Q43
     2                           	fnconf	rparam,??,?,0
     3                           	pagewidth 120
     4                           	opt	flic
     5                           	psect	smallconst,global,reloc=2,class=SMALLCONST,delta=1,noexec
     6                           	psect	cinit,global,reloc=2,class=CODE,delta=1
     7                           	psect	bssCOMRAM,global,class=COMRAM,space=1,delta=1,lowdata,noexec
     8                           	psect	cstackCOMRAM,global,class=COMRAM,space=1,delta=1,lowdata,noexec
     9                           	psect	text0,global,reloc=2,class=CODE,delta=1
    10                           	psect	text1,global,reloc=2,class=CODE,delta=1
    11                           	psect	text2,global,reloc=2,class=CODE,delta=1
    12                           	psect	text3,global,reloc=2,class=CODE,delta=1
    13                           	psect	text4,global,reloc=2,class=CODE,delta=1
    14                           	psect	text5,global,reloc=2,class=CODE,delta=1
    15                           	psect	text6,global,reloc=2,class=CODE,delta=1,group=2
    16                           	psect	text7,global,reloc=2,class=CODE,delta=1
    17                           	psect	text8,global,reloc=2,class=CODE,delta=1
    18                           	psect	text9,global,reloc=2,class=CODE,delta=1
    19                           	psect	text10,global,reloc=2,class=CODE,delta=1
    20                           	psect	text11,global,reloc=2,class=CODE,delta=1
    21                           	psect	text12,global,reloc=2,class=CODE,delta=1
    22                           	psect	text13,global,reloc=2,class=CODE,delta=1
    23                           	psect	text14,global,reloc=2,class=CODE,delta=1
    24                           	psect	text15,global,reloc=2,class=CODE,delta=1
    25                           	psect	text16,global,reloc=2,class=CODE,delta=1
    26                           	psect	text17,global,reloc=2,class=CODE,delta=1
    27                           	psect	text18,global,reloc=2,class=CODE,delta=1,group=1
    28                           	psect	text19,global,reloc=2,class=CODE,delta=1,group=1
    29                           	psect	text20,global,reloc=2,class=CODE,delta=1
    30                           	psect	text21,global,reloc=2,class=CODE,delta=1
    31                           	psect	text22,global,reloc=2,class=CODE,delta=1
    32                           	psect	text23,global,reloc=2,class=CODE,delta=1
    33                           	psect	text24,global,reloc=2,class=CODE,delta=1
    34                           	psect	text25,global,reloc=2,class=CODE,delta=1
    35                           	psect	text26,global,reloc=2,class=CODE,delta=1
    36                           	psect	intsave_regs,global,class=BIGRAM,space=1,delta=1,noexec
    37                           	psect	rparam,global,class=COMRAM,space=1,delta=1,noexec
    38                           	psect	config,global,abs,ovrld,class=CONFIG,space=4,delta=1,noexec
    39   000000                     
    40                           ; Generated 18/12/2023 GMT
    41                           ; 
    42                           ; Copyright © 2023, Microchip Technology Inc. and its subsidiaries ("Microchip")
    43                           ; All rights reserved.
    44                           ; 
    45                           ; This software is developed by Microchip Technology Inc. and its subsidiaries ("Microch
      +                          ip").
    46                           ; 
    47                           ; Redistribution and use in source and binary forms, with or without modification, are
    48                           ; permitted provided that the following conditions are met:
    49                           ; 
    50                           ;     1. Redistributions of source code must retain the above copyright notice, this lis
      +                          t of
    51                           ;        conditions and the following disclaimer.
    52                           ; 
    53                           ;     2. Redistributions in binary form must reproduce the above copyright notice, this 
      +                          list
    54                           ;        of conditions and the following disclaimer in the documentation and/or other
    55                           ;        materials provided with the distribution. Publication is not required when
    56                           ;        this file is used in an embedded application.
    57                           ; 
    58                           ;     3. Microchip's name may not be used to endorse or promote products derived from th
      +                          is
    59                           ;        software without specific prior written permission.
    60                           ; 
    61                           ; THIS SOFTWARE IS PROVIDED BY MICROCHIP "AS IS" AND ANY EXPRESS OR IMPLIED WARRANTIES,
    62                           ; INCLUDING, BUT NOT LIMITED TO, THE IMPLIED WARRANTIES OF MERCHANTABILITY AND FITNESS F
      +                          OR
    63                           ; PURPOSE ARE DISCLAIMED.  IN NO EVENT SHALL MICROCHIP BE LIABLE FOR ANY DIRECT, INDIREC
      +                          T,
    64                           ; INCIDENTAL, SPECIAL, EXEMPLARY, OR CONSEQUENTIAL DAMAGES (INCLUDING BUT NOT LIMITED TO
    65                           ; PROCUREMENT OF SUBSTITUTE GOODS OR SERVICES; LOSS OF USE, DATA OR PROFITS; OR BUSINESS
    66                           ; INTERRUPTION) HOWSOEVER CAUSED AND ON ANY THEORY OF LIABILITY, WHETHER IN CONTRACT, ST
      +                          RICT
    67                           ; LIABILITY, OR TORT (INCLUDING NEGLIGENCE OR OTHERWISE) ARISING IN ANY WAY OUT OF THE U
      +                          SE OF
    68                           ; THIS SOFTWARE, EVEN IF ADVISED OF THE POSSIBILITY OF SUCH DAMAGE.
    69                           ; 
    70                           ; 
    71                           ; Code-generator required, PIC18F57Q43 Definitions
    72                           ; 
    73                           ; SFR Addresses
    74   000000                     _U1CON2	set	685
    75   000000                     _U1CON1	set	684
    76   000000                     _I2C1CON1bits	set	661
    77   000000                     _I2C1CON2bits	set	662
    78   000000                     _I2C1CLKbits	set	668
    79   000000                     _OSCCON1	set	173
    80   000000                     _RC3PPS	set	532
    81   000000                     _ANSELCbits	set	1040
    82   000000                     _TRISCbits	set	1224
    83   000000                     _PORTBbits	set	1231
    84   000000                     _ODCONCbits	set	1042
    85   000000                     _LATBbits	set	1215
    86   000000                     _TRISBbits	set	1223
    87   000000                     _RF0PPS	set	553
    88   000000                     _RC4I2Cbits	set	646
    89   000000                     _RC3I2Cbits	set	647
    90   000000                     _RC4PPS	set	533
    91   000000                     _I2C1TXB	set	652
    92   000000                     _I2C1CNT	set	653
    93   000000                     _I2C1CON0bits	set	660
    94   000000                     _U1TXB	set	675
    95   000000                     _U1CON0	set	683
    96   000000                     _U1BRGL	set	686
    97   000000                     _U1BRGH	set	687
    98   000000                     _ANSELBbits	set	1032
    99   000000                     _I2C1STAT1bits	set	665
   100   000000                     _I2C1ADB1	set	655
   101   000000                     _I2C1PIRbits	set	666
   102   000000                     _U1ERRIRbits	set	690
   103   000000                     _U1RXPPS	set	626
   104   000000                     _OSCFRQ	set	177
   105   000000                     _OSCEN	set	179
   106                           
   107                           	psect	smallconst
   108   002500                     __psmallconst:
   109                           	callstack 0
   110   002500  00                 	db	0
   111   002501                     STR_1:
   112   002501  49                 	db	73	;'I'
   113   002502  6E                 	db	110	;'n'
   114   002503  67                 	db	103	;'g'
   115   002504  65                 	db	101	;'e'
   116   002505  6E                 	db	110	;'n'
   117   002506  69                 	db	105	;'i'
   118   002507  65                 	db	101	;'e'
   119   002508  72                 	db	114	;'r'
   120   002509  69                 	db	105	;'i'
   121   00250A  61                 	db	97	;'a'
   122   00250B  20                 	db	32
   123   00250C  45                 	db	69	;'E'
   124   00250D  6C                 	db	108	;'l'
   125   00250E  65                 	db	101	;'e'
   126   00250F  63                 	db	99	;'c'
   127   002510  74                 	db	116	;'t'
   128   002511  72                 	db	114	;'r'
   129   002512  6F                 	db	111	;'o'
   130   002513  6E                 	db	110	;'n'
   131   002514  69                 	db	105	;'i'
   132   002515  63                 	db	99	;'c'
   133   002516  61                 	db	97	;'a'
   134   002517  20                 	db	32
   135   002518  55                 	db	85	;'U'
   136   002519  50                 	db	80	;'P'
   137   00251A  41                 	db	65	;'A'
   138   00251B  4F                 	db	79	;'O'
   139   00251C  20                 	db	32
   140   00251D  32                 	db	50	;'2'
   141   00251E  30                 	db	48	;'0'
   142   00251F  32                 	db	50	;'2'
   143   002520  34                 	db	52	;'4'
   144   002521  00                 	db	0
   145   002522                     STR_3:
   146   002522  54                 	db	84	;'T'
   147   002523  61                 	db	97	;'a'
   148   002524  6C                 	db	108	;'l'
   149   002525  6C                 	db	108	;'l'
   150   002526  65                 	db	101	;'e'
   151   002527  72                 	db	114	;'r'
   152   002528  20                 	db	32
   153   002529  64                 	db	100	;'d'
   154   00252A  65                 	db	101	;'e'
   155   00252B  20                 	db	32
   156   00252C  6D                 	db	109	;'m'
   157   00252D  69                 	db	105	;'i'
   158   00252E  63                 	db	99	;'c'
   159   00252F  72                 	db	114	;'r'
   160   002530  6F                 	db	111	;'o'
   161   002531  63                 	db	99	;'c'
   162   002532  6F                 	db	111	;'o'
   163   002533  6E                 	db	110	;'n'
   164   002534  74                 	db	116	;'t'
   165   002535  72                 	db	114	;'r'
   166   002536  6F                 	db	111	;'o'
   167   002537  6C                 	db	108	;'l'
   168   002538  61                 	db	97	;'a'
   169   002539  64                 	db	100	;'d'
   170   00253A  6F                 	db	111	;'o'
   171   00253B  72                 	db	114	;'r'
   172   00253C  65                 	db	101	;'e'
   173   00253D  73                 	db	115	;'s'
   174   00253E  00                 	db	0
   175   00253F                     STR_6:
   176   00253F  54                 	db	84	;'T'
   177   002540  65                 	db	101	;'e'
   178   002541  6D                 	db	109	;'m'
   179   002542  70                 	db	112	;'p'
   180   002543  65                 	db	101	;'e'
   181   002544  72                 	db	114	;'r'
   182   002545  61                 	db	97	;'a'
   183   002546  74                 	db	116	;'t'
   184   002547  75                 	db	117	;'u'
   185   002548  72                 	db	114	;'r'
   186   002549  61                 	db	97	;'a'
   187   00254A  20                 	db	32
   188   00254B  44                 	db	68	;'D'
   189   00254C  48                 	db	72	;'H'
   190   00254D  54                 	db	84	;'T'
   191   00254E  32                 	db	50	;'2'
   192   00254F  32                 	db	50	;'2'
   193   002550  3A                 	db	58	;':'
   194   002551  20                 	db	32
   195   002552  00                 	db	0
   196   002553                     STR_4:
   197   002553  45                 	db	69	;'E'
   198   002554  6C                 	db	108	;'l'
   199   002555  65                 	db	101	;'e'
   200   002556  63                 	db	99	;'c'
   201   002557  74                 	db	116	;'t'
   202   002558  72                 	db	114	;'r'
   203   002559  6F                 	db	111	;'o'
   204   00255A  6E                 	db	110	;'n'
   205   00255B  69                 	db	105	;'i'
   206   00255C  63                 	db	99	;'c'
   207   00255D  61                 	db	97	;'a'
   208   00255E  20                 	db	32
   209   00255F  55                 	db	85	;'U'
   210   002560  50                 	db	80	;'P'
   211   002561  41                 	db	65	;'A'
   212   002562  4F                 	db	79	;'O'
   213   002563  00                 	db	0
   214   002564                     STR_9:
   215   002564  48                 	db	72	;'H'
   216   002565  75                 	db	117	;'u'
   217   002566  6D                 	db	109	;'m'
   218   002567  65                 	db	101	;'e'
   219   002568  64                 	db	100	;'d'
   220   002569  61                 	db	97	;'a'
   221   00256A  64                 	db	100	;'d'
   222   00256B  20                 	db	32
   223   00256C  44                 	db	68	;'D'
   224   00256D  48                 	db	72	;'H'
   225   00256E  54                 	db	84	;'T'
   226   00256F  32                 	db	50	;'2'
   227   002570  32                 	db	50	;'2'
   228   002571  3A                 	db	58	;':'
   229   002572  20                 	db	32
   230   002573  00                 	db	0
   231   002574                     STR_5:
   232   002574  54                 	db	84	;'T'
   233   002575  61                 	db	97	;'a'
   234   002576  6C                 	db	108	;'l'
   235   002577  6C                 	db	108	;'l'
   236   002578  65                 	db	101	;'e'
   237   002579  72                 	db	114	;'r'
   238   00257A  20                 	db	32
   239   00257B  64                 	db	100	;'d'
   240   00257C  65                 	db	101	;'e'
   241   00257D  20                 	db	32
   242   00257E  4D                 	db	77	;'M'
   243   00257F  69                 	db	105	;'i'
   244   002580  63                 	db	99	;'c'
   245   002581  72                 	db	114	;'r'
   246   002582  6F                 	db	111	;'o'
   247   002583  00                 	db	0
   248   002584                     STR_2:
   249   002584  53                 	db	83	;'S'
   250   002585  65                 	db	101	;'e'
   251   002586  6D                 	db	109	;'m'
   252   002587  61                 	db	97	;'a'
   253   002588  6E                 	db	110	;'n'
   254   002589  61                 	db	97	;'a'
   255   00258A  20                 	db	32
   256   00258B  31                 	db	49	;'1'
   257   00258C  32                 	db	50	;'2'
   258   00258D  00                 	db	0
   259   00258E                     STR_11:
   260   00258E  48                 	db	72	;'H'
   261   00258F  75                 	db	117	;'u'
   262   002590  6D                 	db	109	;'m'
   263   002591  69                 	db	105	;'i'
   264   002592  64                 	db	100	;'d'
   265   002593  3A                 	db	58	;':'
   266   002594  20                 	db	32
   267   002595  00                 	db	0
   268   002596                     STR_8:
   269   002596  54                 	db	84	;'T'
   270   002597  65                 	db	101	;'e'
   271   002598  6D                 	db	109	;'m'
   272   002599  70                 	db	112	;'p'
   273   00259A  3A                 	db	58	;':'
   274   00259B  20                 	db	32
   275   00259C  00                 	db	0
   276   00259D                     STR_10:
   277   00259D  25                 	db	37
   278   00259E  20                 	db	32
   279   00259F  52                 	db	82	;'R'
   280   0025A0  48                 	db	72	;'H'
   281   0025A1  00                 	db	0
   282   0025A2                     STR_7:
   283   0025A2  2A                 	db	42
   284   0025A3  43                 	db	67	;'C'
   285   0025A4  00                 	db	0
   286   0025A5  00                 	db	0	; dummy byte at the end
   287   000000                     
   288                           ; #config settings
   289                           
   290                           	psect	cinit
   291   0038BA                     __pcinit:
   292                           	callstack 0
   293   0038BA                     start_initialization:
   294                           	callstack 0
   295   0038BA                     __initialization:
   296                           	callstack 0
   297                           
   298                           ; Clear objects allocated to COMRAM (4 bytes)
   299   0038BA  6A1B               	clrf	(__pbssCOMRAM+3)& (0+255),c
   300   0038BC  6A1A               	clrf	(__pbssCOMRAM+2)& (0+255),c
   301   0038BE  6A19               	clrf	(__pbssCOMRAM+1)& (0+255),c
   302   0038C0  6A18               	clrf	__pbssCOMRAM& (0+255),c
   303   0038C2                     end_of_initialization:
   304                           	callstack 0
   305   0038C2                     __end_of__initialization:
   306                           	callstack 0
   307   0038C2  0100               	movlb	0
   308   0038C4  EF27  F018         	goto	_main	;jump to C main() function
   309                           
   310                           	psect	bssCOMRAM
   311   000518                     __pbssCOMRAM:
   312                           	callstack 0
   313   000518                     _humedad:
   314                           	callstack 0
   315   000518                     	ds	2
   316   00051A                     _temperatura:
   317                           	callstack 0
   318   00051A                     	ds	2
   319                           
   320                           	psect	cstackCOMRAM
   321   000501                     __pcstackCOMRAM:
   322                           	callstack 0
   323   000501                     ??_DHT_Start:
   324   000501                     ?_strlen:
   325                           	callstack 0
   326   000501                     ?___lwmod:
   327                           	callstack 0
   328   000501                     I2C1_WRITESINGLEBYTE@dato:
   329                           	callstack 0
   330   000501                     DHT_Check@modelo:
   331                           	callstack 0
   332   000501                     DHT_Read@modelo:
   333                           	callstack 0
   334   000501                     U1_BYTE_SEND@dato:
   335                           	callstack 0
   336   000501                     strlen@s:
   337                           	callstack 0
   338   000501                     U1_INIT@velocidad:
   339                           	callstack 0
   340   000501                     ___lwmod@dividend:
   341                           	callstack 0
   342                           
   343                           ; 2 bytes @ 0x0
   344   000501                     	ds	1
   345   000502                     I2C1_WRITESINGLEBYTE@direccion:
   346                           	callstack 0
   347   000502                     DHT_Start@modelo:
   348                           	callstack 0
   349   000502                     DHT_Read@x:
   350                           	callstack 0
   351                           
   352                           ; 1 bytes @ 0x1
   353   000502                     	ds	1
   354   000503                     ??_I2C_ENVIA_LCD_CMD:
   355   000503                     ??_I2C_ENVIA_LCD_DATA:
   356   000503                     DHT_Read@data:
   357                           	callstack 0
   358   000503                     strlen@a:
   359                           	callstack 0
   360   000503                     ___lwmod@divisor:
   361                           	callstack 0
   362                           
   363                           ; 2 bytes @ 0x2
   364   000503                     	ds	1
   365   000504                     ?_DHT_GetTemp:
   366                           	callstack 0
   367   000504                     ?_DHT_GetHumid:
   368                           	callstack 0
   369   000504                     I2C_ENVIA_LCD_DATA@data:
   370                           	callstack 0
   371   000504                     I2C_ENVIA_LCD_CMD@command:
   372                           	callstack 0
   373   000504                     U1_STRING_SEND@cadena:
   374                           	callstack 0
   375                           
   376                           ; 1 bytes @ 0x3
   377   000504                     	ds	1
   378   000505                     ??_U1_STRING_SEND:
   379   000505                     I2C_ENVIA_LCD_DATA@highnibble:
   380                           	callstack 0
   381   000505                     I2C_ENVIA_LCD_CMD@highnibble:
   382                           	callstack 0
   383   000505                     ___lwmod@counter:
   384                           	callstack 0
   385                           
   386                           ; 1 bytes @ 0x4
   387   000505                     	ds	1
   388   000506                     ??_DHT_GetTemp:
   389   000506                     ??_DHT_GetHumid:
   390   000506                     ?___lwdiv:
   391                           	callstack 0
   392   000506                     I2C_ENVIA_LCD_DATA@lownibble:
   393                           	callstack 0
   394   000506                     I2C_ENVIA_LCD_CMD@lownibble:
   395                           	callstack 0
   396   000506                     U1_STRING_SEND@tam:
   397                           	callstack 0
   398   000506                     ___lwdiv@dividend:
   399                           	callstack 0
   400                           
   401                           ; 2 bytes @ 0x5
   402   000506                     	ds	1
   403   000507                     I2C_POS_CURSOR@columna:
   404                           	callstack 0
   405   000507                     I2C_CURSOR_ONOFF@estado:
   406                           	callstack 0
   407   000507                     I2C_ESCRIBE_MENSAJE2@cadena:
   408                           	callstack 0
   409   000507                     U1_STRING_SEND@i:
   410                           	callstack 0
   411                           
   412                           ; 1 bytes @ 0x6
   413   000507                     	ds	1
   414   000508                     ??_I2C_POS_CURSOR:
   415   000508                     ??_I2C_ESCRIBE_MENSAJE2:
   416   000508                     ??_I2C_LCD_INIT:
   417   000508                     DHT_GetTemp@Temp_Dec:
   418                           	callstack 0
   419   000508                     DHT_GetHumid@RH_Dec:
   420                           	callstack 0
   421   000508                     ___lwdiv@divisor:
   422                           	callstack 0
   423                           
   424                           ; 2 bytes @ 0x7
   425   000508                     	ds	1
   426   000509                     I2C_POS_CURSOR@fila:
   427                           	callstack 0
   428   000509                     I2C_ESCRIBE_MENSAJE2@tam:
   429                           	callstack 0
   430   000509                     DHT_GetTemp@valor_dht:
   431                           	callstack 0
   432   000509                     DHT_GetHumid@valor_dht:
   433                           	callstack 0
   434                           
   435                           ; 2 bytes @ 0x8
   436   000509                     	ds	1
   437   00050A                     I2C_ESCRIBE_MENSAJE2@i:
   438                           	callstack 0
   439   00050A                     ___lwdiv@quotient:
   440                           	callstack 0
   441                           
   442                           ; 2 bytes @ 0x9
   443   00050A                     	ds	1
   444   00050B                     ??_splash_screen:
   445   00050B                     DHT_GetTemp@Temp_Ent:
   446                           	callstack 0
   447   00050B                     DHT_GetHumid@RH_Ent:
   448                           	callstack 0
   449                           
   450                           ; 1 bytes @ 0xA
   451   00050B                     	ds	1
   452   00050C                     DHT_GetTemp@modelo:
   453                           	callstack 0
   454   00050C                     DHT_GetHumid@modelo:
   455                           	callstack 0
   456   00050C                     ___lwdiv@counter:
   457                           	callstack 0
   458                           
   459                           ; 1 bytes @ 0xB
   460   00050C                     	ds	1
   461   00050D                     I2C_LCD_ESCRIBE_VAR_INT@numero:
   462                           	callstack 0
   463   00050D                     U1_VAR_INT@numero:
   464                           	callstack 0
   465                           
   466                           ; 2 bytes @ 0xC
   467   00050D                     	ds	2
   468   00050F                     I2C_LCD_ESCRIBE_VAR_INT@n_digitos:
   469                           	callstack 0
   470   00050F                     U1_VAR_INT@n_digitos:
   471                           	callstack 0
   472                           
   473                           ; 1 bytes @ 0xE
   474   00050F                     	ds	1
   475   000510                     I2C_LCD_ESCRIBE_VAR_INT@punto:
   476                           	callstack 0
   477   000510                     U1_VAR_INT@punto:
   478                           	callstack 0
   479                           
   480                           ; 1 bytes @ 0xF
   481   000510                     	ds	1
   482   000511                     I2C_LCD_ESCRIBE_VAR_INT@d_millar:
   483                           	callstack 0
   484   000511                     U1_VAR_INT@d_millar:
   485                           	callstack 0
   486                           
   487                           ; 1 bytes @ 0x10
   488   000511                     	ds	1
   489   000512                     I2C_LCD_ESCRIBE_VAR_INT@millar:
   490                           	callstack 0
   491   000512                     U1_VAR_INT@millar:
   492                           	callstack 0
   493                           
   494                           ; 1 bytes @ 0x11
   495   000512                     	ds	1
   496   000513                     I2C_LCD_ESCRIBE_VAR_INT@centena:
   497                           	callstack 0
   498   000513                     U1_VAR_INT@centena:
   499                           	callstack 0
   500                           
   501                           ; 1 bytes @ 0x12
   502   000513                     	ds	1
   503   000514                     I2C_LCD_ESCRIBE_VAR_INT@decena:
   504                           	callstack 0
   505   000514                     U1_VAR_INT@decena:
   506                           	callstack 0
   507                           
   508                           ; 1 bytes @ 0x13
   509   000514                     	ds	1
   510   000515                     I2C_LCD_ESCRIBE_VAR_INT@unidad:
   511                           	callstack 0
   512   000515                     U1_VAR_INT@unidad:
   513                           	callstack 0
   514                           
   515                           ; 1 bytes @ 0x14
   516   000515                     	ds	1
   517   000516                     ??_main:
   518                           
   519                           ; 1 bytes @ 0x15
   520   000516                     	ds	2
   521                           
   522 ;;
   523 ;;Main: autosize = 0, tempsize = 2, incstack = 0, save=0
   524 ;;
   525 ;; *************** function _main *****************
   526 ;; Defined at:
   527 ;;		line 39 in file "maincode01.c"
   528 ;; Parameters:    Size  Location     Type
   529 ;;		None
   530 ;; Auto vars:     Size  Location     Type
   531 ;;		None
   532 ;; Return value:  Size  Location     Type
   533 ;;                  1    wreg      void 
   534 ;; Registers used:
   535 ;;		wreg, status,2, status,0, tblptrl, tblptrh, tblptru, cstack
   536 ;; Tracked objects:
   537 ;;		On entry : 0/0
   538 ;;		On exit  : 0/0
   539 ;;		Unchanged: 0/0
   540 ;; Data sizes:     COMRAM   BANK5   BANK6   BANK7   BANK8   BANK9  BANK10  BANK11  BANK12  BANK13  BANK14  BANK15  BANK1
      +6  BANK17  BANK18  BANK19  BANK20  BANK21  BANK22  BANK23  BANK24  BANK25  BANK26  BANK27  BANK28  BANK29  BANK30  BANK3
      +1  BANK32  BANK33  BANK34  BANK35  BANK36
   541 ;;      Params:         0       0       0       0       0       0       0       0       0       0       0       0       
      +0       0       0       0       0       0       0       0       0       0       0       0       0       0       0       
      +0       0       0       0       0       0
   542 ;;      Locals:         0       0       0       0       0       0       0       0       0       0       0       0       
      +0       0       0       0       0       0       0       0       0       0       0       0       0       0       0       
      +0       0       0       0       0       0
   543 ;;      Temps:          2       0       0       0       0       0       0       0       0       0       0       0       
      +0       0       0       0       0       0       0       0       0       0       0       0       0       0       0       
      +0       0       0       0       0       0
   544 ;;      Totals:         2       0       0       0       0       0       0       0       0       0       0       0       
      +0       0       0       0       0       0       0       0       0       0       0       0       0       0       0       
      +0       0       0       0       0       0
   545 ;;Total ram usage:        2 bytes
   546 ;; Hardware stack levels required when called: 4
   547 ;; This function calls:
   548 ;;		_DHT_GetHumid
   549 ;;		_DHT_GetTemp
   550 ;;		_I2C_ENVIA_LCD_DATA
   551 ;;		_I2C_ESCRIBE_MENSAJE2
   552 ;;		_I2C_LCD_ESCRIBE_VAR_INT
   553 ;;		_I2C_LCD_INIT
   554 ;;		_I2C_POS_CURSOR
   555 ;;		_U1_INIT
   556 ;;		_U1_NEWLINE
   557 ;;		_U1_STRING_SEND
   558 ;;		_U1_VAR_INT
   559 ;;		_configuro
   560 ;;		_splash_screen
   561 ;; This function is called by:
   562 ;;		Startup code after reset
   563 ;; This function uses a non-reentrant model
   564 ;;
   565                           
   566                           	psect	text0
   567   00304E                     __ptext0:
   568                           	callstack 0
   569   00304E                     _main:
   570                           	callstack 123
   571   00304E                     
   572                           ;maincode01.c: 40:     configuro();
   573   00304E  EC55  F01C         	call	_configuro	;wreg free
   574                           
   575                           ;maincode01.c: 41:     U1_INIT(207);
   576   003052  0E00               	movlw	0
   577   003054  6E02               	movwf	(U1_INIT@velocidad+1)^(0+1280),c
   578   003056  0ECF               	movlw	207
   579   003058  6E01               	movwf	U1_INIT@velocidad^(0+1280),c
   580   00305A  EC39  F01C         	call	_U1_INIT	;wreg free
   581   00305E                     
   582                           ;maincode01.c: 42:     I2C_LCD_INIT();
   583   00305E  EC7D  F016         	call	_I2C_LCD_INIT	;wreg free
   584   003062                     
   585                           ;maincode01.c: 43:     splash_screen();
   586   003062  ECB5  F019         	call	_splash_screen	;wreg free
   587   003066                     l2613:
   588                           
   589                           ;maincode01.c: 45:         temperatura = DHT_GetTemp(1);
   590   003066  0E01               	movlw	1
   591   003068  ECF4  F019         	call	_DHT_GetTemp
   592   00306C  C504  F51A         	movff	?_DHT_GetTemp,_temperatura
   593   003070  C505  F51B         	movff	?_DHT_GetTemp+1,_temperatura+1
   594   003074                     
   595                           ;maincode01.c: 46:         _delay((unsigned long)((500)*(32000000UL/4000.0)));
   596   003074  0E15               	movlw	21
   597   003076  6E17               	movwf	(??_main+1)^(0+1280),c
   598   003078  0E4B               	movlw	75
   599   00307A  6E16               	movwf	??_main^(0+1280),c
   600   00307C  0EBE               	movlw	190
   601   00307E                     u927:
   602   00307E  2EE8               	decfsz	wreg,f,c
   603   003080  D7FE               	bra	u927
   604   003082  2E16               	decfsz	??_main^(0+1280),f,c
   605   003084  D7FC               	bra	u927
   606   003086  2E17               	decfsz	(??_main+1)^(0+1280),f,c
   607   003088  D7FA               	bra	u927
   608   00308A  D000               	nop2	
   609   00308C                     
   610                           ;maincode01.c: 47:         humedad = DHT_GetHumid(1);
   611   00308C  0E01               	movlw	1
   612   00308E  EC31  F01A         	call	_DHT_GetHumid
   613   003092  C504  F518         	movff	?_DHT_GetHumid,_humedad
   614   003096  C505  F519         	movff	?_DHT_GetHumid+1,_humedad+1
   615   00309A                     
   616                           ;maincode01.c: 48:         _delay((unsigned long)((500)*(32000000UL/4000.0)));
   617   00309A  0E15               	movlw	21
   618   00309C  6E17               	movwf	(??_main+1)^(0+1280),c
   619   00309E  0E4B               	movlw	75
   620   0030A0  6E16               	movwf	??_main^(0+1280),c
   621   0030A2  0EBE               	movlw	190
   622   0030A4                     u937:
   623   0030A4  2EE8               	decfsz	wreg,f,c
   624   0030A6  D7FE               	bra	u937
   625   0030A8  2E16               	decfsz	??_main^(0+1280),f,c
   626   0030AA  D7FC               	bra	u937
   627   0030AC  2E17               	decfsz	(??_main+1)^(0+1280),f,c
   628   0030AE  D7FA               	bra	u937
   629   0030B0  D000               	nop2	
   630   0030B2                     
   631                           ;maincode01.c: 49:         U1_STRING_SEND("Temperatura DHT22: ");
   632   0030B2  0E3F               	movlw	low STR_6
   633   0030B4  6E04               	movwf	U1_STRING_SEND@cadena^(0+1280),c
   634   0030B6  ECA0  F01B         	call	_U1_STRING_SEND	;wreg free
   635   0030BA                     
   636                           ;maincode01.c: 50:         U1_VAR_INT(temperatura, 3, 1);
   637   0030BA  C51A  F50D         	movff	_temperatura,U1_VAR_INT@numero
   638   0030BE  C51B  F50E         	movff	_temperatura+1,U1_VAR_INT@numero+1
   639   0030C2  0E03               	movlw	3
   640   0030C4  6E0F               	movwf	U1_VAR_INT@n_digitos^(0+1280),c
   641   0030C6  0E01               	movlw	1
   642   0030C8  6E10               	movwf	U1_VAR_INT@punto^(0+1280),c
   643   0030CA  ECD3  F012         	call	_U1_VAR_INT	;wreg free
   644   0030CE                     
   645                           ;maincode01.c: 51:         U1_STRING_SEND("*C");
   646   0030CE  0EA2               	movlw	low STR_7
   647   0030D0  6E04               	movwf	U1_STRING_SEND@cadena^(0+1280),c
   648   0030D2  ECA0  F01B         	call	_U1_STRING_SEND	;wreg free
   649   0030D6                     
   650                           ;maincode01.c: 52:         U1_NEWLINE();
   651   0030D6  EC64  F01C         	call	_U1_NEWLINE	;wreg free
   652   0030DA                     
   653                           ;maincode01.c: 53:         I2C_POS_CURSOR(1,0);
   654   0030DA  0E00               	movlw	0
   655   0030DC  6E07               	movwf	I2C_POS_CURSOR@columna^(0+1280),c
   656   0030DE  0E01               	movlw	1
   657   0030E0  EC70  F019         	call	_I2C_POS_CURSOR
   658   0030E4                     
   659                           ;maincode01.c: 54:         I2C_ESCRIBE_MENSAJE2("Temp: ");
   660   0030E4  0E96               	movlw	low STR_8
   661   0030E6  6E07               	movwf	I2C_ESCRIBE_MENSAJE2@cadena^(0+1280),c
   662   0030E8  ECC2  F01B         	call	_I2C_ESCRIBE_MENSAJE2	;wreg free
   663   0030EC                     
   664                           ;maincode01.c: 55:         I2C_LCD_ESCRIBE_VAR_INT(temperatura, 3, 1);
   665   0030EC  C51A  F50D         	movff	_temperatura,I2C_LCD_ESCRIBE_VAR_INT@numero
   666   0030F0  C51B  F50E         	movff	_temperatura+1,I2C_LCD_ESCRIBE_VAR_INT@numero+1
   667   0030F4  0E03               	movlw	3
   668   0030F6  6E0F               	movwf	I2C_LCD_ESCRIBE_VAR_INT@n_digitos^(0+1280),c
   669   0030F8  0E01               	movlw	1
   670   0030FA  6E10               	movwf	I2C_LCD_ESCRIBE_VAR_INT@punto^(0+1280),c
   671   0030FC  ECA8  F014         	call	_I2C_LCD_ESCRIBE_VAR_INT	;wreg free
   672   003100                     
   673                           ;maincode01.c: 56:         I2C_ENVIA_LCD_DATA(0xDF);
   674   003100  0EDF               	movlw	223
   675   003102  ECDF  F01A         	call	_I2C_ENVIA_LCD_DATA
   676   003106                     
   677                           ;maincode01.c: 57:         I2C_ENVIA_LCD_DATA('C');
   678   003106  0E43               	movlw	67
   679   003108  ECDF  F01A         	call	_I2C_ENVIA_LCD_DATA
   680   00310C                     
   681                           ;maincode01.c: 58:         U1_STRING_SEND("Humedad DHT22: ");
   682   00310C  0E64               	movlw	low STR_9
   683   00310E  6E04               	movwf	U1_STRING_SEND@cadena^(0+1280),c
   684   003110  ECA0  F01B         	call	_U1_STRING_SEND	;wreg free
   685   003114                     
   686                           ;maincode01.c: 59:         U1_VAR_INT(humedad, 3, 1);
   687   003114  C518  F50D         	movff	_humedad,U1_VAR_INT@numero
   688   003118  C519  F50E         	movff	_humedad+1,U1_VAR_INT@numero+1
   689   00311C  0E03               	movlw	3
   690   00311E  6E0F               	movwf	U1_VAR_INT@n_digitos^(0+1280),c
   691   003120  0E01               	movlw	1
   692   003122  6E10               	movwf	U1_VAR_INT@punto^(0+1280),c
   693   003124  ECD3  F012         	call	_U1_VAR_INT	;wreg free
   694   003128                     
   695                           ;maincode01.c: 60:         U1_STRING_SEND("% RH");
   696   003128  0E9D               	movlw	low STR_10
   697   00312A  6E04               	movwf	U1_STRING_SEND@cadena^(0+1280),c
   698   00312C  ECA0  F01B         	call	_U1_STRING_SEND	;wreg free
   699   003130                     
   700                           ;maincode01.c: 61:         U1_NEWLINE();
   701   003130  EC64  F01C         	call	_U1_NEWLINE	;wreg free
   702   003134                     
   703                           ;maincode01.c: 62:         I2C_POS_CURSOR(2,0);
   704   003134  0E00               	movlw	0
   705   003136  6E07               	movwf	I2C_POS_CURSOR@columna^(0+1280),c
   706   003138  0E02               	movlw	2
   707   00313A  EC70  F019         	call	_I2C_POS_CURSOR
   708   00313E                     
   709                           ;maincode01.c: 63:         I2C_ESCRIBE_MENSAJE2("Humid: ");
   710   00313E  0E8E               	movlw	low STR_11
   711   003140  6E07               	movwf	I2C_ESCRIBE_MENSAJE2@cadena^(0+1280),c
   712   003142  ECC2  F01B         	call	_I2C_ESCRIBE_MENSAJE2	;wreg free
   713   003146                     
   714                           ;maincode01.c: 64:         I2C_LCD_ESCRIBE_VAR_INT(humedad, 3, 1);
   715   003146  C518  F50D         	movff	_humedad,I2C_LCD_ESCRIBE_VAR_INT@numero
   716   00314A  C519  F50E         	movff	_humedad+1,I2C_LCD_ESCRIBE_VAR_INT@numero+1
   717   00314E  0E03               	movlw	3
   718   003150  6E0F               	movwf	I2C_LCD_ESCRIBE_VAR_INT@n_digitos^(0+1280),c
   719   003152  0E01               	movlw	1
   720   003154  6E10               	movwf	I2C_LCD_ESCRIBE_VAR_INT@punto^(0+1280),c
   721   003156  ECA8  F014         	call	_I2C_LCD_ESCRIBE_VAR_INT	;wreg free
   722   00315A                     
   723                           ;maincode01.c: 65:         I2C_ESCRIBE_MENSAJE2("% RH");
   724   00315A  0E9D               	movlw	low STR_10
   725   00315C  6E07               	movwf	I2C_ESCRIBE_MENSAJE2@cadena^(0+1280),c
   726   00315E  ECC2  F01B         	call	_I2C_ESCRIBE_MENSAJE2	;wreg free
   727   003162  EF33  F018         	goto	l2613
   728   003166  EFFE  F0FF         	goto	start
   729   00316A                     __end_of_main:
   730                           	callstack 0
   731                           
   732 ;; *************** function _splash_screen *****************
   733 ;; Defined at:
   734 ;;		line 23 in file "maincode01.c"
   735 ;; Parameters:    Size  Location     Type
   736 ;;		None
   737 ;; Auto vars:     Size  Location     Type
   738 ;;		None
   739 ;; Return value:  Size  Location     Type
   740 ;;                  1    wreg      void 
   741 ;; Registers used:
   742 ;;		wreg, status,2, status,0, tblptrl, tblptrh, tblptru, cstack
   743 ;; Tracked objects:
   744 ;;		On entry : 0/0
   745 ;;		On exit  : 0/0
   746 ;;		Unchanged: 0/0
   747 ;; Data sizes:     COMRAM   BANK5   BANK6   BANK7   BANK8   BANK9  BANK10  BANK11  BANK12  BANK13  BANK14  BANK15  BANK1
      +6  BANK17  BANK18  BANK19  BANK20  BANK21  BANK22  BANK23  BANK24  BANK25  BANK26  BANK27  BANK28  BANK29  BANK30  BANK3
      +1  BANK32  BANK33  BANK34  BANK35  BANK36
   748 ;;      Params:         0       0       0       0       0       0       0       0       0       0       0       0       
      +0       0       0       0       0       0       0       0       0       0       0       0       0       0       0       
      +0       0       0       0       0       0
   749 ;;      Locals:         0       0       0       0       0       0       0       0       0       0       0       0       
      +0       0       0       0       0       0       0       0       0       0       0       0       0       0       0       
      +0       0       0       0       0       0
   750 ;;      Temps:          2       0       0       0       0       0       0       0       0       0       0       0       
      +0       0       0       0       0       0       0       0       0       0       0       0       0       0       0       
      +0       0       0       0       0       0
   751 ;;      Totals:         2       0       0       0       0       0       0       0       0       0       0       0       
      +0       0       0       0       0       0       0       0       0       0       0       0       0       0       0       
      +0       0       0       0       0       0
   752 ;;Total ram usage:        2 bytes
   753 ;; Hardware stack levels used: 1
   754 ;; Hardware stack levels required when called: 3
   755 ;; This function calls:
   756 ;;		_I2C_BORRAR_LCD
   757 ;;		_I2C_ESCRIBE_MENSAJE2
   758 ;;		_I2C_POS_CURSOR
   759 ;;		_U1_NEWLINE
   760 ;;		_U1_STRING_SEND
   761 ;; This function is called by:
   762 ;;		_main
   763 ;; This function uses a non-reentrant model
   764 ;;
   765                           
   766                           	psect	text1
   767   00336A                     __ptext1:
   768                           	callstack 0
   769   00336A                     _splash_screen:
   770                           	callstack 123
   771   00336A                     
   772                           ;maincode01.c: 24:     _delay((unsigned long)((1000)*(32000000UL/4000.0)));
   773   00336A  0E29               	movlw	41
   774   00336C  6E0C               	movwf	(??_splash_screen+1)^(0+1280),c
   775   00336E  0E96               	movlw	150
   776   003370  6E0B               	movwf	??_splash_screen^(0+1280),c
   777   003372  0E7F               	movlw	127
   778   003374                     u947:
   779   003374  2EE8               	decfsz	wreg,f,c
   780   003376  D7FE               	bra	u947
   781   003378  2E0B               	decfsz	??_splash_screen^(0+1280),f,c
   782   00337A  D7FC               	bra	u947
   783   00337C  2E0C               	decfsz	(??_splash_screen+1)^(0+1280),f,c
   784   00337E  D7FA               	bra	u947
   785   003380  0000               	nop	
   786   003382                     
   787                           ;maincode01.c: 25:     U1_STRING_SEND("Ingenieria Electronica UPAO 2024");
   788   003382  0E01               	movlw	low STR_1
   789   003384  6E04               	movwf	U1_STRING_SEND@cadena^(0+1280),c
   790   003386  ECA0  F01B         	call	_U1_STRING_SEND	;wreg free
   791   00338A                     
   792                           ;maincode01.c: 26:     U1_NEWLINE();
   793   00338A  EC64  F01C         	call	_U1_NEWLINE	;wreg free
   794   00338E                     
   795                           ;maincode01.c: 27:     U1_STRING_SEND("Semana 12");
   796   00338E  0E84               	movlw	low STR_2
   797   003390  6E04               	movwf	U1_STRING_SEND@cadena^(0+1280),c
   798   003392  ECA0  F01B         	call	_U1_STRING_SEND	;wreg free
   799   003396                     
   800                           ;maincode01.c: 28:     U1_NEWLINE();
   801   003396  EC64  F01C         	call	_U1_NEWLINE	;wreg free
   802   00339A                     
   803                           ;maincode01.c: 29:     U1_STRING_SEND("Taller de microcontroladores");
   804   00339A  0E22               	movlw	low STR_3
   805   00339C  6E04               	movwf	U1_STRING_SEND@cadena^(0+1280),c
   806   00339E  ECA0  F01B         	call	_U1_STRING_SEND	;wreg free
   807   0033A2                     
   808                           ;maincode01.c: 30:     U1_NEWLINE();
   809   0033A2  EC64  F01C         	call	_U1_NEWLINE	;wreg free
   810   0033A6                     
   811                           ;maincode01.c: 31:     I2C_POS_CURSOR(1,0);
   812   0033A6  0E00               	movlw	0
   813   0033A8  6E07               	movwf	I2C_POS_CURSOR@columna^(0+1280),c
   814   0033AA  0E01               	movlw	1
   815   0033AC  EC70  F019         	call	_I2C_POS_CURSOR
   816   0033B0                     
   817                           ;maincode01.c: 32:     I2C_ESCRIBE_MENSAJE2("Electronica UPAO");
   818   0033B0  0E53               	movlw	low STR_4
   819   0033B2  6E07               	movwf	I2C_ESCRIBE_MENSAJE2@cadena^(0+1280),c
   820   0033B4  ECC2  F01B         	call	_I2C_ESCRIBE_MENSAJE2	;wreg free
   821   0033B8                     
   822                           ;maincode01.c: 33:     I2C_POS_CURSOR(2,0);
   823   0033B8  0E00               	movlw	0
   824   0033BA  6E07               	movwf	I2C_POS_CURSOR@columna^(0+1280),c
   825   0033BC  0E02               	movlw	2
   826   0033BE  EC70  F019         	call	_I2C_POS_CURSOR
   827   0033C2                     
   828                           ;maincode01.c: 34:     I2C_ESCRIBE_MENSAJE2("Taller de Micro");
   829   0033C2  0E74               	movlw	low STR_5
   830   0033C4  6E07               	movwf	I2C_ESCRIBE_MENSAJE2@cadena^(0+1280),c
   831   0033C6  ECC2  F01B         	call	_I2C_ESCRIBE_MENSAJE2	;wreg free
   832   0033CA                     
   833                           ;maincode01.c: 35:     _delay((unsigned long)((2000)*(32000000UL/4000.0)));
   834   0033CA  0E52               	movlw	82
   835   0033CC  6E0C               	movwf	(??_splash_screen+1)^(0+1280),c
   836   0033CE  0E2B               	movlw	43
   837   0033D0  6E0B               	movwf	??_splash_screen^(0+1280),c
   838   0033D2  0E00               	movlw	0
   839   0033D4                     u957:
   840   0033D4  2EE8               	decfsz	wreg,f,c
   841   0033D6  D7FE               	bra	u957
   842   0033D8  2E0B               	decfsz	??_splash_screen^(0+1280),f,c
   843   0033DA  D7FC               	bra	u957
   844   0033DC  2E0C               	decfsz	(??_splash_screen+1)^(0+1280),f,c
   845   0033DE  D7FA               	bra	u957
   846   0033E0  D000               	nop2	
   847   0033E2                     
   848                           ;maincode01.c: 36:     I2C_BORRAR_LCD();
   849   0033E2  EC6F  F01C         	call	_I2C_BORRAR_LCD	;wreg free
   850   0033E6  0012               	return		;funcret
   851   0033E8                     __end_of_splash_screen:
   852                           	callstack 0
   853                           
   854 ;; *************** function _U1_STRING_SEND *****************
   855 ;; Defined at:
   856 ;;		line 45 in file "LIB_UART.c"
   857 ;; Parameters:    Size  Location     Type
   858 ;;  cadena          1    3[COMRAM] PTR const unsigned char 
   859 ;;		 -> STR_10(5), STR_9(16), STR_7(3), STR_6(20), 
   860 ;;		 -> STR_3(29), STR_2(10), STR_1(33), 
   861 ;; Auto vars:     Size  Location     Type
   862 ;;  i               1    6[COMRAM] unsigned char 
   863 ;;  tam             1    5[COMRAM] unsigned char 
   864 ;; Return value:  Size  Location     Type
   865 ;;                  1    wreg      void 
   866 ;; Registers used:
   867 ;;		wreg, status,2, status,0, tblptrl, tblptrh, tblptru, cstack
   868 ;; Tracked objects:
   869 ;;		On entry : 0/0
   870 ;;		On exit  : 0/0
   871 ;;		Unchanged: 0/0
   872 ;; Data sizes:     COMRAM   BANK5   BANK6   BANK7   BANK8   BANK9  BANK10  BANK11  BANK12  BANK13  BANK14  BANK15  BANK1
      +6  BANK17  BANK18  BANK19  BANK20  BANK21  BANK22  BANK23  BANK24  BANK25  BANK26  BANK27  BANK28  BANK29  BANK30  BANK3
      +1  BANK32  BANK33  BANK34  BANK35  BANK36
   873 ;;      Params:         1       0       0       0       0       0       0       0       0       0       0       0       
      +0       0       0       0       0       0       0       0       0       0       0       0       0       0       0       
      +0       0       0       0       0       0
   874 ;;      Locals:         2       0       0       0       0       0       0       0       0       0       0       0       
      +0       0       0       0       0       0       0       0       0       0       0       0       0       0       0       
      +0       0       0       0       0       0
   875 ;;      Temps:          1       0       0       0       0       0       0       0       0       0       0       0       
      +0       0       0       0       0       0       0       0       0       0       0       0       0       0       0       
      +0       0       0       0       0       0
   876 ;;      Totals:         4       0       0       0       0       0       0       0       0       0       0       0       
      +0       0       0       0       0       0       0       0       0       0       0       0       0       0       0       
      +0       0       0       0       0       0
   877 ;;Total ram usage:        4 bytes
   878 ;; Hardware stack levels used: 1
   879 ;; Hardware stack levels required when called: 1
   880 ;; This function calls:
   881 ;;		_U1_BYTE_SEND
   882 ;;		_strlen
   883 ;; This function is called by:
   884 ;;		_splash_screen
   885 ;;		_main
   886 ;; This function uses a non-reentrant model
   887 ;;
   888                           
   889                           	psect	text2
   890   003740                     __ptext2:
   891                           	callstack 0
   892   003740                     _U1_STRING_SEND:
   893                           	callstack 124
   894   003740                     
   895                           ;LIB_UART.c: 45: void U1_STRING_SEND(const char *cadena);LIB_UART.c: 46: {;LIB_UART.c: 4
      +                          7:     unsigned char tam;;LIB_UART.c: 48:     tam = strlen(cadena);
   896   003740  C504  F501         	movff	U1_STRING_SEND@cadena,strlen@s
   897   003744  EC05  F01C         	call	_strlen	;wreg free
   898   003748  5001               	movf	?_strlen^(0+1280),w,c
   899   00374A  6E06               	movwf	U1_STRING_SEND@tam^(0+1280),c
   900   00374C                     
   901                           ;LIB_UART.c: 50:  for(i = 0; i<tam; i++)
   902   00374C  0E00               	movlw	0
   903   00374E  6E07               	movwf	U1_STRING_SEND@i^(0+1280),c
   904   003750  EFB8  F01B         	goto	l2023
   905   003754                     l2019:
   906                           
   907                           ;LIB_UART.c: 51:  {;LIB_UART.c: 52:   U1_BYTE_SEND(cadena[i]);
   908   003754  5004               	movf	U1_STRING_SEND@cadena^(0+1280),w,c
   909   003756  2407               	addwf	U1_STRING_SEND@i^(0+1280),w,c
   910   003758  6E05               	movwf	??_U1_STRING_SEND^(0+1280),c
   911   00375A  C505  F4F6         	movff	??_U1_STRING_SEND,tblptrl
   912   00375E                     	if	1	;There is more than 1 active tblptr byte
   913   00375E  0E25               	movlw	high __smallconst
   914   003760  6EF7               	movwf	tblptrh,c
   915   003762                     	endif
   916   003762                     	if	0	;tblptru may be non-zero
   917   003762                     	endif
   918   003762                     	if	1	;Program memory is > 0xFFFF, there are 3 active tblptr bytes
   919   003762  0E00               	movlw	low (__smallconst shr (0+16))
   920   003764  6EF8               	movwf	tblptru,c
   921   003766                     	endif
   922   003766  0008               	tblrd		*
   923   003768  50F5               	movf	tablat,w,c
   924   00376A  EC49  F01C         	call	_U1_BYTE_SEND
   925   00376E                     
   926                           ;LIB_UART.c: 53:  }
   927   00376E  2A07               	incf	U1_STRING_SEND@i^(0+1280),f,c
   928   003770                     l2023:
   929   003770  5006               	movf	U1_STRING_SEND@tam^(0+1280),w,c
   930   003772  5C07               	subwf	U1_STRING_SEND@i^(0+1280),w,c
   931   003774  A0D8               	btfss	status,0,c
   932   003776  EFBF  F01B         	goto	u681
   933   00377A  EFC1  F01B         	goto	u680
   934   00377E                     u681:
   935   00377E  EFAA  F01B         	goto	l2019
   936   003782                     u680:
   937   003782  0012               	return		;funcret
   938   003784                     __end_of_U1_STRING_SEND:
   939                           	callstack 0
   940                           
   941 ;; *************** function _U1_NEWLINE *****************
   942 ;; Defined at:
   943 ;;		line 199 in file "LIB_UART.c"
   944 ;; Parameters:    Size  Location     Type
   945 ;;		None
   946 ;; Auto vars:     Size  Location     Type
   947 ;;		None
   948 ;; Return value:  Size  Location     Type
   949 ;;                  1    wreg      void 
   950 ;; Registers used:
   951 ;;		wreg, cstack
   952 ;; Tracked objects:
   953 ;;		On entry : 0/0
   954 ;;		On exit  : 0/0
   955 ;;		Unchanged: 0/0
   956 ;; Data sizes:     COMRAM   BANK5   BANK6   BANK7   BANK8   BANK9  BANK10  BANK11  BANK12  BANK13  BANK14  BANK15  BANK1
      +6  BANK17  BANK18  BANK19  BANK20  BANK21  BANK22  BANK23  BANK24  BANK25  BANK26  BANK27  BANK28  BANK29  BANK30  BANK3
      +1  BANK32  BANK33  BANK34  BANK35  BANK36
   957 ;;      Params:         0       0       0       0       0       0       0       0       0       0       0       0       
      +0       0       0       0       0       0       0       0       0       0       0       0       0       0       0       
      +0       0       0       0       0       0
   958 ;;      Locals:         0       0       0       0       0       0       0       0       0       0       0       0       
      +0       0       0       0       0       0       0       0       0       0       0       0       0       0       0       
      +0       0       0       0       0       0
   959 ;;      Temps:          0       0       0       0       0       0       0       0       0       0       0       0       
      +0       0       0       0       0       0       0       0       0       0       0       0       0       0       0       
      +0       0       0       0       0       0
   960 ;;      Totals:         0       0       0       0       0       0       0       0       0       0       0       0       
      +0       0       0       0       0       0       0       0       0       0       0       0       0       0       0       
      +0       0       0       0       0       0
   961 ;;Total ram usage:        0 bytes
   962 ;; Hardware stack levels used: 1
   963 ;; Hardware stack levels required when called: 1
   964 ;; This function calls:
   965 ;;		_U1_BYTE_SEND
   966 ;; This function is called by:
   967 ;;		_splash_screen
   968 ;;		_main
   969 ;; This function uses a non-reentrant model
   970 ;;
   971                           
   972                           	psect	text3
   973   0038C8                     __ptext3:
   974                           	callstack 0
   975   0038C8                     _U1_NEWLINE:
   976                           	callstack 124
   977   0038C8                     
   978                           ;LIB_UART.c: 200:     U1_BYTE_SEND(0x0A);
   979   0038C8  0E0A               	movlw	10
   980   0038CA  EC49  F01C         	call	_U1_BYTE_SEND
   981                           
   982                           ;LIB_UART.c: 201:     U1_BYTE_SEND(0x0D);
   983   0038CE  0E0D               	movlw	13
   984   0038D0  EC49  F01C         	call	_U1_BYTE_SEND
   985   0038D4  0012               	return		;funcret
   986   0038D6                     __end_of_U1_NEWLINE:
   987                           	callstack 0
   988                           
   989 ;; *************** function _I2C_POS_CURSOR *****************
   990 ;; Defined at:
   991 ;;		line 48 in file "I2C_LCD.c"
   992 ;; Parameters:    Size  Location     Type
   993 ;;  fila            1    wreg     unsigned char 
   994 ;;  columna         1    6[COMRAM] unsigned char 
   995 ;; Auto vars:     Size  Location     Type
   996 ;;  fila            1    8[COMRAM] unsigned char 
   997 ;; Return value:  Size  Location     Type
   998 ;;                  1    wreg      void 
   999 ;; Registers used:
  1000 ;;		wreg, status,2, status,0, cstack
  1001 ;; Tracked objects:
  1002 ;;		On entry : 0/0
  1003 ;;		On exit  : 0/0
  1004 ;;		Unchanged: 0/0
  1005 ;; Data sizes:     COMRAM   BANK5   BANK6   BANK7   BANK8   BANK9  BANK10  BANK11  BANK12  BANK13  BANK14  BANK15  BANK1
      +6  BANK17  BANK18  BANK19  BANK20  BANK21  BANK22  BANK23  BANK24  BANK25  BANK26  BANK27  BANK28  BANK29  BANK30  BANK3
      +1  BANK32  BANK33  BANK34  BANK35  BANK36
  1006 ;;      Params:         1       0       0       0       0       0       0       0       0       0       0       0       
      +0       0       0       0       0       0       0       0       0       0       0       0       0       0       0       
      +0       0       0       0       0       0
  1007 ;;      Locals:         1       0       0       0       0       0       0       0       0       0       0       0       
      +0       0       0       0       0       0       0       0       0       0       0       0       0       0       0       
      +0       0       0       0       0       0
  1008 ;;      Temps:          1       0       0       0       0       0       0       0       0       0       0       0       
      +0       0       0       0       0       0       0       0       0       0       0       0       0       0       0       
      +0       0       0       0       0       0
  1009 ;;      Totals:         3       0       0       0       0       0       0       0       0       0       0       0       
      +0       0       0       0       0       0       0       0       0       0       0       0       0       0       0       
      +0       0       0       0       0       0
  1010 ;;Total ram usage:        3 bytes
  1011 ;; Hardware stack levels used: 1
  1012 ;; Hardware stack levels required when called: 2
  1013 ;; This function calls:
  1014 ;;		_I2C_ENVIA_LCD_CMD
  1015 ;; This function is called by:
  1016 ;;		_splash_screen
  1017 ;;		_main
  1018 ;; This function uses a non-reentrant model
  1019 ;;
  1020                           
  1021                           	psect	text4
  1022   0032E0                     __ptext4:
  1023                           	callstack 0
  1024   0032E0                     _I2C_POS_CURSOR:
  1025                           	callstack 123
  1026                           
  1027                           ;incstack = 0
  1028                           ;I2C_POS_CURSOR@fila stored from wreg
  1029   0032E0  6E09               	movwf	I2C_POS_CURSOR@fila^(0+1280),c
  1030   0032E2                     
  1031                           ;I2C_LCD.c: 49:  if(fila == 1){
  1032   0032E2  0409               	decf	I2C_POS_CURSOR@fila^(0+1280),w,c
  1033   0032E4  A4D8               	btfss	status,2,c
  1034   0032E6  EF77  F019         	goto	u611
  1035   0032EA  EF79  F019         	goto	u610
  1036   0032EE                     u611:
  1037   0032EE  EF7F  F019         	goto	l1975
  1038   0032F2                     u610:
  1039   0032F2                     
  1040                           ;I2C_LCD.c: 50:   I2C_ENVIA_LCD_CMD(0x80+columna);
  1041   0032F2  5007               	movf	I2C_POS_CURSOR@columna^(0+1280),w,c
  1042   0032F4  0F80               	addlw	128
  1043   0032F6  EC15  F01B         	call	_I2C_ENVIA_LCD_CMD
  1044                           
  1045                           ;I2C_LCD.c: 51:  }
  1046   0032FA  EFAC  F019         	goto	l1987
  1047   0032FE                     l1975:
  1048   0032FE  0E02               	movlw	2
  1049   003300  1809               	xorwf	I2C_POS_CURSOR@fila^(0+1280),w,c
  1050   003302  A4D8               	btfss	status,2,c
  1051   003304  EF86  F019         	goto	u621
  1052   003308  EF88  F019         	goto	u620
  1053   00330C                     u621:
  1054   00330C  EF8E  F019         	goto	l1979
  1055   003310                     u620:
  1056   003310                     
  1057                           ;I2C_LCD.c: 53:   I2C_ENVIA_LCD_CMD(0xC0+columna);
  1058   003310  5007               	movf	I2C_POS_CURSOR@columna^(0+1280),w,c
  1059   003312  0FC0               	addlw	192
  1060   003314  EC15  F01B         	call	_I2C_ENVIA_LCD_CMD
  1061                           
  1062                           ;I2C_LCD.c: 54:  }
  1063   003318  EFAC  F019         	goto	l1987
  1064   00331C                     l1979:
  1065   00331C  0E03               	movlw	3
  1066   00331E  1809               	xorwf	I2C_POS_CURSOR@fila^(0+1280),w,c
  1067   003320  A4D8               	btfss	status,2,c
  1068   003322  EF95  F019         	goto	u631
  1069   003326  EF97  F019         	goto	u630
  1070   00332A                     u631:
  1071   00332A  EF9D  F019         	goto	l1983
  1072   00332E                     u630:
  1073   00332E                     
  1074                           ;I2C_LCD.c: 56:   I2C_ENVIA_LCD_CMD(0x94+columna);
  1075   00332E  5007               	movf	I2C_POS_CURSOR@columna^(0+1280),w,c
  1076   003330  0F94               	addlw	148
  1077   003332  EC15  F01B         	call	_I2C_ENVIA_LCD_CMD
  1078                           
  1079                           ;I2C_LCD.c: 57:  }
  1080   003336  EFAC  F019         	goto	l1987
  1081   00333A                     l1983:
  1082   00333A  0E04               	movlw	4
  1083   00333C  1809               	xorwf	I2C_POS_CURSOR@fila^(0+1280),w,c
  1084   00333E  A4D8               	btfss	status,2,c
  1085   003340  EFA4  F019         	goto	u641
  1086   003344  EFA6  F019         	goto	u640
  1087   003348                     u641:
  1088   003348  EFAC  F019         	goto	l61
  1089   00334C                     u640:
  1090   00334C                     
  1091                           ;I2C_LCD.c: 59:   I2C_ENVIA_LCD_CMD(0xD4+columna);
  1092   00334C  5007               	movf	I2C_POS_CURSOR@columna^(0+1280),w,c
  1093   00334E  0FD4               	addlw	212
  1094   003350  EC15  F01B         	call	_I2C_ENVIA_LCD_CMD
  1095   003354  EFAC  F019         	goto	l1987
  1096   003358                     l61:
  1097   003358                     l1987:
  1098                           
  1099                           ;I2C_LCD.c: 61:     _delay((unsigned long)((1)*(32000000UL/4000.0)));
  1100   003358  0E0B               	movlw	11
  1101   00335A  6E08               	movwf	??_I2C_POS_CURSOR^(0+1280),c
  1102   00335C  0E62               	movlw	98
  1103   00335E                     u967:
  1104   00335E  2EE8               	decfsz	wreg,f,c
  1105   003360  D7FE               	bra	u967
  1106   003362  2E08               	decfsz	??_I2C_POS_CURSOR^(0+1280),f,c
  1107   003364  D7FC               	bra	u967
  1108   003366  D000               	nop2	
  1109   003368  0012               	return		;funcret
  1110   00336A                     __end_of_I2C_POS_CURSOR:
  1111                           	callstack 0
  1112                           
  1113 ;; *************** function _I2C_ESCRIBE_MENSAJE2 *****************
  1114 ;; Defined at:
  1115 ;;		line 106 in file "I2C_LCD.c"
  1116 ;; Parameters:    Size  Location     Type
  1117 ;;  cadena          1    6[COMRAM] PTR const unsigned char 
  1118 ;;		 -> STR_12(5), STR_11(8), STR_8(7), STR_5(16), 
  1119 ;;		 -> STR_4(17), 
  1120 ;; Auto vars:     Size  Location     Type
  1121 ;;  i               1    9[COMRAM] unsigned char 
  1122 ;;  tam             1    8[COMRAM] unsigned char 
  1123 ;; Return value:  Size  Location     Type
  1124 ;;                  1    wreg      void 
  1125 ;; Registers used:
  1126 ;;		wreg, status,2, status,0, tblptrl, tblptrh, tblptru, cstack
  1127 ;; Tracked objects:
  1128 ;;		On entry : 0/0
  1129 ;;		On exit  : 0/0
  1130 ;;		Unchanged: 0/0
  1131 ;; Data sizes:     COMRAM   BANK5   BANK6   BANK7   BANK8   BANK9  BANK10  BANK11  BANK12  BANK13  BANK14  BANK15  BANK1
      +6  BANK17  BANK18  BANK19  BANK20  BANK21  BANK22  BANK23  BANK24  BANK25  BANK26  BANK27  BANK28  BANK29  BANK30  BANK3
      +1  BANK32  BANK33  BANK34  BANK35  BANK36
  1132 ;;      Params:         1       0       0       0       0       0       0       0       0       0       0       0       
      +0       0       0       0       0       0       0       0       0       0       0       0       0       0       0       
      +0       0       0       0       0       0
  1133 ;;      Locals:         2       0       0       0       0       0       0       0       0       0       0       0       
      +0       0       0       0       0       0       0       0       0       0       0       0       0       0       0       
      +0       0       0       0       0       0
  1134 ;;      Temps:          1       0       0       0       0       0       0       0       0       0       0       0       
      +0       0       0       0       0       0       0       0       0       0       0       0       0       0       0       
      +0       0       0       0       0       0
  1135 ;;      Totals:         4       0       0       0       0       0       0       0       0       0       0       0       
      +0       0       0       0       0       0       0       0       0       0       0       0       0       0       0       
      +0       0       0       0       0       0
  1136 ;;Total ram usage:        4 bytes
  1137 ;; Hardware stack levels used: 1
  1138 ;; Hardware stack levels required when called: 2
  1139 ;; This function calls:
  1140 ;;		_I2C_ENVIA_LCD_DATA
  1141 ;;		_strlen
  1142 ;; This function is called by:
  1143 ;;		_splash_screen
  1144 ;;		_main
  1145 ;; This function uses a non-reentrant model
  1146 ;;
  1147                           
  1148                           	psect	text5
  1149   003784                     __ptext5:
  1150                           	callstack 0
  1151   003784                     _I2C_ESCRIBE_MENSAJE2:
  1152                           	callstack 123
  1153   003784                     
  1154                           ;I2C_LCD.c: 107:     unsigned char tam;;I2C_LCD.c: 108:     tam = strlen(cadena);
  1155   003784  C507  F501         	movff	I2C_ESCRIBE_MENSAJE2@cadena,strlen@s
  1156   003788  EC05  F01C         	call	_strlen	;wreg free
  1157   00378C  5001               	movf	?_strlen^(0+1280),w,c
  1158   00378E  6E09               	movwf	I2C_ESCRIBE_MENSAJE2@tam^(0+1280),c
  1159   003790                     
  1160                           ;I2C_LCD.c: 110:  for(i = 0; i<tam; i++) {
  1161   003790  0E00               	movlw	0
  1162   003792  6E0A               	movwf	I2C_ESCRIBE_MENSAJE2@i^(0+1280),c
  1163   003794  EFDA  F01B         	goto	l2009
  1164   003798                     l2005:
  1165                           
  1166                           ;I2C_LCD.c: 111:   I2C_ENVIA_LCD_DATA(cadena[i]);
  1167   003798  5007               	movf	I2C_ESCRIBE_MENSAJE2@cadena^(0+1280),w,c
  1168   00379A  240A               	addwf	I2C_ESCRIBE_MENSAJE2@i^(0+1280),w,c
  1169   00379C  6E08               	movwf	??_I2C_ESCRIBE_MENSAJE2^(0+1280),c
  1170   00379E  C508  F4F6         	movff	??_I2C_ESCRIBE_MENSAJE2,tblptrl
  1171   0037A2                     	if	1	;There is more than 1 active tblptr byte
  1172   0037A2  0E25               	movlw	high __smallconst
  1173   0037A4  6EF7               	movwf	tblptrh,c
  1174   0037A6                     	endif
  1175   0037A6                     	if	0	;tblptru may be non-zero
  1176   0037A6                     	endif
  1177   0037A6                     	if	1	;Program memory is > 0xFFFF, there are 3 active tblptr bytes
  1178   0037A6  0E00               	movlw	low (__smallconst shr (0+16))
  1179   0037A8  6EF8               	movwf	tblptru,c
  1180   0037AA                     	endif
  1181   0037AA  0008               	tblrd		*
  1182   0037AC  50F5               	movf	tablat,w,c
  1183   0037AE  ECDF  F01A         	call	_I2C_ENVIA_LCD_DATA
  1184   0037B2                     
  1185                           ;I2C_LCD.c: 112:  }
  1186   0037B2  2A0A               	incf	I2C_ESCRIBE_MENSAJE2@i^(0+1280),f,c
  1187   0037B4                     l2009:
  1188   0037B4  5009               	movf	I2C_ESCRIBE_MENSAJE2@tam^(0+1280),w,c
  1189   0037B6  5C0A               	subwf	I2C_ESCRIBE_MENSAJE2@i^(0+1280),w,c
  1190   0037B8  A0D8               	btfss	status,0,c
  1191   0037BA  EFE1  F01B         	goto	u671
  1192   0037BE  EFE3  F01B         	goto	u670
  1193   0037C2                     u671:
  1194   0037C2  EFCC  F01B         	goto	l2005
  1195   0037C6                     u670:
  1196   0037C6  0012               	return		;funcret
  1197   0037C8                     __end_of_I2C_ESCRIBE_MENSAJE2:
  1198                           	callstack 0
  1199                           
  1200 ;; *************** function _strlen *****************
  1201 ;; Defined at:
  1202 ;;		line 5 in file "C:\Program Files\Microchip\xc8\v2.46\pic\sources\c99\common\strlen.c"
  1203 ;; Parameters:    Size  Location     Type
  1204 ;;  s               1    0[COMRAM] PTR const unsigned char 
  1205 ;;		 -> STR_12(5), STR_11(8), STR_10(5), STR_9(16), 
  1206 ;;		 -> STR_8(7), STR_7(3), STR_6(20), STR_5(16), 
  1207 ;;		 -> STR_4(17), STR_3(29), STR_2(10), STR_1(33), 
  1208 ;; Auto vars:     Size  Location     Type
  1209 ;;  a               1    2[COMRAM] PTR const unsigned char 
  1210 ;;		 -> STR_12(5), STR_11(8), STR_10(5), STR_9(16), 
  1211 ;;		 -> STR_8(7), STR_7(3), STR_6(20), STR_5(16), 
  1212 ;;		 -> STR_4(17), STR_3(29), STR_2(10), STR_1(33), 
  1213 ;; Return value:  Size  Location     Type
  1214 ;;                  2    0[COMRAM] unsigned int 
  1215 ;; Registers used:
  1216 ;;		wreg, status,2, status,0, tblptrl, tblptrh, tblptru
  1217 ;; Tracked objects:
  1218 ;;		On entry : 0/0
  1219 ;;		On exit  : 0/0
  1220 ;;		Unchanged: 0/0
  1221 ;; Data sizes:     COMRAM   BANK5   BANK6   BANK7   BANK8   BANK9  BANK10  BANK11  BANK12  BANK13  BANK14  BANK15  BANK1
      +6  BANK17  BANK18  BANK19  BANK20  BANK21  BANK22  BANK23  BANK24  BANK25  BANK26  BANK27  BANK28  BANK29  BANK30  BANK3
      +1  BANK32  BANK33  BANK34  BANK35  BANK36
  1222 ;;      Params:         2       0       0       0       0       0       0       0       0       0       0       0       
      +0       0       0       0       0       0       0       0       0       0       0       0       0       0       0       
      +0       0       0       0       0       0
  1223 ;;      Locals:         1       0       0       0       0       0       0       0       0       0       0       0       
      +0       0       0       0       0       0       0       0       0       0       0       0       0       0       0       
      +0       0       0       0       0       0
  1224 ;;      Temps:          0       0       0       0       0       0       0       0       0       0       0       0       
      +0       0       0       0       0       0       0       0       0       0       0       0       0       0       0       
      +0       0       0       0       0       0
  1225 ;;      Totals:         3       0       0       0       0       0       0       0       0       0       0       0       
      +0       0       0       0       0       0       0       0       0       0       0       0       0       0       0       
      +0       0       0       0       0       0
  1226 ;;Total ram usage:        3 bytes
  1227 ;; Hardware stack levels used: 1
  1228 ;; This function calls:
  1229 ;;		Nothing
  1230 ;; This function is called by:
  1231 ;;		_I2C_ESCRIBE_MENSAJE2
  1232 ;;		_U1_STRING_SEND
  1233 ;; This function uses a non-reentrant model
  1234 ;;
  1235                           
  1236                           	psect	text6
  1237   00380A                     __ptext6:
  1238                           	callstack 0
  1239   00380A                     _strlen:
  1240                           	callstack 124
  1241   00380A  C501  F503         	movff	strlen@s,strlen@a
  1242   00380E  EF0A  F01C         	goto	l1965
  1243   003812                     l1963:
  1244   003812  2A01               	incf	strlen@s^(0+1280),f,c
  1245   003814                     l1965:
  1246   003814  C501  F4F6         	movff	strlen@s,tblptrl
  1247   003818                     	if	1	;There is more than 1 active tblptr byte
  1248   003818  0E25               	movlw	high __smallconst
  1249   00381A  6EF7               	movwf	tblptrh,c
  1250   00381C                     	endif
  1251   00381C                     	if	0	;tblptru may be non-zero
  1252   00381C                     	endif
  1253   00381C                     	if	1	;Program memory is > 0xFFFF, there are 3 active tblptr bytes
  1254   00381C  0E00               	movlw	low (__smallconst shr (0+16))
  1255   00381E  6EF8               	movwf	tblptru,c
  1256   003820                     	endif
  1257   003820  0008               	tblrd		*
  1258   003822  50F5               	movf	tablat,w,c
  1259   003824  0900               	iorlw	0
  1260   003826  A4D8               	btfss	status,2,c
  1261   003828  EF18  F01C         	goto	u601
  1262   00382C  EF1A  F01C         	goto	u600
  1263   003830                     u601:
  1264   003830  EF09  F01C         	goto	l1963
  1265   003834                     u600:
  1266   003834  5003               	movf	strlen@a^(0+1280),w,c
  1267   003836  5C01               	subwf	strlen@s^(0+1280),w,c
  1268   003838  6E01               	movwf	?_strlen^(0+1280),c
  1269   00383A  6A02               	clrf	(?_strlen+1)^(0+1280),c
  1270   00383C  BE01               	btfsc	?_strlen^(0+1280),7,c
  1271   00383E  0602               	decf	(?_strlen+1)^(0+1280),f,c
  1272   003840  0012               	return		;funcret
  1273   003842                     __end_of_strlen:
  1274                           	callstack 0
  1275                           
  1276 ;; *************** function _configuro *****************
  1277 ;; Defined at:
  1278 ;;		line 17 in file "maincode01.c"
  1279 ;; Parameters:    Size  Location     Type
  1280 ;;		None
  1281 ;; Auto vars:     Size  Location     Type
  1282 ;;		None
  1283 ;; Return value:  Size  Location     Type
  1284 ;;                  1    wreg      void 
  1285 ;; Registers used:
  1286 ;;		wreg, status,2
  1287 ;; Tracked objects:
  1288 ;;		On entry : 0/0
  1289 ;;		On exit  : 0/0
  1290 ;;		Unchanged: 0/0
  1291 ;; Data sizes:     COMRAM   BANK5   BANK6   BANK7   BANK8   BANK9  BANK10  BANK11  BANK12  BANK13  BANK14  BANK15  BANK1
      +6  BANK17  BANK18  BANK19  BANK20  BANK21  BANK22  BANK23  BANK24  BANK25  BANK26  BANK27  BANK28  BANK29  BANK30  BANK3
      +1  BANK32  BANK33  BANK34  BANK35  BANK36
  1292 ;;      Params:         0       0       0       0       0       0       0       0       0       0       0       0       
      +0       0       0       0       0       0       0       0       0       0       0       0       0       0       0       
      +0       0       0       0       0       0
  1293 ;;      Locals:         0       0       0       0       0       0       0       0       0       0       0       0       
      +0       0       0       0       0       0       0       0       0       0       0       0       0       0       0       
      +0       0       0       0       0       0
  1294 ;;      Temps:          0       0       0       0       0       0       0       0       0       0       0       0       
      +0       0       0       0       0       0       0       0       0       0       0       0       0       0       0       
      +0       0       0       0       0       0
  1295 ;;      Totals:         0       0       0       0       0       0       0       0       0       0       0       0       
      +0       0       0       0       0       0       0       0       0       0       0       0       0       0       0       
      +0       0       0       0       0       0
  1296 ;;Total ram usage:        0 bytes
  1297 ;; Hardware stack levels used: 1
  1298 ;; This function calls:
  1299 ;;		Nothing
  1300 ;; This function is called by:
  1301 ;;		_main
  1302 ;; This function uses a non-reentrant model
  1303 ;;
  1304                           
  1305                           	psect	text7
  1306   0038AA                     __ptext7:
  1307                           	callstack 0
  1308   0038AA                     _configuro:
  1309                           	callstack 126
  1310   0038AA                     
  1311                           ;maincode01.c: 18:     OSCCON1 = 0x60;
  1312   0038AA  0E60               	movlw	96
  1313   0038AC  0100               	movlb	0	; () banked
  1314   0038AE  6FAD               	movwf	173,b	;volatile
  1315                           
  1316                           ;maincode01.c: 19:     OSCFRQ = 0x06;
  1317   0038B0  0E06               	movlw	6
  1318   0038B2  6FB1               	movwf	177,b	;volatile
  1319                           
  1320                           ;maincode01.c: 20:     OSCEN = 0x40;
  1321   0038B4  0E40               	movlw	64
  1322   0038B6  6FB3               	movwf	179,b	;volatile
  1323   0038B8                     
  1324                           ; BSR set to: 0
  1325   0038B8  0012               	return		;funcret
  1326   0038BA                     __end_of_configuro:
  1327                           	callstack 0
  1328                           
  1329 ;; *************** function _U1_VAR_INT *****************
  1330 ;; Defined at:
  1331 ;;		line 79 in file "LIB_UART.c"
  1332 ;; Parameters:    Size  Location     Type
  1333 ;;  numero          2   12[COMRAM] unsigned int 
  1334 ;;  n_digitos       1   14[COMRAM] unsigned char 
  1335 ;;  punto           1   15[COMRAM] unsigned char 
  1336 ;; Auto vars:     Size  Location     Type
  1337 ;;  unidad          1   20[COMRAM] unsigned char 
  1338 ;;  decena          1   19[COMRAM] unsigned char 
  1339 ;;  centena         1   18[COMRAM] unsigned char 
  1340 ;;  millar          1   17[COMRAM] unsigned char 
  1341 ;;  d_millar        1   16[COMRAM] unsigned char 
  1342 ;; Return value:  Size  Location     Type
  1343 ;;                  1    wreg      void 
  1344 ;; Registers used:
  1345 ;;		wreg, status,2, status,0, cstack
  1346 ;; Tracked objects:
  1347 ;;		On entry : 0/0
  1348 ;;		On exit  : 0/0
  1349 ;;		Unchanged: 0/0
  1350 ;; Data sizes:     COMRAM   BANK5   BANK6   BANK7   BANK8   BANK9  BANK10  BANK11  BANK12  BANK13  BANK14  BANK15  BANK1
      +6  BANK17  BANK18  BANK19  BANK20  BANK21  BANK22  BANK23  BANK24  BANK25  BANK26  BANK27  BANK28  BANK29  BANK30  BANK3
      +1  BANK32  BANK33  BANK34  BANK35  BANK36
  1351 ;;      Params:         4       0       0       0       0       0       0       0       0       0       0       0       
      +0       0       0       0       0       0       0       0       0       0       0       0       0       0       0       
      +0       0       0       0       0       0
  1352 ;;      Locals:         5       0       0       0       0       0       0       0       0       0       0       0       
      +0       0       0       0       0       0       0       0       0       0       0       0       0       0       0       
      +0       0       0       0       0       0
  1353 ;;      Temps:          0       0       0       0       0       0       0       0       0       0       0       0       
      +0       0       0       0       0       0       0       0       0       0       0       0       0       0       0       
      +0       0       0       0       0       0
  1354 ;;      Totals:         9       0       0       0       0       0       0       0       0       0       0       0       
      +0       0       0       0       0       0       0       0       0       0       0       0       0       0       0       
      +0       0       0       0       0       0
  1355 ;;Total ram usage:        9 bytes
  1356 ;; Hardware stack levels used: 1
  1357 ;; Hardware stack levels required when called: 1
  1358 ;; This function calls:
  1359 ;;		_U1_BYTE_SEND
  1360 ;;		___lwdiv
  1361 ;;		___lwmod
  1362 ;; This function is called by:
  1363 ;;		_main
  1364 ;; This function uses a non-reentrant model
  1365 ;;
  1366                           
  1367                           	psect	text8
  1368   0025A6                     __ptext8:
  1369                           	callstack 0
  1370   0025A6                     _U1_VAR_INT:
  1371                           	callstack 125
  1372   0025A6                     
  1373                           ;LIB_UART.c: 80:     unsigned char d_millar, millar, centena, decena, unidad;;LIB_UART.c
      +                          : 81:     d_millar = numero / 10000;
  1374   0025A6  C50D  F506         	movff	U1_VAR_INT@numero,___lwdiv@dividend
  1375   0025AA  C50E  F507         	movff	U1_VAR_INT@numero+1,___lwdiv@dividend+1
  1376   0025AE  0E27               	movlw	39
  1377   0025B0  6E09               	movwf	(___lwdiv@divisor+1)^(0+1280),c
  1378   0025B2  0E10               	movlw	16
  1379   0025B4  6E08               	movwf	___lwdiv@divisor^(0+1280),c
  1380   0025B6  EC6E  F01A         	call	___lwdiv	;wreg free
  1381   0025BA  5006               	movf	?___lwdiv^(0+1280),w,c
  1382   0025BC  6E11               	movwf	U1_VAR_INT@d_millar^(0+1280),c
  1383                           
  1384                           ;LIB_UART.c: 82:     millar = (numero % 10000) / 1000;
  1385   0025BE  0E27               	movlw	39
  1386   0025C0  6E04               	movwf	(___lwmod@divisor+1)^(0+1280),c
  1387   0025C2  0E10               	movlw	16
  1388   0025C4  6E03               	movwf	___lwmod@divisor^(0+1280),c
  1389   0025C6  C50D  F501         	movff	U1_VAR_INT@numero,___lwmod@dividend
  1390   0025CA  C50E  F502         	movff	U1_VAR_INT@numero+1,___lwmod@dividend+1
  1391   0025CE  EC49  F01B         	call	___lwmod	;wreg free
  1392   0025D2  C501  F506         	movff	?___lwmod,___lwdiv@dividend
  1393   0025D6  C502  F507         	movff	?___lwmod+1,___lwdiv@dividend+1
  1394   0025DA  0E03               	movlw	3
  1395   0025DC  6E09               	movwf	(___lwdiv@divisor+1)^(0+1280),c
  1396   0025DE  0EE8               	movlw	232
  1397   0025E0  6E08               	movwf	___lwdiv@divisor^(0+1280),c
  1398   0025E2  EC6E  F01A         	call	___lwdiv	;wreg free
  1399   0025E6  5006               	movf	?___lwdiv^(0+1280),w,c
  1400   0025E8  6E12               	movwf	U1_VAR_INT@millar^(0+1280),c
  1401                           
  1402                           ;LIB_UART.c: 83:     centena = (numero % 1000) / 100;
  1403   0025EA  0E03               	movlw	3
  1404   0025EC  6E04               	movwf	(___lwmod@divisor+1)^(0+1280),c
  1405   0025EE  0EE8               	movlw	232
  1406   0025F0  6E03               	movwf	___lwmod@divisor^(0+1280),c
  1407   0025F2  C50D  F501         	movff	U1_VAR_INT@numero,___lwmod@dividend
  1408   0025F6  C50E  F502         	movff	U1_VAR_INT@numero+1,___lwmod@dividend+1
  1409   0025FA  EC49  F01B         	call	___lwmod	;wreg free
  1410   0025FE  C501  F506         	movff	?___lwmod,___lwdiv@dividend
  1411   002602  C502  F507         	movff	?___lwmod+1,___lwdiv@dividend+1
  1412   002606  0E00               	movlw	0
  1413   002608  6E09               	movwf	(___lwdiv@divisor+1)^(0+1280),c
  1414   00260A  0E64               	movlw	100
  1415   00260C  6E08               	movwf	___lwdiv@divisor^(0+1280),c
  1416   00260E  EC6E  F01A         	call	___lwdiv	;wreg free
  1417   002612  5006               	movf	?___lwdiv^(0+1280),w,c
  1418   002614  6E13               	movwf	U1_VAR_INT@centena^(0+1280),c
  1419                           
  1420                           ;LIB_UART.c: 84:     decena = (numero % 100) / 10;
  1421   002616  0E00               	movlw	0
  1422   002618  6E04               	movwf	(___lwmod@divisor+1)^(0+1280),c
  1423   00261A  0E64               	movlw	100
  1424   00261C  6E03               	movwf	___lwmod@divisor^(0+1280),c
  1425   00261E  C50D  F501         	movff	U1_VAR_INT@numero,___lwmod@dividend
  1426   002622  C50E  F502         	movff	U1_VAR_INT@numero+1,___lwmod@dividend+1
  1427   002626  EC49  F01B         	call	___lwmod	;wreg free
  1428   00262A  C501  F506         	movff	?___lwmod,___lwdiv@dividend
  1429   00262E  C502  F507         	movff	?___lwmod+1,___lwdiv@dividend+1
  1430   002632  0E00               	movlw	0
  1431   002634  6E09               	movwf	(___lwdiv@divisor+1)^(0+1280),c
  1432   002636  0E0A               	movlw	10
  1433   002638  6E08               	movwf	___lwdiv@divisor^(0+1280),c
  1434   00263A  EC6E  F01A         	call	___lwdiv	;wreg free
  1435   00263E  5006               	movf	?___lwdiv^(0+1280),w,c
  1436   002640  6E14               	movwf	U1_VAR_INT@decena^(0+1280),c
  1437                           
  1438                           ;LIB_UART.c: 85:     unidad = numero % 10;
  1439   002642  C50D  F501         	movff	U1_VAR_INT@numero,___lwmod@dividend
  1440   002646  C50E  F502         	movff	U1_VAR_INT@numero+1,___lwmod@dividend+1
  1441   00264A  0E00               	movlw	0
  1442   00264C  6E04               	movwf	(___lwmod@divisor+1)^(0+1280),c
  1443   00264E  0E0A               	movlw	10
  1444   002650  6E03               	movwf	___lwmod@divisor^(0+1280),c
  1445   002652  EC49  F01B         	call	___lwmod	;wreg free
  1446   002656  5001               	movf	?___lwmod^(0+1280),w,c
  1447   002658  6E15               	movwf	U1_VAR_INT@unidad^(0+1280),c
  1448                           
  1449                           ;LIB_UART.c: 86:     switch(n_digitos){
  1450   00265A  EF90  F014         	goto	l2477
  1451   00265E                     l2369:
  1452                           
  1453                           ;LIB_UART.c: 88:             U1_BYTE_SEND(unidad+0x30);
  1454   00265E  5015               	movf	U1_VAR_INT@unidad^(0+1280),w,c
  1455   002660  0F30               	addlw	48
  1456   002662  EC49  F01C         	call	_U1_BYTE_SEND
  1457                           
  1458                           ;LIB_UART.c: 89:             break;
  1459   002666  EFA7  F014         	goto	l336
  1460   00266A                     l2371:
  1461                           
  1462                           ;LIB_UART.c: 91:             if(punto == 0){
  1463   00266A  5010               	movf	U1_VAR_INT@punto^(0+1280),w,c
  1464   00266C  A4D8               	btfss	status,2,c
  1465   00266E  EF3B  F013         	goto	u811
  1466   002672  EF3D  F013         	goto	u810
  1467   002676                     u811:
  1468   002676  EF47  F013         	goto	l2375
  1469   00267A                     u810:
  1470   00267A                     
  1471                           ;LIB_UART.c: 92:                 U1_BYTE_SEND(decena+0x30);
  1472   00267A  5014               	movf	U1_VAR_INT@decena^(0+1280),w,c
  1473   00267C  0F30               	addlw	48
  1474   00267E  EC49  F01C         	call	_U1_BYTE_SEND
  1475                           
  1476                           ;LIB_UART.c: 93:                 U1_BYTE_SEND(unidad+0x30);
  1477   002682  5015               	movf	U1_VAR_INT@unidad^(0+1280),w,c
  1478   002684  0F30               	addlw	48
  1479   002686  EC49  F01C         	call	_U1_BYTE_SEND
  1480                           
  1481                           ;LIB_UART.c: 94:             }
  1482   00268A  EFA7  F014         	goto	l336
  1483   00268E                     l2375:
  1484   00268E  0410               	decf	U1_VAR_INT@punto^(0+1280),w,c
  1485   002690  A4D8               	btfss	status,2,c
  1486   002692  EF4D  F013         	goto	u821
  1487   002696  EF4F  F013         	goto	u820
  1488   00269A                     u821:
  1489   00269A  EFA7  F014         	goto	l336
  1490   00269E                     u820:
  1491   00269E                     
  1492                           ;LIB_UART.c: 96:                 U1_BYTE_SEND(decena+0x30);
  1493   00269E  5014               	movf	U1_VAR_INT@decena^(0+1280),w,c
  1494   0026A0  0F30               	addlw	48
  1495   0026A2  EC49  F01C         	call	_U1_BYTE_SEND
  1496   0026A6                     
  1497                           ;LIB_UART.c: 97:                 U1_BYTE_SEND('.');
  1498   0026A6  0E2E               	movlw	46
  1499   0026A8  EC49  F01C         	call	_U1_BYTE_SEND
  1500   0026AC                     
  1501                           ;LIB_UART.c: 98:                 U1_BYTE_SEND(unidad+0x30);
  1502   0026AC  5015               	movf	U1_VAR_INT@unidad^(0+1280),w,c
  1503   0026AE  0F30               	addlw	48
  1504   0026B0  EC49  F01C         	call	_U1_BYTE_SEND
  1505   0026B4  EFA7  F014         	goto	l336
  1506   0026B8                     l2383:
  1507                           
  1508                           ;LIB_UART.c: 104:                     U1_BYTE_SEND(centena+0x30);
  1509   0026B8  5013               	movf	U1_VAR_INT@centena^(0+1280),w,c
  1510   0026BA  0F30               	addlw	48
  1511   0026BC  EC49  F01C         	call	_U1_BYTE_SEND
  1512                           
  1513                           ;LIB_UART.c: 105:                     U1_BYTE_SEND(decena+0x30);
  1514   0026C0  5014               	movf	U1_VAR_INT@decena^(0+1280),w,c
  1515   0026C2  0F30               	addlw	48
  1516   0026C4  EC49  F01C         	call	_U1_BYTE_SEND
  1517                           
  1518                           ;LIB_UART.c: 106:                     U1_BYTE_SEND(unidad+0x30);
  1519   0026C8  5015               	movf	U1_VAR_INT@unidad^(0+1280),w,c
  1520   0026CA  0F30               	addlw	48
  1521   0026CC  EC49  F01C         	call	_U1_BYTE_SEND
  1522                           
  1523                           ;LIB_UART.c: 107:                     break;
  1524   0026D0  EFA7  F014         	goto	l336
  1525   0026D4                     l2385:
  1526                           
  1527                           ;LIB_UART.c: 109:                     U1_BYTE_SEND(centena+0x30);
  1528   0026D4  5013               	movf	U1_VAR_INT@centena^(0+1280),w,c
  1529   0026D6  0F30               	addlw	48
  1530   0026D8  EC49  F01C         	call	_U1_BYTE_SEND
  1531                           
  1532                           ;LIB_UART.c: 110:                     U1_BYTE_SEND(decena+0x30);
  1533   0026DC  5014               	movf	U1_VAR_INT@decena^(0+1280),w,c
  1534   0026DE  0F30               	addlw	48
  1535   0026E0  EC49  F01C         	call	_U1_BYTE_SEND
  1536   0026E4                     
  1537                           ;LIB_UART.c: 111:                     U1_BYTE_SEND('.');
  1538   0026E4  0E2E               	movlw	46
  1539   0026E6  EC49  F01C         	call	_U1_BYTE_SEND
  1540   0026EA                     
  1541                           ;LIB_UART.c: 112:                     U1_BYTE_SEND(unidad+0x30);
  1542   0026EA  5015               	movf	U1_VAR_INT@unidad^(0+1280),w,c
  1543   0026EC  0F30               	addlw	48
  1544   0026EE  EC49  F01C         	call	_U1_BYTE_SEND
  1545                           
  1546                           ;LIB_UART.c: 113:                     break;
  1547   0026F2  EFA7  F014         	goto	l336
  1548   0026F6                     l2391:
  1549                           
  1550                           ;LIB_UART.c: 115:                     U1_BYTE_SEND(centena+0x30);
  1551   0026F6  5013               	movf	U1_VAR_INT@centena^(0+1280),w,c
  1552   0026F8  0F30               	addlw	48
  1553   0026FA  EC49  F01C         	call	_U1_BYTE_SEND
  1554   0026FE                     
  1555                           ;LIB_UART.c: 116:                     U1_BYTE_SEND('.');
  1556   0026FE  0E2E               	movlw	46
  1557   002700  EC49  F01C         	call	_U1_BYTE_SEND
  1558   002704                     
  1559                           ;LIB_UART.c: 117:                     U1_BYTE_SEND(decena+0x30);
  1560   002704  5014               	movf	U1_VAR_INT@decena^(0+1280),w,c
  1561   002706  0F30               	addlw	48
  1562   002708  EC49  F01C         	call	_U1_BYTE_SEND
  1563   00270C                     
  1564                           ;LIB_UART.c: 118:                     U1_BYTE_SEND(unidad+0x30);
  1565   00270C  5015               	movf	U1_VAR_INT@unidad^(0+1280),w,c
  1566   00270E  0F30               	addlw	48
  1567   002710  EC49  F01C         	call	_U1_BYTE_SEND
  1568                           
  1569                           ;LIB_UART.c: 119:                     break;
  1570   002714  EFA7  F014         	goto	l336
  1571   002718                     l2401:
  1572   002718  5010               	movf	U1_VAR_INT@punto^(0+1280),w,c
  1573                           
  1574                           ; Switch size 1, requested type "simple"
  1575                           ; Number of cases is 3, Range of values is 0 to 2
  1576                           ; switch strategies available:
  1577                           ; Name         Instructions Cycles
  1578                           ; simple_byte           10     6 (average)
  1579                           ;	Chosen strategy is simple_byte
  1580   00271A  0A00               	xorlw	0	; case 0
  1581   00271C  B4D8               	btfsc	status,2,c
  1582   00271E  EF5C  F013         	goto	l2383
  1583   002722  0A01               	xorlw	1	; case 1
  1584   002724  B4D8               	btfsc	status,2,c
  1585   002726  EF6A  F013         	goto	l2385
  1586   00272A  0A03               	xorlw	3	; case 2
  1587   00272C  B4D8               	btfsc	status,2,c
  1588   00272E  EF7B  F013         	goto	l2391
  1589   002732  EFA7  F014         	goto	l336
  1590   002736                     l2403:
  1591                           
  1592                           ;LIB_UART.c: 125:                     U1_BYTE_SEND(millar+0x30);
  1593   002736  5012               	movf	U1_VAR_INT@millar^(0+1280),w,c
  1594   002738  0F30               	addlw	48
  1595   00273A  EC49  F01C         	call	_U1_BYTE_SEND
  1596                           
  1597                           ;LIB_UART.c: 126:                     U1_BYTE_SEND(centena+0x30);
  1598   00273E  5013               	movf	U1_VAR_INT@centena^(0+1280),w,c
  1599   002740  0F30               	addlw	48
  1600   002742  EC49  F01C         	call	_U1_BYTE_SEND
  1601                           
  1602                           ;LIB_UART.c: 127:                     U1_BYTE_SEND(decena+0x30);
  1603   002746  5014               	movf	U1_VAR_INT@decena^(0+1280),w,c
  1604   002748  0F30               	addlw	48
  1605   00274A  EC49  F01C         	call	_U1_BYTE_SEND
  1606                           
  1607                           ;LIB_UART.c: 128:                     U1_BYTE_SEND(unidad+0x30);
  1608   00274E  5015               	movf	U1_VAR_INT@unidad^(0+1280),w,c
  1609   002750  0F30               	addlw	48
  1610   002752  EC49  F01C         	call	_U1_BYTE_SEND
  1611                           
  1612                           ;LIB_UART.c: 129:                     break;
  1613   002756  EFA7  F014         	goto	l336
  1614   00275A                     l2405:
  1615                           
  1616                           ;LIB_UART.c: 131:                     U1_BYTE_SEND(millar+0x30);
  1617   00275A  5012               	movf	U1_VAR_INT@millar^(0+1280),w,c
  1618   00275C  0F30               	addlw	48
  1619   00275E  EC49  F01C         	call	_U1_BYTE_SEND
  1620                           
  1621                           ;LIB_UART.c: 132:                     U1_BYTE_SEND(centena+0x30);
  1622   002762  5013               	movf	U1_VAR_INT@centena^(0+1280),w,c
  1623   002764  0F30               	addlw	48
  1624   002766  EC49  F01C         	call	_U1_BYTE_SEND
  1625                           
  1626                           ;LIB_UART.c: 133:                     U1_BYTE_SEND(decena+0x30);
  1627   00276A  5014               	movf	U1_VAR_INT@decena^(0+1280),w,c
  1628   00276C  0F30               	addlw	48
  1629   00276E  EC49  F01C         	call	_U1_BYTE_SEND
  1630   002772                     
  1631                           ;LIB_UART.c: 134:                     U1_BYTE_SEND('.');
  1632   002772  0E2E               	movlw	46
  1633   002774  EC49  F01C         	call	_U1_BYTE_SEND
  1634   002778                     
  1635                           ;LIB_UART.c: 135:                     U1_BYTE_SEND(unidad+0x30);
  1636   002778  5015               	movf	U1_VAR_INT@unidad^(0+1280),w,c
  1637   00277A  0F30               	addlw	48
  1638   00277C  EC49  F01C         	call	_U1_BYTE_SEND
  1639                           
  1640                           ;LIB_UART.c: 136:                     break;
  1641   002780  EFA7  F014         	goto	l336
  1642   002784                     l2411:
  1643                           
  1644                           ;LIB_UART.c: 138:                     U1_BYTE_SEND(millar+0x30);
  1645   002784  5012               	movf	U1_VAR_INT@millar^(0+1280),w,c
  1646   002786  0F30               	addlw	48
  1647   002788  EC49  F01C         	call	_U1_BYTE_SEND
  1648                           
  1649                           ;LIB_UART.c: 139:                     U1_BYTE_SEND(centena+0x30);
  1650   00278C  5013               	movf	U1_VAR_INT@centena^(0+1280),w,c
  1651   00278E  0F30               	addlw	48
  1652   002790  EC49  F01C         	call	_U1_BYTE_SEND
  1653   002794                     
  1654                           ;LIB_UART.c: 140:                     U1_BYTE_SEND('.');
  1655   002794  0E2E               	movlw	46
  1656   002796  EC49  F01C         	call	_U1_BYTE_SEND
  1657   00279A                     
  1658                           ;LIB_UART.c: 141:                     U1_BYTE_SEND(decena+0x30);
  1659   00279A  5014               	movf	U1_VAR_INT@decena^(0+1280),w,c
  1660   00279C  0F30               	addlw	48
  1661   00279E  EC49  F01C         	call	_U1_BYTE_SEND
  1662   0027A2                     
  1663                           ;LIB_UART.c: 142:                     U1_BYTE_SEND(unidad+0x30);
  1664   0027A2  5015               	movf	U1_VAR_INT@unidad^(0+1280),w,c
  1665   0027A4  0F30               	addlw	48
  1666   0027A6  EC49  F01C         	call	_U1_BYTE_SEND
  1667                           
  1668                           ;LIB_UART.c: 143:                     break;
  1669   0027AA  EFA7  F014         	goto	l336
  1670   0027AE                     l2419:
  1671                           
  1672                           ;LIB_UART.c: 145:                     U1_BYTE_SEND(millar+0x30);
  1673   0027AE  5012               	movf	U1_VAR_INT@millar^(0+1280),w,c
  1674   0027B0  0F30               	addlw	48
  1675   0027B2  EC49  F01C         	call	_U1_BYTE_SEND
  1676   0027B6                     
  1677                           ;LIB_UART.c: 146:                     U1_BYTE_SEND('.');
  1678   0027B6  0E2E               	movlw	46
  1679   0027B8  EC49  F01C         	call	_U1_BYTE_SEND
  1680   0027BC                     
  1681                           ;LIB_UART.c: 147:                     U1_BYTE_SEND(centena+0x30);
  1682   0027BC  5013               	movf	U1_VAR_INT@centena^(0+1280),w,c
  1683   0027BE  0F30               	addlw	48
  1684   0027C0  EC49  F01C         	call	_U1_BYTE_SEND
  1685   0027C4                     
  1686                           ;LIB_UART.c: 148:                     U1_BYTE_SEND(decena+0x30);
  1687   0027C4  5014               	movf	U1_VAR_INT@decena^(0+1280),w,c
  1688   0027C6  0F30               	addlw	48
  1689   0027C8  EC49  F01C         	call	_U1_BYTE_SEND
  1690   0027CC                     
  1691                           ;LIB_UART.c: 149:                     U1_BYTE_SEND(unidad+0x30);
  1692   0027CC  5015               	movf	U1_VAR_INT@unidad^(0+1280),w,c
  1693   0027CE  0F30               	addlw	48
  1694   0027D0  EC49  F01C         	call	_U1_BYTE_SEND
  1695                           
  1696                           ;LIB_UART.c: 150:                     break;
  1697   0027D4  EFA7  F014         	goto	l336
  1698   0027D8                     l2431:
  1699   0027D8  5010               	movf	U1_VAR_INT@punto^(0+1280),w,c
  1700                           
  1701                           ; Switch size 1, requested type "simple"
  1702                           ; Number of cases is 4, Range of values is 0 to 3
  1703                           ; switch strategies available:
  1704                           ; Name         Instructions Cycles
  1705                           ; simple_byte           13     7 (average)
  1706                           ;	Chosen strategy is simple_byte
  1707   0027DA  0A00               	xorlw	0	; case 0
  1708   0027DC  B4D8               	btfsc	status,2,c
  1709   0027DE  EF9B  F013         	goto	l2403
  1710   0027E2  0A01               	xorlw	1	; case 1
  1711   0027E4  B4D8               	btfsc	status,2,c
  1712   0027E6  EFAD  F013         	goto	l2405
  1713   0027EA  0A03               	xorlw	3	; case 2
  1714   0027EC  B4D8               	btfsc	status,2,c
  1715   0027EE  EFC2  F013         	goto	l2411
  1716   0027F2  0A01               	xorlw	1	; case 3
  1717   0027F4  B4D8               	btfsc	status,2,c
  1718   0027F6  EFD7  F013         	goto	l2419
  1719   0027FA  EFA7  F014         	goto	l336
  1720   0027FE                     l2433:
  1721                           
  1722                           ;LIB_UART.c: 156:                     U1_BYTE_SEND(d_millar+0x30);
  1723   0027FE  5011               	movf	U1_VAR_INT@d_millar^(0+1280),w,c
  1724   002800  0F30               	addlw	48
  1725   002802  EC49  F01C         	call	_U1_BYTE_SEND
  1726                           
  1727                           ;LIB_UART.c: 157:                     U1_BYTE_SEND(millar+0x30);
  1728   002806  5012               	movf	U1_VAR_INT@millar^(0+1280),w,c
  1729   002808  0F30               	addlw	48
  1730   00280A  EC49  F01C         	call	_U1_BYTE_SEND
  1731                           
  1732                           ;LIB_UART.c: 158:                     U1_BYTE_SEND(centena+0x30);
  1733   00280E  5013               	movf	U1_VAR_INT@centena^(0+1280),w,c
  1734   002810  0F30               	addlw	48
  1735   002812  EC49  F01C         	call	_U1_BYTE_SEND
  1736                           
  1737                           ;LIB_UART.c: 159:                     U1_BYTE_SEND(decena+0x30);
  1738   002816  5014               	movf	U1_VAR_INT@decena^(0+1280),w,c
  1739   002818  0F30               	addlw	48
  1740   00281A  EC49  F01C         	call	_U1_BYTE_SEND
  1741                           
  1742                           ;LIB_UART.c: 160:                     U1_BYTE_SEND(unidad+0x30);
  1743   00281E  5015               	movf	U1_VAR_INT@unidad^(0+1280),w,c
  1744   002820  0F30               	addlw	48
  1745   002822  EC49  F01C         	call	_U1_BYTE_SEND
  1746                           
  1747                           ;LIB_UART.c: 161:                     break;
  1748   002826  EFA7  F014         	goto	l336
  1749   00282A                     l2435:
  1750                           
  1751                           ;LIB_UART.c: 163:                     U1_BYTE_SEND(d_millar+0x30);
  1752   00282A  5011               	movf	U1_VAR_INT@d_millar^(0+1280),w,c
  1753   00282C  0F30               	addlw	48
  1754   00282E  EC49  F01C         	call	_U1_BYTE_SEND
  1755                           
  1756                           ;LIB_UART.c: 164:                     U1_BYTE_SEND(millar+0x30);
  1757   002832  5012               	movf	U1_VAR_INT@millar^(0+1280),w,c
  1758   002834  0F30               	addlw	48
  1759   002836  EC49  F01C         	call	_U1_BYTE_SEND
  1760                           
  1761                           ;LIB_UART.c: 165:                     U1_BYTE_SEND(centena+0x30);
  1762   00283A  5013               	movf	U1_VAR_INT@centena^(0+1280),w,c
  1763   00283C  0F30               	addlw	48
  1764   00283E  EC49  F01C         	call	_U1_BYTE_SEND
  1765                           
  1766                           ;LIB_UART.c: 166:                     U1_BYTE_SEND(decena+0x30);
  1767   002842  5014               	movf	U1_VAR_INT@decena^(0+1280),w,c
  1768   002844  0F30               	addlw	48
  1769   002846  EC49  F01C         	call	_U1_BYTE_SEND
  1770   00284A                     
  1771                           ;LIB_UART.c: 167:                     U1_BYTE_SEND('.');
  1772   00284A  0E2E               	movlw	46
  1773   00284C  EC49  F01C         	call	_U1_BYTE_SEND
  1774   002850                     
  1775                           ;LIB_UART.c: 168:                     U1_BYTE_SEND(unidad+0x30);
  1776   002850  5015               	movf	U1_VAR_INT@unidad^(0+1280),w,c
  1777   002852  0F30               	addlw	48
  1778   002854  EC49  F01C         	call	_U1_BYTE_SEND
  1779                           
  1780                           ;LIB_UART.c: 169:                     break;
  1781   002858  EFA7  F014         	goto	l336
  1782   00285C                     l2441:
  1783                           
  1784                           ;LIB_UART.c: 171:                     U1_BYTE_SEND(d_millar+0x30);
  1785   00285C  5011               	movf	U1_VAR_INT@d_millar^(0+1280),w,c
  1786   00285E  0F30               	addlw	48
  1787   002860  EC49  F01C         	call	_U1_BYTE_SEND
  1788                           
  1789                           ;LIB_UART.c: 172:                     U1_BYTE_SEND(millar+0x30);
  1790   002864  5012               	movf	U1_VAR_INT@millar^(0+1280),w,c
  1791   002866  0F30               	addlw	48
  1792   002868  EC49  F01C         	call	_U1_BYTE_SEND
  1793                           
  1794                           ;LIB_UART.c: 173:                     U1_BYTE_SEND(centena+0x30);
  1795   00286C  5013               	movf	U1_VAR_INT@centena^(0+1280),w,c
  1796   00286E  0F30               	addlw	48
  1797   002870  EC49  F01C         	call	_U1_BYTE_SEND
  1798   002874                     
  1799                           ;LIB_UART.c: 174:                     U1_BYTE_SEND('.');
  1800   002874  0E2E               	movlw	46
  1801   002876  EC49  F01C         	call	_U1_BYTE_SEND
  1802   00287A                     
  1803                           ;LIB_UART.c: 175:                     U1_BYTE_SEND(decena+0x30);
  1804   00287A  5014               	movf	U1_VAR_INT@decena^(0+1280),w,c
  1805   00287C  0F30               	addlw	48
  1806   00287E  EC49  F01C         	call	_U1_BYTE_SEND
  1807   002882                     
  1808                           ;LIB_UART.c: 176:                     U1_BYTE_SEND(unidad+0x30);
  1809   002882  5015               	movf	U1_VAR_INT@unidad^(0+1280),w,c
  1810   002884  0F30               	addlw	48
  1811   002886  EC49  F01C         	call	_U1_BYTE_SEND
  1812                           
  1813                           ;LIB_UART.c: 177:                     break;
  1814   00288A  EFA7  F014         	goto	l336
  1815   00288E                     l2449:
  1816                           
  1817                           ;LIB_UART.c: 179:                     U1_BYTE_SEND(d_millar+0x30);
  1818   00288E  5011               	movf	U1_VAR_INT@d_millar^(0+1280),w,c
  1819   002890  0F30               	addlw	48
  1820   002892  EC49  F01C         	call	_U1_BYTE_SEND
  1821                           
  1822                           ;LIB_UART.c: 180:                     U1_BYTE_SEND(millar+0x30);
  1823   002896  5012               	movf	U1_VAR_INT@millar^(0+1280),w,c
  1824   002898  0F30               	addlw	48
  1825   00289A  EC49  F01C         	call	_U1_BYTE_SEND
  1826   00289E                     
  1827                           ;LIB_UART.c: 181:                     U1_BYTE_SEND('.');
  1828   00289E  0E2E               	movlw	46
  1829   0028A0  EC49  F01C         	call	_U1_BYTE_SEND
  1830   0028A4                     
  1831                           ;LIB_UART.c: 182:                     U1_BYTE_SEND(centena+0x30);
  1832   0028A4  5013               	movf	U1_VAR_INT@centena^(0+1280),w,c
  1833   0028A6  0F30               	addlw	48
  1834   0028A8  EC49  F01C         	call	_U1_BYTE_SEND
  1835   0028AC                     
  1836                           ;LIB_UART.c: 183:                     U1_BYTE_SEND(decena+0x30);
  1837   0028AC  5014               	movf	U1_VAR_INT@decena^(0+1280),w,c
  1838   0028AE  0F30               	addlw	48
  1839   0028B0  EC49  F01C         	call	_U1_BYTE_SEND
  1840   0028B4                     
  1841                           ;LIB_UART.c: 184:                     U1_BYTE_SEND(unidad+0x30);
  1842   0028B4  5015               	movf	U1_VAR_INT@unidad^(0+1280),w,c
  1843   0028B6  0F30               	addlw	48
  1844   0028B8  EC49  F01C         	call	_U1_BYTE_SEND
  1845                           
  1846                           ;LIB_UART.c: 185:                     break;
  1847   0028BC  EFA7  F014         	goto	l336
  1848   0028C0                     l2459:
  1849                           
  1850                           ;LIB_UART.c: 187:                     U1_BYTE_SEND(d_millar+0x30);
  1851   0028C0  5011               	movf	U1_VAR_INT@d_millar^(0+1280),w,c
  1852   0028C2  0F30               	addlw	48
  1853   0028C4  EC49  F01C         	call	_U1_BYTE_SEND
  1854   0028C8                     
  1855                           ;LIB_UART.c: 188:                     U1_BYTE_SEND('.');
  1856   0028C8  0E2E               	movlw	46
  1857   0028CA  EC49  F01C         	call	_U1_BYTE_SEND
  1858   0028CE                     
  1859                           ;LIB_UART.c: 189:                     U1_BYTE_SEND(millar+0x30);
  1860   0028CE  5012               	movf	U1_VAR_INT@millar^(0+1280),w,c
  1861   0028D0  0F30               	addlw	48
  1862   0028D2  EC49  F01C         	call	_U1_BYTE_SEND
  1863   0028D6                     
  1864                           ;LIB_UART.c: 190:                     U1_BYTE_SEND(centena+0x30);
  1865   0028D6  5013               	movf	U1_VAR_INT@centena^(0+1280),w,c
  1866   0028D8  0F30               	addlw	48
  1867   0028DA  EC49  F01C         	call	_U1_BYTE_SEND
  1868   0028DE                     
  1869                           ;LIB_UART.c: 191:                     U1_BYTE_SEND(decena+0x30);
  1870   0028DE  5014               	movf	U1_VAR_INT@decena^(0+1280),w,c
  1871   0028E0  0F30               	addlw	48
  1872   0028E2  EC49  F01C         	call	_U1_BYTE_SEND
  1873   0028E6                     
  1874                           ;LIB_UART.c: 192:                     U1_BYTE_SEND(unidad+0x30);
  1875   0028E6  5015               	movf	U1_VAR_INT@unidad^(0+1280),w,c
  1876   0028E8  0F30               	addlw	48
  1877   0028EA  EC49  F01C         	call	_U1_BYTE_SEND
  1878                           
  1879                           ;LIB_UART.c: 193:                     break;
  1880   0028EE  EFA7  F014         	goto	l336
  1881   0028F2                     l2473:
  1882   0028F2  5010               	movf	U1_VAR_INT@punto^(0+1280),w,c
  1883                           
  1884                           ; Switch size 1, requested type "simple"
  1885                           ; Number of cases is 5, Range of values is 0 to 4
  1886                           ; switch strategies available:
  1887                           ; Name         Instructions Cycles
  1888                           ; simple_byte           16     9 (average)
  1889                           ;	Chosen strategy is simple_byte
  1890   0028F4  0A00               	xorlw	0	; case 0
  1891   0028F6  B4D8               	btfsc	status,2,c
  1892   0028F8  EFFF  F013         	goto	l2433
  1893   0028FC  0A01               	xorlw	1	; case 1
  1894   0028FE  B4D8               	btfsc	status,2,c
  1895   002900  EF15  F014         	goto	l2435
  1896   002904  0A03               	xorlw	3	; case 2
  1897   002906  B4D8               	btfsc	status,2,c
  1898   002908  EF2E  F014         	goto	l2441
  1899   00290C  0A01               	xorlw	1	; case 3
  1900   00290E  B4D8               	btfsc	status,2,c
  1901   002910  EF47  F014         	goto	l2449
  1902   002914  0A07               	xorlw	7	; case 4
  1903   002916  B4D8               	btfsc	status,2,c
  1904   002918  EF60  F014         	goto	l2459
  1905   00291C  EFA7  F014         	goto	l336
  1906   002920                     l2477:
  1907   002920  500F               	movf	U1_VAR_INT@n_digitos^(0+1280),w,c
  1908                           
  1909                           ; Switch size 1, requested type "simple"
  1910                           ; Number of cases is 5, Range of values is 1 to 5
  1911                           ; switch strategies available:
  1912                           ; Name         Instructions Cycles
  1913                           ; simple_byte           16     9 (average)
  1914                           ;	Chosen strategy is simple_byte
  1915   002922  0A01               	xorlw	1	; case 1
  1916   002924  B4D8               	btfsc	status,2,c
  1917   002926  EF2F  F013         	goto	l2369
  1918   00292A  0A03               	xorlw	3	; case 2
  1919   00292C  B4D8               	btfsc	status,2,c
  1920   00292E  EF35  F013         	goto	l2371
  1921   002932  0A01               	xorlw	1	; case 3
  1922   002934  B4D8               	btfsc	status,2,c
  1923   002936  EF8C  F013         	goto	l2401
  1924   00293A  0A07               	xorlw	7	; case 4
  1925   00293C  B4D8               	btfsc	status,2,c
  1926   00293E  EFEC  F013         	goto	l2431
  1927   002942  0A01               	xorlw	1	; case 5
  1928   002944  B4D8               	btfsc	status,2,c
  1929   002946  EF79  F014         	goto	l2473
  1930   00294A  EFA7  F014         	goto	l336
  1931   00294E                     l336:
  1932   00294E  0012               	return		;funcret
  1933   002950                     __end_of_U1_VAR_INT:
  1934                           	callstack 0
  1935                           
  1936 ;; *************** function _U1_BYTE_SEND *****************
  1937 ;; Defined at:
  1938 ;;		line 39 in file "LIB_UART.c"
  1939 ;; Parameters:    Size  Location     Type
  1940 ;;  dato            1    wreg     unsigned char 
  1941 ;; Auto vars:     Size  Location     Type
  1942 ;;  dato            1    0[COMRAM] unsigned char 
  1943 ;; Return value:  Size  Location     Type
  1944 ;;                  1    wreg      void 
  1945 ;; Registers used:
  1946 ;;		wreg
  1947 ;; Tracked objects:
  1948 ;;		On entry : 0/0
  1949 ;;		On exit  : 0/0
  1950 ;;		Unchanged: 0/0
  1951 ;; Data sizes:     COMRAM   BANK5   BANK6   BANK7   BANK8   BANK9  BANK10  BANK11  BANK12  BANK13  BANK14  BANK15  BANK1
      +6  BANK17  BANK18  BANK19  BANK20  BANK21  BANK22  BANK23  BANK24  BANK25  BANK26  BANK27  BANK28  BANK29  BANK30  BANK3
      +1  BANK32  BANK33  BANK34  BANK35  BANK36
  1952 ;;      Params:         0       0       0       0       0       0       0       0       0       0       0       0       
      +0       0       0       0       0       0       0       0       0       0       0       0       0       0       0       
      +0       0       0       0       0       0
  1953 ;;      Locals:         1       0       0       0       0       0       0       0       0       0       0       0       
      +0       0       0       0       0       0       0       0       0       0       0       0       0       0       0       
      +0       0       0       0       0       0
  1954 ;;      Temps:          0       0       0       0       0       0       0       0       0       0       0       0       
      +0       0       0       0       0       0       0       0       0       0       0       0       0       0       0       
      +0       0       0       0       0       0
  1955 ;;      Totals:         1       0       0       0       0       0       0       0       0       0       0       0       
      +0       0       0       0       0       0       0       0       0       0       0       0       0       0       0       
      +0       0       0       0       0       0
  1956 ;;Total ram usage:        1 bytes
  1957 ;; Hardware stack levels used: 1
  1958 ;; This function calls:
  1959 ;;		Nothing
  1960 ;; This function is called by:
  1961 ;;		_U1_STRING_SEND
  1962 ;;		_U1_VAR_INT
  1963 ;;		_U1_NEWLINE
  1964 ;;		_U1_VAR_CHAR
  1965 ;; This function uses a non-reentrant model
  1966 ;;
  1967                           
  1968                           	psect	text9
  1969   003892                     __ptext9:
  1970                           	callstack 0
  1971   003892                     _U1_BYTE_SEND:
  1972                           	callstack 124
  1973                           
  1974                           ;incstack = 0
  1975                           ;U1_BYTE_SEND@dato stored from wreg
  1976   003892  6E01               	movwf	U1_BYTE_SEND@dato^(0+1280),c
  1977   003894                     
  1978                           ;LIB_UART.c: 40:     U1TXB = dato;
  1979   003894  C501  F2A3         	movff	U1_BYTE_SEND@dato,675	;volatile
  1980   003898                     l288:
  1981   003898  0102               	movlb	2	; () banked
  1982   00389A  AFB2               	btfss	178,7,b	;volatile
  1983   00389C  EF52  F01C         	goto	u51
  1984   0038A0  EF54  F01C         	goto	u50
  1985   0038A4                     u51:
  1986   0038A4  EF4C  F01C         	goto	l288
  1987   0038A8                     u50:
  1988   0038A8                     
  1989                           ; BSR set to: 2
  1990   0038A8  0012               	return		;funcret
  1991   0038AA                     __end_of_U1_BYTE_SEND:
  1992                           	callstack 0
  1993                           
  1994 ;; *************** function _U1_INIT *****************
  1995 ;; Defined at:
  1996 ;;		line 23 in file "LIB_UART.c"
  1997 ;; Parameters:    Size  Location     Type
  1998 ;;  velocidad       2    0[COMRAM] unsigned int 
  1999 ;; Auto vars:     Size  Location     Type
  2000 ;;		None
  2001 ;; Return value:  Size  Location     Type
  2002 ;;                  1    wreg      void 
  2003 ;; Registers used:
  2004 ;;		wreg, status,2
  2005 ;; Tracked objects:
  2006 ;;		On entry : 0/0
  2007 ;;		On exit  : 0/0
  2008 ;;		Unchanged: 0/0
  2009 ;; Data sizes:     COMRAM   BANK5   BANK6   BANK7   BANK8   BANK9  BANK10  BANK11  BANK12  BANK13  BANK14  BANK15  BANK1
      +6  BANK17  BANK18  BANK19  BANK20  BANK21  BANK22  BANK23  BANK24  BANK25  BANK26  BANK27  BANK28  BANK29  BANK30  BANK3
      +1  BANK32  BANK33  BANK34  BANK35  BANK36
  2010 ;;      Params:         2       0       0       0       0       0       0       0       0       0       0       0       
      +0       0       0       0       0       0       0       0       0       0       0       0       0       0       0       
      +0       0       0       0       0       0
  2011 ;;      Locals:         0       0       0       0       0       0       0       0       0       0       0       0       
      +0       0       0       0       0       0       0       0       0       0       0       0       0       0       0       
      +0       0       0       0       0       0
  2012 ;;      Temps:          0       0       0       0       0       0       0       0       0       0       0       0       
      +0       0       0       0       0       0       0       0       0       0       0       0       0       0       0       
      +0       0       0       0       0       0
  2013 ;;      Totals:         2       0       0       0       0       0       0       0       0       0       0       0       
      +0       0       0       0       0       0       0       0       0       0       0       0       0       0       0       
      +0       0       0       0       0       0
  2014 ;;Total ram usage:        2 bytes
  2015 ;; Hardware stack levels used: 1
  2016 ;; This function calls:
  2017 ;;		Nothing
  2018 ;; This function is called by:
  2019 ;;		_main
  2020 ;; This function uses a non-reentrant model
  2021 ;;
  2022                           
  2023                           	psect	text10
  2024   003872                     __ptext10:
  2025                           	callstack 0
  2026   003872                     _U1_INIT:
  2027                           	callstack 126
  2028   003872                     
  2029                           ;LIB_UART.c: 25:     U1BRGH = (velocidad >>8) & 0x00FF;
  2030   003872  5002               	movf	(U1_INIT@velocidad+1)^(0+1280),w,c
  2031   003874  0102               	movlb	2	; () banked
  2032   003876  6FAF               	movwf	175,b	;volatile
  2033   003878                     
  2034                           ; BSR set to: 2
  2035                           ;LIB_UART.c: 26:     U1BRGL = velocidad & 0x00FF;
  2036   003878  C501  F2AE         	movff	U1_INIT@velocidad,686	;volatile
  2037                           
  2038                           ;LIB_UART.c: 27:     U1CON0 = 0x30;
  2039   00387C  0E30               	movlw	48
  2040   00387E  6FAB               	movwf	171,b	;volatile
  2041                           
  2042                           ;LIB_UART.c: 28:     U1CON1 = 0x80;
  2043   003880  0E80               	movlw	128
  2044   003882  6FAC               	movwf	172,b	;volatile
  2045                           
  2046                           ;LIB_UART.c: 29:     U1CON2 = 0x00;
  2047   003884  0E00               	movlw	0
  2048   003886  6FAD               	movwf	173,b	;volatile
  2049                           
  2050                           ;LIB_UART.c: 30:     RF0PPS = 0x20;
  2051   003888  0E20               	movlw	32
  2052   00388A  6F29               	movwf	41,b	;volatile
  2053                           
  2054                           ;LIB_UART.c: 31:     U1RXPPS = 0x29;
  2055   00388C  0E29               	movlw	41
  2056   00388E  6F72               	movwf	114,b	;volatile
  2057   003890                     
  2058                           ; BSR set to: 2
  2059   003890  0012               	return		;funcret
  2060   003892                     __end_of_U1_INIT:
  2061                           	callstack 0
  2062                           
  2063 ;; *************** function _I2C_LCD_INIT *****************
  2064 ;; Defined at:
  2065 ;;		line 165 in file "I2C_LCD.c"
  2066 ;; Parameters:    Size  Location     Type
  2067 ;;		None
  2068 ;; Auto vars:     Size  Location     Type
  2069 ;;		None
  2070 ;; Return value:  Size  Location     Type
  2071 ;;                  1    wreg      void 
  2072 ;; Registers used:
  2073 ;;		wreg, status,2, status,0, cstack
  2074 ;; Tracked objects:
  2075 ;;		On entry : 0/0
  2076 ;;		On exit  : 0/0
  2077 ;;		Unchanged: 0/0
  2078 ;; Data sizes:     COMRAM   BANK5   BANK6   BANK7   BANK8   BANK9  BANK10  BANK11  BANK12  BANK13  BANK14  BANK15  BANK1
      +6  BANK17  BANK18  BANK19  BANK20  BANK21  BANK22  BANK23  BANK24  BANK25  BANK26  BANK27  BANK28  BANK29  BANK30  BANK3
      +1  BANK32  BANK33  BANK34  BANK35  BANK36
  2079 ;;      Params:         0       0       0       0       0       0       0       0       0       0       0       0       
      +0       0       0       0       0       0       0       0       0       0       0       0       0       0       0       
      +0       0       0       0       0       0
  2080 ;;      Locals:         0       0       0       0       0       0       0       0       0       0       0       0       
      +0       0       0       0       0       0       0       0       0       0       0       0       0       0       0       
      +0       0       0       0       0       0
  2081 ;;      Temps:          2       0       0       0       0       0       0       0       0       0       0       0       
      +0       0       0       0       0       0       0       0       0       0       0       0       0       0       0       
      +0       0       0       0       0       0
  2082 ;;      Totals:         2       0       0       0       0       0       0       0       0       0       0       0       
      +0       0       0       0       0       0       0       0       0       0       0       0       0       0       0       
      +0       0       0       0       0       0
  2083 ;;Total ram usage:        2 bytes
  2084 ;; Hardware stack levels used: 1
  2085 ;; Hardware stack levels required when called: 3
  2086 ;; This function calls:
  2087 ;;		_I2C1_INIT
  2088 ;;		_I2C1_WRITESINGLEBYTE
  2089 ;;		_I2C_BORRAR_LCD
  2090 ;;		_I2C_CURSOR_HOME
  2091 ;;		_I2C_CURSOR_ONOFF
  2092 ;; This function is called by:
  2093 ;;		_main
  2094 ;; This function uses a non-reentrant model
  2095 ;;
  2096                           
  2097                           	psect	text11
  2098   002CFA                     __ptext11:
  2099                           	callstack 0
  2100   002CFA                     _I2C_LCD_INIT:
  2101                           	callstack 123
  2102   002CFA                     
  2103                           ;I2C_LCD.c: 166:     I2C1_INIT();
  2104   002CFA  EC7B  F01B         	call	_I2C1_INIT	;wreg free
  2105   002CFE                     
  2106                           ;I2C_LCD.c: 167:     _delay((unsigned long)((15)*(32000000UL/4000.0)));
  2107   002CFE  0E9C               	movlw	156
  2108   002D00  6E08               	movwf	??_I2C_LCD_INIT^(0+1280),c
  2109   002D02  0ED7               	movlw	215
  2110   002D04                     u977:
  2111   002D04  2EE8               	decfsz	wreg,f,c
  2112   002D06  D7FE               	bra	u977
  2113   002D08  2E08               	decfsz	??_I2C_LCD_INIT^(0+1280),f,c
  2114   002D0A  D7FC               	bra	u977
  2115   002D0C  0000               	nop	
  2116   002D0E                     
  2117                           ;I2C_LCD.c: 169:     I2C1_WRITESINGLEBYTE(0x27,0x00);
  2118   002D0E  0E00               	movlw	0
  2119   002D10  6E01               	movwf	I2C1_WRITESINGLEBYTE@dato^(0+1280),c
  2120   002D12  0E27               	movlw	39
  2121   002D14  ECE4  F01B         	call	_I2C1_WRITESINGLEBYTE
  2122   002D18                     
  2123                           ;I2C_LCD.c: 170:     _delay((unsigned long)((1000)*(32000000UL/4000.0)));
  2124   002D18  0E29               	movlw	41
  2125   002D1A  6E09               	movwf	(??_I2C_LCD_INIT+1)^(0+1280),c
  2126   002D1C  0E96               	movlw	150
  2127   002D1E  6E08               	movwf	??_I2C_LCD_INIT^(0+1280),c
  2128   002D20  0E7F               	movlw	127
  2129   002D22                     u987:
  2130   002D22  2EE8               	decfsz	wreg,f,c
  2131   002D24  D7FE               	bra	u987
  2132   002D26  2E08               	decfsz	??_I2C_LCD_INIT^(0+1280),f,c
  2133   002D28  D7FC               	bra	u987
  2134   002D2A  2E09               	decfsz	(??_I2C_LCD_INIT+1)^(0+1280),f,c
  2135   002D2C  D7FA               	bra	u987
  2136   002D2E  0000               	nop	
  2137   002D30                     
  2138                           ;I2C_LCD.c: 173:     I2C1_WRITESINGLEBYTE(0x27,0x30);
  2139   002D30  0E30               	movlw	48
  2140   002D32  6E01               	movwf	I2C1_WRITESINGLEBYTE@dato^(0+1280),c
  2141   002D34  0E27               	movlw	39
  2142   002D36  ECE4  F01B         	call	_I2C1_WRITESINGLEBYTE
  2143   002D3A                     
  2144                           ;I2C_LCD.c: 174:     I2C1_WRITESINGLEBYTE(0x27,0x30);
  2145   002D3A  0E30               	movlw	48
  2146   002D3C  6E01               	movwf	I2C1_WRITESINGLEBYTE@dato^(0+1280),c
  2147   002D3E  0E27               	movlw	39
  2148   002D40  ECE4  F01B         	call	_I2C1_WRITESINGLEBYTE
  2149   002D44                     
  2150                           ;I2C_LCD.c: 175:     _delay((unsigned long)((20)*(32000000UL/4000000.0)));
  2151   002D44  0E35               	movlw	53
  2152   002D46                     u997:
  2153   002D46  2EE8               	decfsz	wreg,f,c
  2154   002D48  D7FE               	bra	u997
  2155   002D4A  0000               	nop	
  2156   002D4C                     
  2157                           ;I2C_LCD.c: 176:     I2C1_WRITESINGLEBYTE(0x27,0x34);
  2158   002D4C  0E34               	movlw	52
  2159   002D4E  6E01               	movwf	I2C1_WRITESINGLEBYTE@dato^(0+1280),c
  2160   002D50  0E27               	movlw	39
  2161   002D52  ECE4  F01B         	call	_I2C1_WRITESINGLEBYTE
  2162   002D56                     
  2163                           ;I2C_LCD.c: 177:     _delay((unsigned long)((20)*(32000000UL/4000000.0)));
  2164   002D56  0E35               	movlw	53
  2165   002D58                     u1007:
  2166   002D58  2EE8               	decfsz	wreg,f,c
  2167   002D5A  D7FE               	bra	u1007
  2168   002D5C  0000               	nop	
  2169   002D5E                     
  2170                           ;I2C_LCD.c: 178:     I2C1_WRITESINGLEBYTE(0x27,0x30);
  2171   002D5E  0E30               	movlw	48
  2172   002D60  6E01               	movwf	I2C1_WRITESINGLEBYTE@dato^(0+1280),c
  2173   002D62  0E27               	movlw	39
  2174   002D64  ECE4  F01B         	call	_I2C1_WRITESINGLEBYTE
  2175   002D68                     
  2176                           ;I2C_LCD.c: 179:     _delay((unsigned long)((5)*(32000000UL/4000.0)));
  2177   002D68  0E34               	movlw	52
  2178   002D6A  6E08               	movwf	??_I2C_LCD_INIT^(0+1280),c
  2179   002D6C  0EF2               	movlw	242
  2180   002D6E                     u1017:
  2181   002D6E  2EE8               	decfsz	wreg,f,c
  2182   002D70  D7FE               	bra	u1017
  2183   002D72  2E08               	decfsz	??_I2C_LCD_INIT^(0+1280),f,c
  2184   002D74  D7FC               	bra	u1017
  2185   002D76                     
  2186                           ;I2C_LCD.c: 181:     I2C1_WRITESINGLEBYTE(0x27,0x30);
  2187   002D76  0E30               	movlw	48
  2188   002D78  6E01               	movwf	I2C1_WRITESINGLEBYTE@dato^(0+1280),c
  2189   002D7A  0E27               	movlw	39
  2190   002D7C  ECE4  F01B         	call	_I2C1_WRITESINGLEBYTE
  2191   002D80                     
  2192                           ;I2C_LCD.c: 182:     _delay((unsigned long)((20)*(32000000UL/4000000.0)));
  2193   002D80  0E35               	movlw	53
  2194   002D82                     u1027:
  2195   002D82  2EE8               	decfsz	wreg,f,c
  2196   002D84  D7FE               	bra	u1027
  2197   002D86  0000               	nop	
  2198   002D88                     
  2199                           ;I2C_LCD.c: 183:     I2C1_WRITESINGLEBYTE(0x27,0x34);
  2200   002D88  0E34               	movlw	52
  2201   002D8A  6E01               	movwf	I2C1_WRITESINGLEBYTE@dato^(0+1280),c
  2202   002D8C  0E27               	movlw	39
  2203   002D8E  ECE4  F01B         	call	_I2C1_WRITESINGLEBYTE
  2204   002D92                     
  2205                           ;I2C_LCD.c: 184:     _delay((unsigned long)((20)*(32000000UL/4000000.0)));
  2206   002D92  0E35               	movlw	53
  2207   002D94                     u1037:
  2208   002D94  2EE8               	decfsz	wreg,f,c
  2209   002D96  D7FE               	bra	u1037
  2210   002D98  0000               	nop	
  2211   002D9A                     
  2212                           ;I2C_LCD.c: 185:     I2C1_WRITESINGLEBYTE(0x27,0x30);
  2213   002D9A  0E30               	movlw	48
  2214   002D9C  6E01               	movwf	I2C1_WRITESINGLEBYTE@dato^(0+1280),c
  2215   002D9E  0E27               	movlw	39
  2216   002DA0  ECE4  F01B         	call	_I2C1_WRITESINGLEBYTE
  2217   002DA4                     
  2218                           ;I2C_LCD.c: 187:     _delay((unsigned long)((5)*(32000000UL/4000.0)));
  2219   002DA4  0E34               	movlw	52
  2220   002DA6  6E08               	movwf	??_I2C_LCD_INIT^(0+1280),c
  2221   002DA8  0EF2               	movlw	242
  2222   002DAA                     u1047:
  2223   002DAA  2EE8               	decfsz	wreg,f,c
  2224   002DAC  D7FE               	bra	u1047
  2225   002DAE  2E08               	decfsz	??_I2C_LCD_INIT^(0+1280),f,c
  2226   002DB0  D7FC               	bra	u1047
  2227   002DB2                     
  2228                           ;I2C_LCD.c: 189:     I2C1_WRITESINGLEBYTE(0x27,0x30);
  2229   002DB2  0E30               	movlw	48
  2230   002DB4  6E01               	movwf	I2C1_WRITESINGLEBYTE@dato^(0+1280),c
  2231   002DB6  0E27               	movlw	39
  2232   002DB8  ECE4  F01B         	call	_I2C1_WRITESINGLEBYTE
  2233   002DBC                     
  2234                           ;I2C_LCD.c: 190:     _delay((unsigned long)((20)*(32000000UL/4000000.0)));
  2235   002DBC  0E35               	movlw	53
  2236   002DBE                     u1057:
  2237   002DBE  2EE8               	decfsz	wreg,f,c
  2238   002DC0  D7FE               	bra	u1057
  2239   002DC2  0000               	nop	
  2240   002DC4                     
  2241                           ;I2C_LCD.c: 191:     I2C1_WRITESINGLEBYTE(0x27,0x34);
  2242   002DC4  0E34               	movlw	52
  2243   002DC6  6E01               	movwf	I2C1_WRITESINGLEBYTE@dato^(0+1280),c
  2244   002DC8  0E27               	movlw	39
  2245   002DCA  ECE4  F01B         	call	_I2C1_WRITESINGLEBYTE
  2246   002DCE                     
  2247                           ;I2C_LCD.c: 192:     _delay((unsigned long)((20)*(32000000UL/4000000.0)));
  2248   002DCE  0E35               	movlw	53
  2249   002DD0                     u1067:
  2250   002DD0  2EE8               	decfsz	wreg,f,c
  2251   002DD2  D7FE               	bra	u1067
  2252   002DD4  0000               	nop	
  2253   002DD6                     
  2254                           ;I2C_LCD.c: 193:     I2C1_WRITESINGLEBYTE(0x27,0x30);
  2255   002DD6  0E30               	movlw	48
  2256   002DD8  6E01               	movwf	I2C1_WRITESINGLEBYTE@dato^(0+1280),c
  2257   002DDA  0E27               	movlw	39
  2258   002DDC  ECE4  F01B         	call	_I2C1_WRITESINGLEBYTE
  2259   002DE0                     
  2260                           ;I2C_LCD.c: 195:     _delay((unsigned long)((250)*(32000000UL/4000000.0)));
  2261   002DE0  0E03               	movlw	3
  2262   002DE2  6E08               	movwf	??_I2C_LCD_INIT^(0+1280),c
  2263   002DE4  0E98               	movlw	152
  2264   002DE6                     u1077:
  2265   002DE6  2EE8               	decfsz	wreg,f,c
  2266   002DE8  D7FE               	bra	u1077
  2267   002DEA  2E08               	decfsz	??_I2C_LCD_INIT^(0+1280),f,c
  2268   002DEC  D7FC               	bra	u1077
  2269   002DEE                     
  2270                           ;I2C_LCD.c: 197:     I2C1_WRITESINGLEBYTE(0x27,0x20);
  2271   002DEE  0E20               	movlw	32
  2272   002DF0  6E01               	movwf	I2C1_WRITESINGLEBYTE@dato^(0+1280),c
  2273   002DF2  0E27               	movlw	39
  2274   002DF4  ECE4  F01B         	call	_I2C1_WRITESINGLEBYTE
  2275   002DF8                     
  2276                           ;I2C_LCD.c: 198:     _delay((unsigned long)((20)*(32000000UL/4000000.0)));
  2277   002DF8  0E35               	movlw	53
  2278   002DFA                     u1087:
  2279   002DFA  2EE8               	decfsz	wreg,f,c
  2280   002DFC  D7FE               	bra	u1087
  2281   002DFE  0000               	nop	
  2282   002E00                     
  2283                           ;I2C_LCD.c: 199:     I2C1_WRITESINGLEBYTE(0x27,0x24);
  2284   002E00  0E24               	movlw	36
  2285   002E02  6E01               	movwf	I2C1_WRITESINGLEBYTE@dato^(0+1280),c
  2286   002E04  0E27               	movlw	39
  2287   002E06  ECE4  F01B         	call	_I2C1_WRITESINGLEBYTE
  2288   002E0A                     
  2289                           ;I2C_LCD.c: 200:     _delay((unsigned long)((20)*(32000000UL/4000000.0)));
  2290   002E0A  0E35               	movlw	53
  2291   002E0C                     u1097:
  2292   002E0C  2EE8               	decfsz	wreg,f,c
  2293   002E0E  D7FE               	bra	u1097
  2294   002E10  0000               	nop	
  2295   002E12                     
  2296                           ;I2C_LCD.c: 201:     I2C1_WRITESINGLEBYTE(0x27,0x20);
  2297   002E12  0E20               	movlw	32
  2298   002E14  6E01               	movwf	I2C1_WRITESINGLEBYTE@dato^(0+1280),c
  2299   002E16  0E27               	movlw	39
  2300   002E18  ECE4  F01B         	call	_I2C1_WRITESINGLEBYTE
  2301   002E1C                     
  2302                           ;I2C_LCD.c: 203:     _delay((unsigned long)((75)*(32000000UL/4000000.0)));
  2303   002E1C  0EC8               	movlw	200
  2304   002E1E                     u1107:
  2305   002E1E  2EE8               	decfsz	wreg,f,c
  2306   002E20  D7FE               	bra	u1107
  2307   002E22                     
  2308                           ;I2C_LCD.c: 205:     I2C1_WRITESINGLEBYTE(0x27,0x20);
  2309   002E22  0E20               	movlw	32
  2310   002E24  6E01               	movwf	I2C1_WRITESINGLEBYTE@dato^(0+1280),c
  2311   002E26  0E27               	movlw	39
  2312   002E28  ECE4  F01B         	call	_I2C1_WRITESINGLEBYTE
  2313   002E2C                     
  2314                           ;I2C_LCD.c: 206:     _delay((unsigned long)((20)*(32000000UL/4000000.0)));
  2315   002E2C  0E35               	movlw	53
  2316   002E2E                     u1117:
  2317   002E2E  2EE8               	decfsz	wreg,f,c
  2318   002E30  D7FE               	bra	u1117
  2319   002E32  0000               	nop	
  2320   002E34                     
  2321                           ;I2C_LCD.c: 207:     I2C1_WRITESINGLEBYTE(0x27,0x24);
  2322   002E34  0E24               	movlw	36
  2323   002E36  6E01               	movwf	I2C1_WRITESINGLEBYTE@dato^(0+1280),c
  2324   002E38  0E27               	movlw	39
  2325   002E3A  ECE4  F01B         	call	_I2C1_WRITESINGLEBYTE
  2326   002E3E                     
  2327                           ;I2C_LCD.c: 208:     _delay((unsigned long)((20)*(32000000UL/4000000.0)));
  2328   002E3E  0E35               	movlw	53
  2329   002E40                     u1127:
  2330   002E40  2EE8               	decfsz	wreg,f,c
  2331   002E42  D7FE               	bra	u1127
  2332   002E44  0000               	nop	
  2333   002E46                     
  2334                           ;I2C_LCD.c: 209:     I2C1_WRITESINGLEBYTE(0x27,0x20);
  2335   002E46  0E20               	movlw	32
  2336   002E48  6E01               	movwf	I2C1_WRITESINGLEBYTE@dato^(0+1280),c
  2337   002E4A  0E27               	movlw	39
  2338   002E4C  ECE4  F01B         	call	_I2C1_WRITESINGLEBYTE
  2339   002E50                     
  2340                           ;I2C_LCD.c: 211:     _delay((unsigned long)((75)*(32000000UL/4000000.0)));
  2341   002E50  0EC8               	movlw	200
  2342   002E52                     u1137:
  2343   002E52  2EE8               	decfsz	wreg,f,c
  2344   002E54  D7FE               	bra	u1137
  2345   002E56                     
  2346                           ;I2C_LCD.c: 213:     I2C1_WRITESINGLEBYTE(0x27,0x80);
  2347   002E56  0E80               	movlw	128
  2348   002E58  6E01               	movwf	I2C1_WRITESINGLEBYTE@dato^(0+1280),c
  2349   002E5A  0E27               	movlw	39
  2350   002E5C  ECE4  F01B         	call	_I2C1_WRITESINGLEBYTE
  2351   002E60                     
  2352                           ;I2C_LCD.c: 214:     _delay((unsigned long)((20)*(32000000UL/4000000.0)));
  2353   002E60  0E35               	movlw	53
  2354   002E62                     u1147:
  2355   002E62  2EE8               	decfsz	wreg,f,c
  2356   002E64  D7FE               	bra	u1147
  2357   002E66  0000               	nop	
  2358   002E68                     
  2359                           ;I2C_LCD.c: 215:     I2C1_WRITESINGLEBYTE(0x27,0x84);
  2360   002E68  0E84               	movlw	132
  2361   002E6A  6E01               	movwf	I2C1_WRITESINGLEBYTE@dato^(0+1280),c
  2362   002E6C  0E27               	movlw	39
  2363   002E6E  ECE4  F01B         	call	_I2C1_WRITESINGLEBYTE
  2364   002E72                     
  2365                           ;I2C_LCD.c: 216:     _delay((unsigned long)((20)*(32000000UL/4000000.0)));
  2366   002E72  0E35               	movlw	53
  2367   002E74                     u1157:
  2368   002E74  2EE8               	decfsz	wreg,f,c
  2369   002E76  D7FE               	bra	u1157
  2370   002E78  0000               	nop	
  2371   002E7A                     
  2372                           ;I2C_LCD.c: 217:     I2C1_WRITESINGLEBYTE(0x27,0x80);
  2373   002E7A  0E80               	movlw	128
  2374   002E7C  6E01               	movwf	I2C1_WRITESINGLEBYTE@dato^(0+1280),c
  2375   002E7E  0E27               	movlw	39
  2376   002E80  ECE4  F01B         	call	_I2C1_WRITESINGLEBYTE
  2377   002E84                     
  2378                           ;I2C_LCD.c: 219:     _delay((unsigned long)((75)*(32000000UL/4000000.0)));
  2379   002E84  0EC8               	movlw	200
  2380   002E86                     u1167:
  2381   002E86  2EE8               	decfsz	wreg,f,c
  2382   002E88  D7FE               	bra	u1167
  2383   002E8A                     
  2384                           ;I2C_LCD.c: 221:     I2C1_WRITESINGLEBYTE(0x27,0x00);
  2385   002E8A  0E00               	movlw	0
  2386   002E8C  6E01               	movwf	I2C1_WRITESINGLEBYTE@dato^(0+1280),c
  2387   002E8E  0E27               	movlw	39
  2388   002E90  ECE4  F01B         	call	_I2C1_WRITESINGLEBYTE
  2389   002E94                     
  2390                           ;I2C_LCD.c: 222:     _delay((unsigned long)((20)*(32000000UL/4000000.0)));
  2391   002E94  0E35               	movlw	53
  2392   002E96                     u1177:
  2393   002E96  2EE8               	decfsz	wreg,f,c
  2394   002E98  D7FE               	bra	u1177
  2395   002E9A  0000               	nop	
  2396   002E9C                     
  2397                           ;I2C_LCD.c: 223:     I2C1_WRITESINGLEBYTE(0x27,0x04);
  2398   002E9C  0E04               	movlw	4
  2399   002E9E  6E01               	movwf	I2C1_WRITESINGLEBYTE@dato^(0+1280),c
  2400   002EA0  0E27               	movlw	39
  2401   002EA2  ECE4  F01B         	call	_I2C1_WRITESINGLEBYTE
  2402   002EA6                     
  2403                           ;I2C_LCD.c: 224:     _delay((unsigned long)((20)*(32000000UL/4000000.0)));
  2404   002EA6  0E35               	movlw	53
  2405   002EA8                     u1187:
  2406   002EA8  2EE8               	decfsz	wreg,f,c
  2407   002EAA  D7FE               	bra	u1187
  2408   002EAC  0000               	nop	
  2409   002EAE                     
  2410                           ;I2C_LCD.c: 225:     I2C1_WRITESINGLEBYTE(0x27,0x00);
  2411   002EAE  0E00               	movlw	0
  2412   002EB0  6E01               	movwf	I2C1_WRITESINGLEBYTE@dato^(0+1280),c
  2413   002EB2  0E27               	movlw	39
  2414   002EB4  ECE4  F01B         	call	_I2C1_WRITESINGLEBYTE
  2415   002EB8                     
  2416                           ;I2C_LCD.c: 227:      _delay((unsigned long)((75)*(32000000UL/4000000.0)));
  2417   002EB8  0EC8               	movlw	200
  2418   002EBA                     u1197:
  2419   002EBA  2EE8               	decfsz	wreg,f,c
  2420   002EBC  D7FE               	bra	u1197
  2421   002EBE                     
  2422                           ;I2C_LCD.c: 229:     I2C1_WRITESINGLEBYTE(0x27,0xC0);
  2423   002EBE  0EC0               	movlw	192
  2424   002EC0  6E01               	movwf	I2C1_WRITESINGLEBYTE@dato^(0+1280),c
  2425   002EC2  0E27               	movlw	39
  2426   002EC4  ECE4  F01B         	call	_I2C1_WRITESINGLEBYTE
  2427   002EC8                     
  2428                           ;I2C_LCD.c: 230:     _delay((unsigned long)((20)*(32000000UL/4000000.0)));
  2429   002EC8  0E35               	movlw	53
  2430   002ECA                     u1207:
  2431   002ECA  2EE8               	decfsz	wreg,f,c
  2432   002ECC  D7FE               	bra	u1207
  2433   002ECE  0000               	nop	
  2434   002ED0                     
  2435                           ;I2C_LCD.c: 231:     I2C1_WRITESINGLEBYTE(0x27,0xC4);
  2436   002ED0  0EC4               	movlw	196
  2437   002ED2  6E01               	movwf	I2C1_WRITESINGLEBYTE@dato^(0+1280),c
  2438   002ED4  0E27               	movlw	39
  2439   002ED6  ECE4  F01B         	call	_I2C1_WRITESINGLEBYTE
  2440   002EDA                     
  2441                           ;I2C_LCD.c: 232:     _delay((unsigned long)((20)*(32000000UL/4000000.0)));
  2442   002EDA  0E35               	movlw	53
  2443   002EDC                     u1217:
  2444   002EDC  2EE8               	decfsz	wreg,f,c
  2445   002EDE  D7FE               	bra	u1217
  2446   002EE0  0000               	nop	
  2447   002EE2                     
  2448                           ;I2C_LCD.c: 233:     I2C1_WRITESINGLEBYTE(0x27,0xC0);
  2449   002EE2  0EC0               	movlw	192
  2450   002EE4  6E01               	movwf	I2C1_WRITESINGLEBYTE@dato^(0+1280),c
  2451   002EE6  0E27               	movlw	39
  2452   002EE8  ECE4  F01B         	call	_I2C1_WRITESINGLEBYTE
  2453   002EEC                     
  2454                           ;I2C_LCD.c: 235:      _delay((unsigned long)((75)*(32000000UL/4000000.0)));
  2455   002EEC  0EC8               	movlw	200
  2456   002EEE                     u1227:
  2457   002EEE  2EE8               	decfsz	wreg,f,c
  2458   002EF0  D7FE               	bra	u1227
  2459   002EF2                     
  2460                           ;I2C_LCD.c: 237:     I2C1_WRITESINGLEBYTE(0x27,0x00);
  2461   002EF2  0E00               	movlw	0
  2462   002EF4  6E01               	movwf	I2C1_WRITESINGLEBYTE@dato^(0+1280),c
  2463   002EF6  0E27               	movlw	39
  2464   002EF8  ECE4  F01B         	call	_I2C1_WRITESINGLEBYTE
  2465   002EFC                     
  2466                           ;I2C_LCD.c: 238:     _delay((unsigned long)((20)*(32000000UL/4000000.0)));
  2467   002EFC  0E35               	movlw	53
  2468   002EFE                     u1237:
  2469   002EFE  2EE8               	decfsz	wreg,f,c
  2470   002F00  D7FE               	bra	u1237
  2471   002F02  0000               	nop	
  2472   002F04                     
  2473                           ;I2C_LCD.c: 239:     I2C1_WRITESINGLEBYTE(0x27,0x04);
  2474   002F04  0E04               	movlw	4
  2475   002F06  6E01               	movwf	I2C1_WRITESINGLEBYTE@dato^(0+1280),c
  2476   002F08  0E27               	movlw	39
  2477   002F0A  ECE4  F01B         	call	_I2C1_WRITESINGLEBYTE
  2478   002F0E                     
  2479                           ;I2C_LCD.c: 240:     _delay((unsigned long)((20)*(32000000UL/4000000.0)));
  2480   002F0E  0E35               	movlw	53
  2481   002F10                     u1247:
  2482   002F10  2EE8               	decfsz	wreg,f,c
  2483   002F12  D7FE               	bra	u1247
  2484   002F14  0000               	nop	
  2485   002F16                     
  2486                           ;I2C_LCD.c: 241:     I2C1_WRITESINGLEBYTE(0x27,0x00);
  2487   002F16  0E00               	movlw	0
  2488   002F18  6E01               	movwf	I2C1_WRITESINGLEBYTE@dato^(0+1280),c
  2489   002F1A  0E27               	movlw	39
  2490   002F1C  ECE4  F01B         	call	_I2C1_WRITESINGLEBYTE
  2491   002F20                     
  2492                           ;I2C_LCD.c: 243:      _delay((unsigned long)((75)*(32000000UL/4000000.0)));
  2493   002F20  0EC8               	movlw	200
  2494   002F22                     u1257:
  2495   002F22  2EE8               	decfsz	wreg,f,c
  2496   002F24  D7FE               	bra	u1257
  2497   002F26                     
  2498                           ;I2C_LCD.c: 245:     I2C1_WRITESINGLEBYTE(0x27,0x10);
  2499   002F26  0E10               	movlw	16
  2500   002F28  6E01               	movwf	I2C1_WRITESINGLEBYTE@dato^(0+1280),c
  2501   002F2A  0E27               	movlw	39
  2502   002F2C  ECE4  F01B         	call	_I2C1_WRITESINGLEBYTE
  2503   002F30                     
  2504                           ;I2C_LCD.c: 246:     _delay((unsigned long)((20)*(32000000UL/4000000.0)));
  2505   002F30  0E35               	movlw	53
  2506   002F32                     u1267:
  2507   002F32  2EE8               	decfsz	wreg,f,c
  2508   002F34  D7FE               	bra	u1267
  2509   002F36  0000               	nop	
  2510   002F38                     
  2511                           ;I2C_LCD.c: 247:     I2C1_WRITESINGLEBYTE(0x27,0x14);
  2512   002F38  0E14               	movlw	20
  2513   002F3A  6E01               	movwf	I2C1_WRITESINGLEBYTE@dato^(0+1280),c
  2514   002F3C  0E27               	movlw	39
  2515   002F3E  ECE4  F01B         	call	_I2C1_WRITESINGLEBYTE
  2516   002F42                     
  2517                           ;I2C_LCD.c: 248:     _delay((unsigned long)((20)*(32000000UL/4000000.0)));
  2518   002F42  0E35               	movlw	53
  2519   002F44                     u1277:
  2520   002F44  2EE8               	decfsz	wreg,f,c
  2521   002F46  D7FE               	bra	u1277
  2522   002F48  0000               	nop	
  2523   002F4A                     
  2524                           ;I2C_LCD.c: 249:     I2C1_WRITESINGLEBYTE(0x27,0x10);
  2525   002F4A  0E10               	movlw	16
  2526   002F4C  6E01               	movwf	I2C1_WRITESINGLEBYTE@dato^(0+1280),c
  2527   002F4E  0E27               	movlw	39
  2528   002F50  ECE4  F01B         	call	_I2C1_WRITESINGLEBYTE
  2529   002F54                     
  2530                           ;I2C_LCD.c: 251:      _delay((unsigned long)((2)*(32000000UL/4000.0)));
  2531   002F54  0E15               	movlw	21
  2532   002F56  6E08               	movwf	??_I2C_LCD_INIT^(0+1280),c
  2533   002F58  0EC6               	movlw	198
  2534   002F5A                     u1287:
  2535   002F5A  2EE8               	decfsz	wreg,f,c
  2536   002F5C  D7FE               	bra	u1287
  2537   002F5E  2E08               	decfsz	??_I2C_LCD_INIT^(0+1280),f,c
  2538   002F60  D7FC               	bra	u1287
  2539   002F62  D000               	nop2	
  2540   002F64                     
  2541                           ;I2C_LCD.c: 253:     I2C1_WRITESINGLEBYTE(0x27,0x00);
  2542   002F64  0E00               	movlw	0
  2543   002F66  6E01               	movwf	I2C1_WRITESINGLEBYTE@dato^(0+1280),c
  2544   002F68  0E27               	movlw	39
  2545   002F6A  ECE4  F01B         	call	_I2C1_WRITESINGLEBYTE
  2546   002F6E                     
  2547                           ;I2C_LCD.c: 254:     _delay((unsigned long)((02)*(32000000UL/4000000.0)));
  2548   002F6E  0E05               	movlw	5
  2549   002F70                     u1297:
  2550   002F70  2EE8               	decfsz	wreg,f,c
  2551   002F72  D7FE               	bra	u1297
  2552   002F74  0000               	nop	
  2553   002F76                     
  2554                           ;I2C_LCD.c: 255:     I2C1_WRITESINGLEBYTE(0x27,0x04);
  2555   002F76  0E04               	movlw	4
  2556   002F78  6E01               	movwf	I2C1_WRITESINGLEBYTE@dato^(0+1280),c
  2557   002F7A  0E27               	movlw	39
  2558   002F7C  ECE4  F01B         	call	_I2C1_WRITESINGLEBYTE
  2559   002F80                     
  2560                           ;I2C_LCD.c: 256:     _delay((unsigned long)((20)*(32000000UL/4000000.0)));
  2561   002F80  0E35               	movlw	53
  2562   002F82                     u1307:
  2563   002F82  2EE8               	decfsz	wreg,f,c
  2564   002F84  D7FE               	bra	u1307
  2565   002F86  0000               	nop	
  2566   002F88                     
  2567                           ;I2C_LCD.c: 257:     I2C1_WRITESINGLEBYTE(0x27,0x00);
  2568   002F88  0E00               	movlw	0
  2569   002F8A  6E01               	movwf	I2C1_WRITESINGLEBYTE@dato^(0+1280),c
  2570   002F8C  0E27               	movlw	39
  2571   002F8E  ECE4  F01B         	call	_I2C1_WRITESINGLEBYTE
  2572   002F92                     
  2573                           ;I2C_LCD.c: 259:      _delay((unsigned long)((75)*(32000000UL/4000000.0)));
  2574   002F92  0EC8               	movlw	200
  2575   002F94                     u1317:
  2576   002F94  2EE8               	decfsz	wreg,f,c
  2577   002F96  D7FE               	bra	u1317
  2578   002F98                     
  2579                           ;I2C_LCD.c: 261:     I2C1_WRITESINGLEBYTE(0x27,0x60);
  2580   002F98  0E60               	movlw	96
  2581   002F9A  6E01               	movwf	I2C1_WRITESINGLEBYTE@dato^(0+1280),c
  2582   002F9C  0E27               	movlw	39
  2583   002F9E  ECE4  F01B         	call	_I2C1_WRITESINGLEBYTE
  2584   002FA2                     
  2585                           ;I2C_LCD.c: 262:     _delay((unsigned long)((02)*(32000000UL/4000000.0)));
  2586   002FA2  0E05               	movlw	5
  2587   002FA4                     u1327:
  2588   002FA4  2EE8               	decfsz	wreg,f,c
  2589   002FA6  D7FE               	bra	u1327
  2590   002FA8  0000               	nop	
  2591   002FAA                     
  2592                           ;I2C_LCD.c: 263:     I2C1_WRITESINGLEBYTE(0x27,0x64);
  2593   002FAA  0E64               	movlw	100
  2594   002FAC  6E01               	movwf	I2C1_WRITESINGLEBYTE@dato^(0+1280),c
  2595   002FAE  0E27               	movlw	39
  2596   002FB0  ECE4  F01B         	call	_I2C1_WRITESINGLEBYTE
  2597   002FB4                     
  2598                           ;I2C_LCD.c: 264:     _delay((unsigned long)((20)*(32000000UL/4000000.0)));
  2599   002FB4  0E35               	movlw	53
  2600   002FB6                     u1337:
  2601   002FB6  2EE8               	decfsz	wreg,f,c
  2602   002FB8  D7FE               	bra	u1337
  2603   002FBA  0000               	nop	
  2604   002FBC                     
  2605                           ;I2C_LCD.c: 265:     I2C1_WRITESINGLEBYTE(0x27,0x60);
  2606   002FBC  0E60               	movlw	96
  2607   002FBE  6E01               	movwf	I2C1_WRITESINGLEBYTE@dato^(0+1280),c
  2608   002FC0  0E27               	movlw	39
  2609   002FC2  ECE4  F01B         	call	_I2C1_WRITESINGLEBYTE
  2610   002FC6                     
  2611                           ;I2C_LCD.c: 267:      _delay((unsigned long)((75)*(32000000UL/4000000.0)));
  2612   002FC6  0EC8               	movlw	200
  2613   002FC8                     u1347:
  2614   002FC8  2EE8               	decfsz	wreg,f,c
  2615   002FCA  D7FE               	bra	u1347
  2616   002FCC                     
  2617                           ;I2C_LCD.c: 269:     I2C1_WRITESINGLEBYTE(0x27,0x00);
  2618   002FCC  0E00               	movlw	0
  2619   002FCE  6E01               	movwf	I2C1_WRITESINGLEBYTE@dato^(0+1280),c
  2620   002FD0  0E27               	movlw	39
  2621   002FD2  ECE4  F01B         	call	_I2C1_WRITESINGLEBYTE
  2622   002FD6                     
  2623                           ;I2C_LCD.c: 270:     _delay((unsigned long)((20)*(32000000UL/4000000.0)));
  2624   002FD6  0E35               	movlw	53
  2625   002FD8                     u1357:
  2626   002FD8  2EE8               	decfsz	wreg,f,c
  2627   002FDA  D7FE               	bra	u1357
  2628   002FDC  0000               	nop	
  2629   002FDE                     
  2630                           ;I2C_LCD.c: 271:     I2C1_WRITESINGLEBYTE(0x27,0x04);
  2631   002FDE  0E04               	movlw	4
  2632   002FE0  6E01               	movwf	I2C1_WRITESINGLEBYTE@dato^(0+1280),c
  2633   002FE2  0E27               	movlw	39
  2634   002FE4  ECE4  F01B         	call	_I2C1_WRITESINGLEBYTE
  2635   002FE8                     
  2636                           ;I2C_LCD.c: 272:     _delay((unsigned long)((20)*(32000000UL/4000000.0)));
  2637   002FE8  0E35               	movlw	53
  2638   002FEA                     u1367:
  2639   002FEA  2EE8               	decfsz	wreg,f,c
  2640   002FEC  D7FE               	bra	u1367
  2641   002FEE  0000               	nop	
  2642   002FF0                     
  2643                           ;I2C_LCD.c: 273:     I2C1_WRITESINGLEBYTE(0x27,0x00);
  2644   002FF0  0E00               	movlw	0
  2645   002FF2  6E01               	movwf	I2C1_WRITESINGLEBYTE@dato^(0+1280),c
  2646   002FF4  0E27               	movlw	39
  2647   002FF6  ECE4  F01B         	call	_I2C1_WRITESINGLEBYTE
  2648   002FFA                     
  2649                           ;I2C_LCD.c: 275:     _delay((unsigned long)((75)*(32000000UL/4000000.0)));
  2650   002FFA  0EC8               	movlw	200
  2651   002FFC                     u1377:
  2652   002FFC  2EE8               	decfsz	wreg,f,c
  2653   002FFE  D7FE               	bra	u1377
  2654   003000                     
  2655                           ;I2C_LCD.c: 277:     I2C1_WRITESINGLEBYTE(0x27,0x20);
  2656   003000  0E20               	movlw	32
  2657   003002  6E01               	movwf	I2C1_WRITESINGLEBYTE@dato^(0+1280),c
  2658   003004  0E27               	movlw	39
  2659   003006  ECE4  F01B         	call	_I2C1_WRITESINGLEBYTE
  2660   00300A                     
  2661                           ;I2C_LCD.c: 278:     _delay((unsigned long)((20)*(32000000UL/4000000.0)));
  2662   00300A  0E35               	movlw	53
  2663   00300C                     u1387:
  2664   00300C  2EE8               	decfsz	wreg,f,c
  2665   00300E  D7FE               	bra	u1387
  2666   003010  0000               	nop	
  2667   003012                     
  2668                           ;I2C_LCD.c: 279:     I2C1_WRITESINGLEBYTE(0x27,0x24);
  2669   003012  0E24               	movlw	36
  2670   003014  6E01               	movwf	I2C1_WRITESINGLEBYTE@dato^(0+1280),c
  2671   003016  0E27               	movlw	39
  2672   003018  ECE4  F01B         	call	_I2C1_WRITESINGLEBYTE
  2673   00301C                     
  2674                           ;I2C_LCD.c: 280:     _delay((unsigned long)((20)*(32000000UL/4000000.0)));
  2675   00301C  0E35               	movlw	53
  2676   00301E                     u1397:
  2677   00301E  2EE8               	decfsz	wreg,f,c
  2678   003020  D7FE               	bra	u1397
  2679   003022  0000               	nop	
  2680   003024                     
  2681                           ;I2C_LCD.c: 281:     I2C1_WRITESINGLEBYTE(0x27,0x20);
  2682   003024  0E20               	movlw	32
  2683   003026  6E01               	movwf	I2C1_WRITESINGLEBYTE@dato^(0+1280),c
  2684   003028  0E27               	movlw	39
  2685   00302A  ECE4  F01B         	call	_I2C1_WRITESINGLEBYTE
  2686   00302E                     
  2687                           ;I2C_LCD.c: 283:     _delay((unsigned long)((15)*(32000000UL/4000.0)));
  2688   00302E  0E9C               	movlw	156
  2689   003030  6E08               	movwf	??_I2C_LCD_INIT^(0+1280),c
  2690   003032  0ED7               	movlw	215
  2691   003034                     u1407:
  2692   003034  2EE8               	decfsz	wreg,f,c
  2693   003036  D7FE               	bra	u1407
  2694   003038  2E08               	decfsz	??_I2C_LCD_INIT^(0+1280),f,c
  2695   00303A  D7FC               	bra	u1407
  2696   00303C  0000               	nop	
  2697   00303E                     
  2698                           ;I2C_LCD.c: 284:     I2C_BORRAR_LCD();
  2699   00303E  EC6F  F01C         	call	_I2C_BORRAR_LCD	;wreg free
  2700   003042                     
  2701                           ;I2C_LCD.c: 285:     I2C_CURSOR_HOME();
  2702   003042  EC6B  F01C         	call	_I2C_CURSOR_HOME	;wreg free
  2703   003046                     
  2704                           ;I2C_LCD.c: 286:     I2C_CURSOR_ONOFF(1);
  2705   003046  0E01               	movlw	1
  2706   003048  EC21  F01C         	call	_I2C_CURSOR_ONOFF
  2707   00304C  0012               	return		;funcret
  2708   00304E                     __end_of_I2C_LCD_INIT:
  2709                           	callstack 0
  2710                           
  2711 ;; *************** function _I2C_CURSOR_ONOFF *****************
  2712 ;; Defined at:
  2713 ;;		line 94 in file "I2C_LCD.c"
  2714 ;; Parameters:    Size  Location     Type
  2715 ;;  estado          1    wreg     unsigned char 
  2716 ;; Auto vars:     Size  Location     Type
  2717 ;;  estado          1    6[COMRAM] unsigned char 
  2718 ;; Return value:  Size  Location     Type
  2719 ;;                  1    wreg      void 
  2720 ;; Registers used:
  2721 ;;		wreg, status,2, status,0, cstack
  2722 ;; Tracked objects:
  2723 ;;		On entry : 0/0
  2724 ;;		On exit  : 0/0
  2725 ;;		Unchanged: 0/0
  2726 ;; Data sizes:     COMRAM   BANK5   BANK6   BANK7   BANK8   BANK9  BANK10  BANK11  BANK12  BANK13  BANK14  BANK15  BANK1
      +6  BANK17  BANK18  BANK19  BANK20  BANK21  BANK22  BANK23  BANK24  BANK25  BANK26  BANK27  BANK28  BANK29  BANK30  BANK3
      +1  BANK32  BANK33  BANK34  BANK35  BANK36
  2727 ;;      Params:         0       0       0       0       0       0       0       0       0       0       0       0       
      +0       0       0       0       0       0       0       0       0       0       0       0       0       0       0       
      +0       0       0       0       0       0
  2728 ;;      Locals:         1       0       0       0       0       0       0       0       0       0       0       0       
      +0       0       0       0       0       0       0       0       0       0       0       0       0       0       0       
      +0       0       0       0       0       0
  2729 ;;      Temps:          0       0       0       0       0       0       0       0       0       0       0       0       
      +0       0       0       0       0       0       0       0       0       0       0       0       0       0       0       
      +0       0       0       0       0       0
  2730 ;;      Totals:         1       0       0       0       0       0       0       0       0       0       0       0       
      +0       0       0       0       0       0       0       0       0       0       0       0       0       0       0       
      +0       0       0       0       0       0
  2731 ;;Total ram usage:        1 bytes
  2732 ;; Hardware stack levels used: 1
  2733 ;; Hardware stack levels required when called: 2
  2734 ;; This function calls:
  2735 ;;		_I2C_ENVIA_LCD_CMD
  2736 ;; This function is called by:
  2737 ;;		_I2C_LCD_INIT
  2738 ;; This function uses a non-reentrant model
  2739 ;;
  2740                           
  2741                           	psect	text12
  2742   003842                     __ptext12:
  2743                           	callstack 0
  2744   003842                     _I2C_CURSOR_ONOFF:
  2745                           	callstack 123
  2746                           
  2747                           ;incstack = 0
  2748                           ;I2C_CURSOR_ONOFF@estado stored from wreg
  2749   003842  6E07               	movwf	I2C_CURSOR_ONOFF@estado^(0+1280),c
  2750   003844                     
  2751                           ;I2C_LCD.c: 95:  if(estado == 0) I2C_ENVIA_LCD_CMD(0x0E);
  2752   003844  5007               	movf	I2C_CURSOR_ONOFF@estado^(0+1280),w,c
  2753   003846  A4D8               	btfss	status,2,c
  2754   003848  EF28  F01C         	goto	u651
  2755   00384C  EF2A  F01C         	goto	u650
  2756   003850                     u651:
  2757   003850  EF2D  F01C         	goto	l1995
  2758   003854                     u650:
  2759   003854  0E0E               	movlw	14
  2760   003856  EC15  F01B         	call	_I2C_ENVIA_LCD_CMD
  2761   00385A                     l1995:
  2762                           
  2763                           ;I2C_LCD.c: 96:  if(estado == 1) I2C_ENVIA_LCD_CMD(0x0C);
  2764   00385A  0407               	decf	I2C_CURSOR_ONOFF@estado^(0+1280),w,c
  2765   00385C  A4D8               	btfss	status,2,c
  2766   00385E  EF33  F01C         	goto	u661
  2767   003862  EF35  F01C         	goto	u660
  2768   003866                     u661:
  2769   003866  EF38  F01C         	goto	l95
  2770   00386A                     u660:
  2771   00386A  0E0C               	movlw	12
  2772   00386C  EC15  F01B         	call	_I2C_ENVIA_LCD_CMD
  2773   003870                     l95:
  2774   003870  0012               	return		;funcret
  2775   003872                     __end_of_I2C_CURSOR_ONOFF:
  2776                           	callstack 0
  2777                           
  2778 ;; *************** function _I2C_CURSOR_HOME *****************
  2779 ;; Defined at:
  2780 ;;		line 74 in file "I2C_LCD.c"
  2781 ;; Parameters:    Size  Location     Type
  2782 ;;		None
  2783 ;; Auto vars:     Size  Location     Type
  2784 ;;		None
  2785 ;; Return value:  Size  Location     Type
  2786 ;;                  1    wreg      void 
  2787 ;; Registers used:
  2788 ;;		wreg, status,2, status,0, cstack
  2789 ;; Tracked objects:
  2790 ;;		On entry : 0/0
  2791 ;;		On exit  : 0/0
  2792 ;;		Unchanged: 0/0
  2793 ;; Data sizes:     COMRAM   BANK5   BANK6   BANK7   BANK8   BANK9  BANK10  BANK11  BANK12  BANK13  BANK14  BANK15  BANK1
      +6  BANK17  BANK18  BANK19  BANK20  BANK21  BANK22  BANK23  BANK24  BANK25  BANK26  BANK27  BANK28  BANK29  BANK30  BANK3
      +1  BANK32  BANK33  BANK34  BANK35  BANK36
  2794 ;;      Params:         0       0       0       0       0       0       0       0       0       0       0       0       
      +0       0       0       0       0       0       0       0       0       0       0       0       0       0       0       
      +0       0       0       0       0       0
  2795 ;;      Locals:         0       0       0       0       0       0       0       0       0       0       0       0       
      +0       0       0       0       0       0       0       0       0       0       0       0       0       0       0       
      +0       0       0       0       0       0
  2796 ;;      Temps:          0       0       0       0       0       0       0       0       0       0       0       0       
      +0       0       0       0       0       0       0       0       0       0       0       0       0       0       0       
      +0       0       0       0       0       0
  2797 ;;      Totals:         0       0       0       0       0       0       0       0       0       0       0       0       
      +0       0       0       0       0       0       0       0       0       0       0       0       0       0       0       
      +0       0       0       0       0       0
  2798 ;;Total ram usage:        0 bytes
  2799 ;; Hardware stack levels used: 1
  2800 ;; Hardware stack levels required when called: 2
  2801 ;; This function calls:
  2802 ;;		_I2C_ENVIA_LCD_CMD
  2803 ;; This function is called by:
  2804 ;;		_I2C_LCD_INIT
  2805 ;; This function uses a non-reentrant model
  2806 ;;
  2807                           
  2808                           	psect	text13
  2809   0038D6                     __ptext13:
  2810                           	callstack 0
  2811   0038D6                     _I2C_CURSOR_HOME:
  2812                           	callstack 123
  2813   0038D6                     
  2814                           ;I2C_LCD.c: 75:  I2C_ENVIA_LCD_CMD(0x02);
  2815   0038D6  0E02               	movlw	2
  2816   0038D8  EC15  F01B         	call	_I2C_ENVIA_LCD_CMD
  2817   0038DC  0012               	return		;funcret
  2818   0038DE                     __end_of_I2C_CURSOR_HOME:
  2819                           	callstack 0
  2820                           
  2821 ;; *************** function _I2C_BORRAR_LCD *****************
  2822 ;; Defined at:
  2823 ;;		line 133 in file "I2C_LCD.c"
  2824 ;; Parameters:    Size  Location     Type
  2825 ;;		None
  2826 ;; Auto vars:     Size  Location     Type
  2827 ;;		None
  2828 ;; Return value:  Size  Location     Type
  2829 ;;                  1    wreg      void 
  2830 ;; Registers used:
  2831 ;;		wreg, status,2, status,0, cstack
  2832 ;; Tracked objects:
  2833 ;;		On entry : 0/0
  2834 ;;		On exit  : 0/0
  2835 ;;		Unchanged: 0/0
  2836 ;; Data sizes:     COMRAM   BANK5   BANK6   BANK7   BANK8   BANK9  BANK10  BANK11  BANK12  BANK13  BANK14  BANK15  BANK1
      +6  BANK17  BANK18  BANK19  BANK20  BANK21  BANK22  BANK23  BANK24  BANK25  BANK26  BANK27  BANK28  BANK29  BANK30  BANK3
      +1  BANK32  BANK33  BANK34  BANK35  BANK36
  2837 ;;      Params:         0       0       0       0       0       0       0       0       0       0       0       0       
      +0       0       0       0       0       0       0       0       0       0       0       0       0       0       0       
      +0       0       0       0       0       0
  2838 ;;      Locals:         0       0       0       0       0       0       0       0       0       0       0       0       
      +0       0       0       0       0       0       0       0       0       0       0       0       0       0       0       
      +0       0       0       0       0       0
  2839 ;;      Temps:          0       0       0       0       0       0       0       0       0       0       0       0       
      +0       0       0       0       0       0       0       0       0       0       0       0       0       0       0       
      +0       0       0       0       0       0
  2840 ;;      Totals:         0       0       0       0       0       0       0       0       0       0       0       0       
      +0       0       0       0       0       0       0       0       0       0       0       0       0       0       0       
      +0       0       0       0       0       0
  2841 ;;Total ram usage:        0 bytes
  2842 ;; Hardware stack levels used: 1
  2843 ;; Hardware stack levels required when called: 2
  2844 ;; This function calls:
  2845 ;;		_I2C_ENVIA_LCD_CMD
  2846 ;; This function is called by:
  2847 ;;		_I2C_LCD_INIT
  2848 ;;		_splash_screen
  2849 ;; This function uses a non-reentrant model
  2850 ;;
  2851                           
  2852                           	psect	text14
  2853   0038DE                     __ptext14:
  2854                           	callstack 0
  2855   0038DE                     _I2C_BORRAR_LCD:
  2856                           	callstack 123
  2857   0038DE                     
  2858                           ;I2C_LCD.c: 134:  I2C_ENVIA_LCD_CMD(0x01);
  2859   0038DE  0E01               	movlw	1
  2860   0038E0  EC15  F01B         	call	_I2C_ENVIA_LCD_CMD
  2861   0038E4  0012               	return		;funcret
  2862   0038E6                     __end_of_I2C_BORRAR_LCD:
  2863                           	callstack 0
  2864                           
  2865 ;; *************** function _I2C_ENVIA_LCD_CMD *****************
  2866 ;; Defined at:
  2867 ;;		line 137 in file "I2C_LCD.c"
  2868 ;; Parameters:    Size  Location     Type
  2869 ;;  command         1    wreg     unsigned char 
  2870 ;; Auto vars:     Size  Location     Type
  2871 ;;  command         1    3[COMRAM] unsigned char 
  2872 ;;  lownibble       1    5[COMRAM] unsigned char 
  2873 ;;  highnibble      1    4[COMRAM] unsigned char 
  2874 ;; Return value:  Size  Location     Type
  2875 ;;                  1    wreg      void 
  2876 ;; Registers used:
  2877 ;;		wreg, status,2, status,0, cstack
  2878 ;; Tracked objects:
  2879 ;;		On entry : 0/0
  2880 ;;		On exit  : 0/0
  2881 ;;		Unchanged: 0/0
  2882 ;; Data sizes:     COMRAM   BANK5   BANK6   BANK7   BANK8   BANK9  BANK10  BANK11  BANK12  BANK13  BANK14  BANK15  BANK1
      +6  BANK17  BANK18  BANK19  BANK20  BANK21  BANK22  BANK23  BANK24  BANK25  BANK26  BANK27  BANK28  BANK29  BANK30  BANK3
      +1  BANK32  BANK33  BANK34  BANK35  BANK36
  2883 ;;      Params:         0       0       0       0       0       0       0       0       0       0       0       0       
      +0       0       0       0       0       0       0       0       0       0       0       0       0       0       0       
      +0       0       0       0       0       0
  2884 ;;      Locals:         3       0       0       0       0       0       0       0       0       0       0       0       
      +0       0       0       0       0       0       0       0       0       0       0       0       0       0       0       
      +0       0       0       0       0       0
  2885 ;;      Temps:          1       0       0       0       0       0       0       0       0       0       0       0       
      +0       0       0       0       0       0       0       0       0       0       0       0       0       0       0       
      +0       0       0       0       0       0
  2886 ;;      Totals:         4       0       0       0       0       0       0       0       0       0       0       0       
      +0       0       0       0       0       0       0       0       0       0       0       0       0       0       0       
      +0       0       0       0       0       0
  2887 ;;Total ram usage:        4 bytes
  2888 ;; Hardware stack levels used: 1
  2889 ;; Hardware stack levels required when called: 1
  2890 ;; This function calls:
  2891 ;;		_I2C1_WRITESINGLEBYTE
  2892 ;; This function is called by:
  2893 ;;		_I2C_POS_CURSOR
  2894 ;;		_I2C_CURSOR_HOME
  2895 ;;		_I2C_CURSOR_ONOFF
  2896 ;;		_I2C_BORRAR_LCD
  2897 ;;		_I2C_BLINK_CURSOR
  2898 ;;		_I2C_DISPLAY_ONOFF
  2899 ;;		_I2C_CURSOR_SHIFTLEFT
  2900 ;;		_I2C_CURSOR_SHIFTRIGHT
  2901 ;;		_I2C_DISPLAY_SHIFTLEFT
  2902 ;;		_I2C_DISPLAY_SHIFTRIGHT
  2903 ;;		_I2C_GENERACARACTER
  2904 ;; This function uses a non-reentrant model
  2905 ;;
  2906                           
  2907                           	psect	text15
  2908   00362A                     __ptext15:
  2909                           	callstack 0
  2910   00362A                     _I2C_ENVIA_LCD_CMD:
  2911                           	callstack 123
  2912                           
  2913                           ;incstack = 0
  2914                           ;I2C_ENVIA_LCD_CMD@command stored from wreg
  2915   00362A  6E04               	movwf	I2C_ENVIA_LCD_CMD@command^(0+1280),c
  2916   00362C                     
  2917                           ;I2C_LCD.c: 138:     unsigned char highnibble;;I2C_LCD.c: 139:     unsigned char lownibb
      +                          le;;I2C_LCD.c: 141:     highnibble = (command & 0xF0) | 0x08;
  2918   00362C  5004               	movf	I2C_ENVIA_LCD_CMD@command^(0+1280),w,c
  2919   00362E  0BF0               	andlw	240
  2920   003630  0908               	iorlw	8
  2921   003632  6E05               	movwf	I2C_ENVIA_LCD_CMD@highnibble^(0+1280),c
  2922                           
  2923                           ;I2C_LCD.c: 142:     lownibble = (unsigned char)(((command & 0x0F)<<4)| 0x08);
  2924   003634  C504  F503         	movff	I2C_ENVIA_LCD_CMD@command,??_I2C_ENVIA_LCD_CMD
  2925   003638  0E0F               	movlw	15
  2926   00363A  1603               	andwf	??_I2C_ENVIA_LCD_CMD^(0+1280),f,c
  2927   00363C  3803               	swapf	??_I2C_ENVIA_LCD_CMD^(0+1280),w,c
  2928   00363E  0BF0               	andlw	240
  2929   003640  0908               	iorlw	8
  2930   003642  6E06               	movwf	I2C_ENVIA_LCD_CMD@lownibble^(0+1280),c
  2931   003644                     
  2932                           ;I2C_LCD.c: 144:     I2C1_WRITESINGLEBYTE(0x27,(highnibble | 0x04));
  2933   003644  5005               	movf	I2C_ENVIA_LCD_CMD@highnibble^(0+1280),w,c
  2934   003646  0904               	iorlw	4
  2935   003648  6E01               	movwf	I2C1_WRITESINGLEBYTE@dato^(0+1280),c
  2936   00364A  0E27               	movlw	39
  2937   00364C  ECE4  F01B         	call	_I2C1_WRITESINGLEBYTE
  2938   003650                     
  2939                           ;I2C_LCD.c: 145:     _delay((unsigned long)((20)*(32000000UL/4000000.0)));
  2940   003650  0E35               	movlw	53
  2941   003652                     u1417:
  2942   003652  2EE8               	decfsz	wreg,f,c
  2943   003654  D7FE               	bra	u1417
  2944   003656  0000               	nop	
  2945   003658                     
  2946                           ;I2C_LCD.c: 146:     I2C1_WRITESINGLEBYTE(0x27,highnibble);
  2947   003658  C505  F501         	movff	I2C_ENVIA_LCD_CMD@highnibble,I2C1_WRITESINGLEBYTE@dato
  2948   00365C  0E27               	movlw	39
  2949   00365E  ECE4  F01B         	call	_I2C1_WRITESINGLEBYTE
  2950   003662                     
  2951                           ;I2C_LCD.c: 147:     _delay((unsigned long)((20)*(32000000UL/4000000.0)));
  2952   003662  0E35               	movlw	53
  2953   003664                     u1427:
  2954   003664  2EE8               	decfsz	wreg,f,c
  2955   003666  D7FE               	bra	u1427
  2956   003668  0000               	nop	
  2957   00366A                     
  2958                           ;I2C_LCD.c: 149:     I2C1_WRITESINGLEBYTE(0x27,(lownibble | 0x04));
  2959   00366A  5006               	movf	I2C_ENVIA_LCD_CMD@lownibble^(0+1280),w,c
  2960   00366C  0904               	iorlw	4
  2961   00366E  6E01               	movwf	I2C1_WRITESINGLEBYTE@dato^(0+1280),c
  2962   003670  0E27               	movlw	39
  2963   003672  ECE4  F01B         	call	_I2C1_WRITESINGLEBYTE
  2964   003676                     
  2965                           ;I2C_LCD.c: 150:     _delay((unsigned long)((20)*(32000000UL/4000000.0)));
  2966   003676  0E35               	movlw	53
  2967   003678                     u1437:
  2968   003678  2EE8               	decfsz	wreg,f,c
  2969   00367A  D7FE               	bra	u1437
  2970   00367C  0000               	nop	
  2971   00367E                     
  2972                           ;I2C_LCD.c: 151:     I2C1_WRITESINGLEBYTE(0x27,lownibble);
  2973   00367E  C506  F501         	movff	I2C_ENVIA_LCD_CMD@lownibble,I2C1_WRITESINGLEBYTE@dato
  2974   003682  0E27               	movlw	39
  2975   003684  ECE4  F01B         	call	_I2C1_WRITESINGLEBYTE
  2976   003688                     
  2977                           ;I2C_LCD.c: 152:     _delay((unsigned long)((20)*(32000000UL/4000000.0)));
  2978   003688  0E35               	movlw	53
  2979   00368A                     u1447:
  2980   00368A  2EE8               	decfsz	wreg,f,c
  2981   00368C  D7FE               	bra	u1447
  2982   00368E  0000               	nop	
  2983   003690  0012               	return		;funcret
  2984   003692                     __end_of_I2C_ENVIA_LCD_CMD:
  2985                           	callstack 0
  2986                           
  2987 ;; *************** function _I2C1_INIT *****************
  2988 ;; Defined at:
  2989 ;;		line 16 in file "I2C_LCD.c"
  2990 ;; Parameters:    Size  Location     Type
  2991 ;;		None
  2992 ;; Auto vars:     Size  Location     Type
  2993 ;;		None
  2994 ;; Return value:  Size  Location     Type
  2995 ;;                  1    wreg      void 
  2996 ;; Registers used:
  2997 ;;		wreg, status,2
  2998 ;; Tracked objects:
  2999 ;;		On entry : 0/0
  3000 ;;		On exit  : 0/0
  3001 ;;		Unchanged: 0/0
  3002 ;; Data sizes:     COMRAM   BANK5   BANK6   BANK7   BANK8   BANK9  BANK10  BANK11  BANK12  BANK13  BANK14  BANK15  BANK1
      +6  BANK17  BANK18  BANK19  BANK20  BANK21  BANK22  BANK23  BANK24  BANK25  BANK26  BANK27  BANK28  BANK29  BANK30  BANK3
      +1  BANK32  BANK33  BANK34  BANK35  BANK36
  3003 ;;      Params:         0       0       0       0       0       0       0       0       0       0       0       0       
      +0       0       0       0       0       0       0       0       0       0       0       0       0       0       0       
      +0       0       0       0       0       0
  3004 ;;      Locals:         0       0       0       0       0       0       0       0       0       0       0       0       
      +0       0       0       0       0       0       0       0       0       0       0       0       0       0       0       
      +0       0       0       0       0       0
  3005 ;;      Temps:          0       0       0       0       0       0       0       0       0       0       0       0       
      +0       0       0       0       0       0       0       0       0       0       0       0       0       0       0       
      +0       0       0       0       0       0
  3006 ;;      Totals:         0       0       0       0       0       0       0       0       0       0       0       0       
      +0       0       0       0       0       0       0       0       0       0       0       0       0       0       0       
      +0       0       0       0       0       0
  3007 ;;Total ram usage:        0 bytes
  3008 ;; Hardware stack levels used: 1
  3009 ;; This function calls:
  3010 ;;		Nothing
  3011 ;; This function is called by:
  3012 ;;		_I2C_LCD_INIT
  3013 ;; This function uses a non-reentrant model
  3014 ;;
  3015                           
  3016                           	psect	text16
  3017   0036F6                     __ptext16:
  3018                           	callstack 0
  3019   0036F6                     _I2C1_INIT:
  3020                           	callstack 125
  3021   0036F6                     
  3022                           ;I2C_LCD.c: 18:     TRISCbits.TRISC3 = 0;
  3023   0036F6  96C8               	bcf	200,3,c	;volatile
  3024                           
  3025                           ;I2C_LCD.c: 19:     TRISCbits.TRISC4 = 0;
  3026   0036F8  98C8               	bcf	200,4,c	;volatile
  3027                           
  3028                           ;I2C_LCD.c: 20:     ANSELCbits.ANSELC3 = 0;
  3029   0036FA  0104               	movlb	4	; () banked
  3030   0036FC  9710               	bcf	16,3,b	;volatile
  3031                           
  3032                           ;I2C_LCD.c: 21:     ANSELCbits.ANSELC4 = 0;
  3033   0036FE  9910               	bcf	16,4,b	;volatile
  3034                           
  3035                           ;I2C_LCD.c: 22:     ODCONCbits.ODCC3 = 1;
  3036   003700  8712               	bsf	18,3,b	;volatile
  3037                           
  3038                           ;I2C_LCD.c: 23:     ODCONCbits.ODCC4 = 1;
  3039   003702  8912               	bsf	18,4,b	;volatile
  3040   003704                     
  3041                           ; BSR set to: 4
  3042                           ;I2C_LCD.c: 25:     RC3PPS = 0x37;
  3043   003704  0E37               	movlw	55
  3044   003706  0102               	movlb	2	; () banked
  3045   003708  6F14               	movwf	20,b	;volatile
  3046                           
  3047                           ;I2C_LCD.c: 26:     RC4PPS = 0x38;
  3048   00370A  0E38               	movlw	56
  3049   00370C  6F15               	movwf	21,b	;volatile
  3050                           
  3051                           ;I2C_LCD.c: 28:     RC3I2Cbits.PU = 2;
  3052   00370E  5187               	movf	135,w,b	;volatile
  3053   003710  0BCF               	andlw	-49
  3054   003712  0920               	iorlw	32
  3055   003714  6F87               	movwf	135,b	;volatile
  3056                           
  3057                           ;I2C_LCD.c: 29:     RC3I2Cbits.TH = 1;
  3058   003716  5187               	movf	135,w,b	;volatile
  3059   003718  0BFC               	andlw	-4
  3060   00371A  0901               	iorlw	1
  3061   00371C  6F87               	movwf	135,b	;volatile
  3062                           
  3063                           ;I2C_LCD.c: 30:     RC4I2Cbits.PU = 2;
  3064   00371E  5186               	movf	134,w,b	;volatile
  3065   003720  0BCF               	andlw	-49
  3066   003722  0920               	iorlw	32
  3067   003724  6F86               	movwf	134,b	;volatile
  3068                           
  3069                           ;I2C_LCD.c: 31:     RC4I2Cbits.TH = 1;
  3070   003726  5186               	movf	134,w,b	;volatile
  3071   003728  0BFC               	andlw	-4
  3072   00372A  0901               	iorlw	1
  3073   00372C  6F86               	movwf	134,b	;volatile
  3074   00372E                     
  3075                           ; BSR set to: 2
  3076                           ;I2C_LCD.c: 32:     I2C1CON0bits.EN = 1;
  3077   00372E  8F94               	bsf	148,7,b	;volatile
  3078                           
  3079                           ;I2C_LCD.c: 33:     I2C1CLKbits.CLK = 3;
  3080   003730  0E03               	movlw	3
  3081   003732  6F9C               	movwf	156,b	;volatile
  3082                           
  3083                           ;I2C_LCD.c: 34:     I2C1CON0bits.MODE = 0x4;
  3084   003734  5194               	movf	148,w,b	;volatile
  3085   003736  0BF8               	andlw	-8
  3086   003738  0904               	iorlw	4
  3087   00373A  6F94               	movwf	148,b	;volatile
  3088   00373C                     
  3089                           ; BSR set to: 2
  3090                           ;I2C_LCD.c: 35:     I2C1CON2bits.ABD = 0;
  3091   00373C  9996               	bcf	150,4,b	;volatile
  3092   00373E                     
  3093                           ; BSR set to: 2
  3094   00373E  0012               	return		;funcret
  3095   003740                     __end_of_I2C1_INIT:
  3096                           	callstack 0
  3097                           
  3098 ;; *************** function _I2C_LCD_ESCRIBE_VAR_INT *****************
  3099 ;; Defined at:
  3100 ;;		line 311 in file "I2C_LCD.c"
  3101 ;; Parameters:    Size  Location     Type
  3102 ;;  numero          2   12[COMRAM] unsigned int 
  3103 ;;  n_digitos       1   14[COMRAM] unsigned char 
  3104 ;;  punto           1   15[COMRAM] unsigned char 
  3105 ;; Auto vars:     Size  Location     Type
  3106 ;;  unidad          1   20[COMRAM] unsigned char 
  3107 ;;  decena          1   19[COMRAM] unsigned char 
  3108 ;;  centena         1   18[COMRAM] unsigned char 
  3109 ;;  millar          1   17[COMRAM] unsigned char 
  3110 ;;  d_millar        1   16[COMRAM] unsigned char 
  3111 ;; Return value:  Size  Location     Type
  3112 ;;                  1    wreg      void 
  3113 ;; Registers used:
  3114 ;;		wreg, status,2, status,0, cstack
  3115 ;; Tracked objects:
  3116 ;;		On entry : 0/0
  3117 ;;		On exit  : 0/0
  3118 ;;		Unchanged: 0/0
  3119 ;; Data sizes:     COMRAM   BANK5   BANK6   BANK7   BANK8   BANK9  BANK10  BANK11  BANK12  BANK13  BANK14  BANK15  BANK1
      +6  BANK17  BANK18  BANK19  BANK20  BANK21  BANK22  BANK23  BANK24  BANK25  BANK26  BANK27  BANK28  BANK29  BANK30  BANK3
      +1  BANK32  BANK33  BANK34  BANK35  BANK36
  3120 ;;      Params:         4       0       0       0       0       0       0       0       0       0       0       0       
      +0       0       0       0       0       0       0       0       0       0       0       0       0       0       0       
      +0       0       0       0       0       0
  3121 ;;      Locals:         5       0       0       0       0       0       0       0       0       0       0       0       
      +0       0       0       0       0       0       0       0       0       0       0       0       0       0       0       
      +0       0       0       0       0       0
  3122 ;;      Temps:          0       0       0       0       0       0       0       0       0       0       0       0       
      +0       0       0       0       0       0       0       0       0       0       0       0       0       0       0       
      +0       0       0       0       0       0
  3123 ;;      Totals:         9       0       0       0       0       0       0       0       0       0       0       0       
      +0       0       0       0       0       0       0       0       0       0       0       0       0       0       0       
      +0       0       0       0       0       0
  3124 ;;Total ram usage:        9 bytes
  3125 ;; Hardware stack levels used: 1
  3126 ;; Hardware stack levels required when called: 2
  3127 ;; This function calls:
  3128 ;;		_I2C_ENVIA_LCD_DATA
  3129 ;;		___lwdiv
  3130 ;;		___lwmod
  3131 ;; This function is called by:
  3132 ;;		_main
  3133 ;; This function uses a non-reentrant model
  3134 ;;
  3135                           
  3136                           	psect	text17
  3137   002950                     __ptext17:
  3138                           	callstack 0
  3139   002950                     _I2C_LCD_ESCRIBE_VAR_INT:
  3140                           	callstack 124
  3141   002950                     
  3142                           ;I2C_LCD.c: 312:     unsigned char d_millar, millar, centena, decena, unidad;;I2C_LCD.c:
      +                           313:     d_millar = numero / 10000;
  3143   002950  C50D  F506         	movff	I2C_LCD_ESCRIBE_VAR_INT@numero,___lwdiv@dividend
  3144   002954  C50E  F507         	movff	I2C_LCD_ESCRIBE_VAR_INT@numero+1,___lwdiv@dividend+1
  3145   002958  0E27               	movlw	39
  3146   00295A  6E09               	movwf	(___lwdiv@divisor+1)^(0+1280),c
  3147   00295C  0E10               	movlw	16
  3148   00295E  6E08               	movwf	___lwdiv@divisor^(0+1280),c
  3149   002960  EC6E  F01A         	call	___lwdiv	;wreg free
  3150   002964  5006               	movf	?___lwdiv^(0+1280),w,c
  3151   002966  6E11               	movwf	I2C_LCD_ESCRIBE_VAR_INT@d_millar^(0+1280),c
  3152                           
  3153                           ;I2C_LCD.c: 314:     millar = (numero % 10000) / 1000;
  3154   002968  0E27               	movlw	39
  3155   00296A  6E04               	movwf	(___lwmod@divisor+1)^(0+1280),c
  3156   00296C  0E10               	movlw	16
  3157   00296E  6E03               	movwf	___lwmod@divisor^(0+1280),c
  3158   002970  C50D  F501         	movff	I2C_LCD_ESCRIBE_VAR_INT@numero,___lwmod@dividend
  3159   002974  C50E  F502         	movff	I2C_LCD_ESCRIBE_VAR_INT@numero+1,___lwmod@dividend+1
  3160   002978  EC49  F01B         	call	___lwmod	;wreg free
  3161   00297C  C501  F506         	movff	?___lwmod,___lwdiv@dividend
  3162   002980  C502  F507         	movff	?___lwmod+1,___lwdiv@dividend+1
  3163   002984  0E03               	movlw	3
  3164   002986  6E09               	movwf	(___lwdiv@divisor+1)^(0+1280),c
  3165   002988  0EE8               	movlw	232
  3166   00298A  6E08               	movwf	___lwdiv@divisor^(0+1280),c
  3167   00298C  EC6E  F01A         	call	___lwdiv	;wreg free
  3168   002990  5006               	movf	?___lwdiv^(0+1280),w,c
  3169   002992  6E12               	movwf	I2C_LCD_ESCRIBE_VAR_INT@millar^(0+1280),c
  3170                           
  3171                           ;I2C_LCD.c: 315:     centena = (numero % 1000) / 100;
  3172   002994  0E03               	movlw	3
  3173   002996  6E04               	movwf	(___lwmod@divisor+1)^(0+1280),c
  3174   002998  0EE8               	movlw	232
  3175   00299A  6E03               	movwf	___lwmod@divisor^(0+1280),c
  3176   00299C  C50D  F501         	movff	I2C_LCD_ESCRIBE_VAR_INT@numero,___lwmod@dividend
  3177   0029A0  C50E  F502         	movff	I2C_LCD_ESCRIBE_VAR_INT@numero+1,___lwmod@dividend+1
  3178   0029A4  EC49  F01B         	call	___lwmod	;wreg free
  3179   0029A8  C501  F506         	movff	?___lwmod,___lwdiv@dividend
  3180   0029AC  C502  F507         	movff	?___lwmod+1,___lwdiv@dividend+1
  3181   0029B0  0E00               	movlw	0
  3182   0029B2  6E09               	movwf	(___lwdiv@divisor+1)^(0+1280),c
  3183   0029B4  0E64               	movlw	100
  3184   0029B6  6E08               	movwf	___lwdiv@divisor^(0+1280),c
  3185   0029B8  EC6E  F01A         	call	___lwdiv	;wreg free
  3186   0029BC  5006               	movf	?___lwdiv^(0+1280),w,c
  3187   0029BE  6E13               	movwf	I2C_LCD_ESCRIBE_VAR_INT@centena^(0+1280),c
  3188                           
  3189                           ;I2C_LCD.c: 316:     decena = (numero % 100) / 10;
  3190   0029C0  0E00               	movlw	0
  3191   0029C2  6E04               	movwf	(___lwmod@divisor+1)^(0+1280),c
  3192   0029C4  0E64               	movlw	100
  3193   0029C6  6E03               	movwf	___lwmod@divisor^(0+1280),c
  3194   0029C8  C50D  F501         	movff	I2C_LCD_ESCRIBE_VAR_INT@numero,___lwmod@dividend
  3195   0029CC  C50E  F502         	movff	I2C_LCD_ESCRIBE_VAR_INT@numero+1,___lwmod@dividend+1
  3196   0029D0  EC49  F01B         	call	___lwmod	;wreg free
  3197   0029D4  C501  F506         	movff	?___lwmod,___lwdiv@dividend
  3198   0029D8  C502  F507         	movff	?___lwmod+1,___lwdiv@dividend+1
  3199   0029DC  0E00               	movlw	0
  3200   0029DE  6E09               	movwf	(___lwdiv@divisor+1)^(0+1280),c
  3201   0029E0  0E0A               	movlw	10
  3202   0029E2  6E08               	movwf	___lwdiv@divisor^(0+1280),c
  3203   0029E4  EC6E  F01A         	call	___lwdiv	;wreg free
  3204   0029E8  5006               	movf	?___lwdiv^(0+1280),w,c
  3205   0029EA  6E14               	movwf	I2C_LCD_ESCRIBE_VAR_INT@decena^(0+1280),c
  3206                           
  3207                           ;I2C_LCD.c: 317:     unidad = numero % 10;
  3208   0029EC  C50D  F501         	movff	I2C_LCD_ESCRIBE_VAR_INT@numero,___lwmod@dividend
  3209   0029F0  C50E  F502         	movff	I2C_LCD_ESCRIBE_VAR_INT@numero+1,___lwmod@dividend+1
  3210   0029F4  0E00               	movlw	0
  3211   0029F6  6E04               	movwf	(___lwmod@divisor+1)^(0+1280),c
  3212   0029F8  0E0A               	movlw	10
  3213   0029FA  6E03               	movwf	___lwmod@divisor^(0+1280),c
  3214   0029FC  EC49  F01B         	call	___lwmod	;wreg free
  3215   002A00  5001               	movf	?___lwmod^(0+1280),w,c
  3216   002A02  6E15               	movwf	I2C_LCD_ESCRIBE_VAR_INT@unidad^(0+1280),c
  3217                           
  3218                           ;I2C_LCD.c: 318:     switch(n_digitos){
  3219   002A04  EF65  F016         	goto	l2297
  3220   002A08                     l2249:
  3221                           
  3222                           ;I2C_LCD.c: 320:             I2C_ENVIA_LCD_DATA(unidad+0x30);
  3223   002A08  5015               	movf	I2C_LCD_ESCRIBE_VAR_INT@unidad^(0+1280),w,c
  3224   002A0A  0F30               	addlw	48
  3225   002A0C  ECDF  F01A         	call	_I2C_ENVIA_LCD_DATA
  3226                           
  3227                           ;I2C_LCD.c: 321:             break;
  3228   002A10  EF7C  F016         	goto	l163
  3229   002A14                     l2251:
  3230                           
  3231                           ;I2C_LCD.c: 323:             if(punto == 0){
  3232   002A14  5010               	movf	I2C_LCD_ESCRIBE_VAR_INT@punto^(0+1280),w,c
  3233   002A16  A4D8               	btfss	status,2,c
  3234   002A18  EF10  F015         	goto	u751
  3235   002A1C  EF12  F015         	goto	u750
  3236   002A20                     u751:
  3237   002A20  EF1C  F015         	goto	l2255
  3238   002A24                     u750:
  3239   002A24                     
  3240                           ;I2C_LCD.c: 324:                 I2C_ENVIA_LCD_DATA(decena+0x30);
  3241   002A24  5014               	movf	I2C_LCD_ESCRIBE_VAR_INT@decena^(0+1280),w,c
  3242   002A26  0F30               	addlw	48
  3243   002A28  ECDF  F01A         	call	_I2C_ENVIA_LCD_DATA
  3244                           
  3245                           ;I2C_LCD.c: 325:                 I2C_ENVIA_LCD_DATA(unidad+0x30);
  3246   002A2C  5015               	movf	I2C_LCD_ESCRIBE_VAR_INT@unidad^(0+1280),w,c
  3247   002A2E  0F30               	addlw	48
  3248   002A30  ECDF  F01A         	call	_I2C_ENVIA_LCD_DATA
  3249                           
  3250                           ;I2C_LCD.c: 326:             }
  3251   002A34  EF7C  F016         	goto	l163
  3252   002A38                     l2255:
  3253   002A38  0410               	decf	I2C_LCD_ESCRIBE_VAR_INT@punto^(0+1280),w,c
  3254   002A3A  A4D8               	btfss	status,2,c
  3255   002A3C  EF22  F015         	goto	u761
  3256   002A40  EF24  F015         	goto	u760
  3257   002A44                     u761:
  3258   002A44  EF7C  F016         	goto	l163
  3259   002A48                     u760:
  3260   002A48                     
  3261                           ;I2C_LCD.c: 328:                 I2C_ENVIA_LCD_DATA(decena+0x30);
  3262   002A48  5014               	movf	I2C_LCD_ESCRIBE_VAR_INT@decena^(0+1280),w,c
  3263   002A4A  0F30               	addlw	48
  3264   002A4C  ECDF  F01A         	call	_I2C_ENVIA_LCD_DATA
  3265                           
  3266                           ;I2C_LCD.c: 329:                 I2C_ENVIA_LCD_DATA('.');
  3267   002A50  0E2E               	movlw	46
  3268   002A52  ECDF  F01A         	call	_I2C_ENVIA_LCD_DATA
  3269                           
  3270                           ;I2C_LCD.c: 330:                 I2C_ENVIA_LCD_DATA(unidad+0x30);
  3271   002A56  5015               	movf	I2C_LCD_ESCRIBE_VAR_INT@unidad^(0+1280),w,c
  3272   002A58  0F30               	addlw	48
  3273   002A5A  ECDF  F01A         	call	_I2C_ENVIA_LCD_DATA
  3274   002A5E  EF7C  F016         	goto	l163
  3275   002A62                     l2259:
  3276                           
  3277                           ;I2C_LCD.c: 336:                     I2C_ENVIA_LCD_DATA(centena+0x30);
  3278   002A62  5013               	movf	I2C_LCD_ESCRIBE_VAR_INT@centena^(0+1280),w,c
  3279   002A64  0F30               	addlw	48
  3280   002A66  ECDF  F01A         	call	_I2C_ENVIA_LCD_DATA
  3281                           
  3282                           ;I2C_LCD.c: 337:                     I2C_ENVIA_LCD_DATA(decena+0x30);
  3283   002A6A  5014               	movf	I2C_LCD_ESCRIBE_VAR_INT@decena^(0+1280),w,c
  3284   002A6C  0F30               	addlw	48
  3285   002A6E  ECDF  F01A         	call	_I2C_ENVIA_LCD_DATA
  3286                           
  3287                           ;I2C_LCD.c: 338:                     I2C_ENVIA_LCD_DATA(unidad+0x30);
  3288   002A72  5015               	movf	I2C_LCD_ESCRIBE_VAR_INT@unidad^(0+1280),w,c
  3289   002A74  0F30               	addlw	48
  3290   002A76  ECDF  F01A         	call	_I2C_ENVIA_LCD_DATA
  3291                           
  3292                           ;I2C_LCD.c: 339:                     break;
  3293   002A7A  EF7C  F016         	goto	l163
  3294   002A7E                     l2261:
  3295                           
  3296                           ;I2C_LCD.c: 341:                     I2C_ENVIA_LCD_DATA(centena+0x30);
  3297   002A7E  5013               	movf	I2C_LCD_ESCRIBE_VAR_INT@centena^(0+1280),w,c
  3298   002A80  0F30               	addlw	48
  3299   002A82  ECDF  F01A         	call	_I2C_ENVIA_LCD_DATA
  3300                           
  3301                           ;I2C_LCD.c: 342:                     I2C_ENVIA_LCD_DATA(decena+0x30);
  3302   002A86  5014               	movf	I2C_LCD_ESCRIBE_VAR_INT@decena^(0+1280),w,c
  3303   002A88  0F30               	addlw	48
  3304   002A8A  ECDF  F01A         	call	_I2C_ENVIA_LCD_DATA
  3305                           
  3306                           ;I2C_LCD.c: 343:                     I2C_ENVIA_LCD_DATA('.');
  3307   002A8E  0E2E               	movlw	46
  3308   002A90  ECDF  F01A         	call	_I2C_ENVIA_LCD_DATA
  3309                           
  3310                           ;I2C_LCD.c: 344:                     I2C_ENVIA_LCD_DATA(unidad+0x30);
  3311   002A94  5015               	movf	I2C_LCD_ESCRIBE_VAR_INT@unidad^(0+1280),w,c
  3312   002A96  0F30               	addlw	48
  3313   002A98  ECDF  F01A         	call	_I2C_ENVIA_LCD_DATA
  3314                           
  3315                           ;I2C_LCD.c: 345:                     break;
  3316   002A9C  EF7C  F016         	goto	l163
  3317   002AA0                     l2263:
  3318                           
  3319                           ;I2C_LCD.c: 347:                     I2C_ENVIA_LCD_DATA(centena+0x30);
  3320   002AA0  5013               	movf	I2C_LCD_ESCRIBE_VAR_INT@centena^(0+1280),w,c
  3321   002AA2  0F30               	addlw	48
  3322   002AA4  ECDF  F01A         	call	_I2C_ENVIA_LCD_DATA
  3323                           
  3324                           ;I2C_LCD.c: 348:                     I2C_ENVIA_LCD_DATA('.');
  3325   002AA8  0E2E               	movlw	46
  3326   002AAA  ECDF  F01A         	call	_I2C_ENVIA_LCD_DATA
  3327                           
  3328                           ;I2C_LCD.c: 349:                     I2C_ENVIA_LCD_DATA(decena+0x30);
  3329   002AAE  5014               	movf	I2C_LCD_ESCRIBE_VAR_INT@decena^(0+1280),w,c
  3330   002AB0  0F30               	addlw	48
  3331   002AB2  ECDF  F01A         	call	_I2C_ENVIA_LCD_DATA
  3332                           
  3333                           ;I2C_LCD.c: 350:                     I2C_ENVIA_LCD_DATA(unidad+0x30);
  3334   002AB6  5015               	movf	I2C_LCD_ESCRIBE_VAR_INT@unidad^(0+1280),w,c
  3335   002AB8  0F30               	addlw	48
  3336   002ABA  ECDF  F01A         	call	_I2C_ENVIA_LCD_DATA
  3337                           
  3338                           ;I2C_LCD.c: 351:                     break;
  3339   002ABE  EF7C  F016         	goto	l163
  3340   002AC2                     l2267:
  3341   002AC2  5010               	movf	I2C_LCD_ESCRIBE_VAR_INT@punto^(0+1280),w,c
  3342                           
  3343                           ; Switch size 1, requested type "simple"
  3344                           ; Number of cases is 3, Range of values is 0 to 2
  3345                           ; switch strategies available:
  3346                           ; Name         Instructions Cycles
  3347                           ; simple_byte           10     6 (average)
  3348                           ;	Chosen strategy is simple_byte
  3349   002AC4  0A00               	xorlw	0	; case 0
  3350   002AC6  B4D8               	btfsc	status,2,c
  3351   002AC8  EF31  F015         	goto	l2259
  3352   002ACC  0A01               	xorlw	1	; case 1
  3353   002ACE  B4D8               	btfsc	status,2,c
  3354   002AD0  EF3F  F015         	goto	l2261
  3355   002AD4  0A03               	xorlw	3	; case 2
  3356   002AD6  B4D8               	btfsc	status,2,c
  3357   002AD8  EF50  F015         	goto	l2263
  3358   002ADC  EF7C  F016         	goto	l163
  3359   002AE0                     l2269:
  3360                           
  3361                           ;I2C_LCD.c: 357:                     I2C_ENVIA_LCD_DATA(millar+0x30);
  3362   002AE0  5012               	movf	I2C_LCD_ESCRIBE_VAR_INT@millar^(0+1280),w,c
  3363   002AE2  0F30               	addlw	48
  3364   002AE4  ECDF  F01A         	call	_I2C_ENVIA_LCD_DATA
  3365                           
  3366                           ;I2C_LCD.c: 358:                     I2C_ENVIA_LCD_DATA(centena+0x30);
  3367   002AE8  5013               	movf	I2C_LCD_ESCRIBE_VAR_INT@centena^(0+1280),w,c
  3368   002AEA  0F30               	addlw	48
  3369   002AEC  ECDF  F01A         	call	_I2C_ENVIA_LCD_DATA
  3370                           
  3371                           ;I2C_LCD.c: 359:                     I2C_ENVIA_LCD_DATA(decena+0x30);
  3372   002AF0  5014               	movf	I2C_LCD_ESCRIBE_VAR_INT@decena^(0+1280),w,c
  3373   002AF2  0F30               	addlw	48
  3374   002AF4  ECDF  F01A         	call	_I2C_ENVIA_LCD_DATA
  3375                           
  3376                           ;I2C_LCD.c: 360:                     I2C_ENVIA_LCD_DATA(unidad+0x30);
  3377   002AF8  5015               	movf	I2C_LCD_ESCRIBE_VAR_INT@unidad^(0+1280),w,c
  3378   002AFA  0F30               	addlw	48
  3379   002AFC  ECDF  F01A         	call	_I2C_ENVIA_LCD_DATA
  3380                           
  3381                           ;I2C_LCD.c: 361:                     break;
  3382   002B00  EF7C  F016         	goto	l163
  3383   002B04                     l2271:
  3384                           
  3385                           ;I2C_LCD.c: 363:                     I2C_ENVIA_LCD_DATA(millar+0x30);
  3386   002B04  5012               	movf	I2C_LCD_ESCRIBE_VAR_INT@millar^(0+1280),w,c
  3387   002B06  0F30               	addlw	48
  3388   002B08  ECDF  F01A         	call	_I2C_ENVIA_LCD_DATA
  3389                           
  3390                           ;I2C_LCD.c: 364:                     I2C_ENVIA_LCD_DATA(centena+0x30);
  3391   002B0C  5013               	movf	I2C_LCD_ESCRIBE_VAR_INT@centena^(0+1280),w,c
  3392   002B0E  0F30               	addlw	48
  3393   002B10  ECDF  F01A         	call	_I2C_ENVIA_LCD_DATA
  3394                           
  3395                           ;I2C_LCD.c: 365:                     I2C_ENVIA_LCD_DATA(decena+0x30);
  3396   002B14  5014               	movf	I2C_LCD_ESCRIBE_VAR_INT@decena^(0+1280),w,c
  3397   002B16  0F30               	addlw	48
  3398   002B18  ECDF  F01A         	call	_I2C_ENVIA_LCD_DATA
  3399                           
  3400                           ;I2C_LCD.c: 366:                     I2C_ENVIA_LCD_DATA('.');
  3401   002B1C  0E2E               	movlw	46
  3402   002B1E  ECDF  F01A         	call	_I2C_ENVIA_LCD_DATA
  3403                           
  3404                           ;I2C_LCD.c: 367:                     I2C_ENVIA_LCD_DATA(unidad+0x30);
  3405   002B22  5015               	movf	I2C_LCD_ESCRIBE_VAR_INT@unidad^(0+1280),w,c
  3406   002B24  0F30               	addlw	48
  3407   002B26  ECDF  F01A         	call	_I2C_ENVIA_LCD_DATA
  3408                           
  3409                           ;I2C_LCD.c: 368:                     break;
  3410   002B2A  EF7C  F016         	goto	l163
  3411   002B2E                     l2273:
  3412                           
  3413                           ;I2C_LCD.c: 370:                     I2C_ENVIA_LCD_DATA(millar+0x30);
  3414   002B2E  5012               	movf	I2C_LCD_ESCRIBE_VAR_INT@millar^(0+1280),w,c
  3415   002B30  0F30               	addlw	48
  3416   002B32  ECDF  F01A         	call	_I2C_ENVIA_LCD_DATA
  3417                           
  3418                           ;I2C_LCD.c: 371:                     I2C_ENVIA_LCD_DATA(centena+0x30);
  3419   002B36  5013               	movf	I2C_LCD_ESCRIBE_VAR_INT@centena^(0+1280),w,c
  3420   002B38  0F30               	addlw	48
  3421   002B3A  ECDF  F01A         	call	_I2C_ENVIA_LCD_DATA
  3422                           
  3423                           ;I2C_LCD.c: 372:                     I2C_ENVIA_LCD_DATA('.');
  3424   002B3E  0E2E               	movlw	46
  3425   002B40  ECDF  F01A         	call	_I2C_ENVIA_LCD_DATA
  3426                           
  3427                           ;I2C_LCD.c: 373:                     I2C_ENVIA_LCD_DATA(decena+0x30);
  3428   002B44  5014               	movf	I2C_LCD_ESCRIBE_VAR_INT@decena^(0+1280),w,c
  3429   002B46  0F30               	addlw	48
  3430   002B48  ECDF  F01A         	call	_I2C_ENVIA_LCD_DATA
  3431                           
  3432                           ;I2C_LCD.c: 374:                     I2C_ENVIA_LCD_DATA(unidad+0x30);
  3433   002B4C  5015               	movf	I2C_LCD_ESCRIBE_VAR_INT@unidad^(0+1280),w,c
  3434   002B4E  0F30               	addlw	48
  3435   002B50  ECDF  F01A         	call	_I2C_ENVIA_LCD_DATA
  3436                           
  3437                           ;I2C_LCD.c: 375:                     break;
  3438   002B54  EF7C  F016         	goto	l163
  3439   002B58                     l2275:
  3440                           
  3441                           ;I2C_LCD.c: 377:                     I2C_ENVIA_LCD_DATA(millar+0x30);
  3442   002B58  5012               	movf	I2C_LCD_ESCRIBE_VAR_INT@millar^(0+1280),w,c
  3443   002B5A  0F30               	addlw	48
  3444   002B5C  ECDF  F01A         	call	_I2C_ENVIA_LCD_DATA
  3445                           
  3446                           ;I2C_LCD.c: 378:                     I2C_ENVIA_LCD_DATA('.');
  3447   002B60  0E2E               	movlw	46
  3448   002B62  ECDF  F01A         	call	_I2C_ENVIA_LCD_DATA
  3449                           
  3450                           ;I2C_LCD.c: 379:                     I2C_ENVIA_LCD_DATA(centena+0x30);
  3451   002B66  5013               	movf	I2C_LCD_ESCRIBE_VAR_INT@centena^(0+1280),w,c
  3452   002B68  0F30               	addlw	48
  3453   002B6A  ECDF  F01A         	call	_I2C_ENVIA_LCD_DATA
  3454                           
  3455                           ;I2C_LCD.c: 380:                     I2C_ENVIA_LCD_DATA(decena+0x30);
  3456   002B6E  5014               	movf	I2C_LCD_ESCRIBE_VAR_INT@decena^(0+1280),w,c
  3457   002B70  0F30               	addlw	48
  3458   002B72  ECDF  F01A         	call	_I2C_ENVIA_LCD_DATA
  3459                           
  3460                           ;I2C_LCD.c: 381:                     I2C_ENVIA_LCD_DATA(unidad+0x30);
  3461   002B76  5015               	movf	I2C_LCD_ESCRIBE_VAR_INT@unidad^(0+1280),w,c
  3462   002B78  0F30               	addlw	48
  3463   002B7A  ECDF  F01A         	call	_I2C_ENVIA_LCD_DATA
  3464                           
  3465                           ;I2C_LCD.c: 382:                     break;
  3466   002B7E  EF7C  F016         	goto	l163
  3467   002B82                     l2279:
  3468   002B82  5010               	movf	I2C_LCD_ESCRIBE_VAR_INT@punto^(0+1280),w,c
  3469                           
  3470                           ; Switch size 1, requested type "simple"
  3471                           ; Number of cases is 4, Range of values is 0 to 3
  3472                           ; switch strategies available:
  3473                           ; Name         Instructions Cycles
  3474                           ; simple_byte           13     7 (average)
  3475                           ;	Chosen strategy is simple_byte
  3476   002B84  0A00               	xorlw	0	; case 0
  3477   002B86  B4D8               	btfsc	status,2,c
  3478   002B88  EF70  F015         	goto	l2269
  3479   002B8C  0A01               	xorlw	1	; case 1
  3480   002B8E  B4D8               	btfsc	status,2,c
  3481   002B90  EF82  F015         	goto	l2271
  3482   002B94  0A03               	xorlw	3	; case 2
  3483   002B96  B4D8               	btfsc	status,2,c
  3484   002B98  EF97  F015         	goto	l2273
  3485   002B9C  0A01               	xorlw	1	; case 3
  3486   002B9E  B4D8               	btfsc	status,2,c
  3487   002BA0  EFAC  F015         	goto	l2275
  3488   002BA4  EF7C  F016         	goto	l163
  3489   002BA8                     l2281:
  3490                           
  3491                           ;I2C_LCD.c: 388:                     I2C_ENVIA_LCD_DATA(d_millar+0x30);
  3492   002BA8  5011               	movf	I2C_LCD_ESCRIBE_VAR_INT@d_millar^(0+1280),w,c
  3493   002BAA  0F30               	addlw	48
  3494   002BAC  ECDF  F01A         	call	_I2C_ENVIA_LCD_DATA
  3495                           
  3496                           ;I2C_LCD.c: 389:                     I2C_ENVIA_LCD_DATA(millar+0x30);
  3497   002BB0  5012               	movf	I2C_LCD_ESCRIBE_VAR_INT@millar^(0+1280),w,c
  3498   002BB2  0F30               	addlw	48
  3499   002BB4  ECDF  F01A         	call	_I2C_ENVIA_LCD_DATA
  3500                           
  3501                           ;I2C_LCD.c: 390:                     I2C_ENVIA_LCD_DATA(centena+0x30);
  3502   002BB8  5013               	movf	I2C_LCD_ESCRIBE_VAR_INT@centena^(0+1280),w,c
  3503   002BBA  0F30               	addlw	48
  3504   002BBC  ECDF  F01A         	call	_I2C_ENVIA_LCD_DATA
  3505                           
  3506                           ;I2C_LCD.c: 391:                     I2C_ENVIA_LCD_DATA(decena+0x30);
  3507   002BC0  5014               	movf	I2C_LCD_ESCRIBE_VAR_INT@decena^(0+1280),w,c
  3508   002BC2  0F30               	addlw	48
  3509   002BC4  ECDF  F01A         	call	_I2C_ENVIA_LCD_DATA
  3510                           
  3511                           ;I2C_LCD.c: 392:                     I2C_ENVIA_LCD_DATA(unidad+0x30);
  3512   002BC8  5015               	movf	I2C_LCD_ESCRIBE_VAR_INT@unidad^(0+1280),w,c
  3513   002BCA  0F30               	addlw	48
  3514   002BCC  ECDF  F01A         	call	_I2C_ENVIA_LCD_DATA
  3515                           
  3516                           ;I2C_LCD.c: 393:                     break;
  3517   002BD0  EF7C  F016         	goto	l163
  3518   002BD4                     l2283:
  3519                           
  3520                           ;I2C_LCD.c: 395:                     I2C_ENVIA_LCD_DATA(d_millar+0x30);
  3521   002BD4  5011               	movf	I2C_LCD_ESCRIBE_VAR_INT@d_millar^(0+1280),w,c
  3522   002BD6  0F30               	addlw	48
  3523   002BD8  ECDF  F01A         	call	_I2C_ENVIA_LCD_DATA
  3524                           
  3525                           ;I2C_LCD.c: 396:                     I2C_ENVIA_LCD_DATA(millar+0x30);
  3526   002BDC  5012               	movf	I2C_LCD_ESCRIBE_VAR_INT@millar^(0+1280),w,c
  3527   002BDE  0F30               	addlw	48
  3528   002BE0  ECDF  F01A         	call	_I2C_ENVIA_LCD_DATA
  3529                           
  3530                           ;I2C_LCD.c: 397:                     I2C_ENVIA_LCD_DATA(centena+0x30);
  3531   002BE4  5013               	movf	I2C_LCD_ESCRIBE_VAR_INT@centena^(0+1280),w,c
  3532   002BE6  0F30               	addlw	48
  3533   002BE8  ECDF  F01A         	call	_I2C_ENVIA_LCD_DATA
  3534                           
  3535                           ;I2C_LCD.c: 398:                     I2C_ENVIA_LCD_DATA(decena+0x30);
  3536   002BEC  5014               	movf	I2C_LCD_ESCRIBE_VAR_INT@decena^(0+1280),w,c
  3537   002BEE  0F30               	addlw	48
  3538   002BF0  ECDF  F01A         	call	_I2C_ENVIA_LCD_DATA
  3539                           
  3540                           ;I2C_LCD.c: 399:                     I2C_ENVIA_LCD_DATA('.');
  3541   002BF4  0E2E               	movlw	46
  3542   002BF6  ECDF  F01A         	call	_I2C_ENVIA_LCD_DATA
  3543                           
  3544                           ;I2C_LCD.c: 400:                     I2C_ENVIA_LCD_DATA(unidad+0x30);
  3545   002BFA  5015               	movf	I2C_LCD_ESCRIBE_VAR_INT@unidad^(0+1280),w,c
  3546   002BFC  0F30               	addlw	48
  3547   002BFE  ECDF  F01A         	call	_I2C_ENVIA_LCD_DATA
  3548                           
  3549                           ;I2C_LCD.c: 401:                     break;
  3550   002C02  EF7C  F016         	goto	l163
  3551   002C06                     l2285:
  3552                           
  3553                           ;I2C_LCD.c: 403:                     I2C_ENVIA_LCD_DATA(d_millar+0x30);
  3554   002C06  5011               	movf	I2C_LCD_ESCRIBE_VAR_INT@d_millar^(0+1280),w,c
  3555   002C08  0F30               	addlw	48
  3556   002C0A  ECDF  F01A         	call	_I2C_ENVIA_LCD_DATA
  3557                           
  3558                           ;I2C_LCD.c: 404:                     I2C_ENVIA_LCD_DATA(millar+0x30);
  3559   002C0E  5012               	movf	I2C_LCD_ESCRIBE_VAR_INT@millar^(0+1280),w,c
  3560   002C10  0F30               	addlw	48
  3561   002C12  ECDF  F01A         	call	_I2C_ENVIA_LCD_DATA
  3562                           
  3563                           ;I2C_LCD.c: 405:                     I2C_ENVIA_LCD_DATA(centena+0x30);
  3564   002C16  5013               	movf	I2C_LCD_ESCRIBE_VAR_INT@centena^(0+1280),w,c
  3565   002C18  0F30               	addlw	48
  3566   002C1A  ECDF  F01A         	call	_I2C_ENVIA_LCD_DATA
  3567                           
  3568                           ;I2C_LCD.c: 406:                     I2C_ENVIA_LCD_DATA('.');
  3569   002C1E  0E2E               	movlw	46
  3570   002C20  ECDF  F01A         	call	_I2C_ENVIA_LCD_DATA
  3571                           
  3572                           ;I2C_LCD.c: 407:                     I2C_ENVIA_LCD_DATA(decena+0x30);
  3573   002C24  5014               	movf	I2C_LCD_ESCRIBE_VAR_INT@decena^(0+1280),w,c
  3574   002C26  0F30               	addlw	48
  3575   002C28  ECDF  F01A         	call	_I2C_ENVIA_LCD_DATA
  3576                           
  3577                           ;I2C_LCD.c: 408:                     I2C_ENVIA_LCD_DATA(unidad+0x30);
  3578   002C2C  5015               	movf	I2C_LCD_ESCRIBE_VAR_INT@unidad^(0+1280),w,c
  3579   002C2E  0F30               	addlw	48
  3580   002C30  ECDF  F01A         	call	_I2C_ENVIA_LCD_DATA
  3581                           
  3582                           ;I2C_LCD.c: 409:                     break;
  3583   002C34  EF7C  F016         	goto	l163
  3584   002C38                     l2287:
  3585                           
  3586                           ;I2C_LCD.c: 411:                     I2C_ENVIA_LCD_DATA(d_millar+0x30);
  3587   002C38  5011               	movf	I2C_LCD_ESCRIBE_VAR_INT@d_millar^(0+1280),w,c
  3588   002C3A  0F30               	addlw	48
  3589   002C3C  ECDF  F01A         	call	_I2C_ENVIA_LCD_DATA
  3590                           
  3591                           ;I2C_LCD.c: 412:                     I2C_ENVIA_LCD_DATA(millar+0x30);
  3592   002C40  5012               	movf	I2C_LCD_ESCRIBE_VAR_INT@millar^(0+1280),w,c
  3593   002C42  0F30               	addlw	48
  3594   002C44  ECDF  F01A         	call	_I2C_ENVIA_LCD_DATA
  3595                           
  3596                           ;I2C_LCD.c: 413:                     I2C_ENVIA_LCD_DATA('.');
  3597   002C48  0E2E               	movlw	46
  3598   002C4A  ECDF  F01A         	call	_I2C_ENVIA_LCD_DATA
  3599                           
  3600                           ;I2C_LCD.c: 414:                     I2C_ENVIA_LCD_DATA(centena+0x30);
  3601   002C4E  5013               	movf	I2C_LCD_ESCRIBE_VAR_INT@centena^(0+1280),w,c
  3602   002C50  0F30               	addlw	48
  3603   002C52  ECDF  F01A         	call	_I2C_ENVIA_LCD_DATA
  3604                           
  3605                           ;I2C_LCD.c: 415:                     I2C_ENVIA_LCD_DATA(decena+0x30);
  3606   002C56  5014               	movf	I2C_LCD_ESCRIBE_VAR_INT@decena^(0+1280),w,c
  3607   002C58  0F30               	addlw	48
  3608   002C5A  ECDF  F01A         	call	_I2C_ENVIA_LCD_DATA
  3609                           
  3610                           ;I2C_LCD.c: 416:                     I2C_ENVIA_LCD_DATA(unidad+0x30);
  3611   002C5E  5015               	movf	I2C_LCD_ESCRIBE_VAR_INT@unidad^(0+1280),w,c
  3612   002C60  0F30               	addlw	48
  3613   002C62  ECDF  F01A         	call	_I2C_ENVIA_LCD_DATA
  3614                           
  3615                           ;I2C_LCD.c: 417:                     break;
  3616   002C66  EF7C  F016         	goto	l163
  3617   002C6A                     l2289:
  3618                           
  3619                           ;I2C_LCD.c: 419:                     I2C_ENVIA_LCD_DATA(d_millar+0x30);
  3620   002C6A  5011               	movf	I2C_LCD_ESCRIBE_VAR_INT@d_millar^(0+1280),w,c
  3621   002C6C  0F30               	addlw	48
  3622   002C6E  ECDF  F01A         	call	_I2C_ENVIA_LCD_DATA
  3623                           
  3624                           ;I2C_LCD.c: 420:                     I2C_ENVIA_LCD_DATA('.');
  3625   002C72  0E2E               	movlw	46
  3626   002C74  ECDF  F01A         	call	_I2C_ENVIA_LCD_DATA
  3627                           
  3628                           ;I2C_LCD.c: 421:                     I2C_ENVIA_LCD_DATA(millar+0x30);
  3629   002C78  5012               	movf	I2C_LCD_ESCRIBE_VAR_INT@millar^(0+1280),w,c
  3630   002C7A  0F30               	addlw	48
  3631   002C7C  ECDF  F01A         	call	_I2C_ENVIA_LCD_DATA
  3632                           
  3633                           ;I2C_LCD.c: 422:                     I2C_ENVIA_LCD_DATA(centena+0x30);
  3634   002C80  5013               	movf	I2C_LCD_ESCRIBE_VAR_INT@centena^(0+1280),w,c
  3635   002C82  0F30               	addlw	48
  3636   002C84  ECDF  F01A         	call	_I2C_ENVIA_LCD_DATA
  3637                           
  3638                           ;I2C_LCD.c: 423:                     I2C_ENVIA_LCD_DATA(decena+0x30);
  3639   002C88  5014               	movf	I2C_LCD_ESCRIBE_VAR_INT@decena^(0+1280),w,c
  3640   002C8A  0F30               	addlw	48
  3641   002C8C  ECDF  F01A         	call	_I2C_ENVIA_LCD_DATA
  3642                           
  3643                           ;I2C_LCD.c: 424:                     I2C_ENVIA_LCD_DATA(unidad+0x30);
  3644   002C90  5015               	movf	I2C_LCD_ESCRIBE_VAR_INT@unidad^(0+1280),w,c
  3645   002C92  0F30               	addlw	48
  3646   002C94  ECDF  F01A         	call	_I2C_ENVIA_LCD_DATA
  3647                           
  3648                           ;I2C_LCD.c: 425:                     break;
  3649   002C98  EF7C  F016         	goto	l163
  3650   002C9C                     l2293:
  3651   002C9C  5010               	movf	I2C_LCD_ESCRIBE_VAR_INT@punto^(0+1280),w,c
  3652                           
  3653                           ; Switch size 1, requested type "simple"
  3654                           ; Number of cases is 5, Range of values is 0 to 4
  3655                           ; switch strategies available:
  3656                           ; Name         Instructions Cycles
  3657                           ; simple_byte           16     9 (average)
  3658                           ;	Chosen strategy is simple_byte
  3659   002C9E  0A00               	xorlw	0	; case 0
  3660   002CA0  B4D8               	btfsc	status,2,c
  3661   002CA2  EFD4  F015         	goto	l2281
  3662   002CA6  0A01               	xorlw	1	; case 1
  3663   002CA8  B4D8               	btfsc	status,2,c
  3664   002CAA  EFEA  F015         	goto	l2283
  3665   002CAE  0A03               	xorlw	3	; case 2
  3666   002CB0  B4D8               	btfsc	status,2,c
  3667   002CB2  EF03  F016         	goto	l2285
  3668   002CB6  0A01               	xorlw	1	; case 3
  3669   002CB8  B4D8               	btfsc	status,2,c
  3670   002CBA  EF1C  F016         	goto	l2287
  3671   002CBE  0A07               	xorlw	7	; case 4
  3672   002CC0  B4D8               	btfsc	status,2,c
  3673   002CC2  EF35  F016         	goto	l2289
  3674   002CC6  EF7C  F016         	goto	l163
  3675   002CCA                     l2297:
  3676   002CCA  500F               	movf	I2C_LCD_ESCRIBE_VAR_INT@n_digitos^(0+1280),w,c
  3677                           
  3678                           ; Switch size 1, requested type "simple"
  3679                           ; Number of cases is 5, Range of values is 1 to 5
  3680                           ; switch strategies available:
  3681                           ; Name         Instructions Cycles
  3682                           ; simple_byte           16     9 (average)
  3683                           ;	Chosen strategy is simple_byte
  3684   002CCC  0A01               	xorlw	1	; case 1
  3685   002CCE  B4D8               	btfsc	status,2,c
  3686   002CD0  EF04  F015         	goto	l2249
  3687   002CD4  0A03               	xorlw	3	; case 2
  3688   002CD6  B4D8               	btfsc	status,2,c
  3689   002CD8  EF0A  F015         	goto	l2251
  3690   002CDC  0A01               	xorlw	1	; case 3
  3691   002CDE  B4D8               	btfsc	status,2,c
  3692   002CE0  EF61  F015         	goto	l2267
  3693   002CE4  0A07               	xorlw	7	; case 4
  3694   002CE6  B4D8               	btfsc	status,2,c
  3695   002CE8  EFC1  F015         	goto	l2279
  3696   002CEC  0A01               	xorlw	1	; case 5
  3697   002CEE  B4D8               	btfsc	status,2,c
  3698   002CF0  EF4E  F016         	goto	l2293
  3699   002CF4  EF7C  F016         	goto	l163
  3700   002CF8                     l163:
  3701   002CF8  0012               	return		;funcret
  3702   002CFA                     __end_of_I2C_LCD_ESCRIBE_VAR_INT:
  3703                           	callstack 0
  3704                           
  3705 ;; *************** function ___lwmod *****************
  3706 ;; Defined at:
  3707 ;;		line 7 in file "C:\Program Files\Microchip\xc8\v2.46\pic\sources\c99\common\lwmod.c"
  3708 ;; Parameters:    Size  Location     Type
  3709 ;;  dividend        2    0[COMRAM] unsigned int 
  3710 ;;  divisor         2    2[COMRAM] unsigned int 
  3711 ;; Auto vars:     Size  Location     Type
  3712 ;;  counter         1    4[COMRAM] unsigned char 
  3713 ;; Return value:  Size  Location     Type
  3714 ;;                  2    0[COMRAM] unsigned int 
  3715 ;; Registers used:
  3716 ;;		wreg, status,2, status,0
  3717 ;; Tracked objects:
  3718 ;;		On entry : 0/0
  3719 ;;		On exit  : 0/0
  3720 ;;		Unchanged: 0/0
  3721 ;; Data sizes:     COMRAM   BANK5   BANK6   BANK7   BANK8   BANK9  BANK10  BANK11  BANK12  BANK13  BANK14  BANK15  BANK1
      +6  BANK17  BANK18  BANK19  BANK20  BANK21  BANK22  BANK23  BANK24  BANK25  BANK26  BANK27  BANK28  BANK29  BANK30  BANK3
      +1  BANK32  BANK33  BANK34  BANK35  BANK36
  3722 ;;      Params:         4       0       0       0       0       0       0       0       0       0       0       0       
      +0       0       0       0       0       0       0       0       0       0       0       0       0       0       0       
      +0       0       0       0       0       0
  3723 ;;      Locals:         1       0       0       0       0       0       0       0       0       0       0       0       
      +0       0       0       0       0       0       0       0       0       0       0       0       0       0       0       
      +0       0       0       0       0       0
  3724 ;;      Temps:          0       0       0       0       0       0       0       0       0       0       0       0       
      +0       0       0       0       0       0       0       0       0       0       0       0       0       0       0       
      +0       0       0       0       0       0
  3725 ;;      Totals:         5       0       0       0       0       0       0       0       0       0       0       0       
      +0       0       0       0       0       0       0       0       0       0       0       0       0       0       0       
      +0       0       0       0       0       0
  3726 ;;Total ram usage:        5 bytes
  3727 ;; Hardware stack levels used: 1
  3728 ;; This function calls:
  3729 ;;		Nothing
  3730 ;; This function is called by:
  3731 ;;		_I2C_LCD_ESCRIBE_VAR_INT
  3732 ;;		_U1_VAR_INT
  3733 ;; This function uses a non-reentrant model
  3734 ;;
  3735                           
  3736                           	psect	text18
  3737   003692                     __ptext18:
  3738                           	callstack 0
  3739   003692                     ___lwmod:
  3740                           	callstack 125
  3741   003692  5003               	movf	___lwmod@divisor^(0+1280),w,c
  3742   003694  1004               	iorwf	(___lwmod@divisor+1)^(0+1280),w,c
  3743   003696  B4D8               	btfsc	status,2,c
  3744   003698  EF50  F01B         	goto	u721
  3745   00369C  EF52  F01B         	goto	u720
  3746   0036A0                     u721:
  3747   0036A0  EF76  F01B         	goto	l893
  3748   0036A4                     u720:
  3749   0036A4  0E01               	movlw	1
  3750   0036A6  6E05               	movwf	___lwmod@counter^(0+1280),c
  3751   0036A8  EF5A  F01B         	goto	l2053
  3752   0036AC                     l2051:
  3753   0036AC  90D8               	bcf	status,0,c
  3754   0036AE  3603               	rlcf	___lwmod@divisor^(0+1280),f,c
  3755   0036B0  3604               	rlcf	(___lwmod@divisor+1)^(0+1280),f,c
  3756   0036B2  2A05               	incf	___lwmod@counter^(0+1280),f,c
  3757   0036B4                     l2053:
  3758   0036B4  AE04               	btfss	(___lwmod@divisor+1)^(0+1280),7,c
  3759   0036B6  EF5F  F01B         	goto	u731
  3760   0036BA  EF61  F01B         	goto	u730
  3761   0036BE                     u731:
  3762   0036BE  EF56  F01B         	goto	l2051
  3763   0036C2                     u730:
  3764   0036C2                     l2055:
  3765   0036C2  5003               	movf	___lwmod@divisor^(0+1280),w,c
  3766   0036C4  5C01               	subwf	___lwmod@dividend^(0+1280),w,c
  3767   0036C6  5004               	movf	(___lwmod@divisor+1)^(0+1280),w,c
  3768   0036C8  5802               	subwfb	(___lwmod@dividend+1)^(0+1280),w,c
  3769   0036CA  A0D8               	btfss	status,0,c
  3770   0036CC  EF6A  F01B         	goto	u741
  3771   0036D0  EF6C  F01B         	goto	u740
  3772   0036D4                     u741:
  3773   0036D4  EF70  F01B         	goto	l2059
  3774   0036D8                     u740:
  3775   0036D8  5003               	movf	___lwmod@divisor^(0+1280),w,c
  3776   0036DA  5E01               	subwf	___lwmod@dividend^(0+1280),f,c
  3777   0036DC  5004               	movf	(___lwmod@divisor+1)^(0+1280),w,c
  3778   0036DE  5A02               	subwfb	(___lwmod@dividend+1)^(0+1280),f,c
  3779   0036E0                     l2059:
  3780   0036E0  90D8               	bcf	status,0,c
  3781   0036E2  3204               	rrcf	(___lwmod@divisor+1)^(0+1280),f,c
  3782   0036E4  3203               	rrcf	___lwmod@divisor^(0+1280),f,c
  3783   0036E6  2E05               	decfsz	___lwmod@counter^(0+1280),f,c
  3784   0036E8  EF61  F01B         	goto	l2055
  3785   0036EC                     l893:
  3786   0036EC  C501  F501         	movff	___lwmod@dividend,?___lwmod
  3787   0036F0  C502  F502         	movff	___lwmod@dividend+1,?___lwmod+1
  3788   0036F4  0012               	return		;funcret
  3789   0036F6                     __end_of___lwmod:
  3790                           	callstack 0
  3791                           
  3792 ;; *************** function ___lwdiv *****************
  3793 ;; Defined at:
  3794 ;;		line 7 in file "C:\Program Files\Microchip\xc8\v2.46\pic\sources\c99\common\lwdiv.c"
  3795 ;; Parameters:    Size  Location     Type
  3796 ;;  dividend        2    5[COMRAM] unsigned int 
  3797 ;;  divisor         2    7[COMRAM] unsigned int 
  3798 ;; Auto vars:     Size  Location     Type
  3799 ;;  quotient        2    9[COMRAM] unsigned int 
  3800 ;;  counter         1   11[COMRAM] unsigned char 
  3801 ;; Return value:  Size  Location     Type
  3802 ;;                  2    5[COMRAM] unsigned int 
  3803 ;; Registers used:
  3804 ;;		wreg, status,2, status,0
  3805 ;; Tracked objects:
  3806 ;;		On entry : 0/0
  3807 ;;		On exit  : 0/0
  3808 ;;		Unchanged: 0/0
  3809 ;; Data sizes:     COMRAM   BANK5   BANK6   BANK7   BANK8   BANK9  BANK10  BANK11  BANK12  BANK13  BANK14  BANK15  BANK1
      +6  BANK17  BANK18  BANK19  BANK20  BANK21  BANK22  BANK23  BANK24  BANK25  BANK26  BANK27  BANK28  BANK29  BANK30  BANK3
      +1  BANK32  BANK33  BANK34  BANK35  BANK36
  3810 ;;      Params:         4       0       0       0       0       0       0       0       0       0       0       0       
      +0       0       0       0       0       0       0       0       0       0       0       0       0       0       0       
      +0       0       0       0       0       0
  3811 ;;      Locals:         3       0       0       0       0       0       0       0       0       0       0       0       
      +0       0       0       0       0       0       0       0       0       0       0       0       0       0       0       
      +0       0       0       0       0       0
  3812 ;;      Temps:          0       0       0       0       0       0       0       0       0       0       0       0       
      +0       0       0       0       0       0       0       0       0       0       0       0       0       0       0       
      +0       0       0       0       0       0
  3813 ;;      Totals:         7       0       0       0       0       0       0       0       0       0       0       0       
      +0       0       0       0       0       0       0       0       0       0       0       0       0       0       0       
      +0       0       0       0       0       0
  3814 ;;Total ram usage:        7 bytes
  3815 ;; Hardware stack levels used: 1
  3816 ;; This function calls:
  3817 ;;		Nothing
  3818 ;; This function is called by:
  3819 ;;		_I2C_LCD_ESCRIBE_VAR_INT
  3820 ;;		_U1_VAR_INT
  3821 ;; This function uses a non-reentrant model
  3822 ;;
  3823                           
  3824                           	psect	text19
  3825   0034DC                     __ptext19:
  3826                           	callstack 0
  3827   0034DC                     ___lwdiv:
  3828                           	callstack 125
  3829   0034DC  0E00               	movlw	0
  3830   0034DE  6E0B               	movwf	(___lwdiv@quotient+1)^(0+1280),c
  3831   0034E0  0E00               	movlw	0
  3832   0034E2  6E0A               	movwf	___lwdiv@quotient^(0+1280),c
  3833   0034E4  5008               	movf	___lwdiv@divisor^(0+1280),w,c
  3834   0034E6  1009               	iorwf	(___lwdiv@divisor+1)^(0+1280),w,c
  3835   0034E8  B4D8               	btfsc	status,2,c
  3836   0034EA  EF79  F01A         	goto	u691
  3837   0034EE  EF7B  F01A         	goto	u690
  3838   0034F2                     u691:
  3839   0034F2  EFA3  F01A         	goto	l883
  3840   0034F6                     u690:
  3841   0034F6  0E01               	movlw	1
  3842   0034F8  6E0C               	movwf	___lwdiv@counter^(0+1280),c
  3843   0034FA  EF83  F01A         	goto	l2033
  3844   0034FE                     l2031:
  3845   0034FE  90D8               	bcf	status,0,c
  3846   003500  3608               	rlcf	___lwdiv@divisor^(0+1280),f,c
  3847   003502  3609               	rlcf	(___lwdiv@divisor+1)^(0+1280),f,c
  3848   003504  2A0C               	incf	___lwdiv@counter^(0+1280),f,c
  3849   003506                     l2033:
  3850   003506  AE09               	btfss	(___lwdiv@divisor+1)^(0+1280),7,c
  3851   003508  EF88  F01A         	goto	u701
  3852   00350C  EF8A  F01A         	goto	u700
  3853   003510                     u701:
  3854   003510  EF7F  F01A         	goto	l2031
  3855   003514                     u700:
  3856   003514                     l2035:
  3857   003514  90D8               	bcf	status,0,c
  3858   003516  360A               	rlcf	___lwdiv@quotient^(0+1280),f,c
  3859   003518  360B               	rlcf	(___lwdiv@quotient+1)^(0+1280),f,c
  3860   00351A  5008               	movf	___lwdiv@divisor^(0+1280),w,c
  3861   00351C  5C06               	subwf	___lwdiv@dividend^(0+1280),w,c
  3862   00351E  5009               	movf	(___lwdiv@divisor+1)^(0+1280),w,c
  3863   003520  5807               	subwfb	(___lwdiv@dividend+1)^(0+1280),w,c
  3864   003522  A0D8               	btfss	status,0,c
  3865   003524  EF96  F01A         	goto	u711
  3866   003528  EF98  F01A         	goto	u710
  3867   00352C                     u711:
  3868   00352C  EF9D  F01A         	goto	l2043
  3869   003530                     u710:
  3870   003530  5008               	movf	___lwdiv@divisor^(0+1280),w,c
  3871   003532  5E06               	subwf	___lwdiv@dividend^(0+1280),f,c
  3872   003534  5009               	movf	(___lwdiv@divisor+1)^(0+1280),w,c
  3873   003536  5A07               	subwfb	(___lwdiv@dividend+1)^(0+1280),f,c
  3874   003538  800A               	bsf	___lwdiv@quotient^(0+1280),0,c
  3875   00353A                     l2043:
  3876   00353A  90D8               	bcf	status,0,c
  3877   00353C  3209               	rrcf	(___lwdiv@divisor+1)^(0+1280),f,c
  3878   00353E  3208               	rrcf	___lwdiv@divisor^(0+1280),f,c
  3879   003540  2E0C               	decfsz	___lwdiv@counter^(0+1280),f,c
  3880   003542  EF8A  F01A         	goto	l2035
  3881   003546                     l883:
  3882   003546  C50A  F506         	movff	___lwdiv@quotient,?___lwdiv
  3883   00354A  C50B  F507         	movff	___lwdiv@quotient+1,?___lwdiv+1
  3884   00354E  0012               	return		;funcret
  3885   003550                     __end_of___lwdiv:
  3886                           	callstack 0
  3887                           
  3888 ;; *************** function _I2C_ENVIA_LCD_DATA *****************
  3889 ;; Defined at:
  3890 ;;		line 115 in file "I2C_LCD.c"
  3891 ;; Parameters:    Size  Location     Type
  3892 ;;  data            1    wreg     unsigned char 
  3893 ;; Auto vars:     Size  Location     Type
  3894 ;;  data            1    3[COMRAM] unsigned char 
  3895 ;;  lownibble       1    5[COMRAM] unsigned char 
  3896 ;;  highnibble      1    4[COMRAM] unsigned char 
  3897 ;; Return value:  Size  Location     Type
  3898 ;;                  1    wreg      void 
  3899 ;; Registers used:
  3900 ;;		wreg, status,2, status,0, cstack
  3901 ;; Tracked objects:
  3902 ;;		On entry : 0/0
  3903 ;;		On exit  : 0/0
  3904 ;;		Unchanged: 0/0
  3905 ;; Data sizes:     COMRAM   BANK5   BANK6   BANK7   BANK8   BANK9  BANK10  BANK11  BANK12  BANK13  BANK14  BANK15  BANK1
      +6  BANK17  BANK18  BANK19  BANK20  BANK21  BANK22  BANK23  BANK24  BANK25  BANK26  BANK27  BANK28  BANK29  BANK30  BANK3
      +1  BANK32  BANK33  BANK34  BANK35  BANK36
  3906 ;;      Params:         0       0       0       0       0       0       0       0       0       0       0       0       
      +0       0       0       0       0       0       0       0       0       0       0       0       0       0       0       
      +0       0       0       0       0       0
  3907 ;;      Locals:         3       0       0       0       0       0       0       0       0       0       0       0       
      +0       0       0       0       0       0       0       0       0       0       0       0       0       0       0       
      +0       0       0       0       0       0
  3908 ;;      Temps:          1       0       0       0       0       0       0       0       0       0       0       0       
      +0       0       0       0       0       0       0       0       0       0       0       0       0       0       0       
      +0       0       0       0       0       0
  3909 ;;      Totals:         4       0       0       0       0       0       0       0       0       0       0       0       
      +0       0       0       0       0       0       0       0       0       0       0       0       0       0       0       
      +0       0       0       0       0       0
  3910 ;;Total ram usage:        4 bytes
  3911 ;; Hardware stack levels used: 1
  3912 ;; Hardware stack levels required when called: 1
  3913 ;; This function calls:
  3914 ;;		_I2C1_WRITESINGLEBYTE
  3915 ;; This function is called by:
  3916 ;;		_I2C_ESCRIBE_MENSAJE2
  3917 ;;		_I2C_LCD_ESCRIBE_VAR_INT
  3918 ;;		_main
  3919 ;;		_I2C_ESCRIBE_MENSAJE
  3920 ;;		_I2C_GENERACARACTER
  3921 ;;		_I2C_LCD_ESCRIBE_VAR_CHAR
  3922 ;;		_I2C_LCD_CHAR_GRADO
  3923 ;;		_I2C_LCD_VARCHAR_BITS
  3924 ;;		_I2C_LCD_VARCHAR_HEX
  3925 ;; This function uses a non-reentrant model
  3926 ;;
  3927                           
  3928                           	psect	text20
  3929   0035BE                     __ptext20:
  3930                           	callstack 0
  3931   0035BE                     _I2C_ENVIA_LCD_DATA:
  3932                           	callstack 123
  3933                           
  3934                           ;incstack = 0
  3935                           ;I2C_ENVIA_LCD_DATA@data stored from wreg
  3936   0035BE  6E04               	movwf	I2C_ENVIA_LCD_DATA@data^(0+1280),c
  3937   0035C0                     
  3938                           ;I2C_LCD.c: 116:     unsigned char highnibble;;I2C_LCD.c: 117:     unsigned char lownibb
      +                          le;;I2C_LCD.c: 119:     highnibble = (data & 0xF0) | 0x08;
  3939   0035C0  5004               	movf	I2C_ENVIA_LCD_DATA@data^(0+1280),w,c
  3940   0035C2  0BF0               	andlw	240
  3941   0035C4  0908               	iorlw	8
  3942   0035C6  6E05               	movwf	I2C_ENVIA_LCD_DATA@highnibble^(0+1280),c
  3943                           
  3944                           ;I2C_LCD.c: 120:     lownibble = (unsigned char)(((data & 0x0F)<<4)| 0x08);
  3945   0035C8  C504  F503         	movff	I2C_ENVIA_LCD_DATA@data,??_I2C_ENVIA_LCD_DATA
  3946   0035CC  0E0F               	movlw	15
  3947   0035CE  1603               	andwf	??_I2C_ENVIA_LCD_DATA^(0+1280),f,c
  3948   0035D0  3803               	swapf	??_I2C_ENVIA_LCD_DATA^(0+1280),w,c
  3949   0035D2  0BF0               	andlw	240
  3950   0035D4  0908               	iorlw	8
  3951   0035D6  6E06               	movwf	I2C_ENVIA_LCD_DATA@lownibble^(0+1280),c
  3952   0035D8                     
  3953                           ;I2C_LCD.c: 122:     I2C1_WRITESINGLEBYTE(0x27,(highnibble | 0x04 | 0x01));
  3954   0035D8  5005               	movf	I2C_ENVIA_LCD_DATA@highnibble^(0+1280),w,c
  3955   0035DA  0905               	iorlw	5
  3956   0035DC  6E01               	movwf	I2C1_WRITESINGLEBYTE@dato^(0+1280),c
  3957   0035DE  0E27               	movlw	39
  3958   0035E0  ECE4  F01B         	call	_I2C1_WRITESINGLEBYTE
  3959   0035E4                     
  3960                           ;I2C_LCD.c: 123:     _delay((unsigned long)((20)*(32000000UL/4000000.0)));
  3961   0035E4  0E35               	movlw	53
  3962   0035E6                     u1457:
  3963   0035E6  2EE8               	decfsz	wreg,f,c
  3964   0035E8  D7FE               	bra	u1457
  3965   0035EA  0000               	nop	
  3966   0035EC                     
  3967                           ;I2C_LCD.c: 124:     I2C1_WRITESINGLEBYTE(0x27,(highnibble | 0x01));
  3968   0035EC  5005               	movf	I2C_ENVIA_LCD_DATA@highnibble^(0+1280),w,c
  3969   0035EE  0901               	iorlw	1
  3970   0035F0  6E01               	movwf	I2C1_WRITESINGLEBYTE@dato^(0+1280),c
  3971   0035F2  0E27               	movlw	39
  3972   0035F4  ECE4  F01B         	call	_I2C1_WRITESINGLEBYTE
  3973   0035F8                     
  3974                           ;I2C_LCD.c: 125:     _delay((unsigned long)((20)*(32000000UL/4000000.0)));
  3975   0035F8  0E35               	movlw	53
  3976   0035FA                     u1467:
  3977   0035FA  2EE8               	decfsz	wreg,f,c
  3978   0035FC  D7FE               	bra	u1467
  3979   0035FE  0000               	nop	
  3980   003600                     
  3981                           ;I2C_LCD.c: 127:     I2C1_WRITESINGLEBYTE(0x27,(lownibble | 0x04 | 0x01));
  3982   003600  5006               	movf	I2C_ENVIA_LCD_DATA@lownibble^(0+1280),w,c
  3983   003602  0905               	iorlw	5
  3984   003604  6E01               	movwf	I2C1_WRITESINGLEBYTE@dato^(0+1280),c
  3985   003606  0E27               	movlw	39
  3986   003608  ECE4  F01B         	call	_I2C1_WRITESINGLEBYTE
  3987   00360C                     
  3988                           ;I2C_LCD.c: 128:     _delay((unsigned long)((20)*(32000000UL/4000000.0)));
  3989   00360C  0E35               	movlw	53
  3990   00360E                     u1477:
  3991   00360E  2EE8               	decfsz	wreg,f,c
  3992   003610  D7FE               	bra	u1477
  3993   003612  0000               	nop	
  3994   003614                     
  3995                           ;I2C_LCD.c: 129:     I2C1_WRITESINGLEBYTE(0x27,(lownibble | 0x01));
  3996   003614  5006               	movf	I2C_ENVIA_LCD_DATA@lownibble^(0+1280),w,c
  3997   003616  0901               	iorlw	1
  3998   003618  6E01               	movwf	I2C1_WRITESINGLEBYTE@dato^(0+1280),c
  3999   00361A  0E27               	movlw	39
  4000   00361C  ECE4  F01B         	call	_I2C1_WRITESINGLEBYTE
  4001   003620                     
  4002                           ;I2C_LCD.c: 130:     _delay((unsigned long)((20)*(32000000UL/4000000.0)));
  4003   003620  0E35               	movlw	53
  4004   003622                     u1487:
  4005   003622  2EE8               	decfsz	wreg,f,c
  4006   003624  D7FE               	bra	u1487
  4007   003626  0000               	nop	
  4008   003628  0012               	return		;funcret
  4009   00362A                     __end_of_I2C_ENVIA_LCD_DATA:
  4010                           	callstack 0
  4011                           
  4012 ;; *************** function _I2C1_WRITESINGLEBYTE *****************
  4013 ;; Defined at:
  4014 ;;		line 38 in file "I2C_LCD.c"
  4015 ;; Parameters:    Size  Location     Type
  4016 ;;  direccion       1    wreg     unsigned char 
  4017 ;;  dato            1    0[COMRAM] unsigned char 
  4018 ;; Auto vars:     Size  Location     Type
  4019 ;;  direccion       1    1[COMRAM] unsigned char 
  4020 ;; Return value:  Size  Location     Type
  4021 ;;                  1    wreg      void 
  4022 ;; Registers used:
  4023 ;;		wreg, status,2, status,0
  4024 ;; Tracked objects:
  4025 ;;		On entry : 0/0
  4026 ;;		On exit  : 0/0
  4027 ;;		Unchanged: 0/0
  4028 ;; Data sizes:     COMRAM   BANK5   BANK6   BANK7   BANK8   BANK9  BANK10  BANK11  BANK12  BANK13  BANK14  BANK15  BANK1
      +6  BANK17  BANK18  BANK19  BANK20  BANK21  BANK22  BANK23  BANK24  BANK25  BANK26  BANK27  BANK28  BANK29  BANK30  BANK3
      +1  BANK32  BANK33  BANK34  BANK35  BANK36
  4029 ;;      Params:         1       0       0       0       0       0       0       0       0       0       0       0       
      +0       0       0       0       0       0       0       0       0       0       0       0       0       0       0       
      +0       0       0       0       0       0
  4030 ;;      Locals:         1       0       0       0       0       0       0       0       0       0       0       0       
      +0       0       0       0       0       0       0       0       0       0       0       0       0       0       0       
      +0       0       0       0       0       0
  4031 ;;      Temps:          0       0       0       0       0       0       0       0       0       0       0       0       
      +0       0       0       0       0       0       0       0       0       0       0       0       0       0       0       
      +0       0       0       0       0       0
  4032 ;;      Totals:         2       0       0       0       0       0       0       0       0       0       0       0       
      +0       0       0       0       0       0       0       0       0       0       0       0       0       0       0       
      +0       0       0       0       0       0
  4033 ;;Total ram usage:        2 bytes
  4034 ;; Hardware stack levels used: 1
  4035 ;; This function calls:
  4036 ;;		Nothing
  4037 ;; This function is called by:
  4038 ;;		_I2C_ENVIA_LCD_DATA
  4039 ;;		_I2C_ENVIA_LCD_CMD
  4040 ;;		_I2C_LCD_INIT
  4041 ;; This function uses a non-reentrant model
  4042 ;;
  4043                           
  4044                           	psect	text21
  4045   0037C8                     __ptext21:
  4046                           	callstack 0
  4047   0037C8                     _I2C1_WRITESINGLEBYTE:
  4048                           	callstack 123
  4049                           
  4050                           ;incstack = 0
  4051                           ;I2C1_WRITESINGLEBYTE@direccion stored from wreg
  4052   0037C8  6E02               	movwf	I2C1_WRITESINGLEBYTE@direccion^(0+1280),c
  4053   0037CA                     
  4054                           ;I2C_LCD.c: 39:     I2C1CNT = 1;
  4055   0037CA  0E01               	movlw	1
  4056   0037CC  0102               	movlb	2	; () banked
  4057   0037CE  6F8D               	movwf	141,b	;volatile
  4058   0037D0                     
  4059                           ; BSR set to: 2
  4060                           ;I2C_LCD.c: 40:     I2C1ADB1 = (direccion << 1) & 0xFE;
  4061   0037D0  5002               	movf	I2C1_WRITESINGLEBYTE@direccion^(0+1280),w,c
  4062   0037D2  2402               	addwf	I2C1_WRITESINGLEBYTE@direccion^(0+1280),w,c
  4063   0037D4  0BFE               	andlw	254
  4064   0037D6  6F8F               	movwf	143,b	;volatile
  4065   0037D8                     
  4066                           ; BSR set to: 2
  4067                           ;I2C_LCD.c: 41:     I2C1TXB = dato;
  4068   0037D8  C501  F28C         	movff	I2C1_WRITESINGLEBYTE@dato,652	;volatile
  4069   0037DC                     
  4070                           ; BSR set to: 2
  4071                           ;I2C_LCD.c: 42:     I2C1CON0bits.S = 1;
  4072   0037DC  8B94               	bsf	148,5,b	;volatile
  4073   0037DE                     l46:
  4074                           
  4075                           ; BSR set to: 2
  4076   0037DE  AB99               	btfss	153,5,b	;volatile
  4077   0037E0  EFF4  F01B         	goto	u571
  4078   0037E4  EFF6  F01B         	goto	u570
  4079   0037E8                     u571:
  4080   0037E8  EFEF  F01B         	goto	l46
  4081   0037EC                     u570:
  4082   0037EC                     l49:
  4083                           
  4084                           ; BSR set to: 2
  4085   0037EC  BB95               	btfsc	149,5,b	;volatile
  4086   0037EE  EFFB  F01B         	goto	u581
  4087   0037F2  EFFD  F01B         	goto	u580
  4088   0037F6                     u581:
  4089   0037F6  EFF6  F01B         	goto	l49
  4090   0037FA                     u580:
  4091   0037FA                     l52:
  4092                           
  4093                           ; BSR set to: 2
  4094   0037FA  A59A               	btfss	154,2,b	;volatile
  4095   0037FC  EF02  F01C         	goto	u591
  4096   003800  EF04  F01C         	goto	u590
  4097   003804                     u591:
  4098   003804  EFFD  F01B         	goto	l52
  4099   003808                     u590:
  4100   003808                     
  4101                           ; BSR set to: 2
  4102   003808  0012               	return		;funcret
  4103   00380A                     __end_of_I2C1_WRITESINGLEBYTE:
  4104                           	callstack 0
  4105                           
  4106 ;; *************** function _DHT_GetTemp *****************
  4107 ;; Defined at:
  4108 ;;		line 72 in file "LIB_DHT.c"
  4109 ;; Parameters:    Size  Location     Type
  4110 ;;  modelo          1    wreg     unsigned char 
  4111 ;; Auto vars:     Size  Location     Type
  4112 ;;  modelo          1   11[COMRAM] unsigned char 
  4113 ;;  valor_dht       2    8[COMRAM] unsigned int 
  4114 ;;  Temp_Ent        1   10[COMRAM] unsigned char 
  4115 ;;  Temp_Dec        1    7[COMRAM] unsigned char 
  4116 ;;  Chksum          1    0        unsigned char 
  4117 ;;  RH_Dec          1    0        unsigned char 
  4118 ;;  RH_Ent          1    0        unsigned char 
  4119 ;; Return value:  Size  Location     Type
  4120 ;;                  2    3[COMRAM] unsigned int 
  4121 ;; Registers used:
  4122 ;;		wreg, status,2, status,0, cstack
  4123 ;; Tracked objects:
  4124 ;;		On entry : 0/0
  4125 ;;		On exit  : 0/0
  4126 ;;		Unchanged: 0/0
  4127 ;; Data sizes:     COMRAM   BANK5   BANK6   BANK7   BANK8   BANK9  BANK10  BANK11  BANK12  BANK13  BANK14  BANK15  BANK1
      +6  BANK17  BANK18  BANK19  BANK20  BANK21  BANK22  BANK23  BANK24  BANK25  BANK26  BANK27  BANK28  BANK29  BANK30  BANK3
      +1  BANK32  BANK33  BANK34  BANK35  BANK36
  4128 ;;      Params:         2       0       0       0       0       0       0       0       0       0       0       0       
      +0       0       0       0       0       0       0       0       0       0       0       0       0       0       0       
      +0       0       0       0       0       0
  4129 ;;      Locals:         5       0       0       0       0       0       0       0       0       0       0       0       
      +0       0       0       0       0       0       0       0       0       0       0       0       0       0       0       
      +0       0       0       0       0       0
  4130 ;;      Temps:          2       0       0       0       0       0       0       0       0       0       0       0       
      +0       0       0       0       0       0       0       0       0       0       0       0       0       0       0       
      +0       0       0       0       0       0
  4131 ;;      Totals:         9       0       0       0       0       0       0       0       0       0       0       0       
      +0       0       0       0       0       0       0       0       0       0       0       0       0       0       0       
      +0       0       0       0       0       0
  4132 ;;Total ram usage:        9 bytes
  4133 ;; Hardware stack levels used: 1
  4134 ;; Hardware stack levels required when called: 1
  4135 ;; This function calls:
  4136 ;;		_DHT_Check
  4137 ;;		_DHT_Read
  4138 ;;		_DHT_Start
  4139 ;; This function is called by:
  4140 ;;		_main
  4141 ;; This function uses a non-reentrant model
  4142 ;;
  4143                           
  4144                           	psect	text22
  4145   0033E8                     __ptext22:
  4146                           	callstack 0
  4147   0033E8                     _DHT_GetTemp:
  4148                           	callstack 125
  4149                           
  4150                           ; BSR set to: 2
  4151                           ;incstack = 0
  4152                           ;DHT_GetTemp@modelo stored from wreg
  4153   0033E8  6E0C               	movwf	DHT_GetTemp@modelo^(0+1280),c
  4154   0033EA                     
  4155                           ;LIB_DHT.c: 75:     DHT_Start(modelo);
  4156   0033EA  500C               	movf	DHT_GetTemp@modelo^(0+1280),w,c
  4157   0033EC  ECA8  F01A         	call	_DHT_Start
  4158   0033F0                     
  4159                           ;LIB_DHT.c: 76:     DHT_Check(modelo);
  4160   0033F0  500C               	movf	DHT_GetTemp@modelo^(0+1280),w,c
  4161   0033F2  EC22  F019         	call	_DHT_Check
  4162   0033F6  500C               	movf	DHT_GetTemp@modelo^(0+1280),w,c
  4163   0033F8  ECB5  F018         	call	_DHT_Read
  4164   0033FC  500C               	movf	DHT_GetTemp@modelo^(0+1280),w,c
  4165   0033FE  ECB5  F018         	call	_DHT_Read
  4166   003402                     
  4167                           ;LIB_DHT.c: 79:     Temp_Ent = DHT_Read(modelo);
  4168   003402  500C               	movf	DHT_GetTemp@modelo^(0+1280),w,c
  4169   003404  ECB5  F018         	call	_DHT_Read
  4170   003408  6E0B               	movwf	DHT_GetTemp@Temp_Ent^(0+1280),c
  4171   00340A                     
  4172                           ;LIB_DHT.c: 80:     Temp_Dec = DHT_Read(modelo);
  4173   00340A  500C               	movf	DHT_GetTemp@modelo^(0+1280),w,c
  4174   00340C  ECB5  F018         	call	_DHT_Read
  4175   003410  6E08               	movwf	DHT_GetTemp@Temp_Dec^(0+1280),c
  4176   003412  500C               	movf	DHT_GetTemp@modelo^(0+1280),w,c
  4177   003414  ECB5  F018         	call	_DHT_Read
  4178   003418                     
  4179                           ;LIB_DHT.c: 82:     if(modelo == 0){
  4180   003418  500C               	movf	DHT_GetTemp@modelo^(0+1280),w,c
  4181   00341A  A4D8               	btfss	status,2,c
  4182   00341C  EF12  F01A         	goto	u771
  4183   003420  EF14  F01A         	goto	u770
  4184   003424                     u771:
  4185   003424  EF19  F01A         	goto	l2323
  4186   003428                     u770:
  4187   003428                     
  4188                           ;LIB_DHT.c: 83:         return(valor_dht + Temp_Ent);
  4189   003428  C50B  F504         	movff	DHT_GetTemp@Temp_Ent,?_DHT_GetTemp
  4190   00342C  6A05               	clrf	(?_DHT_GetTemp+1)^(0+1280),c
  4191   00342E  EF30  F01A         	goto	l254
  4192   003432                     l2323:
  4193   003432  040C               	decf	DHT_GetTemp@modelo^(0+1280),w,c
  4194   003434  A4D8               	btfss	status,2,c
  4195   003436  EF1F  F01A         	goto	u781
  4196   00343A  EF21  F01A         	goto	u780
  4197   00343E                     u781:
  4198   00343E  EF30  F01A         	goto	l254
  4199   003442                     u780:
  4200   003442                     
  4201                           ;LIB_DHT.c: 86:         valor_dht = (Temp_Ent << 8) | Temp_Dec;
  4202   003442  5008               	movf	DHT_GetTemp@Temp_Dec^(0+1280),w,c
  4203   003444  C50B  F506         	movff	DHT_GetTemp@Temp_Ent,??_DHT_GetTemp
  4204   003448  6A07               	clrf	(??_DHT_GetTemp+1)^(0+1280),c
  4205   00344A  C506  F507         	movff	??_DHT_GetTemp,??_DHT_GetTemp+1
  4206   00344E  6A06               	clrf	??_DHT_GetTemp^(0+1280),c
  4207   003450  1006               	iorwf	??_DHT_GetTemp^(0+1280),w,c
  4208   003452  6E09               	movwf	DHT_GetTemp@valor_dht^(0+1280),c
  4209   003454  5007               	movf	(??_DHT_GetTemp+1)^(0+1280),w,c
  4210   003456  6E0A               	movwf	(DHT_GetTemp@valor_dht+1)^(0+1280),c
  4211   003458                     
  4212                           ;LIB_DHT.c: 87:         return(valor_dht);
  4213   003458  C509  F504         	movff	DHT_GetTemp@valor_dht,?_DHT_GetTemp
  4214   00345C  C50A  F505         	movff	DHT_GetTemp@valor_dht+1,?_DHT_GetTemp+1
  4215   003460                     l254:
  4216   003460  0012               	return		;funcret
  4217   003462                     __end_of_DHT_GetTemp:
  4218                           	callstack 0
  4219                           
  4220 ;; *************** function _DHT_GetHumid *****************
  4221 ;; Defined at:
  4222 ;;		line 91 in file "LIB_DHT.c"
  4223 ;; Parameters:    Size  Location     Type
  4224 ;;  modelo          1    wreg     unsigned char 
  4225 ;; Auto vars:     Size  Location     Type
  4226 ;;  modelo          1   11[COMRAM] unsigned char 
  4227 ;;  valor_dht       2    8[COMRAM] unsigned int 
  4228 ;;  RH_Ent          1   10[COMRAM] unsigned char 
  4229 ;;  RH_Dec          1    7[COMRAM] unsigned char 
  4230 ;;  Chksum          1    0        unsigned char 
  4231 ;;  Temp_Dec        1    0        unsigned char 
  4232 ;;  Temp_Ent        1    0        unsigned char 
  4233 ;; Return value:  Size  Location     Type
  4234 ;;                  2    3[COMRAM] unsigned int 
  4235 ;; Registers used:
  4236 ;;		wreg, status,2, status,0, cstack
  4237 ;; Tracked objects:
  4238 ;;		On entry : 0/0
  4239 ;;		On exit  : 0/0
  4240 ;;		Unchanged: 0/0
  4241 ;; Data sizes:     COMRAM   BANK5   BANK6   BANK7   BANK8   BANK9  BANK10  BANK11  BANK12  BANK13  BANK14  BANK15  BANK1
      +6  BANK17  BANK18  BANK19  BANK20  BANK21  BANK22  BANK23  BANK24  BANK25  BANK26  BANK27  BANK28  BANK29  BANK30  BANK3
      +1  BANK32  BANK33  BANK34  BANK35  BANK36
  4242 ;;      Params:         2       0       0       0       0       0       0       0       0       0       0       0       
      +0       0       0       0       0       0       0       0       0       0       0       0       0       0       0       
      +0       0       0       0       0       0
  4243 ;;      Locals:         5       0       0       0       0       0       0       0       0       0       0       0       
      +0       0       0       0       0       0       0       0       0       0       0       0       0       0       0       
      +0       0       0       0       0       0
  4244 ;;      Temps:          2       0       0       0       0       0       0       0       0       0       0       0       
      +0       0       0       0       0       0       0       0       0       0       0       0       0       0       0       
      +0       0       0       0       0       0
  4245 ;;      Totals:         9       0       0       0       0       0       0       0       0       0       0       0       
      +0       0       0       0       0       0       0       0       0       0       0       0       0       0       0       
      +0       0       0       0       0       0
  4246 ;;Total ram usage:        9 bytes
  4247 ;; Hardware stack levels used: 1
  4248 ;; Hardware stack levels required when called: 1
  4249 ;; This function calls:
  4250 ;;		_DHT_Check
  4251 ;;		_DHT_Read
  4252 ;;		_DHT_Start
  4253 ;; This function is called by:
  4254 ;;		_main
  4255 ;; This function uses a non-reentrant model
  4256 ;;
  4257                           
  4258                           	psect	text23
  4259   003462                     __ptext23:
  4260                           	callstack 0
  4261   003462                     _DHT_GetHumid:
  4262                           	callstack 125
  4263                           
  4264                           ;incstack = 0
  4265                           ;DHT_GetHumid@modelo stored from wreg
  4266   003462  6E0C               	movwf	DHT_GetHumid@modelo^(0+1280),c
  4267   003464                     
  4268                           ;LIB_DHT.c: 94:     DHT_Start(modelo);
  4269   003464  500C               	movf	DHT_GetHumid@modelo^(0+1280),w,c
  4270   003466  ECA8  F01A         	call	_DHT_Start
  4271   00346A                     
  4272                           ;LIB_DHT.c: 95:     DHT_Check(modelo);
  4273   00346A  500C               	movf	DHT_GetHumid@modelo^(0+1280),w,c
  4274   00346C  EC22  F019         	call	_DHT_Check
  4275   003470                     
  4276                           ;LIB_DHT.c: 96:     RH_Ent = DHT_Read(modelo);
  4277   003470  500C               	movf	DHT_GetHumid@modelo^(0+1280),w,c
  4278   003472  ECB5  F018         	call	_DHT_Read
  4279   003476  6E0B               	movwf	DHT_GetHumid@RH_Ent^(0+1280),c
  4280   003478                     
  4281                           ;LIB_DHT.c: 97:     RH_Dec = DHT_Read(modelo);
  4282   003478  500C               	movf	DHT_GetHumid@modelo^(0+1280),w,c
  4283   00347A  ECB5  F018         	call	_DHT_Read
  4284   00347E  6E08               	movwf	DHT_GetHumid@RH_Dec^(0+1280),c
  4285   003480  500C               	movf	DHT_GetHumid@modelo^(0+1280),w,c
  4286   003482  ECB5  F018         	call	_DHT_Read
  4287   003486  500C               	movf	DHT_GetHumid@modelo^(0+1280),w,c
  4288   003488  ECB5  F018         	call	_DHT_Read
  4289   00348C  500C               	movf	DHT_GetHumid@modelo^(0+1280),w,c
  4290   00348E  ECB5  F018         	call	_DHT_Read
  4291   003492                     
  4292                           ;LIB_DHT.c: 101:     if(modelo == 0){
  4293   003492  500C               	movf	DHT_GetHumid@modelo^(0+1280),w,c
  4294   003494  A4D8               	btfss	status,2,c
  4295   003496  EF4F  F01A         	goto	u791
  4296   00349A  EF51  F01A         	goto	u790
  4297   00349E                     u791:
  4298   00349E  EF56  F01A         	goto	l2355
  4299   0034A2                     u790:
  4300   0034A2                     
  4301                           ;LIB_DHT.c: 102:         return(valor_dht + RH_Ent);
  4302   0034A2  C50B  F504         	movff	DHT_GetHumid@RH_Ent,?_DHT_GetHumid
  4303   0034A6  6A05               	clrf	(?_DHT_GetHumid+1)^(0+1280),c
  4304   0034A8  EF6D  F01A         	goto	l260
  4305   0034AC                     l2355:
  4306   0034AC  040C               	decf	DHT_GetHumid@modelo^(0+1280),w,c
  4307   0034AE  A4D8               	btfss	status,2,c
  4308   0034B0  EF5C  F01A         	goto	u801
  4309   0034B4  EF5E  F01A         	goto	u800
  4310   0034B8                     u801:
  4311   0034B8  EF6D  F01A         	goto	l260
  4312   0034BC                     u800:
  4313   0034BC                     
  4314                           ;LIB_DHT.c: 105:         valor_dht = (RH_Ent << 8) | RH_Dec;
  4315   0034BC  5008               	movf	DHT_GetHumid@RH_Dec^(0+1280),w,c
  4316   0034BE  C50B  F506         	movff	DHT_GetHumid@RH_Ent,??_DHT_GetHumid
  4317   0034C2  6A07               	clrf	(??_DHT_GetHumid+1)^(0+1280),c
  4318   0034C4  C506  F507         	movff	??_DHT_GetHumid,??_DHT_GetHumid+1
  4319   0034C8  6A06               	clrf	??_DHT_GetHumid^(0+1280),c
  4320   0034CA  1006               	iorwf	??_DHT_GetHumid^(0+1280),w,c
  4321   0034CC  6E09               	movwf	DHT_GetHumid@valor_dht^(0+1280),c
  4322   0034CE  5007               	movf	(??_DHT_GetHumid+1)^(0+1280),w,c
  4323   0034D0  6E0A               	movwf	(DHT_GetHumid@valor_dht+1)^(0+1280),c
  4324   0034D2                     
  4325                           ;LIB_DHT.c: 106:         return(valor_dht);
  4326   0034D2  C509  F504         	movff	DHT_GetHumid@valor_dht,?_DHT_GetHumid
  4327   0034D6  C50A  F505         	movff	DHT_GetHumid@valor_dht+1,?_DHT_GetHumid+1
  4328   0034DA                     l260:
  4329   0034DA  0012               	return		;funcret
  4330   0034DC                     __end_of_DHT_GetHumid:
  4331                           	callstack 0
  4332                           
  4333 ;; *************** function _DHT_Start *****************
  4334 ;; Defined at:
  4335 ;;		line 3 in file "LIB_DHT.c"
  4336 ;; Parameters:    Size  Location     Type
  4337 ;;  modelo          1    wreg     unsigned char 
  4338 ;; Auto vars:     Size  Location     Type
  4339 ;;  modelo          1    1[COMRAM] unsigned char 
  4340 ;; Return value:  Size  Location     Type
  4341 ;;                  1    wreg      void 
  4342 ;; Registers used:
  4343 ;;		wreg, status,2, status,0, cstack
  4344 ;; Tracked objects:
  4345 ;;		On entry : 0/0
  4346 ;;		On exit  : 0/0
  4347 ;;		Unchanged: 0/0
  4348 ;; Data sizes:     COMRAM   BANK5   BANK6   BANK7   BANK8   BANK9  BANK10  BANK11  BANK12  BANK13  BANK14  BANK15  BANK1
      +6  BANK17  BANK18  BANK19  BANK20  BANK21  BANK22  BANK23  BANK24  BANK25  BANK26  BANK27  BANK28  BANK29  BANK30  BANK3
      +1  BANK32  BANK33  BANK34  BANK35  BANK36
  4349 ;;      Params:         0       0       0       0       0       0       0       0       0       0       0       0       
      +0       0       0       0       0       0       0       0       0       0       0       0       0       0       0       
      +0       0       0       0       0       0
  4350 ;;      Locals:         1       0       0       0       0       0       0       0       0       0       0       0       
      +0       0       0       0       0       0       0       0       0       0       0       0       0       0       0       
      +0       0       0       0       0       0
  4351 ;;      Temps:          1       0       0       0       0       0       0       0       0       0       0       0       
      +0       0       0       0       0       0       0       0       0       0       0       0       0       0       0       
      +0       0       0       0       0       0
  4352 ;;      Totals:         2       0       0       0       0       0       0       0       0       0       0       0       
      +0       0       0       0       0       0       0       0       0       0       0       0       0       0       0       
      +0       0       0       0       0       0
  4353 ;;Total ram usage:        2 bytes
  4354 ;; Hardware stack levels used: 1
  4355 ;; This function calls:
  4356 ;;		Nothing
  4357 ;; This function is called by:
  4358 ;;		_DHT_GetTemp
  4359 ;;		_DHT_GetHumid
  4360 ;; This function uses a non-reentrant model
  4361 ;;
  4362                           
  4363                           	psect	text24
  4364   003550                     __ptext24:
  4365                           	callstack 0
  4366   003550                     _DHT_Start:
  4367                           	callstack 125
  4368                           
  4369                           ;incstack = 0
  4370                           ;DHT_Start@modelo stored from wreg
  4371   003550  6E02               	movwf	DHT_Start@modelo^(0+1280),c
  4372   003552                     
  4373                           ;LIB_DHT.c: 4:     if(modelo == 0){
  4374   003552  5002               	movf	DHT_Start@modelo^(0+1280),w,c
  4375   003554  A4D8               	btfss	status,2,c
  4376   003556  EFAF  F01A         	goto	u131
  4377   00355A  EFB1  F01A         	goto	u130
  4378   00355E                     u131:
  4379   00355E  EFC4  F01A         	goto	l1187
  4380   003562                     u130:
  4381   003562                     
  4382                           ;LIB_DHT.c: 5:         TRISBbits.TRISB0 = 0;
  4383   003562  90C7               	bcf	199,0,c	;volatile
  4384                           
  4385                           ;LIB_DHT.c: 6:         ANSELBbits.ANSELB0 = 0;
  4386   003564  0104               	movlb	4	; () banked
  4387   003566  9108               	bcf	8,0,b	;volatile
  4388                           
  4389                           ;LIB_DHT.c: 7:         LATBbits.LATB0 = 0;
  4390   003568  90BF               	bcf	191,0,c	;volatile
  4391   00356A                     
  4392                           ; BSR set to: 4
  4393                           ;LIB_DHT.c: 8:         _delay((unsigned long)((18)*(32000000UL/4000.0)));
  4394   00356A  0EBC               	movlw	188
  4395   00356C  6E01               	movwf	??_DHT_Start^(0+1280),c
  4396   00356E  0E02               	movlw	2
  4397   003570                     u1497:
  4398   003570  2EE8               	decfsz	wreg,f,c
  4399   003572  D7FE               	bra	u1497
  4400   003574  2E01               	decfsz	??_DHT_Start^(0+1280),f,c
  4401   003576  D7FC               	bra	u1497
  4402   003578                     
  4403                           ;LIB_DHT.c: 9:         LATBbits.LATB0 = 1;
  4404   003578  80BF               	bsf	191,0,c	;volatile
  4405                           
  4406                           ;LIB_DHT.c: 10:         _delay((unsigned long)((40)*(32000000UL/4000000.0)));
  4407   00357A  0E6A               	movlw	106
  4408   00357C                     u1507:
  4409   00357C  2EE8               	decfsz	wreg,f,c
  4410   00357E  D7FE               	bra	u1507
  4411   003580  D000               	nop2	
  4412   003582                     
  4413                           ;LIB_DHT.c: 11:         TRISBbits.TRISB0 = 1;
  4414   003582  80C7               	bsf	199,0,c	;volatile
  4415                           
  4416                           ;LIB_DHT.c: 12:     }
  4417   003584  EFDE  F01A         	goto	l200
  4418   003588                     l1187:
  4419   003588  0402               	decf	DHT_Start@modelo^(0+1280),w,c
  4420   00358A  A4D8               	btfss	status,2,c
  4421   00358C  EFCA  F01A         	goto	u141
  4422   003590  EFCC  F01A         	goto	u140
  4423   003594                     u141:
  4424   003594  EFDE  F01A         	goto	l200
  4425   003598                     u140:
  4426   003598                     
  4427                           ;LIB_DHT.c: 14:         TRISBbits.TRISB0 = 0;
  4428   003598  90C7               	bcf	199,0,c	;volatile
  4429                           
  4430                           ;LIB_DHT.c: 15:         ANSELBbits.ANSELB0 = 0;
  4431   00359A  0104               	movlb	4	; () banked
  4432   00359C  9108               	bcf	8,0,b	;volatile
  4433                           
  4434                           ;LIB_DHT.c: 16:         LATBbits.LATB0 = 0;
  4435   00359E  90BF               	bcf	191,0,c	;volatile
  4436   0035A0                     
  4437                           ; BSR set to: 4
  4438                           ;LIB_DHT.c: 17:         _delay((unsigned long)((1)*(32000000UL/4000.0)));
  4439   0035A0  0E0B               	movlw	11
  4440   0035A2  6E01               	movwf	??_DHT_Start^(0+1280),c
  4441   0035A4  0E62               	movlw	98
  4442   0035A6                     u1517:
  4443   0035A6  2EE8               	decfsz	wreg,f,c
  4444   0035A8  D7FE               	bra	u1517
  4445   0035AA  2E01               	decfsz	??_DHT_Start^(0+1280),f,c
  4446   0035AC  D7FC               	bra	u1517
  4447   0035AE  D000               	nop2	
  4448   0035B0                     
  4449                           ;LIB_DHT.c: 18:         LATBbits.LATB0 = 1;
  4450   0035B0  80BF               	bsf	191,0,c	;volatile
  4451                           
  4452                           ;LIB_DHT.c: 19:         _delay((unsigned long)((40)*(32000000UL/4000000.0)));
  4453   0035B2  0E6A               	movlw	106
  4454   0035B4                     u1527:
  4455   0035B4  2EE8               	decfsz	wreg,f,c
  4456   0035B6  D7FE               	bra	u1527
  4457   0035B8  D000               	nop2	
  4458   0035BA                     
  4459                           ;LIB_DHT.c: 20:         TRISBbits.TRISB0 = 1;
  4460   0035BA  80C7               	bsf	199,0,c	;volatile
  4461   0035BC                     l200:
  4462   0035BC  0012               	return		;funcret
  4463   0035BE                     __end_of_DHT_Start:
  4464                           	callstack 0
  4465                           
  4466 ;; *************** function _DHT_Read *****************
  4467 ;; Defined at:
  4468 ;;		line 41 in file "LIB_DHT.c"
  4469 ;; Parameters:    Size  Location     Type
  4470 ;;  modelo          1    wreg     unsigned char 
  4471 ;; Auto vars:     Size  Location     Type
  4472 ;;  modelo          1    0[COMRAM] unsigned char 
  4473 ;;  data            1    2[COMRAM] unsigned char 
  4474 ;;  x               1    1[COMRAM] unsigned char 
  4475 ;; Return value:  Size  Location     Type
  4476 ;;                  1    wreg      unsigned char 
  4477 ;; Registers used:
  4478 ;;		wreg, status,2, status,0
  4479 ;; Tracked objects:
  4480 ;;		On entry : 0/0
  4481 ;;		On exit  : 0/0
  4482 ;;		Unchanged: 0/0
  4483 ;; Data sizes:     COMRAM   BANK5   BANK6   BANK7   BANK8   BANK9  BANK10  BANK11  BANK12  BANK13  BANK14  BANK15  BANK1
      +6  BANK17  BANK18  BANK19  BANK20  BANK21  BANK22  BANK23  BANK24  BANK25  BANK26  BANK27  BANK28  BANK29  BANK30  BANK3
      +1  BANK32  BANK33  BANK34  BANK35  BANK36
  4484 ;;      Params:         0       0       0       0       0       0       0       0       0       0       0       0       
      +0       0       0       0       0       0       0       0       0       0       0       0       0       0       0       
      +0       0       0       0       0       0
  4485 ;;      Locals:         3       0       0       0       0       0       0       0       0       0       0       0       
      +0       0       0       0       0       0       0       0       0       0       0       0       0       0       0       
      +0       0       0       0       0       0
  4486 ;;      Temps:          0       0       0       0       0       0       0       0       0       0       0       0       
      +0       0       0       0       0       0       0       0       0       0       0       0       0       0       0       
      +0       0       0       0       0       0
  4487 ;;      Totals:         3       0       0       0       0       0       0       0       0       0       0       0       
      +0       0       0       0       0       0       0       0       0       0       0       0       0       0       0       
      +0       0       0       0       0       0
  4488 ;;Total ram usage:        3 bytes
  4489 ;; Hardware stack levels used: 1
  4490 ;; This function calls:
  4491 ;;		Nothing
  4492 ;; This function is called by:
  4493 ;;		_DHT_GetTemp
  4494 ;;		_DHT_GetHumid
  4495 ;; This function uses a non-reentrant model
  4496 ;;
  4497                           
  4498                           	psect	text25
  4499   00316A                     __ptext25:
  4500                           	callstack 0
  4501   00316A                     _DHT_Read:
  4502                           	callstack 125
  4503                           
  4504                           ;incstack = 0
  4505                           ;DHT_Read@modelo stored from wreg
  4506   00316A  6E01               	movwf	DHT_Read@modelo^(0+1280),c
  4507   00316C  0E00               	movlw	0
  4508   00316E  6E03               	movwf	DHT_Read@data^(0+1280),c
  4509   003170                     
  4510                           ;LIB_DHT.c: 43:     if(modelo == 0){
  4511   003170  5001               	movf	DHT_Read@modelo^(0+1280),w,c
  4512   003172  A4D8               	btfss	status,2,c
  4513   003174  EFBE  F018         	goto	u231
  4514   003178  EFC0  F018         	goto	u230
  4515   00317C                     u231:
  4516   00317C  EFED  F018         	goto	l1235
  4517   003180                     u230:
  4518   003180                     
  4519                           ;LIB_DHT.c: 44:         for(x=0;x<8;x++){
  4520   003180  0E00               	movlw	0
  4521   003182  6E02               	movwf	DHT_Read@x^(0+1280),c
  4522   003184                     l230:
  4523   003184  A0CF               	btfss	207,0,c	;volatile
  4524   003186  EFC7  F018         	goto	u241
  4525   00318A  EFC9  F018         	goto	u240
  4526   00318E                     u241:
  4527   00318E  EFC2  F018         	goto	l230
  4528   003192                     u240:
  4529   003192                     
  4530                           ;LIB_DHT.c: 46:             _delay((unsigned long)((35)*(32000000UL/4000000.0)));
  4531   003192  0E5D               	movlw	93
  4532   003194                     u1537:
  4533   003194  2EE8               	decfsz	wreg,f,c
  4534   003196  D7FE               	bra	u1537
  4535   003198  0000               	nop	
  4536   00319A                     
  4537                           ;LIB_DHT.c: 47:             if(PORTBbits.RB0){
  4538   00319A  A0CF               	btfss	207,0,c	;volatile
  4539   00319C  EFD2  F018         	goto	u251
  4540   0031A0  EFD4  F018         	goto	u250
  4541   0031A4                     u251:
  4542   0031A4  EFD8  F018         	goto	l1229
  4543   0031A8                     u250:
  4544   0031A8                     
  4545                           ;LIB_DHT.c: 48:                 data = ((data<<1) | 1);
  4546   0031A8  80D8               	bsf	status,0,c
  4547   0031AA  3603               	rlcf	DHT_Read@data^(0+1280),f,c
  4548                           
  4549                           ;LIB_DHT.c: 49:             }
  4550   0031AC  EFDB  F018         	goto	l235
  4551   0031B0                     l1229:
  4552                           
  4553                           ;LIB_DHT.c: 51:                 data = (data<<1);
  4554   0031B0  5003               	movf	DHT_Read@data^(0+1280),w,c
  4555   0031B2  2403               	addwf	DHT_Read@data^(0+1280),w,c
  4556   0031B4  6E03               	movwf	DHT_Read@data^(0+1280),c
  4557   0031B6                     l235:
  4558   0031B6  B0CF               	btfsc	207,0,c	;volatile
  4559   0031B8  EFE0  F018         	goto	u261
  4560   0031BC  EFE2  F018         	goto	u260
  4561   0031C0                     u261:
  4562   0031C0  EFDB  F018         	goto	l235
  4563   0031C4                     u260:
  4564   0031C4                     
  4565                           ;LIB_DHT.c: 54:         }
  4566   0031C4  2A02               	incf	DHT_Read@x^(0+1280),f,c
  4567   0031C6  0E07               	movlw	7
  4568   0031C8  6402               	cpfsgt	DHT_Read@x^(0+1280),c
  4569   0031CA  EFE9  F018         	goto	u271
  4570   0031CE  EFEB  F018         	goto	u270
  4571   0031D2                     u271:
  4572   0031D2  EFC2  F018         	goto	l230
  4573   0031D6                     u270:
  4574   0031D6  EF20  F019         	goto	l1255
  4575   0031DA                     l1235:
  4576   0031DA  0401               	decf	DHT_Read@modelo^(0+1280),w,c
  4577   0031DC  A4D8               	btfss	status,2,c
  4578   0031DE  EFF3  F018         	goto	u281
  4579   0031E2  EFF5  F018         	goto	u280
  4580   0031E6                     u281:
  4581   0031E6  EF20  F019         	goto	l1255
  4582   0031EA                     u280:
  4583   0031EA                     
  4584                           ;LIB_DHT.c: 57:         for(x=0;x<8;x++){
  4585   0031EA  0E00               	movlw	0
  4586   0031EC  6E02               	movwf	DHT_Read@x^(0+1280),c
  4587   0031EE                     l242:
  4588   0031EE  A0CF               	btfss	207,0,c	;volatile
  4589   0031F0  EFFC  F018         	goto	u291
  4590   0031F4  EFFE  F018         	goto	u290
  4591   0031F8                     u291:
  4592   0031F8  EFF7  F018         	goto	l242
  4593   0031FC                     u290:
  4594   0031FC                     
  4595                           ;LIB_DHT.c: 59:             _delay((unsigned long)((35)*(32000000UL/4000000.0)));
  4596   0031FC  0E5D               	movlw	93
  4597   0031FE                     u1547:
  4598   0031FE  2EE8               	decfsz	wreg,f,c
  4599   003200  D7FE               	bra	u1547
  4600   003202  0000               	nop	
  4601   003204                     
  4602                           ;LIB_DHT.c: 60:             if(PORTBbits.RB0){
  4603   003204  A0CF               	btfss	207,0,c	;volatile
  4604   003206  EF07  F019         	goto	u301
  4605   00320A  EF09  F019         	goto	u300
  4606   00320E                     u301:
  4607   00320E  EF0D  F019         	goto	l1249
  4608   003212                     u300:
  4609   003212                     
  4610                           ;LIB_DHT.c: 61:                 data = ((data<<1) | 1);
  4611   003212  80D8               	bsf	status,0,c
  4612   003214  3603               	rlcf	DHT_Read@data^(0+1280),f,c
  4613                           
  4614                           ;LIB_DHT.c: 62:             }
  4615   003216  EF10  F019         	goto	l247
  4616   00321A                     l1249:
  4617                           
  4618                           ;LIB_DHT.c: 64:                 data = (data<<1);
  4619   00321A  5003               	movf	DHT_Read@data^(0+1280),w,c
  4620   00321C  2403               	addwf	DHT_Read@data^(0+1280),w,c
  4621   00321E  6E03               	movwf	DHT_Read@data^(0+1280),c
  4622   003220                     l247:
  4623   003220  B0CF               	btfsc	207,0,c	;volatile
  4624   003222  EF15  F019         	goto	u311
  4625   003226  EF17  F019         	goto	u310
  4626   00322A                     u311:
  4627   00322A  EF10  F019         	goto	l247
  4628   00322E                     u310:
  4629   00322E                     
  4630                           ;LIB_DHT.c: 67:         }
  4631   00322E  2A02               	incf	DHT_Read@x^(0+1280),f,c
  4632   003230  0E07               	movlw	7
  4633   003232  6402               	cpfsgt	DHT_Read@x^(0+1280),c
  4634   003234  EF1E  F019         	goto	u321
  4635   003238  EF20  F019         	goto	u320
  4636   00323C                     u321:
  4637   00323C  EFF7  F018         	goto	l242
  4638   003240                     u320:
  4639   003240                     l1255:
  4640                           
  4641                           ;LIB_DHT.c: 69:     return data;
  4642   003240  5003               	movf	DHT_Read@data^(0+1280),w,c
  4643   003242  0012               	return		;funcret
  4644   003244                     __end_of_DHT_Read:
  4645                           	callstack 0
  4646                           
  4647 ;; *************** function _DHT_Check *****************
  4648 ;; Defined at:
  4649 ;;		line 24 in file "LIB_DHT.c"
  4650 ;; Parameters:    Size  Location     Type
  4651 ;;  modelo          1    wreg     unsigned char 
  4652 ;; Auto vars:     Size  Location     Type
  4653 ;;  modelo          1    0[COMRAM] unsigned char 
  4654 ;; Return value:  Size  Location     Type
  4655 ;;                  1    wreg      void 
  4656 ;; Registers used:
  4657 ;;		wreg, status,2, status,0
  4658 ;; Tracked objects:
  4659 ;;		On entry : 0/0
  4660 ;;		On exit  : 0/0
  4661 ;;		Unchanged: 0/0
  4662 ;; Data sizes:     COMRAM   BANK5   BANK6   BANK7   BANK8   BANK9  BANK10  BANK11  BANK12  BANK13  BANK14  BANK15  BANK1
      +6  BANK17  BANK18  BANK19  BANK20  BANK21  BANK22  BANK23  BANK24  BANK25  BANK26  BANK27  BANK28  BANK29  BANK30  BANK3
      +1  BANK32  BANK33  BANK34  BANK35  BANK36
  4663 ;;      Params:         0       0       0       0       0       0       0       0       0       0       0       0       
      +0       0       0       0       0       0       0       0       0       0       0       0       0       0       0       
      +0       0       0       0       0       0
  4664 ;;      Locals:         1       0       0       0       0       0       0       0       0       0       0       0       
      +0       0       0       0       0       0       0       0       0       0       0       0       0       0       0       
      +0       0       0       0       0       0
  4665 ;;      Temps:          0       0       0       0       0       0       0       0       0       0       0       0       
      +0       0       0       0       0       0       0       0       0       0       0       0       0       0       0       
      +0       0       0       0       0       0
  4666 ;;      Totals:         1       0       0       0       0       0       0       0       0       0       0       0       
      +0       0       0       0       0       0       0       0       0       0       0       0       0       0       0       
      +0       0       0       0       0       0
  4667 ;;Total ram usage:        1 bytes
  4668 ;; Hardware stack levels used: 1
  4669 ;; This function calls:
  4670 ;;		Nothing
  4671 ;; This function is called by:
  4672 ;;		_DHT_GetTemp
  4673 ;;		_DHT_GetHumid
  4674 ;; This function uses a non-reentrant model
  4675 ;;
  4676                           
  4677                           	psect	text26
  4678   003244                     __ptext26:
  4679                           	callstack 0
  4680   003244                     _DHT_Check:
  4681                           	callstack 125
  4682                           
  4683                           ;incstack = 0
  4684                           ;DHT_Check@modelo stored from wreg
  4685   003244  6E01               	movwf	DHT_Check@modelo^(0+1280),c
  4686   003246                     
  4687                           ;LIB_DHT.c: 25:     if(modelo == 0){
  4688   003246  5001               	movf	DHT_Check@modelo^(0+1280),w,c
  4689   003248  A4D8               	btfss	status,2,c
  4690   00324A  EF29  F019         	goto	u151
  4691   00324E  EF2B  F019         	goto	u150
  4692   003252                     u151:
  4693   003252  EF4A  F019         	goto	l1205
  4694   003256                     u150:
  4695   003256                     l204:
  4696   003256  B0CF               	btfsc	207,0,c	;volatile
  4697   003258  EF30  F019         	goto	u161
  4698   00325C  EF32  F019         	goto	u160
  4699   003260                     u161:
  4700   003260  EF2B  F019         	goto	l204
  4701   003264                     u160:
  4702   003264                     
  4703                           ;LIB_DHT.c: 27:         _delay((unsigned long)((80)*(32000000UL/4000000.0)));
  4704   003264  0ED5               	movlw	213
  4705   003266                     u1557:
  4706   003266  2EE8               	decfsz	wreg,f,c
  4707   003268  D7FE               	bra	u1557
  4708   00326A  0000               	nop	
  4709   00326C                     l207:
  4710   00326C  A0CF               	btfss	207,0,c	;volatile
  4711   00326E  EF3B  F019         	goto	u171
  4712   003272  EF3D  F019         	goto	u170
  4713   003276                     u171:
  4714   003276  EF36  F019         	goto	l207
  4715   00327A                     u170:
  4716   00327A                     
  4717                           ;LIB_DHT.c: 29:         _delay((unsigned long)((80)*(32000000UL/4000000.0)));
  4718   00327A  0ED5               	movlw	213
  4719   00327C                     u1567:
  4720   00327C  2EE8               	decfsz	wreg,f,c
  4721   00327E  D7FE               	bra	u1567
  4722   003280  0000               	nop	
  4723   003282                     l210:
  4724   003282  B0CF               	btfsc	207,0,c	;volatile
  4725   003284  EF46  F019         	goto	u181
  4726   003288  EF48  F019         	goto	u180
  4727   00328C                     u181:
  4728   00328C  EF41  F019         	goto	l210
  4729   003290                     u180:
  4730   003290  EF6F  F019         	goto	l224
  4731   003294                     l1205:
  4732   003294  0401               	decf	DHT_Check@modelo^(0+1280),w,c
  4733   003296  A4D8               	btfss	status,2,c
  4734   003298  EF50  F019         	goto	u191
  4735   00329C  EF52  F019         	goto	u190
  4736   0032A0                     u191:
  4737   0032A0  EF6F  F019         	goto	l224
  4738   0032A4                     u190:
  4739   0032A4                     l215:
  4740   0032A4  B0CF               	btfsc	207,0,c	;volatile
  4741   0032A6  EF57  F019         	goto	u201
  4742   0032AA  EF59  F019         	goto	u200
  4743   0032AE                     u201:
  4744   0032AE  EF52  F019         	goto	l215
  4745   0032B2                     u200:
  4746   0032B2                     
  4747                           ;LIB_DHT.c: 34:         _delay((unsigned long)((80)*(32000000UL/4000000.0)));
  4748   0032B2  0ED5               	movlw	213
  4749   0032B4                     u1577:
  4750   0032B4  2EE8               	decfsz	wreg,f,c
  4751   0032B6  D7FE               	bra	u1577
  4752   0032B8  0000               	nop	
  4753   0032BA                     l218:
  4754   0032BA  A0CF               	btfss	207,0,c	;volatile
  4755   0032BC  EF62  F019         	goto	u211
  4756   0032C0  EF64  F019         	goto	u210
  4757   0032C4                     u211:
  4758   0032C4  EF5D  F019         	goto	l218
  4759   0032C8                     u210:
  4760   0032C8                     
  4761                           ;LIB_DHT.c: 36:         _delay((unsigned long)((80)*(32000000UL/4000000.0)));
  4762   0032C8  0ED5               	movlw	213
  4763   0032CA                     u1587:
  4764   0032CA  2EE8               	decfsz	wreg,f,c
  4765   0032CC  D7FE               	bra	u1587
  4766   0032CE  0000               	nop	
  4767   0032D0                     l221:
  4768   0032D0  B0CF               	btfsc	207,0,c	;volatile
  4769   0032D2  EF6D  F019         	goto	u221
  4770   0032D6  EF6F  F019         	goto	u220
  4771   0032DA                     u221:
  4772   0032DA  EF68  F019         	goto	l221
  4773   0032DE                     u220:
  4774   0032DE                     l224:
  4775   0032DE  0012               	return		;funcret
  4776   0032E0                     __end_of_DHT_Check:
  4777                           	callstack 0
  4778                           
  4779                           	psect	rparam
  4780   000000                     
  4781                           	psect	config
  4782                           
  4783                           ;Config register CONFIG1 @ 0x300000
  4784                           ;	External Oscillator Selection
  4785                           ;	FEXTOSC = OFF, Oscillator not enabled
  4786                           ;	Reset Oscillator Selection
  4787                           ;	RSTOSC = EXTOSC, EXTOSC operating per FEXTOSC bits (device manufacturing default)
  4788   300000                     	org	3145728
  4789   300000  FC                 	db	252
  4790                           
  4791                           ;Config register CONFIG2 @ 0x300001
  4792                           ;	Clock out Enable bit
  4793                           ;	CLKOUTEN = OFF, CLKOUT function is disabled
  4794                           ;	PRLOCKED One-Way Set Enable bit
  4795                           ;	PR1WAY = ON, PRLOCKED bit can be cleared and set only once
  4796                           ;	Clock Switch Enable bit
  4797                           ;	CSWEN = ON, Writing to NOSC and NDIV is allowed
  4798                           ;	Fail-Safe Clock Monitor Enable bit
  4799                           ;	FCMEN = ON, Fail-Safe Clock Monitor enabled
  4800   300001                     	org	3145729
  4801   300001  FF                 	db	255
  4802                           
  4803                           ;Config register CONFIG3 @ 0x300002
  4804                           ;	MCLR Enable bit
  4805                           ;	MCLRE = EXTMCLR, If LVP = 0, MCLR pin is MCLR; If LVP = 1, RE3 pin function is MCLR
  4806                           ;	Power-up timer selection bits
  4807                           ;	PWRTS = PWRT_64, PWRT set at 64ms
  4808                           ;	Multi-vector enable bit
  4809                           ;	MVECEN = ON, Multi-vector enabled, Vector table used for interrupts
  4810                           ;	IVTLOCK bit One-way set enable bit
  4811                           ;	IVT1WAY = ON, IVTLOCKED bit can be cleared and set only once
  4812                           ;	Low Power BOR Enable bit
  4813                           ;	LPBOREN = OFF, Low-Power BOR disabled
  4814                           ;	Brown-out Reset Enable bits
  4815                           ;	BOREN = OFF, Brown-out Reset disabled
  4816   300002                     	org	3145730
  4817   300002  3D                 	db	61
  4818                           
  4819                           ;Config register CONFIG4 @ 0x300003
  4820                           ;	Brown-out Reset Voltage Selection bits
  4821                           ;	BORV = VBOR_1P9, Brown-out Reset Voltage (VBOR) set to 1.9V
  4822                           ;	ZCD Disable bit
  4823                           ;	ZCD = OFF, ZCD module is disabled. ZCD can be enabled by setting the ZCDSEN bit of ZCD
      +                          CON
  4824                           ;	PPSLOCK bit One-Way Set Enable bit
  4825                           ;	PPS1WAY = ON, PPSLOCKED bit can be cleared and set only once; PPS registers remain loc
      +                          ked after one clear/set cycle
  4826                           ;	Stack Full/Underflow Reset Enable bit
  4827                           ;	STVREN = ON, Stack full/underflow will cause Reset
  4828                           ;	Low Voltage Programming Enable bit
  4829                           ;	LVP = OFF, HV on MCLR/VPP must be used for programming
  4830                           ;	Extended Instruction Set Enable bit
  4831                           ;	XINST = OFF, Extended Instruction Set and Indexed Addressing Mode disabled
  4832   300003                     	org	3145731
  4833   300003  DF                 	db	223
  4834                           
  4835                           ;Config register CONFIG5 @ 0x300004
  4836                           ;	WDT Period selection bits
  4837                           ;	WDTCPS = WDTCPS_31, Divider ratio 1:65536; software control of WDTPS
  4838                           ;	WDT operating mode
  4839                           ;	WDTE = OFF, WDT Disabled; SWDTEN is ignored
  4840   300004                     	org	3145732
  4841   300004  9F                 	db	159
  4842                           
  4843                           ;Config register CONFIG6 @ 0x300005
  4844                           ;	WDT Window Select bits
  4845                           ;	WDTCWS = WDTCWS_7, window always open (100%); software control; keyed access not requi
      +                          red
  4846                           ;	WDT input clock selector
  4847                           ;	WDTCCS = SC, Software Control
  4848   300005                     	org	3145733
  4849   300005  FF                 	db	255
  4850                           
  4851                           ;Config register CONFIG7 @ 0x300006
  4852                           ;	Boot Block Size selection bits
  4853                           ;	BBSIZE = BBSIZE_512, Boot Block size is 512 words
  4854                           ;	Boot Block enable bit
  4855                           ;	BBEN = OFF, Boot block disabled
  4856                           ;	Storage Area Flash enable bit
  4857                           ;	SAFEN = OFF, SAF disabled
  4858                           ;	Background Debugger
  4859                           ;	DEBUG = OFF, Background Debugger disabled
  4860   300006                     	org	3145734
  4861   300006  FF                 	db	255
  4862                           
  4863                           ;Config register CONFIG8 @ 0x300007
  4864                           ;	Boot Block Write Protection bit
  4865                           ;	WRTB = OFF, Boot Block not Write protected
  4866                           ;	Configuration Register Write Protection bit
  4867                           ;	WRTC = OFF, Configuration registers not Write protected
  4868                           ;	Data EEPROM Write Protection bit
  4869                           ;	WRTD = OFF, Data EEPROM not Write protected
  4870                           ;	SAF Write protection bit
  4871                           ;	WRTSAF = OFF, SAF not Write Protected
  4872                           ;	Application Block write protection bit
  4873                           ;	WRTAPP = OFF, Application Block not write protected
  4874   300007                     	org	3145735
  4875   300007  FF                 	db	255
  4876                           
  4877                           ;Config register CONFIG10 @ 0x300009
  4878                           ;	PFM and Data EEPROM Code Protection bit
  4879                           ;	CP = OFF, PFM and Data EEPROM code protection disabled
  4880   300009                     	org	3145737
  4881   300009  FF                 	db	255
  4882                           tosu	equ	0x4FF
  4883                           tosh	equ	0x4FE
  4884                           tosl	equ	0x4FD
  4885                           stkptr	equ	0x4FC
  4886                           pclatu	equ	0x4FB
  4887                           pclath	equ	0x4FA
  4888                           pcl	equ	0x4F9
  4889                           tblptru	equ	0x4F8
  4890                           tblptrh	equ	0x4F7
  4891                           tblptrl	equ	0x4F6
  4892                           tablat	equ	0x4F5
  4893                           prodh	equ	0x4F4
  4894                           prodl	equ	0x4F3
  4895                           indf0	equ	0x4EF
  4896                           postinc0	equ	0x4EE
  4897                           postdec0	equ	0x4ED
  4898                           preinc0	equ	0x4EC
  4899                           plusw0	equ	0x4EB
  4900                           fsr0h	equ	0x4EA
  4901                           fsr0l	equ	0x4E9
  4902                           wreg	equ	0x4E8
  4903                           indf1	equ	0x4E7
  4904                           postinc1	equ	0x4E6
  4905                           postdec1	equ	0x4E5
  4906                           preinc1	equ	0x4E4
  4907                           plusw1	equ	0x4E3
  4908                           fsr1h	equ	0x4E2
  4909                           fsr1l	equ	0x4E1
  4910                           bsr	equ	0x4E0
  4911                           indf2	equ	0x4DF
  4912                           postinc2	equ	0x4DE
  4913                           postdec2	equ	0x4DD
  4914                           preinc2	equ	0x4DC
  4915                           plusw2	equ	0x4DB
  4916                           fsr2h	equ	0x4DA
  4917                           fsr2l	equ	0x4D9
  4918                           status	equ	0x4D8

Data Sizes:
    Strings     164
    Constant    0
    Data        0
    BSS         4
    Persistent  0
    Stack       0

Auto Spaces:
    Space          Size  Autos    Used
    COMRAM           95     23      27
    BANK5           160      0       0
    BANK6           256      0       0
    BANK7           256      0       0
    BANK8           256      0       0
    BANK9           256      0       0
    BANK10          256      0       0
    BANK11          256      0       0
    BANK12          256      0       0
    BANK13          256      0       0
    BANK14          256      0       0
    BANK15          256      0       0
    BANK16          256      0       0
    BANK17          256      0       0
    BANK18          256      0       0
    BANK19          256      0       0
    BANK20          256      0       0
    BANK21          256      0       0
    BANK22          256      0       0
    BANK23          256      0       0
    BANK24          256      0       0
    BANK25          256      0       0
    BANK26          256      0       0
    BANK27          256      0       0
    BANK28          256      0       0
    BANK29          256      0       0
    BANK30          256      0       0
    BANK31          256      0       0
    BANK32          256      0       0
    BANK33          256      0       0
    BANK34          256      0       0
    BANK35          256      0       0
    BANK36          256      0       0

Pointer List with Targets:

    I2C_ESCRIBE_MENSAJE2@cadena	PTR const unsigned char  size(1) Largest target is 17
		 -> STR_11(CODE[8]), STR_12(CODE[5]), STR_4(CODE[17]), STR_5(CODE[16]), 
		 -> STR_8(CODE[7]), 

    strlen@a	PTR const unsigned char  size(1) Largest target is 33
		 -> STR_1(CODE[33]), STR_10(CODE[5]), STR_11(CODE[8]), STR_12(CODE[5]), 
		 -> STR_2(CODE[10]), STR_3(CODE[29]), STR_4(CODE[17]), STR_5(CODE[16]), 
		 -> STR_6(CODE[20]), STR_7(CODE[3]), STR_8(CODE[7]), STR_9(CODE[16]), 

    strlen@s	PTR const unsigned char  size(1) Largest target is 33
		 -> STR_1(CODE[33]), STR_10(CODE[5]), STR_11(CODE[8]), STR_12(CODE[5]), 
		 -> STR_2(CODE[10]), STR_3(CODE[29]), STR_4(CODE[17]), STR_5(CODE[16]), 
		 -> STR_6(CODE[20]), STR_7(CODE[3]), STR_8(CODE[7]), STR_9(CODE[16]), 

    U1_STRING_SEND@cadena	PTR const unsigned char  size(1) Largest target is 33
		 -> STR_1(CODE[33]), STR_10(CODE[5]), STR_2(CODE[10]), STR_3(CODE[29]), 
		 -> STR_6(CODE[20]), STR_7(CODE[3]), STR_9(CODE[16]), 


Critical Paths under _main in COMRAM

    _main->_I2C_LCD_ESCRIBE_VAR_INT
    _main->_U1_VAR_INT
    _splash_screen->_I2C_ESCRIBE_MENSAJE2
    _U1_STRING_SEND->_strlen
    _U1_NEWLINE->_U1_BYTE_SEND
    _I2C_POS_CURSOR->_I2C_ENVIA_LCD_CMD
    _I2C_ESCRIBE_MENSAJE2->_I2C_ENVIA_LCD_DATA
    _U1_VAR_INT->___lwdiv
    _I2C_LCD_INIT->_I2C_CURSOR_ONOFF
    _I2C_CURSOR_ONOFF->_I2C_ENVIA_LCD_CMD
    _I2C_CURSOR_HOME->_I2C_ENVIA_LCD_CMD
    _I2C_BORRAR_LCD->_I2C_ENVIA_LCD_CMD
    _I2C_ENVIA_LCD_CMD->_I2C1_WRITESINGLEBYTE
    _I2C_LCD_ESCRIBE_VAR_INT->___lwdiv
    ___lwdiv->___lwmod
    _I2C_ENVIA_LCD_DATA->_I2C1_WRITESINGLEBYTE
    _DHT_GetTemp->_DHT_Read
    _DHT_GetHumid->_DHT_Read

Critical Paths under _main in BANK5

    None.

Critical Paths under _main in BANK6

    None.

Critical Paths under _main in BANK7

    None.

Critical Paths under _main in BANK8

    None.

Critical Paths under _main in BANK9

    None.

Critical Paths under _main in BANK10

    None.

Critical Paths under _main in BANK11

    None.

Critical Paths under _main in BANK12

    None.

Critical Paths under _main in BANK13

    None.

Critical Paths under _main in BANK14

    None.

Critical Paths under _main in BANK15

    None.

Critical Paths under _main in BANK16

    None.

Critical Paths under _main in BANK17

    None.

Critical Paths under _main in BANK18

    None.

Critical Paths under _main in BANK19

    None.

Critical Paths under _main in BANK20

    None.

Critical Paths under _main in BANK21

    None.

Critical Paths under _main in BANK22

    None.

Critical Paths under _main in BANK23

    None.

Critical Paths under _main in BANK24

    None.

Critical Paths under _main in BANK25

    None.

Critical Paths under _main in BANK26

    None.

Critical Paths under _main in BANK27

    None.

Critical Paths under _main in BANK28

    None.

Critical Paths under _main in BANK29

    None.

Critical Paths under _main in BANK30

    None.

Critical Paths under _main in BANK31

    None.

Critical Paths under _main in BANK32

    None.

Critical Paths under _main in BANK33

    None.

Critical Paths under _main in BANK34

    None.

Critical Paths under _main in BANK35

    None.

Critical Paths under _main in BANK36

    None.

Call Graph Tables:

 ---------------------------------------------------------------------------------
 (Depth) Function   	        Calls       Base Space   Used Autos Params    Refs
 ---------------------------------------------------------------------------------
 (0) _main                                                 2     2      0   60155
                                             21 COMRAM     2     2      0
                       _DHT_GetHumid
                        _DHT_GetTemp
                 _I2C_ENVIA_LCD_DATA
               _I2C_ESCRIBE_MENSAJE2
            _I2C_LCD_ESCRIBE_VAR_INT
                       _I2C_LCD_INIT
                     _I2C_POS_CURSOR
                            _U1_INIT
                         _U1_NEWLINE
                     _U1_STRING_SEND
                         _U1_VAR_INT
                          _configuro
                      _splash_screen
 ---------------------------------------------------------------------------------
 (1) _splash_screen                                        2     2      0   14524
                                             10 COMRAM     2     2      0
                     _I2C_BORRAR_LCD
               _I2C_ESCRIBE_MENSAJE2
                     _I2C_POS_CURSOR
                         _U1_NEWLINE
                     _U1_STRING_SEND
 ---------------------------------------------------------------------------------
 (2) _U1_STRING_SEND                                       4     3      1     903
                                              3 COMRAM     4     3      1
                       _U1_BYTE_SEND
                             _strlen
 ---------------------------------------------------------------------------------
 (2) _U1_NEWLINE                                           0     0      0      15
                       _U1_BYTE_SEND
 ---------------------------------------------------------------------------------
 (2) _I2C_POS_CURSOR                                       3     2      1    4610
                                              6 COMRAM     3     2      1
                  _I2C_ENVIA_LCD_CMD
 ---------------------------------------------------------------------------------
 (2) _I2C_ESCRIBE_MENSAJE2                                 4     3      1    4866
                                              6 COMRAM     4     3      1
                 _I2C_ENVIA_LCD_DATA
                             _strlen
 ---------------------------------------------------------------------------------
 (3) _strlen                                               3     1      2     242
                                              0 COMRAM     3     1      2
 ---------------------------------------------------------------------------------
 (1) _configuro                                            0     0      0       0
 ---------------------------------------------------------------------------------
 (1) _U1_VAR_INT                                           9     5      4    4681
                                             12 COMRAM     9     5      4
                       _U1_BYTE_SEND
                            ___lwdiv
                            ___lwmod
 ---------------------------------------------------------------------------------
 (3) _U1_BYTE_SEND                                         1     1      0      15
                                              0 COMRAM     1     1      0
 ---------------------------------------------------------------------------------
 (1) _U1_INIT                                              2     0      2     120
                                              0 COMRAM     2     0      2
 ---------------------------------------------------------------------------------
 (1) _I2C_LCD_INIT                                         2     2      0   16430
                                              7 COMRAM     2     2      0
                          _I2C1_INIT
               _I2C1_WRITESINGLEBYTE
                     _I2C_BORRAR_LCD
                    _I2C_CURSOR_HOME
                   _I2C_CURSOR_ONOFF
 ---------------------------------------------------------------------------------
 (2) _I2C_CURSOR_ONOFF                                     1     1      0    4174
                                              6 COMRAM     1     1      0
                  _I2C_ENVIA_LCD_CMD
 ---------------------------------------------------------------------------------
 (2) _I2C_CURSOR_HOME                                      0     0      0    4130
                  _I2C_ENVIA_LCD_CMD
 ---------------------------------------------------------------------------------
 (2) _I2C_BORRAR_LCD                                       0     0      0    4130
                  _I2C_ENVIA_LCD_CMD
 ---------------------------------------------------------------------------------
 (3) _I2C_ENVIA_LCD_CMD                                    4     4      0    4130
                                              2 COMRAM     4     4      0
               _I2C1_WRITESINGLEBYTE
 ---------------------------------------------------------------------------------
 (2) _I2C1_INIT                                            0     0      0       0
 ---------------------------------------------------------------------------------
 (1) _I2C_LCD_ESCRIBE_VAR_INT                              9     5      4    8796
                                             12 COMRAM     9     5      4
                 _I2C_ENVIA_LCD_DATA
                            ___lwdiv
                            ___lwmod
 ---------------------------------------------------------------------------------
 (2) ___lwmod                                              5     1      4    1375
                                              0 COMRAM     5     1      4
 ---------------------------------------------------------------------------------
 (2) ___lwdiv                                              7     3      4    1378
                                              5 COMRAM     7     3      4
                            ___lwmod (ARG)
 ---------------------------------------------------------------------------------
 (3) _I2C_ENVIA_LCD_DATA                                   4     4      0    4130
                                              2 COMRAM     4     4      0
               _I2C1_WRITESINGLEBYTE
 ---------------------------------------------------------------------------------
 (4) _I2C1_WRITESINGLEBYTE                                 2     1      1    3996
                                              0 COMRAM     2     1      1
 ---------------------------------------------------------------------------------
 (1) _DHT_GetTemp                                         12    10      2     540
                                              3 COMRAM     9     7      2
                          _DHT_Check
                           _DHT_Read
                          _DHT_Start
 ---------------------------------------------------------------------------------
 (1) _DHT_GetHumid                                        12    10      2     540
                                              3 COMRAM     9     7      2
                          _DHT_Check
                           _DHT_Read
                          _DHT_Start
 ---------------------------------------------------------------------------------
 (2) _DHT_Start                                            2     2      0      30
                                              0 COMRAM     2     2      0
 ---------------------------------------------------------------------------------
 (2) _DHT_Read                                             3     3      0     165
                                              0 COMRAM     3     3      0
 ---------------------------------------------------------------------------------
 (2) _DHT_Check                                            1     1      0      30
                                              0 COMRAM     1     1      0
 ---------------------------------------------------------------------------------
 Estimated maximum stack depth 4
 ---------------------------------------------------------------------------------

 Call Graph Graphs:

 _main (ROOT)
   _DHT_GetHumid
     _DHT_Check
     _DHT_Read
     _DHT_Start
   _DHT_GetTemp
     _DHT_Check
     _DHT_Read
     _DHT_Start
   _I2C_ENVIA_LCD_DATA
     _I2C1_WRITESINGLEBYTE
   _I2C_ESCRIBE_MENSAJE2
     _I2C_ENVIA_LCD_DATA
     _strlen
   _I2C_LCD_ESCRIBE_VAR_INT
     _I2C_ENVIA_LCD_DATA
     ___lwdiv
       ___lwmod (ARG)
     ___lwmod
   _I2C_LCD_INIT
     _I2C1_INIT
     _I2C1_WRITESINGLEBYTE
     _I2C_BORRAR_LCD
       _I2C_ENVIA_LCD_CMD
         _I2C1_WRITESINGLEBYTE
     _I2C_CURSOR_HOME
       _I2C_ENVIA_LCD_CMD
     _I2C_CURSOR_ONOFF
       _I2C_ENVIA_LCD_CMD
   _I2C_POS_CURSOR
     _I2C_ENVIA_LCD_CMD
   _U1_INIT
   _U1_NEWLINE
     _U1_BYTE_SEND
   _U1_STRING_SEND
     _U1_BYTE_SEND
     _strlen
   _U1_VAR_INT
     _U1_BYTE_SEND
     ___lwdiv
     ___lwmod
   _configuro
   _splash_screen
     _I2C_BORRAR_LCD
     _I2C_ESCRIBE_MENSAJE2
     _I2C_POS_CURSOR
     _U1_NEWLINE
     _U1_STRING_SEND

 Address spaces:
Name               Size   Autos  Total    Cost      Usage
BIGRAM            1FFF      0       0      69        0.0%
EEDATA             400      0       0       0        0.0%
BITBIGSFRlllhhh    160      0       0      88        0.0%
BITBIGSFRllhhhh    155      0       0      76        0.0%
BITBIGSFR_1        100      0       0      68        0.0%
BITBANK36          100      0       0      66        0.0%
BANK36             100      0       0      67        0.0%
BITBANK35          100      0       0      64        0.0%
BANK35             100      0       0      65        0.0%
BITBANK34          100      0       0      62        0.0%
BANK34             100      0       0      63        0.0%
BITBANK33          100      0       0      60        0.0%
BANK33             100      0       0      61        0.0%
BITBANK32          100      0       0      58        0.0%
BANK32             100      0       0      59        0.0%
BITBANK31          100      0       0      56        0.0%
BANK31             100      0       0      57        0.0%
BITBANK30          100      0       0      54        0.0%
BANK30             100      0       0      55        0.0%
BITBANK29          100      0       0      52        0.0%
BANK29             100      0       0      53        0.0%
BITBANK28          100      0       0      50        0.0%
BANK28             100      0       0      51        0.0%
BITBANK27          100      0       0      48        0.0%
BANK27             100      0       0      49        0.0%
BITBANK26          100      0       0      46        0.0%
BANK26             100      0       0      47        0.0%
BITBANK25          100      0       0      44        0.0%
BANK25             100      0       0      45        0.0%
BITBANK24          100      0       0      42        0.0%
BANK24             100      0       0      43        0.0%
BITBANK23          100      0       0      40        0.0%
BANK23             100      0       0      41        0.0%
BITBANK22          100      0       0      38        0.0%
BANK22             100      0       0      39        0.0%
BITBANK21          100      0       0      36        0.0%
BANK21             100      0       0      37        0.0%
BITBANK20          100      0       0      34        0.0%
BANK20             100      0       0      35        0.0%
BITBANK19          100      0       0      32        0.0%
BANK19             100      0       0      33        0.0%
BITBANK18          100      0       0      30        0.0%
BANK18             100      0       0      31        0.0%
BITBANK17          100      0       0      28        0.0%
BANK17             100      0       0      29        0.0%
BITBANK16          100      0       0      26        0.0%
BANK16             100      0       0      27        0.0%
BITBANK15          100      0       0      24        0.0%
BANK15             100      0       0      25        0.0%
BITBANK14          100      0       0      22        0.0%
BANK14             100      0       0      23        0.0%
BITBANK13          100      0       0      20        0.0%
BANK13             100      0       0      21        0.0%
BITBANK12          100      0       0      18        0.0%
BANK12             100      0       0      19        0.0%
BITBANK11          100      0       0      16        0.0%
BANK11             100      0       0      17        0.0%
BITBANK10          100      0       0      14        0.0%
BANK10             100      0       0      15        0.0%
BITBANK9           100      0       0      12        0.0%
BANK9              100      0       0      13        0.0%
BITBANK8           100      0       0      10        0.0%
BANK8              100      0       0      11        0.0%
BITBANK7           100      0       0       8        0.0%
BANK7              100      0       0       9        0.0%
BITBANK6           100      0       0       6        0.0%
BANK6              100      0       0       7        0.0%
BITBIGSFRllll       AD      0       0      91        0.0%
BITBIGSFRlhhl       AC      0       0      73        0.0%
BITBANK5            A0      0       0       4        0.0%
BANK5               A0      0       0       5        0.0%
BITCOMRAM           5F      0       0       0        0.0%
COMRAM              5F     17      1B       1       28.4%
BITBIGSFRllhlhl     48      0       0      86        0.0%
BITBIGSFRhh         30      0       0      70        0.0%
BITBIGSFRllhlhh     13      0       0      85        0.0%
BITBIGSFRllhll      13      0       0      87        0.0%
BITBIGSFRllhhhh      7      0       0      78        0.0%
BITBIGSFRlhhh        7      0       0      72        0.0%
BITBIGSFRllhhhh      7      0       0      75        0.0%
BITBIGSFRllhhhh      6      0       0      79        0.0%
BITBIGSFRhl          6      0       0      71        0.0%
BITBIGSFRllhhlh      4      0       0      82        0.0%
BITBIGSFRllhhll      4      0       0      84        0.0%
BITBIGSFRlllhl       3      0       0      90        0.0%
BITBIGSFRllhhhh      2      0       0      77        0.0%
BITBIGSFRllhhhl      2      0       0      81        0.0%
BITBIGSFRlllhhl      1      0       0      89        0.0%
BITBIGSFRllhhhl      1      0       0      80        0.0%
BITBIGSFRllhhlh      1      0       0      83        0.0%
BITBIGSFRlhl         1      0       0      74        0.0%
BIGSFR_1             0      0       0     200        0.0%
BIGSFR               0      0       0     200        0.0%
BITSFR_6             0      0       0     200        0.0%
SFR_6                0      0       0     200        0.0%
BITSFR_5             0      0       0     200        0.0%
SFR_5                0      0       0     200        0.0%
BITSFR_4             0      0       0     200        0.0%
SFR_4                0      0       0     200        0.0%
BITSFR_3             0      0       0     200        0.0%
SFR_3                0      0       0     200        0.0%
BITSFR_2             0      0       0     200        0.0%
SFR_2                0      0       0     200        0.0%
BITSFR_1             0      0       0     200        0.0%
SFR_1                0      0       0     200        0.0%
BITSFR               0      0       0     200        0.0%
SFR                  0      0       0     200        0.0%
STACK                0      0       0       2        0.0%
NULL                 0      0       0       0        0.0%
ABS                  0      0      1B      92        0.0%
DATA                 0      0      1B       3        0.0%
CODE                 0      0       0       0        0.0%


Microchip Technology PIC18 Macro Assembler V2.46 build 20240104201356 
Symbol Table                                                                                   Mon Jun 10 18:31:05 2024

                              l43 373E                                l52 37FA                                l61 3358  
                              l46 37DE                                l55 3808                                l49 37EC  
                              l65 3368                                l78 38DC                                l95 3870  
                              u50 38A8                                u51 38A4                     _splash_screen 336A  
                             l110 3628                               l200 35BC                               l113 38E4  
                             l210 3282                               l107 37C6                               l204 3256  
                             l116 3690                               l124 304C                               l221 32D0  
                             l230 3184                               l215 32A4                               l207 326C  
                             l224 32DE                               l218 32BA                               l250 3242  
                             l242 31EE                               l235 31B6                               l163 2CF8  
                             l260 34DA                               l254 3460                               l247 3220  
                             l336 294E                               l291 38A8                               l339 38D4  
                             l285 3890                               l381 33E6                               l288 3898  
                             l297 3782                               l378 38B8                               l900 36F4  
                             l890 354E                               l883 3546                               l893 36EC  
                             u200 32B2                               u201 32AE                               u210 32C8  
                             u130 3562                               u211 32C4                               u131 355E  
                             u220 32DE                               u300 3212                               u140 3598  
                             u221 32DA                               u301 320E                               u141 3594  
                             u150 3256                               u310 322E                               u230 3180  
                             u151 3252                               u311 322A                               u231 317C  
                             u160 3264                               u320 3240                               u240 3192  
                             u161 3260                               u321 323C                               u241 318E  
                             u170 327A                               u250 31A8                               u171 3276  
                             u251 31A4                               u180 3290                               u260 31C4  
                             u181 328C                               u261 31C0                               u190 32A4  
                             u270 31D6                               u191 32A0                               u271 31D2  
                             u280 31EA                               u600 3834                               u281 31E6  
                             u601 3830                               u290 31FC                               u610 32F2  
                             u291 31F8                               u611 32EE                               u700 3514  
                             u620 3310                               u701 3510                               u621 330C  
                             u710 3530                               u630 332E                               u711 352C  
                             u631 332A                               u800 34BC                               u720 36A4  
                             u640 334C                               u801 34B8                               u721 36A0  
                             u641 3348                               u570 37EC                               u730 36C2  
                             u650 3854                               u810 267A                               u571 37E8  
                             u731 36BE                               u651 3850                               u811 2676  
                             u580 37FA                               u740 36D8                               u660 386A  
                             u820 269E                               u581 37F6                               u741 36D4  
                             u661 3866                               u821 269A                               u590 3808  
                             u750 2A24                               u670 37C6                               u591 3804  
                             u751 2A20                               u671 37C2                               u760 2A48  
                             u680 3782                               u761 2A44                               u681 377E  
                             u770 3428                               u690 34F6                               u771 3424  
                             u691 34F2                               u780 3442                               u781 343E  
                             u790 34A2                               u791 349E                               u927 307E  
                             u937 30A4                               u947 3374                               u957 33D4  
                             u967 335E                               u977 2D04                               u987 2D22  
                             u997 2D46                      DHT_Read@data 0503                    ??_DHT_GetHumid 0506  
                             wreg 04E8                       ?_U1_NEWLINE 0501                      _I2C_LCD_INIT 2CFA  
                     ?_U1_VAR_INT 050D                 _I2C_ENVIA_LCD_CMD 362A                              l1201 3264  
                 __end_of_U1_INIT 3892                              l2001 3790                              l1211 32C8  
                            l1203 327A                              l1131 372E                              l2011 38DE  
                            l2003 3790                              l1205 3294                              l1213 316C  
                            l1133 373C                              l2101 2DC4                              l1125 3894  
                            l2005 3798                              l2021 376E                              l2013 3740  
                            l1231 31C4                              l1223 3192                              l1215 3170  
                            l2031 34FE                              l1127 36F6                              l2111 2DF8  
                            l2103 2DCE                              l2007 37B2                              l2023 3770  
                            l2015 374C                              l1209 32B2                              l1233 31C6  
                            l1225 319A                              l1217 3180                              l2041 3538  
                            l2033 3506                              l2025 34DC                              l1129 3704  
                            l2201 2F88                              l2121 2E22                              l2113 2E00  
                            l2105 2DD6                              l2009 37B4                              l2017 374C  
                            l1251 322E                              l1243 31FC                              l1227 31A8  
                            l1235 31DA                              l2043 353A                              l2035 3514  
                            l2027 34E4                              l2051 36AC                              l2211 2FB4  
                            l2203 2F92                              l2131 2E50                              l2123 2E2C  
                            l2115 2E0A                              l2107 2DE0                              l2019 3754  
                            l1253 3230                              l1245 3204                              l1237 31EA  
                            l1229 31B0                              l1181 356A                              l2301 33EA  
                            l2045 3540                              l2037 351A                              l2029 34F6  
                            l2061 36E6                              l2053 36B4                              l2221 2FDE  
                            l2213 2FBC                              l2205 2F98                              l2141 2E7A  
                            l2133 2E56                              l2125 2E34                              l2117 2E12  
                            l2109 2DEE                              l1069 3840                              l1247 3212  
                            l1255 3240                              l1191 35A0                              l1183 3578  
                            l2311 340A                              l2303 33F0                              l2039 3530  
                            l2055 36C2                              l2047 3692                              l2231 300A  
                            l2223 2FE8                              l2215 2FC6                              l2207 2FA2  
                            l2151 2EA6                              l2143 2E84                              l2135 2E60  
                            l2127 2E3E                              l2119 2E1C                              l2071 2D30  
                            l2063 2CFA                              l1271 38C8                              l1249 321A  
                            l1193 35B0                              l1185 3582                              l1177 3552  
                            l2313 3412                              l2305 33F6                              l2057 36D8  
                            l2049 36A4                              l2241 303E                              l2233 3012  
                            l2225 2FF0                              l2217 2FCC                              l2209 2FAA  
                            l2161 2ED0                              l2153 2EAE                              l2145 2E8A  
                            l2137 2E68                              l2129 2E46                              l2081 2D5E  
                            l2073 2D3A                              l2065 2CFE                              l2401 2718  
                            l1195 35BA                              l1179 3562                              l1187 3588  
                            l2331 3464                              l2323 3432                              l2315 3418  
                            l2307 33FC                              l2059 36E0                              l2251 2A14  
                            l2243 3042                              l2235 301C                              l2227 2FFA  
                            l2219 2FD6                              l2171 2EFC                              l2163 2EDA  
                            l2155 2EB8                              l2147 2E94                              l2139 2E72  
                            l2091 2D92                              l2083 2D68                              l2075 2D44  
                            l2067 2D0E                              l2411 2784                              l2403 2736  
                            l1197 3246                              l1189 3598                              l2341 3480  
                            l2333 3464                              l2325 3442                              l2317 3428  
                            l2309 3402                              l2261 2A7E                              l2253 2A24  
                            l2245 3046                              l2237 3024                              l2229 3000  
                            l2181 2F26                              l2173 2F04                              l2165 2EE2  
                            l2157 2EBE                              l2149 2E9C                              l2093 2D9A  
                            l2085 2D76                              l2077 2D4C                              l2069 2D18  
                            l2421 27B6                              l2413 2794                              l2405 275A  
                            l2501 33CA                              l2343 3486                              l2335 346A  
                            l2327 3458                              l2271 2B04                              l2263 2AA0  
                            l2255 2A38                              l2247 2950                              l2239 302E  
                            l2191 2F54                              l2183 2F30                              l2175 2F0E  
                            l2167 2EEC                              l2159 2EC8                              l2095 2DA4  
                            l2087 2D80                              l2079 2D56                              l2431 27D8  
                            l2423 27BC                              l2415 279A                              l2407 2772  
                            l2503 33E2                              l2345 348C                              l2337 3470  
                            l2281 2BA8                              l2273 2B2E                              l2257 2A48  
                            l2249 2A08                              l2193 2F64                              l2185 2F38  
                            l2177 2F16                              l2169 2EF2                              l2097 2DB2  
                            l2089 2D88                              l2441 285C                              l2433 27FE  
                            l2425 27C4                              l2417 27A2                              l2409 2778  
                            l2355 34AC                              l2347 3492                              l2339 3478  
                            l2283 2BD4                              l2275 2B58                              l2267 2AC2  
                            l2259 2A62                              l2195 2F6E                              l2187 2F42  
                            l2179 2F20                              l2099 2DBC                              l2363 3872  
                            l2451 289E                              l2443 2874                              l2435 282A  
                            l2427 27CC                              l2419 27AE                              l2371 266A  
                            l2611 3062                              l2357 34BC                              l2349 34A2  
                            l2293 2C9C                              l2285 2C06                              l2269 2AE0  
                            l2197 2F76                              l2189 2F4A                              l2365 3878  
                            l2461 28C8                              l2453 28A4                              l2445 287A  
                            l2437 284A                              l2381 26AC                              l2373 267A  
                            l2621 30B2                              l2613 3066                              l2359 34D2  
                            l2287 2C38                              l2279 2B82                              l2199 2F80  
                            l2463 28CE                              l2455 28AC                              l2447 2882  
                            l2439 2850                              l2391 26F6                              l2383 26B8  
                            l2375 268E                              l2367 25A6                              l1727 38AA  
                            l2631 30E4                              l2623 30BA                              l2615 3074  
                            l2607 304E                              l1921 37D8                              l2289 2C6A  
                            l2297 2CCA                              l2473 28F2                              l2465 28D6  
                            l2457 28B4                              l2449 288E                              l2393 26FE  
                            l2385 26D4                              l2377 269E                              l2369 265E  
                            l2481 3382                              l2641 3114                              l2633 30EC  
                            l2625 30CE                              l2617 308C                              l2609 305E  
                            l2299 33EA                              l1923 37DC                              l1931 3658  
                            l2467 28DE                              l2459 28C0                              l2395 2704  
                            l2387 26E4                              l2379 26A6                              l2491 33A2  
                            l2483 338A                              l2651 3146                              l2643 3128  
                            l2635 3100                              l2627 30D6                              l2619 309A  
                            l1917 37CA                              l1941 3688                              l1933 3662  
                            l1925 362C                              l2469 28E6                              l2397 270C  
                            l2389 26EA                              l2477 2920                              l2493 33A6  
                            l2485 338E                              l2653 315A                              l2645 3130  
                            l2637 3106                              l2629 30DA                              l1919 37D0  
                            l1951 35F8                              l1943 35C0                              l1935 366A  
                            l1927 3644                              l2495 33B0                              l2487 3396  
                            l2479 336A                              l2647 3134                              l2639 310C  
                            l1953 3600                              l1945 35D8                              l1937 3676  
                            l1929 3650                              l1961 380A                              l2497 33B8  
                            l2489 339A                              l2649 313E                              l1955 360C  
                            l1947 35E4                              l1939 367E                              l1963 3812  
                            l1971 32E2                              l2499 33C2                              l1957 3614  
                            l1949 35EC                              l1965 3814                              l1981 332E  
                            l1973 32F2                              l1959 3620                              l1991 3844  
                            l1967 3834                              l1983 333A                              l1975 32FE  
                            l1993 3854                              l1985 334C                              l1977 3310  
                            l1995 385A                              l1979 331C                              l1987 3358  
                            l1989 38D6                              l1997 386A                              l1999 3784  
                            STR_1 2501                              STR_2 2584                              STR_3 2522  
                            STR_4 2553                              STR_5 2574                              STR_6 253F  
                            STR_7 25A2                              STR_8 2596                              STR_9 2564  
                            u1007 2D58                              u1017 2D6E                              u1107 2E1E  
                            u1027 2D82                              u1117 2E2E                              u1037 2D94  
                            u1207 2ECA                              u1127 2E40                              u1047 2DAA  
                            u1217 2EDC                              u1137 2E52                              u1057 2DBE  
                            u1307 2F82                              u1227 2EEE                              u1147 2E62  
                            u1067 2DD0                              u1317 2F94                              u1237 2EFE  
                            u1157 2E74                              u1077 2DE6                              u1407 3034  
                            u1327 2FA4                              u1247 2F10                              u1167 2E86  
                            u1087 2DFA                              u1417 3652                              u1337 2FB6  
                            u1257 2F22                              u1177 2E96                              u1097 2E0C  
                            u1507 357C                              u1427 3664                              u1347 2FC8  
                            u1267 2F32                              u1187 2EA8                              u1517 35A6  
                            u1437 3678                              u1357 2FD8                              u1277 2F44  
                            u1197 2EBA                              u1527 35B4                              u1447 368A  
                            u1367 2FEA                              u1287 2F5A                              u1537 3194  
                            u1457 35E6                              u1377 2FFC                              u1297 2F70  
                            u1547 31FE                              u1467 35FA                              u1387 300C  
                            u1557 3266                              u1477 360E                              u1397 301E  
                            u1567 327C                              u1487 3622                              u1577 32B4  
                            u1497 3570                              u1587 32CA                ?_I2C_ENVIA_LCD_CMD 0501  
        I2C_ENVIA_LCD_CMD@command 0504                   U1_VAR_INT@punto 0510                              _main 304E  
              DHT_GetHumid@RH_Dec 0508                DHT_GetHumid@RH_Ent 050B                 ??_I2C_CURSOR_HOME 0507  
                            start FFFC               ??_I2C_ENVIA_LCD_CMD 0503                      ___param_bank 0000  
                __end_of_DHT_Read 3244                _I2C_ENVIA_LCD_DATA 35BE                    ?_splash_screen 0501  
               __end_of_I2C1_INIT 3740                DHT_GetHumid@modelo 050C                             ?_main 0501  
                           STR_10 259D                             STR_11 258E                             STR_12 259D  
                U1_VAR_INT@decena 0514                   __end_of___lwdiv 3550                   __end_of___lwmod 36F6  
                           _U1TXB 02A3                             _OSCEN 00B3               ?_I2C_ENVIA_LCD_DATA 0501  
                U1_VAR_INT@millar 0512         __end_of_I2C_ENVIA_LCD_CMD 3692                  U1_VAR_INT@numero 050D  
                U1_VAR_INT@unidad 0515                 DHT_GetTemp@modelo 050C                    _I2C_BORRAR_LCD 38DE  
               ?_I2C_CURSOR_ONOFF 0501                             tablat 04F5                     ?_U1_BYTE_SEND 0501  
                  DHT_Read@modelo 0501                             status 04D8                ??_I2C_CURSOR_ONOFF 0507  
          I2C_CURSOR_ONOFF@estado 0507              ??_I2C_ENVIA_LCD_DATA 0503                   __initialization 38BA  
                    __end_of_main 316A                 __end_of_DHT_Check 32E0           I2C_ESCRIBE_MENSAJE2@tam 0509  
                          ??_main 0516                 __end_of_DHT_Start 35BE                     __activetblptr 0003  
        ?_I2C_LCD_ESCRIBE_VAR_INT 050D                         ??_U1_INIT 0503            __end_of_I2C_BORRAR_LCD 38E6  
                  ??_U1_BYTE_SEND 0501                            _U1CON0 02AB                            _U1CON1 02AC  
                          _U1CON2 02AD                            _U1BRGH 02AF                            _U1BRGL 02AE  
                          _RC3PPS 0214                            _RC4PPS 0215                            _RF0PPS 0229  
               U1_VAR_INT@centena 0513                            _OSCFRQ 00B1              __end_of_DHT_GetHumid 34DC  
   I2C1_WRITESINGLEBYTE@direccion 0502                   ??_splash_screen 050B                         ??___lwdiv 050A  
                       ??___lwmod 0505                            isa$std 0001                            _strlen 380A  
                    __mediumconst 0000                            tblptrh 04F7                            tblptrl 04F6  
                          tblptru 04F8                   ?_I2C_BORRAR_LCD 0501                    _I2C_POS_CURSOR 32E0  
                       ?_DHT_Read 0501                 U1_STRING_SEND@tam 0506                        __accesstop 0560  
         __end_of__initialization 38C2                         DHT_Read@x 0502                     ___rparam_used 0001  
                  __pcstackCOMRAM 0501      I2C_LCD_ESCRIBE_VAR_INT@punto 0510   __end_of_I2C_LCD_ESCRIBE_VAR_INT 2CFA  
           I2C_ESCRIBE_MENSAJE2@i 050A                      ??_U1_NEWLINE 0502                   _I2C_CURSOR_HOME 38D6  
          __end_of_I2C_POS_CURSOR 336A                      ??_U1_VAR_INT 0511                   U1_STRING_SEND@i 0507  
                      ??_DHT_Read 0501                           _I2C1CNT 028D                __end_of_U1_NEWLINE 38D6  
                         _I2C1TXB 028C                __end_of_U1_VAR_INT 2950              __end_of_U1_BYTE_SEND 38AA  
     I2C_ENVIA_LCD_DATA@lownibble 0506                           ?_strlen 0501                U1_VAR_INT@d_millar 0511  
                       _I2C1_INIT 36F6                           _U1RXPPS 0272                           _U1_INIT 3872  
                         _OSCCON1 00AD      __end_of_I2C_ESCRIBE_MENSAJE2 37C8                   ?_I2C_POS_CURSOR 0507  
             DHT_GetTemp@Temp_Dec 0508               DHT_GetTemp@Temp_Ent 050B        I2C_ESCRIBE_MENSAJE2@cadena 0507  
                         __Hparam 0000                           __Lparam 0000                 __end_of_configuro 38BA  
                         ___lwdiv 34DC                           ___lwmod 3692                      __psmallconst 2500  
                         __pcinit 38BA                           __ramtop 2500                           __ptext0 304E  
                         __ptext1 336A                           __ptext2 3740                           __ptext3 38C8  
                         __ptext4 32E0                           __ptext5 3784                           __ptext6 380A  
                         __ptext7 38AA                           __ptext8 25A6                           __ptext9 3892  
         __end_of_I2C_CURSOR_HOME 38DE                       _I2C1CLKbits 029C                        ?_I2C1_INIT 0501  
      I2C_ENVIA_LCD_CMD@lownibble 0506                         _DHT_Check 3244                           _humedad 0518  
                    _DHT_GetHumid 3462                         _DHT_Start 3550                       _I2C1PIRbits 029A  
            end_of_initialization 38C2  I2C_LCD_ESCRIBE_VAR_INT@n_digitos 050F                I2C_POS_CURSOR@fila 0509  
                         strlen@a 0503                           strlen@s 0501                         _PORTBbits 04CF  
                ??_I2C_BORRAR_LCD 0507                        ?_DHT_Check 0501                         _TRISBbits 04C7  
                       _TRISCbits 04C8                        ?_DHT_Start 0501                     ??_DHT_GetTemp 0506  
            _I2C_ESCRIBE_MENSAJE2 3784     I2C_LCD_ESCRIBE_VAR_INT@decena 0514             __end_of_splash_screen 33E8  
   I2C_LCD_ESCRIBE_VAR_INT@millar 0512     I2C_LCD_ESCRIBE_VAR_INT@numero 050D     I2C_LCD_ESCRIBE_VAR_INT@unidad 0515  
                ?_I2C_CURSOR_HOME 0501                    _U1_STRING_SEND 3740                       ??_I2C1_INIT 0501  
                  __end_of_strlen 3842               start_initialization 38BA                     ?_I2C_LCD_INIT 0501  
    __end_of_I2C1_WRITESINGLEBYTE 380A                      _U1_BYTE_SEND 3892               __end_of_DHT_GetTemp 3462  
           ?_I2C_ESCRIBE_MENSAJE2 0507      I2C_ENVIA_LCD_DATA@highnibble 0505                  _I2C_CURSOR_ONOFF 3842  
          __end_of_U1_STRING_SEND 3784                          ??_strlen 0503                  ??_I2C_POS_CURSOR 0508  
                  ??_I2C_LCD_INIT 0508                       ??_DHT_Check 0501                          ?_U1_INIT 0501  
                     __pbssCOMRAM 0518                       ??_DHT_Start 0501                   DHT_Start@modelo 0502  
         _I2C_LCD_ESCRIBE_VAR_INT 2950                  ___lwdiv@dividend 0506    I2C_LCD_ESCRIBE_VAR_INT@centena 0513  
                        _I2C1ADB1 028F                          ?___lwdiv 0506                          ?___lwmod 0501  
           DHT_GetHumid@valor_dht 0509                   ?_U1_STRING_SEND 0504                         _configuro 38AA  
                     __smallconst 2500                  ___lwdiv@quotient 050A                       _U1ERRIRbits 02B2  
                        _DHT_Read 316A                       _DHT_GetTemp 33E8                          _LATBbits 04BF  
          ??_I2C_ESCRIBE_MENSAJE2 0508                     _I2C1STAT1bits 0299              _I2C1_WRITESINGLEBYTE 37C8  
          I2C_ENVIA_LCD_DATA@data 0504               U1_VAR_INT@n_digitos 050F                        ?_configuro 0501  
     I2C_ENVIA_LCD_CMD@highnibble 0505         ??_I2C_LCD_ESCRIBE_VAR_INT 0511        __end_of_I2C_ENVIA_LCD_DATA 362A  
           I2C_POS_CURSOR@columna 0507                          __Hrparam 0000              __end_of_I2C_LCD_INIT 304E  
                U1_BYTE_SEND@dato 0501                          __Lrparam 0000             ?_I2C1_WRITESINGLEBYTE 0501  
                      _ANSELBbits 0408                        _ANSELCbits 0410                      _I2C1CON0bits 0294  
                    _I2C1CON1bits 0295                      _I2C1CON2bits 0296                   ___lwdiv@divisor 0508  
        I2C1_WRITESINGLEBYTE@dato 0501                   ___lwdiv@counter 050C                          __ptext10 3872  
                        __ptext11 2CFA                          __ptext20 35BE                          __ptext12 3842  
                        __ptext21 37C8                          __ptext13 38D6                          __ptext22 33E8  
                        __ptext14 38DE                          __ptext23 3462                          __ptext15 362A  
                        __ptext24 3550                          __ptext16 36F6                          __ptext25 316A  
                        __ptext17 2950                          __ptext26 3244                          __ptext18 3692  
                        __ptext19 34DC                        _RC3I2Cbits 0287          __end_of_I2C_CURSOR_ONOFF 3872  
                      _RC4I2Cbits 0286                   DHT_Check@modelo 0501                          isa$xinst 0000  
                      _ODCONCbits 0412                       ??_configuro 0501              DHT_GetTemp@valor_dht 0509  
                      _U1_NEWLINE 38C8                  U1_INIT@velocidad 0501                        _U1_VAR_INT 25A6  
                ___lwmod@dividend 0501   I2C_LCD_ESCRIBE_VAR_INT@d_millar 0511            ??_I2C1_WRITESINGLEBYTE 0502  
                ??_U1_STRING_SEND 0505                       _temperatura 051A                   ___lwmod@divisor 0503  
                 ___lwmod@counter 0505                     ?_DHT_GetHumid 0504                      ?_DHT_GetTemp 0504  
            U1_STRING_SEND@cadena 0504  
