

Microchip MPLAB XC8 Assembler V2.46 build 20240104201356 
                                                                                               Mon Nov 11 11:44:55 2024

Microchip MPLAB XC8 C Compiler v2.46 (Free license) build 20240104201356 Og1 
     1                           	processor	18F57Q43
     2                           	fnconf	rparam,??,?,0
     3                           	pagewidth 120
     4                           	opt	flic
     5                           	psect	idataCOMRAM,global,class=CODE,delta=1,noexec
     6                           	psect	mediumconst,global,reloc=2,class=MEDIUMCONST,delta=1,noexec
     7                           	psect	cinit,global,reloc=2,class=CODE,delta=1
     8                           	psect	bssCOMRAM,global,class=COMRAM,space=1,delta=1,lowdata,noexec
     9                           	psect	dataCOMRAM,global,class=COMRAM,space=1,delta=1,lowdata,noexec
    10                           	psect	cstackCOMRAM,global,class=COMRAM,space=1,delta=1,lowdata,noexec
    11                           	psect	text0,global,reloc=2,class=CODE,delta=1
    12                           	psect	text1,global,reloc=2,class=CODE,delta=1
    13                           	psect	text2,global,reloc=2,class=CODE,delta=1
    14                           	psect	text3,global,reloc=2,class=CODE,delta=1,group=2
    15                           	psect	text4,global,reloc=2,class=CODE,delta=1
    16                           	psect	text5,global,reloc=2,class=CODE,delta=1
    17                           	psect	text6,global,reloc=2,class=CODE,delta=1
    18                           	psect	text7,global,reloc=2,class=CODE,delta=1
    19                           	psect	text8,global,reloc=2,class=CODE,delta=1
    20                           	psect	text9,global,reloc=2,class=CODE,delta=1
    21                           	psect	text10,global,reloc=2,class=CODE,delta=1
    22                           	psect	text11,global,reloc=2,class=CODE,delta=1
    23                           	psect	text12,global,reloc=2,class=CODE,delta=1
    24                           	psect	text13,global,reloc=2,class=CODE,delta=1
    25                           	psect	text14,global,reloc=2,class=CODE,delta=1
    26                           	psect	text15,global,reloc=4,class=CODE,delta=1
    27                           	psect	text16,global,reloc=2,class=CODE,delta=1
    28                           	psect	text17,global,reloc=2,class=CODE,delta=1
    29                           	psect	text18,global,reloc=2,class=CODE,delta=1
    30                           	psect	text19,global,reloc=2,class=CODE,delta=1
    31                           	psect	text20,global,reloc=2,class=CODE,delta=1
    32                           	psect	text21,global,reloc=2,class=CODE,delta=1
    33                           	psect	text22,global,reloc=2,class=CODE,delta=1
    34                           	psect	text23,global,reloc=2,class=CODE,delta=1
    35                           	psect	text24,global,reloc=2,class=CODE,delta=1
    36                           	psect	text25,global,reloc=2,class=CODE,delta=1
    37                           	psect	text26,global,reloc=2,class=CODE,delta=1
    38                           	psect	text27,global,reloc=2,class=CODE,delta=1
    39                           	psect	text28,global,reloc=4,class=CODE,delta=1
    40                           	psect	ivt0x8,global,reloc=2,class=CODE,delta=1,noexec,keep,optim=
    41                           	psect	intsave_regs,global,class=BIGRAM,space=1,delta=1,noexec
    42                           	psect	rparam,global,class=COMRAM,space=1,delta=1,noexec
    43                           	psect	config,global,abs,ovrld,class=CONFIG,space=4,delta=1,noexec
    44   000000                     
    45                           ; Generated 18/12/2023 GMT
    46                           ; 
    47                           ; Copyright © 2023, Microchip Technology Inc. and its subsidiaries ("Microchip")
    48                           ; All rights reserved.
    49                           ; 
    50                           ; This software is developed by Microchip Technology Inc. and its subsidiaries ("Microch
      +                          ip").
    51                           ; 
    52                           ; Redistribution and use in source and binary forms, with or without modification, are
    53                           ; permitted provided that the following conditions are met:
    54                           ; 
    55                           ;     1. Redistributions of source code must retain the above copyright notice, this lis
      +                          t of
    56                           ;        conditions and the following disclaimer.
    57                           ; 
    58                           ;     2. Redistributions in binary form must reproduce the above copyright notice, this 
      +                          list
    59                           ;        of conditions and the following disclaimer in the documentation and/or other
    60                           ;        materials provided with the distribution. Publication is not required when
    61                           ;        this file is used in an embedded application.
    62                           ; 
    63                           ;     3. Microchip's name may not be used to endorse or promote products derived from th
      +                          is
    64                           ;        software without specific prior written permission.
    65                           ; 
    66                           ; THIS SOFTWARE IS PROVIDED BY MICROCHIP "AS IS" AND ANY EXPRESS OR IMPLIED WARRANTIES,
    67                           ; INCLUDING, BUT NOT LIMITED TO, THE IMPLIED WARRANTIES OF MERCHANTABILITY AND FITNESS F
      +                          OR
    68                           ; PURPOSE ARE DISCLAIMED.  IN NO EVENT SHALL MICROCHIP BE LIABLE FOR ANY DIRECT, INDIREC
      +                          T,
    69                           ; INCIDENTAL, SPECIAL, EXEMPLARY, OR CONSEQUENTIAL DAMAGES (INCLUDING BUT NOT LIMITED TO
    70                           ; PROCUREMENT OF SUBSTITUTE GOODS OR SERVICES; LOSS OF USE, DATA OR PROFITS; OR BUSINESS
    71                           ; INTERRUPTION) HOWSOEVER CAUSED AND ON ANY THEORY OF LIABILITY, WHETHER IN CONTRACT, ST
      +                          RICT
    72                           ; LIABILITY, OR TORT (INCLUDING NEGLIGENCE OR OTHERWISE) ARISING IN ANY WAY OUT OF THE U
      +                          SE OF
    73                           ; THIS SOFTWARE, EVEN IF ADVISED OF THE POSSIBILITY OF SUCH DAMAGE.
    74                           ; 
    75                           ; 
    76                           ; Code-generator required, PIC18F57Q43 Definitions
    77                           ; 
    78                           ; SFR Addresses
    79   000000                     
    80                           	psect	idataCOMRAM
    81   010D0A                     __pidataCOMRAM:
    82                           	callstack 0
    83                           
    84                           ;initializer for _I2C_LCD_ADDR
    85   010D0A  27                 	db	39
    86   000000                     _I2C1CON1bits	set	661
    87   000000                     _I2C1CON2bits	set	662
    88   000000                     _I2C1CLKbits	set	668
    89   000000                     _U1CON2	set	685
    90   000000                     _U1CON1	set	684
    91   000000                     _OSCCON1	set	173
    92   000000                     _RF0PPS	set	553
    93   000000                     _U1CON0	set	683
    94   000000                     _U1BRGL	set	686
    95   000000                     _U1BRGH	set	687
    96   000000                     _U1ERRIRbits	set	690
    97   000000                     _ANSELFbits	set	1064
    98   000000                     _TRISFbits	set	1227
    99   000000                     _U1RXPPS	set	626
   100   000000                     _RC4I2Cbits	set	646
   101   000000                     _RC3I2Cbits	set	647
   102   000000                     _U1RXB	set	673
   103   000000                     _U1TXB	set	675
   104   000000                     _INTCON0bits	set	1238
   105   000000                     _PIE4bits	set	1186
   106   000000                     _TRISEbits	set	1226
   107   000000                     _ANSELCbits	set	1040
   108   000000                     _ANSELEbits	set	1056
   109   000000                     _OSCFRQ	set	177
   110   000000                     _OSCEN	set	179
   111   000000                     _RC3PPS	set	532
   112   000000                     _PIR4bits	set	1202
   113   000000                     _LATEbits	set	1218
   114   000000                     _TRISCbits	set	1224
   115   000000                     _ODCONCbits	set	1042
   116   000000                     _RC4PPS	set	533
   117   000000                     _I2C1TXB	set	652
   118   000000                     _I2C1CNT	set	653
   119   000000                     _I2C1CON0bits	set	660
   120   000000                     _I2C1STAT1bits	set	665
   121   000000                     _I2C1ADB1	set	655
   122   000000                     _I2C1PIRbits	set	666
   123                           
   124                           	psect	mediumconst
   125   00FCD8                     __pmediumconst:
   126                           	callstack 0
   127   00FCD8  00                 	db	0
   128   00FCD9                     STR_36:
   129   00FCD9  49                 	db	73	;'I'
   130   00FCDA  6D                 	db	109	;'m'
   131   00FCDB  70                 	db	112	;'p'
   132   00FCDC  72                 	db	114	;'r'
   133   00FCDD  69                 	db	105	;'i'
   134   00FCDE  6D                 	db	109	;'m'
   135   00FCDF  69                 	db	105	;'i'
   136   00FCE0  65                 	db	101	;'e'
   137   00FCE1  6E                 	db	110	;'n'
   138   00FCE2  64                 	db	100	;'d'
   139   00FCE3  6F                 	db	111	;'o'
   140   00FCE4  20                 	db	32
   141   00FCE5  6D                 	db	109	;'m'
   142   00FCE6  65                 	db	101	;'e'
   143   00FCE7  6E                 	db	110	;'n'
   144   00FCE8  73                 	db	115	;'s'
   145   00FCE9  61                 	db	97	;'a'
   146   00FCEA  6A                 	db	106	;'j'
   147   00FCEB  65                 	db	101	;'e'
   148   00FCEC  20                 	db	32
   149   00FCED  65                 	db	101	;'e'
   150   00FCEE  6E                 	db	110	;'n'
   151   00FCEF  20                 	db	32
   152   00FCF0  73                 	db	115	;'s'
   153   00FCF1  65                 	db	101	;'e'
   154   00FCF2  67                 	db	103	;'g'
   155   00FCF3  75                 	db	117	;'u'
   156   00FCF4  6E                 	db	110	;'n'
   157   00FCF5  64                 	db	100	;'d'
   158   00FCF6  61                 	db	97	;'a'
   159   00FCF7  20                 	db	32
   160   00FCF8  6C                 	db	108	;'l'
   161   00FCF9  69                 	db	105	;'i'
   162   00FCFA  6E                 	db	110	;'n'
   163   00FCFB  65                 	db	101	;'e'
   164   00FCFC  61                 	db	97	;'a'
   165   00FCFD  00                 	db	0
   166   00FCFE                     STR_34:
   167   00FCFE  49                 	db	73	;'I'
   168   00FCFF  6D                 	db	109	;'m'
   169   00FD00  70                 	db	112	;'p'
   170   00FD01  72                 	db	114	;'r'
   171   00FD02  69                 	db	105	;'i'
   172   00FD03  6D                 	db	109	;'m'
   173   00FD04  69                 	db	105	;'i'
   174   00FD05  65                 	db	101	;'e'
   175   00FD06  6E                 	db	110	;'n'
   176   00FD07  64                 	db	100	;'d'
   177   00FD08  6F                 	db	111	;'o'
   178   00FD09  20                 	db	32
   179   00FD0A  6D                 	db	109	;'m'
   180   00FD0B  65                 	db	101	;'e'
   181   00FD0C  6E                 	db	110	;'n'
   182   00FD0D  73                 	db	115	;'s'
   183   00FD0E  61                 	db	97	;'a'
   184   00FD0F  6A                 	db	106	;'j'
   185   00FD10  65                 	db	101	;'e'
   186   00FD11  20                 	db	32
   187   00FD12  65                 	db	101	;'e'
   188   00FD13  6E                 	db	110	;'n'
   189   00FD14  20                 	db	32
   190   00FD15  70                 	db	112	;'p'
   191   00FD16  72                 	db	114	;'r'
   192   00FD17  69                 	db	105	;'i'
   193   00FD18  6D                 	db	109	;'m'
   194   00FD19  65                 	db	101	;'e'
   195   00FD1A  72                 	db	114	;'r'
   196   00FD1B  61                 	db	97	;'a'
   197   00FD1C  20                 	db	32
   198   00FD1D  6C                 	db	108	;'l'
   199   00FD1E  69                 	db	105	;'i'
   200   00FD1F  6E                 	db	110	;'n'
   201   00FD20  65                 	db	101	;'e'
   202   00FD21  61                 	db	97	;'a'
   203   00FD22  00                 	db	0
   204   00FD23                     STR_32:
   205   00FD23  4F                 	db	79	;'O'
   206   00FD24  70                 	db	112	;'p'
   207   00FD25  63                 	db	99	;'c'
   208   00FD26  69                 	db	105	;'i'
   209   00FD27  6F                 	db	111	;'o'
   210   00FD28  6E                 	db	110	;'n'
   211   00FD29  20                 	db	32
   212   00FD2A  69                 	db	105	;'i'
   213   00FD2B  6E                 	db	110	;'n'
   214   00FD2C  76                 	db	118	;'v'
   215   00FD2D  61                 	db	97	;'a'
   216   00FD2E  6C                 	db	108	;'l'
   217   00FD2F  69                 	db	105	;'i'
   218   00FD30  64                 	db	100	;'d'
   219   00FD31  61                 	db	97	;'a'
   220   00FD32  64                 	db	100	;'d'
   221   00FD33  2C                 	db	44
   222   00FD34  20                 	db	32
   223   00FD35  69                 	db	105	;'i'
   224   00FD36  6E                 	db	110	;'n'
   225   00FD37  74                 	db	116	;'t'
   226   00FD38  65                 	db	101	;'e'
   227   00FD39  6E                 	db	110	;'n'
   228   00FD3A  74                 	db	116	;'t'
   229   00FD3B  65                 	db	101	;'e'
   230   00FD3C  20                 	db	32
   231   00FD3D  64                 	db	100	;'d'
   232   00FD3E  65                 	db	101	;'e'
   233   00FD3F  20                 	db	32
   234   00FD40  6E                 	db	110	;'n'
   235   00FD41  75                 	db	117	;'u'
   236   00FD42  65                 	db	101	;'e'
   237   00FD43  76                 	db	118	;'v'
   238   00FD44  6F                 	db	111	;'o'
   239   00FD45  00                 	db	0
   240   00FD46                     STR_2:
   241   00FD46  2A                 	db	42
   242   00FD47  20                 	db	32
   243   00FD48  20                 	db	32
   244   00FD49  20                 	db	32
   245   00FD4A  20                 	db	32
   246   00FD4B  20                 	db	32
   247   00FD4C  20                 	db	32
   248   00FD4D  20                 	db	32
   249   00FD4E  20                 	db	32
   250   00FD4F  20                 	db	32
   251   00FD50  20                 	db	32
   252   00FD51  20                 	db	32
   253   00FD52  20                 	db	32
   254   00FD53  20                 	db	32
   255   00FD54  20                 	db	32
   256   00FD55  20                 	db	32
   257   00FD56  20                 	db	32
   258   00FD57  20                 	db	32
   259   00FD58  20                 	db	32
   260   00FD59  20                 	db	32
   261   00FD5A  20                 	db	32
   262   00FD5B  20                 	db	32
   263   00FD5C  20                 	db	32
   264   00FD5D  20                 	db	32
   265   00FD5E  20                 	db	32
   266   00FD5F  20                 	db	32
   267   00FD60  20                 	db	32
   268   00FD61  20                 	db	32
   269   00FD62  20                 	db	32
   270   00FD63  20                 	db	32
   271   00FD64  2A                 	db	42
   272   00FD65  00                 	db	0
   273   00FD66                     STR_6:
   274   00FD66  2A                 	db	42
   275   00FD67  20                 	db	32
   276   00FD68  20                 	db	32
   277   00FD69  20                 	db	32
   278   00FD6A  20                 	db	32
   279   00FD6B  20                 	db	32
   280   00FD6C  20                 	db	32
   281   00FD6D  2E                 	db	46
   282   00FD6E  2D                 	db	45
   283   00FD6F  2D                 	db	45
   284   00FD70  2E                 	db	46
   285   00FD71  20                 	db	32
   286   00FD72  20                 	db	32
   287   00FD73  20                 	db	32
   288   00FD74  20                 	db	32
   289   00FD75  20                 	db	32
   290   00FD76  20                 	db	32
   291   00FD77  20                 	db	32
   292   00FD78  20                 	db	32
   293   00FD79  20                 	db	32
   294   00FD7A  20                 	db	32
   295   00FD7B  20                 	db	32
   296   00FD7C  20                 	db	32
   297   00FD7D  20                 	db	32
   298   00FD7E  20                 	db	32
   299   00FD7F  20                 	db	32
   300   00FD80  20                 	db	32
   301   00FD81  20                 	db	32
   302   00FD82  20                 	db	32
   303   00FD83  20                 	db	32
   304   00FD84  2A                 	db	42
   305   00FD85  00                 	db	0
   306   00FD86                     STR_22:
   307   00FD86  2A                 	db	42
   308   00FD87  20                 	db	32
   309   00FD88  4D                 	db	77	;'M'
   310   00FD89  65                 	db	101	;'e'
   311   00FD8A  6E                 	db	110	;'n'
   312   00FD8B  75                 	db	117	;'u'
   313   00FD8C  20                 	db	32
   314   00FD8D  64                 	db	100	;'d'
   315   00FD8E  65                 	db	101	;'e'
   316   00FD8F  6C                 	db	108	;'l'
   317   00FD90  20                 	db	32
   318   00FD91  4C                 	db	76	;'L'
   319   00FD92  43                 	db	67	;'C'
   320   00FD93  44                 	db	68	;'D'
   321   00FD94  3A                 	db	58	;':'
   322   00FD95  20                 	db	32
   323   00FD96  20                 	db	32
   324   00FD97  20                 	db	32
   325   00FD98  20                 	db	32
   326   00FD99  20                 	db	32
   327   00FD9A  20                 	db	32
   328   00FD9B  20                 	db	32
   329   00FD9C  20                 	db	32
   330   00FD9D  20                 	db	32
   331   00FD9E  20                 	db	32
   332   00FD9F  20                 	db	32
   333   00FDA0  20                 	db	32
   334   00FDA1  20                 	db	32
   335   00FDA2  20                 	db	32
   336   00FDA3  20                 	db	32
   337   00FDA4  2A                 	db	42
   338   00FDA5  00                 	db	0
   339   00FDA6                     STR_13:
   340   00FDA6  2A                 	db	42
   341   00FDA7  20                 	db	32
   342   00FDA8  45                 	db	69	;'E'
   343   00FDA9  6C                 	db	108	;'l'
   344   00FDAA  69                 	db	105	;'i'
   345   00FDAB  6A                 	db	106	;'j'
   346   00FDAC  61                 	db	97	;'a'
   347   00FDAD  20                 	db	32
   348   00FDAE  6F                 	db	111	;'o'
   349   00FDAF  70                 	db	112	;'p'
   350   00FDB0  63                 	db	99	;'c'
   351   00FDB1  69                 	db	105	;'i'
   352   00FDB2  6F                 	db	111	;'o'
   353   00FDB3  6E                 	db	110	;'n'
   354   00FDB4  3A                 	db	58	;':'
   355   00FDB5  20                 	db	32
   356   00FDB6  20                 	db	32
   357   00FDB7  20                 	db	32
   358   00FDB8  20                 	db	32
   359   00FDB9  20                 	db	32
   360   00FDBA  20                 	db	32
   361   00FDBB  20                 	db	32
   362   00FDBC  20                 	db	32
   363   00FDBD  20                 	db	32
   364   00FDBE  20                 	db	32
   365   00FDBF  20                 	db	32
   366   00FDC0  20                 	db	32
   367   00FDC1  20                 	db	32
   368   00FDC2  20                 	db	32
   369   00FDC3  20                 	db	32
   370   00FDC4  2A                 	db	42
   371   00FDC5  00                 	db	0
   372   00FDC6                     STR_23:
   373   00FDC6  2A                 	db	42
   374   00FDC7  20                 	db	32
   375   00FDC8  28                 	db	40
   376   00FDC9  63                 	db	99	;'c'
   377   00FDCA  29                 	db	41
   378   00FDCB  20                 	db	32
   379   00FDCC  4C                 	db	76	;'L'
   380   00FDCD  69                 	db	105	;'i'
   381   00FDCE  6D                 	db	109	;'m'
   382   00FDCF  70                 	db	112	;'p'
   383   00FDD0  69                 	db	105	;'i'
   384   00FDD1  61                 	db	97	;'a'
   385   00FDD2  72                 	db	114	;'r'
   386   00FDD3  20                 	db	32
   387   00FDD4  65                 	db	101	;'e'
   388   00FDD5  6C                 	db	108	;'l'
   389   00FDD6  20                 	db	32
   390   00FDD7  4C                 	db	76	;'L'
   391   00FDD8  43                 	db	67	;'C'
   392   00FDD9  44                 	db	68	;'D'
   393   00FDDA  20                 	db	32
   394   00FDDB  20                 	db	32
   395   00FDDC  20                 	db	32
   396   00FDDD  20                 	db	32
   397   00FDDE  20                 	db	32
   398   00FDDF  20                 	db	32
   399   00FDE0  20                 	db	32
   400   00FDE1  20                 	db	32
   401   00FDE2  20                 	db	32
   402   00FDE3  20                 	db	32
   403   00FDE4  2A                 	db	42
   404   00FDE5  00                 	db	0
   405   00FDE6                     STR_11:
   406   00FDE6  2A                 	db	42
   407   00FDE7  20                 	db	32
   408   00FDE8  20                 	db	32
   409   00FDE9  20                 	db	32
   410   00FDEA  20                 	db	32
   411   00FDEB  20                 	db	32
   412   00FDEC  20                 	db	32
   413   00FDED  7C                 	db	124
   414   00FDEE  5F                 	db	95	;'_'
   415   00FDEF  5F                 	db	95	;'_'
   416   00FDF0  7C                 	db	124
   417   00FDF1  7E                 	db	126
   418   00FDF2  27                 	db	39
   419   00FDF3  29                 	db	41
   420   00FDF4  5F                 	db	95	;'_'
   421   00FDF5  5F                 	db	95	;'_'
   422   00FDF6  5F                 	db	95	;'_'
   423   00FDF7  5F                 	db	95	;'_'
   424   00FDF8  5F                 	db	95	;'_'
   425   00FDF9  28                 	db	40
   426   00FDFA  27                 	db	39
   427   00FDFB  20                 	db	32
   428   00FDFC  20                 	db	32
   429   00FDFD  20                 	db	32
   430   00FDFE  20                 	db	32
   431   00FDFF  20                 	db	32
   432   00FE00  20                 	db	32
   433   00FE01  20                 	db	32
   434   00FE02  20                 	db	32
   435   00FE03  20                 	db	32
   436   00FE04  2A                 	db	42
   437   00FE05  00                 	db	0
   438   00FE06                     STR_7:
   439   00FE06  2A                 	db	42
   440   00FE07  20                 	db	32
   441   00FE08  20                 	db	32
   442   00FE09  20                 	db	32
   443   00FE0A  20                 	db	32
   444   00FE0B  20                 	db	32
   445   00FE0C  20                 	db	32
   446   00FE0D  7C                 	db	124
   447   00FE0E  5F                 	db	95	;'_'
   448   00FE0F  5F                 	db	95	;'_'
   449   00FE10  7C                 	db	124
   450   00FE11  20                 	db	32
   451   00FE12  2E                 	db	46
   452   00FE13  2D                 	db	45
   453   00FE14  2D                 	db	45
   454   00FE15  2D                 	db	45
   455   00FE16  2D                 	db	45
   456   00FE17  2D                 	db	45
   457   00FE18  2D                 	db	45
   458   00FE19  2D                 	db	45
   459   00FE1A  2E                 	db	46
   460   00FE1B  20                 	db	32
   461   00FE1C  20                 	db	32
   462   00FE1D  20                 	db	32
   463   00FE1E  20                 	db	32
   464   00FE1F  20                 	db	32
   465   00FE20  20                 	db	32
   466   00FE21  20                 	db	32
   467   00FE22  20                 	db	32
   468   00FE23  20                 	db	32
   469   00FE24  2A                 	db	42
   470   00FE25  00                 	db	0
   471   00FE26                     STR_10:
   472   00FE26  2A                 	db	42
   473   00FE27  20                 	db	32
   474   00FE28  20                 	db	32
   475   00FE29  20                 	db	32
   476   00FE2A  20                 	db	32
   477   00FE2B  20                 	db	32
   478   00FE2C  20                 	db	32
   479   00FE2D  7C                 	db	124
   480   00FE2E  20                 	db	32
   481   00FE2F  20                 	db	32
   482   00FE30  7C                 	db	124
   483   00FE31  20                 	db	32
   484   00FE32  7C                 	db	124
   485   00FE33  27                 	db	39
   486   00FE34  2D                 	db	45
   487   00FE35  2D                 	db	45
   488   00FE36  2D                 	db	45
   489   00FE37  2D                 	db	45
   490   00FE38  2D                 	db	45
   491   00FE39  27                 	db	39
   492   00FE3A  7C                 	db	124
   493   00FE3B  20                 	db	32
   494   00FE3C  20                 	db	32
   495   00FE3D  20                 	db	32
   496   00FE3E  20                 	db	32
   497   00FE3F  20                 	db	32
   498   00FE40  20                 	db	32
   499   00FE41  20                 	db	32
   500   00FE42  20                 	db	32
   501   00FE43  20                 	db	32
   502   00FE44  2A                 	db	42
   503   00FE45  00                 	db	0
   504   00FE46                     STR_8:
   505   00FE46  2A                 	db	42
   506   00FE47  20                 	db	32
   507   00FE48  20                 	db	32
   508   00FE49  20                 	db	32
   509   00FE4A  20                 	db	32
   510   00FE4B  20                 	db	32
   511   00FE4C  20                 	db	32
   512   00FE4D  7C                 	db	124
   513   00FE4E  3D                 	db	61	;'='
   514   00FE4F  2E                 	db	46
   515   00FE50  7C                 	db	124
   516   00FE51  20                 	db	32
   517   00FE52  7C                 	db	124
   518   00FE53  2E                 	db	46
   519   00FE54  2D                 	db	45
   520   00FE55  2D                 	db	45
   521   00FE56  2D                 	db	45
   522   00FE57  2D                 	db	45
   523   00FE58  2D                 	db	45
   524   00FE59  2E                 	db	46
   525   00FE5A  7C                 	db	124
   526   00FE5B  20                 	db	32
   527   00FE5C  20                 	db	32
   528   00FE5D  20                 	db	32
   529   00FE5E  20                 	db	32
   530   00FE5F  20                 	db	32
   531   00FE60  20                 	db	32
   532   00FE61  20                 	db	32
   533   00FE62  20                 	db	32
   534   00FE63  20                 	db	32
   535   00FE64  2A                 	db	42
   536   00FE65  00                 	db	0
   537   00FE66                     STR_9:
   538   00FE66  2A                 	db	42
   539   00FE67  20                 	db	32
   540   00FE68  20                 	db	32
   541   00FE69  20                 	db	32
   542   00FE6A  20                 	db	32
   543   00FE6B  20                 	db	32
   544   00FE6C  20                 	db	32
   545   00FE6D  7C                 	db	124
   546   00FE6E  2D                 	db	45
   547   00FE6F  2D                 	db	45
   548   00FE70  7C                 	db	124
   549   00FE71  20                 	db	32
   550   00FE72  7C                 	db	124
   551   00FE73  7C                 	db	124
   552   00FE74  20                 	db	32
   553   00FE75  4B                 	db	75	;'K'
   554   00FE76  43                 	db	67	;'C'
   555   00FE77  4B                 	db	75	;'K'
   556   00FE78  20                 	db	32
   557   00FE79  7C                 	db	124
   558   00FE7A  7C                 	db	124
   559   00FE7B  20                 	db	32
   560   00FE7C  20                 	db	32
   561   00FE7D  20                 	db	32
   562   00FE7E  20                 	db	32
   563   00FE7F  20                 	db	32
   564   00FE80  20                 	db	32
   565   00FE81  20                 	db	32
   566   00FE82  20                 	db	32
   567   00FE83  20                 	db	32
   568   00FE84  2A                 	db	42
   569   00FE85  00                 	db	0
   570   00FE86                     STR_16:
   571   00FE86  2A                 	db	42
   572   00FE87  20                 	db	32
   573   00FE88  28                 	db	40
   574   00FE89  70                 	db	112	;'p'
   575   00FE8A  29                 	db	41
   576   00FE8B  20                 	db	32
   577   00FE8C  43                 	db	67	;'C'
   578   00FE8D  6F                 	db	111	;'o'
   579   00FE8E  6E                 	db	110	;'n'
   580   00FE8F  74                 	db	116	;'t'
   581   00FE90  72                 	db	114	;'r'
   582   00FE91  6F                 	db	111	;'o'
   583   00FE92  6C                 	db	108	;'l'
   584   00FE93  61                 	db	97	;'a'
   585   00FE94  72                 	db	114	;'r'
   586   00FE95  20                 	db	32
   587   00FE96  65                 	db	101	;'e'
   588   00FE97  6C                 	db	108	;'l'
   589   00FE98  20                 	db	32
   590   00FE99  4C                 	db	76	;'L'
   591   00FE9A  43                 	db	67	;'C'
   592   00FE9B  44                 	db	68	;'D'
   593   00FE9C  20                 	db	32
   594   00FE9D  20                 	db	32
   595   00FE9E  20                 	db	32
   596   00FE9F  20                 	db	32
   597   00FEA0  20                 	db	32
   598   00FEA1  20                 	db	32
   599   00FEA2  20                 	db	32
   600   00FEA3  20                 	db	32
   601   00FEA4  2A                 	db	42
   602   00FEA5  00                 	db	0
   603   00FEA6                     STR_17:
   604   00FEA6  2A                 	db	42
   605   00FEA7  20                 	db	32
   606   00FEA8  28                 	db	40
   607   00FEA9  6D                 	db	109	;'m'
   608   00FEAA  29                 	db	41
   609   00FEAB  20                 	db	32
   610   00FEAC  56                 	db	86	;'V'
   611   00FEAD  69                 	db	105	;'i'
   612   00FEAE  73                 	db	115	;'s'
   613   00FEAF  75                 	db	117	;'u'
   614   00FEB0  61                 	db	97	;'a'
   615   00FEB1  6C                 	db	108	;'l'
   616   00FEB2  69                 	db	105	;'i'
   617   00FEB3  7A                 	db	122	;'z'
   618   00FEB4  61                 	db	97	;'a'
   619   00FEB5  20                 	db	32
   620   00FEB6  65                 	db	101	;'e'
   621   00FEB7  6C                 	db	108	;'l'
   622   00FEB8  20                 	db	32
   623   00FEB9  6D                 	db	109	;'m'
   624   00FEBA  65                 	db	101	;'e'
   625   00FEBB  6E                 	db	110	;'n'
   626   00FEBC  75                 	db	117	;'u'
   627   00FEBD  20                 	db	32
   628   00FEBE  20                 	db	32
   629   00FEBF  20                 	db	32
   630   00FEC0  20                 	db	32
   631   00FEC1  20                 	db	32
   632   00FEC2  20                 	db	32
   633   00FEC3  20                 	db	32
   634   00FEC4  2A                 	db	42
   635   00FEC5  00                 	db	0
   636   00FEC6                     STR_15:
   637   00FEC6  2A                 	db	42
   638   00FEC7  20                 	db	32
   639   00FEC8  28                 	db	40
   640   00FEC9  32                 	db	50	;'2'
   641   00FECA  29                 	db	41
   642   00FECB  20                 	db	32
   643   00FECC  41                 	db	65	;'A'
   644   00FECD  70                 	db	112	;'p'
   645   00FECE  61                 	db	97	;'a'
   646   00FECF  67                 	db	103	;'g'
   647   00FED0  61                 	db	97	;'a'
   648   00FED1  20                 	db	32
   649   00FED2  65                 	db	101	;'e'
   650   00FED3  6C                 	db	108	;'l'
   651   00FED4  20                 	db	32
   652   00FED5  4C                 	db	76	;'L'
   653   00FED6  45                 	db	69	;'E'
   654   00FED7  44                 	db	68	;'D'
   655   00FED8  20                 	db	32
   656   00FED9  65                 	db	101	;'e'
   657   00FEDA  6E                 	db	110	;'n'
   658   00FEDB  20                 	db	32
   659   00FEDC  52                 	db	82	;'R'
   660   00FEDD  45                 	db	69	;'E'
   661   00FEDE  30                 	db	48	;'0'
   662   00FEDF  20                 	db	32
   663   00FEE0  20                 	db	32
   664   00FEE1  20                 	db	32
   665   00FEE2  20                 	db	32
   666   00FEE3  20                 	db	32
   667   00FEE4  2A                 	db	42
   668   00FEE5  00                 	db	0
   669   00FEE6                     STR_27:
   670   00FEE6  2A                 	db	42
   671   00FEE7  20                 	db	32
   672   00FEE8  28                 	db	40
   673   00FEE9  78                 	db	120	;'x'
   674   00FEEA  29                 	db	41
   675   00FEEB  20                 	db	32
   676   00FEEC  52                 	db	82	;'R'
   677   00FEED  65                 	db	101	;'e'
   678   00FEEE  74                 	db	116	;'t'
   679   00FEEF  6F                 	db	111	;'o'
   680   00FEF0  72                 	db	114	;'r'
   681   00FEF1  6E                 	db	110	;'n'
   682   00FEF2  61                 	db	97	;'a'
   683   00FEF3  20                 	db	32
   684   00FEF4  61                 	db	97	;'a'
   685   00FEF5  6C                 	db	108	;'l'
   686   00FEF6  20                 	db	32
   687   00FEF7  6D                 	db	109	;'m'
   688   00FEF8  65                 	db	101	;'e'
   689   00FEF9  6E                 	db	110	;'n'
   690   00FEFA  75                 	db	117	;'u'
   691   00FEFB  20                 	db	32
   692   00FEFC  70                 	db	112	;'p'
   693   00FEFD  72                 	db	114	;'r'
   694   00FEFE  69                 	db	105	;'i'
   695   00FEFF  6E                 	db	110	;'n'
   696   00FF00  63                 	db	99	;'c'
   697   00FF01  2E                 	db	46
   698   00FF02  20                 	db	32
   699   00FF03  20                 	db	32
   700   00FF04  2A                 	db	42
   701   00FF05  00                 	db	0
   702   00FF06                     STR_14:
   703   00FF06  2A                 	db	42
   704   00FF07  20                 	db	32
   705   00FF08  28                 	db	40
   706   00FF09  31                 	db	49	;'1'
   707   00FF0A  29                 	db	41
   708   00FF0B  20                 	db	32
   709   00FF0C  45                 	db	69	;'E'
   710   00FF0D  6E                 	db	110	;'n'
   711   00FF0E  63                 	db	99	;'c'
   712   00FF0F  69                 	db	105	;'i'
   713   00FF10  65                 	db	101	;'e'
   714   00FF11  6E                 	db	110	;'n'
   715   00FF12  64                 	db	100	;'d'
   716   00FF13  65                 	db	101	;'e'
   717   00FF14  20                 	db	32
   718   00FF15  65                 	db	101	;'e'
   719   00FF16  6C                 	db	108	;'l'
   720   00FF17  20                 	db	32
   721   00FF18  4C                 	db	76	;'L'
   722   00FF19  45                 	db	69	;'E'
   723   00FF1A  44                 	db	68	;'D'
   724   00FF1B  20                 	db	32
   725   00FF1C  65                 	db	101	;'e'
   726   00FF1D  6E                 	db	110	;'n'
   727   00FF1E  20                 	db	32
   728   00FF1F  52                 	db	82	;'R'
   729   00FF20  45                 	db	69	;'E'
   730   00FF21  30                 	db	48	;'0'
   731   00FF22  20                 	db	32
   732   00FF23  20                 	db	32
   733   00FF24  2A                 	db	42
   734   00FF25  00                 	db	0
   735   00FF26                     STR_4:
   736   00FF26  2A                 	db	42
   737   00FF27  20                 	db	32
   738   00FF28  44                 	db	68	;'D'
   739   00FF29  65                 	db	101	;'e'
   740   00FF2A  73                 	db	115	;'s'
   741   00FF2B  61                 	db	97	;'a'
   742   00FF2C  72                 	db	114	;'r'
   743   00FF2D  72                 	db	114	;'r'
   744   00FF2E  6F                 	db	111	;'o'
   745   00FF2F  6C                 	db	108	;'l'
   746   00FF30  6C                 	db	108	;'l'
   747   00FF31  61                 	db	97	;'a'
   748   00FF32  64                 	db	100	;'d'
   749   00FF33  6F                 	db	111	;'o'
   750   00FF34  20                 	db	32
   751   00FF35  70                 	db	112	;'p'
   752   00FF36  6F                 	db	111	;'o'
   753   00FF37  72                 	db	114	;'r'
   754   00FF38  20                 	db	32
   755   00FF39  4B                 	db	75	;'K'
   756   00FF3A  61                 	db	97	;'a'
   757   00FF3B  6C                 	db	108	;'l'
   758   00FF3C  75                 	db	117	;'u'
   759   00FF3D  6E                 	db	110	;'n'
   760   00FF3E  20                 	db	32
   761   00FF3F  4C                 	db	76	;'L'
   762   00FF40  61                 	db	97	;'a'
   763   00FF41  75                 	db	117	;'u'
   764   00FF42  20                 	db	32
   765   00FF43  20                 	db	32
   766   00FF44  2A                 	db	42
   767   00FF45  00                 	db	0
   768   00FF46                     STR_3:
   769   00FF46  2A                 	db	42
   770   00FF47  20                 	db	32
   771   00FF48  42                 	db	66	;'B'
   772   00FF49  69                 	db	105	;'i'
   773   00FF4A  65                 	db	101	;'e'
   774   00FF4B  6E                 	db	110	;'n'
   775   00FF4C  76                 	db	118	;'v'
   776   00FF4D  65                 	db	101	;'e'
   777   00FF4E  6E                 	db	110	;'n'
   778   00FF4F  69                 	db	105	;'i'
   779   00FF50  64                 	db	100	;'d'
   780   00FF51  6F                 	db	111	;'o'
   781   00FF52  73                 	db	115	;'s'
   782   00FF53  20                 	db	32
   783   00FF54  61                 	db	97	;'a'
   784   00FF55  20                 	db	32
   785   00FF56  6C                 	db	108	;'l'
   786   00FF57  61                 	db	97	;'a'
   787   00FF58  20                 	db	32
   788   00FF59  61                 	db	97	;'a'
   789   00FF5A  70                 	db	112	;'p'
   790   00FF5B  6C                 	db	108	;'l'
   791   00FF5C  69                 	db	105	;'i'
   792   00FF5D  63                 	db	99	;'c'
   793   00FF5E  61                 	db	97	;'a'
   794   00FF5F  63                 	db	99	;'c'
   795   00FF60  69                 	db	105	;'i'
   796   00FF61  6F                 	db	111	;'o'
   797   00FF62  6E                 	db	110	;'n'
   798   00FF63  20                 	db	32
   799   00FF64  2A                 	db	42
   800   00FF65  00                 	db	0
   801   00FF66                     STR_1:
   802   00FF66  2A                 	db	42
   803   00FF67  2A                 	db	42
   804   00FF68  2A                 	db	42
   805   00FF69  2A                 	db	42
   806   00FF6A  2A                 	db	42
   807   00FF6B  2A                 	db	42
   808   00FF6C  2A                 	db	42
   809   00FF6D  2A                 	db	42
   810   00FF6E  2A                 	db	42
   811   00FF6F  2A                 	db	42
   812   00FF70  2A                 	db	42
   813   00FF71  2A                 	db	42
   814   00FF72  2A                 	db	42
   815   00FF73  2A                 	db	42
   816   00FF74  2A                 	db	42
   817   00FF75  2A                 	db	42
   818   00FF76  2A                 	db	42
   819   00FF77  2A                 	db	42
   820   00FF78  2A                 	db	42
   821   00FF79  2A                 	db	42
   822   00FF7A  2A                 	db	42
   823   00FF7B  2A                 	db	42
   824   00FF7C  2A                 	db	42
   825   00FF7D  2A                 	db	42
   826   00FF7E  2A                 	db	42
   827   00FF7F  2A                 	db	42
   828   00FF80  2A                 	db	42
   829   00FF81  2A                 	db	42
   830   00FF82  2A                 	db	42
   831   00FF83  2A                 	db	42
   832   00FF84  2A                 	db	42
   833   00FF85  00                 	db	0
   834   00FF86                     STR_25:
   835   00FF86  2A                 	db	42
   836   00FF87  20                 	db	32
   837   00FF88  28                 	db	40
   838   00FF89  73                 	db	115	;'s'
   839   00FF8A  29                 	db	41
   840   00FF8B  20                 	db	32
   841   00FF8C  45                 	db	69	;'E'
   842   00FF8D  73                 	db	115	;'s'
   843   00FF8E  63                 	db	99	;'c'
   844   00FF8F  72                 	db	114	;'r'
   845   00FF90  69                 	db	105	;'i'
   846   00FF91  62                 	db	98	;'b'
   847   00FF92  65                 	db	101	;'e'
   848   00FF93  20                 	db	32
   849   00FF94  65                 	db	101	;'e'
   850   00FF95  6E                 	db	110	;'n'
   851   00FF96  20                 	db	32
   852   00FF97  73                 	db	115	;'s'
   853   00FF98  65                 	db	101	;'e'
   854   00FF99  67                 	db	103	;'g'
   855   00FF9A  75                 	db	117	;'u'
   856   00FF9B  6E                 	db	110	;'n'
   857   00FF9C  64                 	db	100	;'d'
   858   00FF9D  61                 	db	97	;'a'
   859   00FF9E  20                 	db	32
   860   00FF9F  6C                 	db	108	;'l'
   861   00FFA0  69                 	db	105	;'i'
   862   00FFA1  6E                 	db	110	;'n'
   863   00FFA2  65                 	db	101	;'e'
   864   00FFA3  61                 	db	97	;'a'
   865   00FFA4  2A                 	db	42
   866   00FFA5  00                 	db	0
   867   00FFA6                     STR_24:
   868   00FFA6  2A                 	db	42
   869   00FFA7  20                 	db	32
   870   00FFA8  28                 	db	40
   871   00FFA9  70                 	db	112	;'p'
   872   00FFAA  29                 	db	41
   873   00FFAB  20                 	db	32
   874   00FFAC  45                 	db	69	;'E'
   875   00FFAD  73                 	db	115	;'s'
   876   00FFAE  63                 	db	99	;'c'
   877   00FFAF  72                 	db	114	;'r'
   878   00FFB0  69                 	db	105	;'i'
   879   00FFB1  62                 	db	98	;'b'
   880   00FFB2  65                 	db	101	;'e'
   881   00FFB3  20                 	db	32
   882   00FFB4  65                 	db	101	;'e'
   883   00FFB5  6E                 	db	110	;'n'
   884   00FFB6  20                 	db	32
   885   00FFB7  70                 	db	112	;'p'
   886   00FFB8  72                 	db	114	;'r'
   887   00FFB9  69                 	db	105	;'i'
   888   00FFBA  6D                 	db	109	;'m'
   889   00FFBB  65                 	db	101	;'e'
   890   00FFBC  72                 	db	114	;'r'
   891   00FFBD  61                 	db	97	;'a'
   892   00FFBE  20                 	db	32
   893   00FFBF  6C                 	db	108	;'l'
   894   00FFC0  69                 	db	105	;'i'
   895   00FFC1  6E                 	db	110	;'n'
   896   00FFC2  65                 	db	101	;'e'
   897   00FFC3  61                 	db	97	;'a'
   898   00FFC4  2A                 	db	42
   899   00FFC5  00                 	db	0
   900   00FFC6                     STR_30:
   901   00FFC6  4C                 	db	76	;'L'
   902   00FFC7  45                 	db	69	;'E'
   903   00FFC8  44                 	db	68	;'D'
   904   00FFC9  20                 	db	32
   905   00FFCA  65                 	db	101	;'e'
   906   00FFCB  6E                 	db	110	;'n'
   907   00FFCC  63                 	db	99	;'c'
   908   00FFCD  65                 	db	101	;'e'
   909   00FFCE  6E                 	db	110	;'n'
   910   00FFCF  64                 	db	100	;'d'
   911   00FFD0  69                 	db	105	;'i'
   912   00FFD1  64                 	db	100	;'d'
   913   00FFD2  6F                 	db	111	;'o'
   914   00FFD3  21                 	db	33
   915   00FFD4  00                 	db	0
   916   00FFD5                     STR_31:
   917   00FFD5  4C                 	db	76	;'L'
   918   00FFD6  45                 	db	69	;'E'
   919   00FFD7  44                 	db	68	;'D'
   920   00FFD8  20                 	db	32
   921   00FFD9  61                 	db	97	;'a'
   922   00FFDA  70                 	db	112	;'p'
   923   00FFDB  61                 	db	97	;'a'
   924   00FFDC  67                 	db	103	;'g'
   925   00FFDD  61                 	db	97	;'a'
   926   00FFDE  64                 	db	100	;'d'
   927   00FFDF  6F                 	db	111	;'o'
   928   00FFE0  21                 	db	33
   929   00FFE1  00                 	db	0
   930   00FFE2                     STR_33:
   931   00FFE2  4C                 	db	76	;'L'
   932   00FFE3  43                 	db	67	;'C'
   933   00FFE4  44                 	db	68	;'D'
   934   00FFE5  20                 	db	32
   935   00FFE6  62                 	db	98	;'b'
   936   00FFE7  6F                 	db	111	;'o'
   937   00FFE8  72                 	db	114	;'r'
   938   00FFE9  72                 	db	114	;'r'
   939   00FFEA  61                 	db	97	;'a'
   940   00FFEB  64                 	db	100	;'d'
   941   00FFEC  6F                 	db	111	;'o'
   942   00FFED  00                 	db	0
   943   00FFEE                     STR_37:
   944   00FFEE  53                 	db	83	;'S'
   945   00FFEF  65                 	db	101	;'e'
   946   00FFF0  67                 	db	103	;'g'
   947   00FFF1  75                 	db	117	;'u'
   948   00FFF2  6E                 	db	110	;'n'
   949   00FFF3  64                 	db	100	;'d'
   950   00FFF4  61                 	db	97	;'a'
   951   00FFF5  00                 	db	0
   952   00FFF6                     STR_35:
   953   00FFF6  50                 	db	80	;'P'
   954   00FFF7  72                 	db	114	;'r'
   955   00FFF8  69                 	db	105	;'i'
   956   00FFF9  6D                 	db	109	;'m'
   957   00FFFA  65                 	db	101	;'e'
   958   00FFFB  72                 	db	114	;'r'
   959   00FFFC  61                 	db	97	;'a'
   960   00FFFD  00                 	db	0
   961   00FFFE  00                 	db	0	; dummy byte at the end
   962   000000                     
   963                           ; #config settings
   964                           
   965                           	psect	cinit
   966   010C2C                     __pcinit:
   967                           	callstack 0
   968   010C2C                     start_initialization:
   969                           	callstack 0
   970   010C2C                     __initialization:
   971                           	callstack 0
   972                           
   973                           ; Initialize objects allocated to COMRAM (1 bytes)
   974                           ; load TBLPTR registers with __pidataCOMRAM
   975   010C2C  0E0A               	movlw	low __pidataCOMRAM
   976   010C2E  6EF6               	movwf	tblptrl,c
   977   010C30  0E0D               	movlw	high __pidataCOMRAM
   978   010C32  6EF7               	movwf	tblptrh,c
   979   010C34  0E01               	movlw	low (__pidataCOMRAM shr (0+16))
   980   010C36  6EF8               	movwf	tblptru,c
   981   010C38  0009               	tblrd		*+	;fetch initializer
   982   010C3A  C4F5 F51E          	movff	tablat,__pdataCOMRAM
   983                           
   984                           ; Clear objects allocated to COMRAM (1 bytes)
   985   010C3E  6A1D               	clrf	__pbssCOMRAM& (0+255),c
   986                           
   987                           ;
   988                           ; Setup IVTBASE
   989                           ;
   990   010C40  0104               	movlb	4
   991   010C42  0E08               	movlw	(ivt0x8_base shr 0)& (0+255)
   992   010C44  6F5D               	movwf	93,b
   993   010C46  0E00               	movlw	(ivt0x8_base shr (0+8))& (0+255)
   994   010C48  6F5E               	movwf	94,b
   995   010C4A  0E00               	movlw	(ivt0x8_base shr (0+16))& (0+255)
   996   010C4C  6F5F               	movwf	95,b
   997   010C4E                     end_of_initialization:
   998                           	callstack 0
   999   010C4E                     __end_of__initialization:
  1000                           	callstack 0
  1001   010C4E  0100               	movlb	0
  1002   010C50  EF2A  F086         	goto	_main	;jump to C main() function
  1003                           
  1004                           	psect	bssCOMRAM
  1005   00051D                     __pbssCOMRAM:
  1006                           	callstack 0
  1007   00051D                     _menu_activo:
  1008                           	callstack 0
  1009   00051D                     	ds	1
  1010                           
  1011                           	psect	dataCOMRAM
  1012   00051E                     __pdataCOMRAM:
  1013                           	callstack 0
  1014   00051E                     _I2C_LCD_ADDR:
  1015                           	callstack 0
  1016   00051E                     	ds	1
  1017                           
  1018                           	psect	cstackCOMRAM
  1019   000501                     __pcstackCOMRAM:
  1020                           	callstack 0
  1021   000501                     ?i2_strlen:
  1022                           	callstack 0
  1023   000501                     i2U1_BYTE_SEND@dato:
  1024                           	callstack 0
  1025   000501                     i2I2C1_WRITESINGLEBYTE@dato:
  1026                           	callstack 0
  1027   000501                     i2strlen@s:
  1028                           	callstack 0
  1029                           
  1030                           ; 2 bytes @ 0x0
  1031   000501                     	ds	1
  1032   000502                     i2I2C1_WRITESINGLEBYTE@direccion:
  1033                           	callstack 0
  1034                           
  1035                           ; 1 bytes @ 0x1
  1036   000502                     	ds	1
  1037   000503                     ??_I2C_ENVIA_LCD_DATA:
  1038   000503                     ??i2_I2C_ENVIA_LCD_CMD:
  1039   000503                     i2strlen@a:
  1040                           	callstack 0
  1041                           
  1042                           ; 2 bytes @ 0x2
  1043   000503                     	ds	1
  1044   000504                     I2C_ENVIA_LCD_DATA@data:
  1045                           	callstack 0
  1046   000504                     i2I2C_ENVIA_LCD_CMD@command:
  1047                           	callstack 0
  1048                           
  1049                           ; 1 bytes @ 0x3
  1050   000504                     	ds	1
  1051   000505                     I2C_ENVIA_LCD_DATA@highnibble:
  1052                           	callstack 0
  1053   000505                     i2I2C_ENVIA_LCD_CMD@highnibble:
  1054                           	callstack 0
  1055   000505                     i2U1_STRING_SEND@cadena:
  1056                           	callstack 0
  1057                           
  1058                           ; 2 bytes @ 0x4
  1059   000505                     	ds	1
  1060   000506                     I2C_ENVIA_LCD_DATA@lownibble:
  1061                           	callstack 0
  1062   000506                     i2I2C_ENVIA_LCD_CMD@lownibble:
  1063                           	callstack 0
  1064                           
  1065                           ; 1 bytes @ 0x5
  1066   000506                     	ds	1
  1067   000507                     ??i2_U1_STRING_SEND:
  1068   000507                     I2C_POS_CURSOR@columna:
  1069                           	callstack 0
  1070   000507                     I2C_ESCRIBE_MENSAJE2@cadena:
  1071                           	callstack 0
  1072                           
  1073                           ; 2 bytes @ 0x6
  1074   000507                     	ds	1
  1075   000508                     ??_I2C_POS_CURSOR:
  1076                           
  1077                           ; 1 bytes @ 0x7
  1078   000508                     	ds	1
  1079   000509                     ??_I2C_ESCRIBE_MENSAJE2:
  1080   000509                     I2C_POS_CURSOR@fila:
  1081                           	callstack 0
  1082   000509                     i2U1_STRING_SEND@tam:
  1083                           	callstack 0
  1084                           
  1085                           ; 1 bytes @ 0x8
  1086   000509                     	ds	1
  1087   00050A                     i2U1_STRING_SEND@i:
  1088                           	callstack 0
  1089                           
  1090                           ; 1 bytes @ 0x9
  1091   00050A                     	ds	1
  1092   00050B                     I2C_ESCRIBE_MENSAJE2@tam:
  1093                           	callstack 0
  1094                           
  1095                           ; 1 bytes @ 0xA
  1096   00050B                     	ds	1
  1097   00050C                     I2C_ESCRIBE_MENSAJE2@i:
  1098                           	callstack 0
  1099                           
  1100                           ; 1 bytes @ 0xB
  1101   00050C                     	ds	1
  1102   00050D                     ??_U1RX_ISR:
  1103                           
  1104                           ; 1 bytes @ 0xC
  1105   00050D                     	ds	4
  1106   000511                     ?_strlen:
  1107                           	callstack 0
  1108   000511                     U1_BYTE_SEND@dato:
  1109                           	callstack 0
  1110   000511                     I2C1_WRITESINGLEBYTE@dato:
  1111                           	callstack 0
  1112   000511                     U1_INIT@velocidad:
  1113                           	callstack 0
  1114   000511                     strlen@s:
  1115                           	callstack 0
  1116                           
  1117                           ; 2 bytes @ 0x10
  1118   000511                     	ds	1
  1119   000512                     I2C1_WRITESINGLEBYTE@direccion:
  1120                           	callstack 0
  1121                           
  1122                           ; 1 bytes @ 0x11
  1123   000512                     	ds	1
  1124   000513                     ??_I2C_ENVIA_LCD_CMD:
  1125   000513                     strlen@a:
  1126                           	callstack 0
  1127                           
  1128                           ; 2 bytes @ 0x12
  1129   000513                     	ds	1
  1130   000514                     I2C_ENVIA_LCD_CMD@command:
  1131                           	callstack 0
  1132                           
  1133                           ; 1 bytes @ 0x13
  1134   000514                     	ds	1
  1135   000515                     I2C_ENVIA_LCD_CMD@highnibble:
  1136                           	callstack 0
  1137   000515                     U1_STRING_SEND@cadena:
  1138                           	callstack 0
  1139                           
  1140                           ; 2 bytes @ 0x14
  1141   000515                     	ds	1
  1142   000516                     I2C_ENVIA_LCD_CMD@lownibble:
  1143                           	callstack 0
  1144                           
  1145                           ; 1 bytes @ 0x15
  1146   000516                     	ds	1
  1147   000517                     ??_U1_STRING_SEND:
  1148   000517                     I2C_CURSOR_ONOFF@estado:
  1149                           	callstack 0
  1150                           
  1151                           ; 1 bytes @ 0x16
  1152   000517                     	ds	1
  1153   000518                     ??_I2C_LCD_INIT:
  1154                           
  1155                           ; 1 bytes @ 0x17
  1156   000518                     	ds	1
  1157   000519                     U1_STRING_SEND@tam:
  1158                           	callstack 0
  1159                           
  1160                           ; 1 bytes @ 0x18
  1161   000519                     	ds	1
  1162   00051A                     U1_STRING_SEND@i:
  1163                           	callstack 0
  1164                           
  1165                           ; 1 bytes @ 0x19
  1166   00051A                     	ds	1
  1167   00051B                     ??_main:
  1168                           
  1169                           ; 1 bytes @ 0x1A
  1170   00051B                     	ds	2
  1171                           
  1172 ;;
  1173 ;;Main: autosize = 0, tempsize = 2, incstack = 0, save=0
  1174 ;;
  1175 ;; *************** function _main *****************
  1176 ;; Defined at:
  1177 ;;		line 98 in file "maincode02.c"
  1178 ;; Parameters:    Size  Location     Type
  1179 ;;		None
  1180 ;; Auto vars:     Size  Location     Type
  1181 ;;		None
  1182 ;; Return value:  Size  Location     Type
  1183 ;;                  1    wreg      void 
  1184 ;; Registers used:
  1185 ;;		wreg, status,2, status,0, tblptrl, tblptrh, tblptru, cstack
  1186 ;; Tracked objects:
  1187 ;;		On entry : 0/0
  1188 ;;		On exit  : 0/0
  1189 ;;		Unchanged: 0/0
  1190 ;; Data sizes:     COMRAM   BANK5   BANK6   BANK7   BANK8   BANK9  BANK10  BANK11  BANK12  BANK13  BANK14  BANK15  BANK1
      +6  BANK17  BANK18  BANK19  BANK20  BANK21  BANK22  BANK23  BANK24  BANK25  BANK26  BANK27  BANK28  BANK29  BANK30  BANK3
      +1  BANK32  BANK33  BANK34  BANK35  BANK36
  1191 ;;      Params:         0       0       0       0       0       0       0       0       0       0       0       0       
      +0       0       0       0       0       0       0       0       0       0       0       0       0       0       0       
      +0       0       0       0       0       0
  1192 ;;      Locals:         0       0       0       0       0       0       0       0       0       0       0       0       
      +0       0       0       0       0       0       0       0       0       0       0       0       0       0       0       
      +0       0       0       0       0       0
  1193 ;;      Temps:          2       0       0       0       0       0       0       0       0       0       0       0       
      +0       0       0       0       0       0       0       0       0       0       0       0       0       0       0       
      +0       0       0       0       0       0
  1194 ;;      Totals:         2       0       0       0       0       0       0       0       0       0       0       0       
      +0       0       0       0       0       0       0       0       0       0       0       0       0       0       0       
      +0       0       0       0       0       0
  1195 ;;Total ram usage:        2 bytes
  1196 ;; Hardware stack levels required when called: 9
  1197 ;; This function calls:
  1198 ;;		_configuro
  1199 ;;		_vis_menu_P
  1200 ;; This function is called by:
  1201 ;;		Startup code after reset
  1202 ;; This function uses a non-reentrant model
  1203 ;;
  1204                           
  1205                           	psect	text0
  1206   010C54                     __ptext0:
  1207                           	callstack 0
  1208   010C54                     _main:
  1209                           	callstack 118
  1210   010C54                     
  1211                           ;maincode02.c: 99:     configuro();
  1212   010C54  EC00  F086         	call	_configuro	;wreg free
  1213   010C58                     
  1214                           ;maincode02.c: 100:     _delay((unsigned long)((1000)*(32000000UL/4000.0)));
  1215   010C58  0E29               	movlw	41
  1216   010C5A  6E1C               	movwf	(??_main+1)^(0+1280),c
  1217   010C5C  0E96               	movlw	150
  1218   010C5E  6E1B               	movwf	??_main^(0+1280),c
  1219   010C60  0E7F               	movlw	127
  1220   010C62                     u667:
  1221   010C62  2EE8               	decfsz	wreg,f,c
  1222   010C64  D7FE               	bra	u667
  1223   010C66  2E1B               	decfsz	??_main^(0+1280),f,c
  1224   010C68  D7FC               	bra	u667
  1225   010C6A  2E1C               	decfsz	(??_main+1)^(0+1280),f,c
  1226   010C6C  D7FA               	bra	u667
  1227   010C6E  0000               	nop	
  1228   010C70                     
  1229                           ;maincode02.c: 101:     vis_menu_P();
  1230   010C70  EC68  F082         	call	_vis_menu_P	;wreg free
  1231   010C74                     l133:
  1232   010C74  EF3A  F086         	goto	l133
  1233   010C78  EF81  F000         	goto	start
  1234   010C7C                     __end_of_main:
  1235                           	callstack 0
  1236                           
  1237 ;; *************** function _vis_menu_P *****************
  1238 ;; Defined at:
  1239 ;;		line 34 in file "maincode02.c"
  1240 ;; Parameters:    Size  Location     Type
  1241 ;;		None
  1242 ;; Auto vars:     Size  Location     Type
  1243 ;;		None
  1244 ;; Return value:  Size  Location     Type
  1245 ;;                  1    wreg      void 
  1246 ;; Registers used:
  1247 ;;		wreg, status,2, status,0, tblptrl, tblptrh, tblptru, cstack
  1248 ;; Tracked objects:
  1249 ;;		On entry : 0/0
  1250 ;;		On exit  : 0/0
  1251 ;;		Unchanged: 0/0
  1252 ;; Data sizes:     COMRAM   BANK5   BANK6   BANK7   BANK8   BANK9  BANK10  BANK11  BANK12  BANK13  BANK14  BANK15  BANK1
      +6  BANK17  BANK18  BANK19  BANK20  BANK21  BANK22  BANK23  BANK24  BANK25  BANK26  BANK27  BANK28  BANK29  BANK30  BANK3
      +1  BANK32  BANK33  BANK34  BANK35  BANK36
  1253 ;;      Params:         0       0       0       0       0       0       0       0       0       0       0       0       
      +0       0       0       0       0       0       0       0       0       0       0       0       0       0       0       
      +0       0       0       0       0       0
  1254 ;;      Locals:         0       0       0       0       0       0       0       0       0       0       0       0       
      +0       0       0       0       0       0       0       0       0       0       0       0       0       0       0       
      +0       0       0       0       0       0
  1255 ;;      Temps:          0       0       0       0       0       0       0       0       0       0       0       0       
      +0       0       0       0       0       0       0       0       0       0       0       0       0       0       0       
      +0       0       0       0       0       0
  1256 ;;      Totals:         0       0       0       0       0       0       0       0       0       0       0       0       
      +0       0       0       0       0       0       0       0       0       0       0       0       0       0       0       
      +0       0       0       0       0       0
  1257 ;;Total ram usage:        0 bytes
  1258 ;; Hardware stack levels used: 1
  1259 ;; Hardware stack levels required when called: 6
  1260 ;; This function calls:
  1261 ;;		_U1_NEWLINE
  1262 ;;		_U1_STRING_SEND
  1263 ;; This function is called by:
  1264 ;;		_main
  1265 ;; This function uses a non-reentrant model
  1266 ;;
  1267                           
  1268                           	psect	text1
  1269   0104D0                     __ptext1:
  1270                           	callstack 0
  1271   0104D0                     _vis_menu_P:
  1272                           	callstack 120
  1273   0104D0                     
  1274                           ;maincode02.c: 35:     U1_STRING_SEND("*******************************");
  1275   0104D0  0E66               	movlw	low STR_1
  1276   0104D2  6E15               	movwf	U1_STRING_SEND@cadena^(0+1280),c
  1277   0104D4  0EFF               	movlw	high STR_1
  1278   0104D6  6E16               	movwf	(U1_STRING_SEND@cadena+1)^(0+1280),c
  1279   0104D8  ECCE  F084         	call	_U1_STRING_SEND	;wreg free
  1280   0104DC                     
  1281                           ;maincode02.c: 36:     U1_NEWLINE();
  1282   0104DC  EC69  F086         	call	_U1_NEWLINE	;wreg free
  1283   0104E0                     
  1284                           ;maincode02.c: 37:     U1_STRING_SEND("*                             *");
  1285   0104E0  0E46               	movlw	low STR_2
  1286   0104E2  6E15               	movwf	U1_STRING_SEND@cadena^(0+1280),c
  1287   0104E4  0EFD               	movlw	high STR_2
  1288   0104E6  6E16               	movwf	(U1_STRING_SEND@cadena+1)^(0+1280),c
  1289   0104E8  ECCE  F084         	call	_U1_STRING_SEND	;wreg free
  1290                           
  1291                           ;maincode02.c: 38:     U1_NEWLINE();
  1292   0104EC  EC69  F086         	call	_U1_NEWLINE	;wreg free
  1293   0104F0                     
  1294                           ;maincode02.c: 39:     U1_STRING_SEND("* Bienvenidos a la aplicacion *");
  1295   0104F0  0E46               	movlw	low STR_3
  1296   0104F2  6E15               	movwf	U1_STRING_SEND@cadena^(0+1280),c
  1297   0104F4  0EFF               	movlw	high STR_3
  1298   0104F6  6E16               	movwf	(U1_STRING_SEND@cadena+1)^(0+1280),c
  1299   0104F8  ECCE  F084         	call	_U1_STRING_SEND	;wreg free
  1300   0104FC                     
  1301                           ;maincode02.c: 40:     U1_NEWLINE();
  1302   0104FC  EC69  F086         	call	_U1_NEWLINE	;wreg free
  1303                           
  1304                           ;maincode02.c: 41:     U1_STRING_SEND("* Desarrollado por Kalun Lau  *");
  1305   010500  0E26               	movlw	low STR_4
  1306   010502  6E15               	movwf	U1_STRING_SEND@cadena^(0+1280),c
  1307   010504  0EFF               	movlw	high STR_4
  1308   010506  6E16               	movwf	(U1_STRING_SEND@cadena+1)^(0+1280),c
  1309   010508  ECCE  F084         	call	_U1_STRING_SEND	;wreg free
  1310   01050C                     
  1311                           ;maincode02.c: 42:     U1_NEWLINE();
  1312   01050C  EC69  F086         	call	_U1_NEWLINE	;wreg free
  1313   010510                     
  1314                           ;maincode02.c: 43:     U1_STRING_SEND("*                             *");
  1315   010510  0E46               	movlw	low STR_2
  1316   010512  6E15               	movwf	U1_STRING_SEND@cadena^(0+1280),c
  1317   010514  0EFD               	movlw	high STR_2
  1318   010516  6E16               	movwf	(U1_STRING_SEND@cadena+1)^(0+1280),c
  1319   010518  ECCE  F084         	call	_U1_STRING_SEND	;wreg free
  1320                           
  1321                           ;maincode02.c: 44:     U1_NEWLINE();
  1322   01051C  EC69  F086         	call	_U1_NEWLINE	;wreg free
  1323   010520                     
  1324                           ;maincode02.c: 45:     U1_STRING_SEND("*      .--.                   *");
  1325   010520  0E66               	movlw	low STR_6
  1326   010522  6E15               	movwf	U1_STRING_SEND@cadena^(0+1280),c
  1327   010524  0EFD               	movlw	high STR_6
  1328   010526  6E16               	movwf	(U1_STRING_SEND@cadena+1)^(0+1280),c
  1329   010528  ECCE  F084         	call	_U1_STRING_SEND	;wreg free
  1330   01052C                     
  1331                           ;maincode02.c: 46:     U1_NEWLINE();
  1332   01052C  EC69  F086         	call	_U1_NEWLINE	;wreg free
  1333                           
  1334                           ;maincode02.c: 47:     U1_STRING_SEND("*      |__| .-------.         *");
  1335   010530  0E06               	movlw	low STR_7
  1336   010532  6E15               	movwf	U1_STRING_SEND@cadena^(0+1280),c
  1337   010534  0EFE               	movlw	high STR_7
  1338   010536  6E16               	movwf	(U1_STRING_SEND@cadena+1)^(0+1280),c
  1339   010538  ECCE  F084         	call	_U1_STRING_SEND	;wreg free
  1340   01053C                     
  1341                           ;maincode02.c: 48:     U1_NEWLINE();
  1342   01053C  EC69  F086         	call	_U1_NEWLINE	;wreg free
  1343   010540                     
  1344                           ;maincode02.c: 49:     U1_STRING_SEND("*      |=.| |.-----.|         *");
  1345   010540  0E46               	movlw	low STR_8
  1346   010542  6E15               	movwf	U1_STRING_SEND@cadena^(0+1280),c
  1347   010544  0EFE               	movlw	high STR_8
  1348   010546  6E16               	movwf	(U1_STRING_SEND@cadena+1)^(0+1280),c
  1349   010548  ECCE  F084         	call	_U1_STRING_SEND	;wreg free
  1350                           
  1351                           ;maincode02.c: 50:     U1_NEWLINE();
  1352   01054C  EC69  F086         	call	_U1_NEWLINE	;wreg free
  1353   010550                     
  1354                           ;maincode02.c: 51:     U1_STRING_SEND("*      |--| || KCK ||         *");
  1355   010550  0E66               	movlw	low STR_9
  1356   010552  6E15               	movwf	U1_STRING_SEND@cadena^(0+1280),c
  1357   010554  0EFE               	movlw	high STR_9
  1358   010556  6E16               	movwf	(U1_STRING_SEND@cadena+1)^(0+1280),c
  1359   010558  ECCE  F084         	call	_U1_STRING_SEND	;wreg free
  1360   01055C                     
  1361                           ;maincode02.c: 52:     U1_NEWLINE();
  1362   01055C  EC69  F086         	call	_U1_NEWLINE	;wreg free
  1363                           
  1364                           ;maincode02.c: 53:     U1_STRING_SEND("*      |  | |'-----'|         *");
  1365   010560  0E26               	movlw	low STR_10
  1366   010562  6E15               	movwf	U1_STRING_SEND@cadena^(0+1280),c
  1367   010564  0EFE               	movlw	high STR_10
  1368   010566  6E16               	movwf	(U1_STRING_SEND@cadena+1)^(0+1280),c
  1369   010568  ECCE  F084         	call	_U1_STRING_SEND	;wreg free
  1370   01056C                     
  1371                           ;maincode02.c: 54:     U1_NEWLINE();
  1372   01056C  EC69  F086         	call	_U1_NEWLINE	;wreg free
  1373   010570                     
  1374                           ;maincode02.c: 55:     U1_STRING_SEND("*      |__|~')_____('         *");
  1375   010570  0EE6               	movlw	low STR_11
  1376   010572  6E15               	movwf	U1_STRING_SEND@cadena^(0+1280),c
  1377   010574  0EFD               	movlw	high STR_11
  1378   010576  6E16               	movwf	(U1_STRING_SEND@cadena+1)^(0+1280),c
  1379   010578  ECCE  F084         	call	_U1_STRING_SEND	;wreg free
  1380                           
  1381                           ;maincode02.c: 56:     U1_NEWLINE();
  1382   01057C  EC69  F086         	call	_U1_NEWLINE	;wreg free
  1383   010580                     
  1384                           ;maincode02.c: 57:     U1_STRING_SEND("*                             *");
  1385   010580  0E46               	movlw	low STR_2
  1386   010582  6E15               	movwf	U1_STRING_SEND@cadena^(0+1280),c
  1387   010584  0EFD               	movlw	high STR_2
  1388   010586  6E16               	movwf	(U1_STRING_SEND@cadena+1)^(0+1280),c
  1389   010588  ECCE  F084         	call	_U1_STRING_SEND	;wreg free
  1390   01058C                     
  1391                           ;maincode02.c: 58:     U1_NEWLINE();
  1392   01058C  EC69  F086         	call	_U1_NEWLINE	;wreg free
  1393                           
  1394                           ;maincode02.c: 59:     U1_STRING_SEND("* Elija opcion:               *");
  1395   010590  0EA6               	movlw	low STR_13
  1396   010592  6E15               	movwf	U1_STRING_SEND@cadena^(0+1280),c
  1397   010594  0EFD               	movlw	high STR_13
  1398   010596  6E16               	movwf	(U1_STRING_SEND@cadena+1)^(0+1280),c
  1399   010598  ECCE  F084         	call	_U1_STRING_SEND	;wreg free
  1400   01059C                     
  1401                           ;maincode02.c: 60:     U1_NEWLINE();
  1402   01059C  EC69  F086         	call	_U1_NEWLINE	;wreg free
  1403   0105A0                     
  1404                           ;maincode02.c: 61:     U1_STRING_SEND("* (1) Enciende el LED en RE0  *");
  1405   0105A0  0E06               	movlw	low STR_14
  1406   0105A2  6E15               	movwf	U1_STRING_SEND@cadena^(0+1280),c
  1407   0105A4  0EFF               	movlw	high STR_14
  1408   0105A6  6E16               	movwf	(U1_STRING_SEND@cadena+1)^(0+1280),c
  1409   0105A8  ECCE  F084         	call	_U1_STRING_SEND	;wreg free
  1410                           
  1411                           ;maincode02.c: 62:     U1_NEWLINE();
  1412   0105AC  EC69  F086         	call	_U1_NEWLINE	;wreg free
  1413   0105B0                     
  1414                           ;maincode02.c: 63:     U1_STRING_SEND("* (2) Apaga el LED en RE0     *");
  1415   0105B0  0EC6               	movlw	low STR_15
  1416   0105B2  6E15               	movwf	U1_STRING_SEND@cadena^(0+1280),c
  1417   0105B4  0EFE               	movlw	high STR_15
  1418   0105B6  6E16               	movwf	(U1_STRING_SEND@cadena+1)^(0+1280),c
  1419   0105B8  ECCE  F084         	call	_U1_STRING_SEND	;wreg free
  1420   0105BC                     
  1421                           ;maincode02.c: 64:     U1_NEWLINE();
  1422   0105BC  EC69  F086         	call	_U1_NEWLINE	;wreg free
  1423                           
  1424                           ;maincode02.c: 65:     U1_STRING_SEND("* (p) Controlar el LCD        *");
  1425   0105C0  0E86               	movlw	low STR_16
  1426   0105C2  6E15               	movwf	U1_STRING_SEND@cadena^(0+1280),c
  1427   0105C4  0EFE               	movlw	high STR_16
  1428   0105C6  6E16               	movwf	(U1_STRING_SEND@cadena+1)^(0+1280),c
  1429   0105C8  ECCE  F084         	call	_U1_STRING_SEND	;wreg free
  1430   0105CC                     
  1431                           ;maincode02.c: 66:     U1_NEWLINE();
  1432   0105CC  EC69  F086         	call	_U1_NEWLINE	;wreg free
  1433   0105D0                     
  1434                           ;maincode02.c: 67:     U1_STRING_SEND("* (m) Visualiza el menu       *");
  1435   0105D0  0EA6               	movlw	low STR_17
  1436   0105D2  6E15               	movwf	U1_STRING_SEND@cadena^(0+1280),c
  1437   0105D4  0EFE               	movlw	high STR_17
  1438   0105D6  6E16               	movwf	(U1_STRING_SEND@cadena+1)^(0+1280),c
  1439   0105D8  ECCE  F084         	call	_U1_STRING_SEND	;wreg free
  1440                           
  1441                           ;maincode02.c: 68:     U1_NEWLINE();
  1442   0105DC  EC69  F086         	call	_U1_NEWLINE	;wreg free
  1443   0105E0                     
  1444                           ;maincode02.c: 69:     U1_STRING_SEND("*                             *");
  1445   0105E0  0E46               	movlw	low STR_2
  1446   0105E2  6E15               	movwf	U1_STRING_SEND@cadena^(0+1280),c
  1447   0105E4  0EFD               	movlw	high STR_2
  1448   0105E6  6E16               	movwf	(U1_STRING_SEND@cadena+1)^(0+1280),c
  1449   0105E8  ECCE  F084         	call	_U1_STRING_SEND	;wreg free
  1450   0105EC                     
  1451                           ;maincode02.c: 70:     U1_NEWLINE();
  1452   0105EC  EC69  F086         	call	_U1_NEWLINE	;wreg free
  1453                           
  1454                           ;maincode02.c: 71:     U1_STRING_SEND("*******************************");
  1455   0105F0  0E66               	movlw	low STR_1
  1456   0105F2  6E15               	movwf	U1_STRING_SEND@cadena^(0+1280),c
  1457   0105F4  0EFF               	movlw	high STR_1
  1458   0105F6  6E16               	movwf	(U1_STRING_SEND@cadena+1)^(0+1280),c
  1459   0105F8  ECCE  F084         	call	_U1_STRING_SEND	;wreg free
  1460   0105FC                     
  1461                           ;maincode02.c: 72:     U1_NEWLINE();
  1462   0105FC  EC69  F086         	call	_U1_NEWLINE	;wreg free
  1463   010600  0012               	return		;funcret
  1464   010602                     __end_of_vis_menu_P:
  1465                           	callstack 0
  1466                           
  1467 ;; *************** function _U1_STRING_SEND *****************
  1468 ;; Defined at:
  1469 ;;		line 47 in file "LIB_UART.c"
  1470 ;; Parameters:    Size  Location     Type
  1471 ;;  cadena          2   20[COMRAM] PTR const unsigned char 
  1472 ;;		 -> STR_38(35), STR_36(37), STR_34(37), STR_33(12), 
  1473 ;;		 -> STR_32(35), STR_31(13), STR_30(15), STR_29(32), 
  1474 ;;		 -> STR_28(32), STR_27(32), STR_26(32), STR_25(32), 
  1475 ;;		 -> STR_24(32), STR_23(32), STR_22(32), STR_21(32), 
  1476 ;;		 -> STR_20(32), STR_19(32), STR_18(32), STR_17(32), 
  1477 ;;		 -> STR_16(32), STR_15(32), STR_14(32), STR_13(32), 
  1478 ;;		 -> STR_12(32), STR_11(32), STR_10(32), STR_9(32), 
  1479 ;;		 -> STR_8(32), STR_7(32), STR_6(32), STR_5(32), 
  1480 ;;		 -> STR_4(32), STR_3(32), STR_2(32), STR_1(32), 
  1481 ;; Auto vars:     Size  Location     Type
  1482 ;;  i               1   25[COMRAM] unsigned char 
  1483 ;;  tam             1   24[COMRAM] unsigned char 
  1484 ;; Return value:  Size  Location     Type
  1485 ;;                  1    wreg      void 
  1486 ;; Registers used:
  1487 ;;		wreg, status,2, status,0, tblptrl, tblptrh, tblptru, cstack
  1488 ;; Tracked objects:
  1489 ;;		On entry : 0/0
  1490 ;;		On exit  : 0/0
  1491 ;;		Unchanged: 0/0
  1492 ;; Data sizes:     COMRAM   BANK5   BANK6   BANK7   BANK8   BANK9  BANK10  BANK11  BANK12  BANK13  BANK14  BANK15  BANK1
      +6  BANK17  BANK18  BANK19  BANK20  BANK21  BANK22  BANK23  BANK24  BANK25  BANK26  BANK27  BANK28  BANK29  BANK30  BANK3
      +1  BANK32  BANK33  BANK34  BANK35  BANK36
  1493 ;;      Params:         2       0       0       0       0       0       0       0       0       0       0       0       
      +0       0       0       0       0       0       0       0       0       0       0       0       0       0       0       
      +0       0       0       0       0       0
  1494 ;;      Locals:         2       0       0       0       0       0       0       0       0       0       0       0       
      +0       0       0       0       0       0       0       0       0       0       0       0       0       0       0       
      +0       0       0       0       0       0
  1495 ;;      Temps:          2       0       0       0       0       0       0       0       0       0       0       0       
      +0       0       0       0       0       0       0       0       0       0       0       0       0       0       0       
      +0       0       0       0       0       0
  1496 ;;      Totals:         6       0       0       0       0       0       0       0       0       0       0       0       
      +0       0       0       0       0       0       0       0       0       0       0       0       0       0       0       
      +0       0       0       0       0       0
  1497 ;;Total ram usage:        6 bytes
  1498 ;; Hardware stack levels used: 1
  1499 ;; Hardware stack levels required when called: 5
  1500 ;; This function calls:
  1501 ;;		_U1_BYTE_SEND
  1502 ;;		_strlen
  1503 ;; This function is called by:
  1504 ;;		_vis_menu_P
  1505 ;; This function uses a non-reentrant model
  1506 ;;
  1507                           
  1508                           	psect	text2
  1509   01099C                     __ptext2:
  1510                           	callstack 0
  1511   01099C                     _U1_STRING_SEND:
  1512                           	callstack 120
  1513   01099C                     
  1514                           ;LIB_UART.c: 47: void U1_STRING_SEND(const char *cadena);LIB_UART.c: 48: {;LIB_UART.c: 4
      +                          9:     unsigned char tam;;LIB_UART.c: 50:     tam = strlen(cadena);
  1515   01099C  C515  F511         	movff	U1_STRING_SEND@cadena,strlen@s
  1516   0109A0  C516  F512         	movff	U1_STRING_SEND@cadena+1,strlen@s+1
  1517   0109A4  ECAA  F085         	call	_strlen	;wreg free
  1518   0109A8  5011               	movf	?_strlen^(0+1280),w,c
  1519   0109AA  6E19               	movwf	U1_STRING_SEND@tam^(0+1280),c
  1520   0109AC                     
  1521                           ;LIB_UART.c: 52:  for(i = 0; i<tam; i++)
  1522   0109AC  0E00               	movlw	0
  1523   0109AE  6E1A               	movwf	U1_STRING_SEND@i^(0+1280),c
  1524   0109B0  EFEB  F084         	goto	l1985
  1525   0109B4                     l1981:
  1526                           
  1527                           ;LIB_UART.c: 53:  {;LIB_UART.c: 54:   U1_BYTE_SEND(cadena[i]);
  1528   0109B4  501A               	movf	U1_STRING_SEND@i^(0+1280),w,c
  1529   0109B6  2415               	addwf	U1_STRING_SEND@cadena^(0+1280),w,c
  1530   0109B8  6E17               	movwf	??_U1_STRING_SEND^(0+1280),c
  1531   0109BA  0E00               	movlw	0
  1532   0109BC  2016               	addwfc	(U1_STRING_SEND@cadena+1)^(0+1280),w,c
  1533   0109BE  6E18               	movwf	(??_U1_STRING_SEND+1)^(0+1280),c
  1534   0109C0  C517  F4F6         	movff	??_U1_STRING_SEND,tblptrl
  1535   0109C4  C518  F4F7         	movff	??_U1_STRING_SEND+1,tblptrh
  1536   0109C8                     	if	0	;tblptru may be non-zero
  1537   0109C8                     	endif
  1538   0109C8                     	if	1	;Program memory is > 0xFFFF, there are 3 active tblptr bytes
  1539   0109C8  0E00               	movlw	low (__mediumconst shr (0+16))
  1540   0109CA  6EF8               	movwf	tblptru,c
  1541   0109CC                     	endif
  1542   0109CC  0008               	tblrd		*
  1543   0109CE  50F5               	movf	tablat,w,c
  1544   0109D0  EC51  F086         	call	_U1_BYTE_SEND
  1545   0109D4                     
  1546                           ;LIB_UART.c: 55:  }
  1547   0109D4  2A1A               	incf	U1_STRING_SEND@i^(0+1280),f,c
  1548   0109D6                     l1985:
  1549   0109D6  5019               	movf	U1_STRING_SEND@tam^(0+1280),w,c
  1550   0109D8  5C1A               	subwf	U1_STRING_SEND@i^(0+1280),w,c
  1551   0109DA  A0D8               	btfss	status,0,c
  1552   0109DC  EFF2  F084         	goto	u461
  1553   0109E0  EFF4  F084         	goto	u460
  1554   0109E4                     u461:
  1555   0109E4  EFDA  F084         	goto	l1981
  1556   0109E8                     u460:
  1557   0109E8  0012               	return		;funcret
  1558   0109EA                     __end_of_U1_STRING_SEND:
  1559                           	callstack 0
  1560                           
  1561 ;; *************** function _strlen *****************
  1562 ;; Defined at:
  1563 ;;		line 5 in file "C:\Program Files\Microchip\xc8\v2.46\pic\sources\c99\common\strlen.c"
  1564 ;; Parameters:    Size  Location     Type
  1565 ;;  s               2   16[COMRAM] PTR const unsigned char 
  1566 ;;		 -> STR_38(35), STR_37(8), STR_36(37), STR_35(8), 
  1567 ;;		 -> STR_34(37), STR_33(12), STR_32(35), STR_31(13), 
  1568 ;;		 -> STR_30(15), STR_29(32), STR_28(32), STR_27(32), 
  1569 ;;		 -> STR_26(32), STR_25(32), STR_24(32), STR_23(32), 
  1570 ;;		 -> STR_22(32), STR_21(32), STR_20(32), STR_19(32), 
  1571 ;;		 -> STR_18(32), STR_17(32), STR_16(32), STR_15(32), 
  1572 ;;		 -> STR_14(32), STR_13(32), STR_12(32), STR_11(32), 
  1573 ;;		 -> STR_10(32), STR_9(32), STR_8(32), STR_7(32), 
  1574 ;;		 -> STR_6(32), STR_5(32), STR_4(32), STR_3(32), 
  1575 ;;		 -> STR_2(32), STR_1(32), 
  1576 ;; Auto vars:     Size  Location     Type
  1577 ;;  a               2   18[COMRAM] PTR const unsigned char 
  1578 ;;		 -> STR_38(35), STR_37(8), STR_36(37), STR_35(8), 
  1579 ;;		 -> STR_34(37), STR_33(12), STR_32(35), STR_31(13), 
  1580 ;;		 -> STR_30(15), STR_29(32), STR_28(32), STR_27(32), 
  1581 ;;		 -> STR_26(32), STR_25(32), STR_24(32), STR_23(32), 
  1582 ;;		 -> STR_22(32), STR_21(32), STR_20(32), STR_19(32), 
  1583 ;;		 -> STR_18(32), STR_17(32), STR_16(32), STR_15(32), 
  1584 ;;		 -> STR_14(32), STR_13(32), STR_12(32), STR_11(32), 
  1585 ;;		 -> STR_10(32), STR_9(32), STR_8(32), STR_7(32), 
  1586 ;;		 -> STR_6(32), STR_5(32), STR_4(32), STR_3(32), 
  1587 ;;		 -> STR_2(32), STR_1(32), 
  1588 ;; Return value:  Size  Location     Type
  1589 ;;                  2   16[COMRAM] unsigned int 
  1590 ;; Registers used:
  1591 ;;		wreg, status,2, status,0, tblptrl, tblptrh, tblptru
  1592 ;; Tracked objects:
  1593 ;;		On entry : 0/0
  1594 ;;		On exit  : 0/0
  1595 ;;		Unchanged: 0/0
  1596 ;; Data sizes:     COMRAM   BANK5   BANK6   BANK7   BANK8   BANK9  BANK10  BANK11  BANK12  BANK13  BANK14  BANK15  BANK1
      +6  BANK17  BANK18  BANK19  BANK20  BANK21  BANK22  BANK23  BANK24  BANK25  BANK26  BANK27  BANK28  BANK29  BANK30  BANK3
      +1  BANK32  BANK33  BANK34  BANK35  BANK36
  1597 ;;      Params:         2       0       0       0       0       0       0       0       0       0       0       0       
      +0       0       0       0       0       0       0       0       0       0       0       0       0       0       0       
      +0       0       0       0       0       0
  1598 ;;      Locals:         2       0       0       0       0       0       0       0       0       0       0       0       
      +0       0       0       0       0       0       0       0       0       0       0       0       0       0       0       
      +0       0       0       0       0       0
  1599 ;;      Temps:          0       0       0       0       0       0       0       0       0       0       0       0       
      +0       0       0       0       0       0       0       0       0       0       0       0       0       0       0       
      +0       0       0       0       0       0
  1600 ;;      Totals:         4       0       0       0       0       0       0       0       0       0       0       0       
      +0       0       0       0       0       0       0       0       0       0       0       0       0       0       0       
      +0       0       0       0       0       0
  1601 ;;Total ram usage:        4 bytes
  1602 ;; Hardware stack levels used: 1
  1603 ;; Hardware stack levels required when called: 4
  1604 ;; This function calls:
  1605 ;;		Nothing
  1606 ;; This function is called by:
  1607 ;;		_U1_STRING_SEND
  1608 ;; This function uses a non-reentrant model
  1609 ;;
  1610                           
  1611                           	psect	text3
  1612   010B54                     __ptext3:
  1613                           	callstack 0
  1614   010B54                     _strlen:
  1615                           	callstack 120
  1616   010B54  C511  F513         	movff	strlen@s,strlen@a
  1617   010B58  C512  F514         	movff	strlen@s+1,strlen@a+1
  1618   010B5C  EFB2  F085         	goto	l1929
  1619   010B60                     l1927:
  1620   010B60  4A11               	infsnz	strlen@s^(0+1280),f,c
  1621   010B62  2A12               	incf	(strlen@s+1)^(0+1280),f,c
  1622   010B64                     l1929:
  1623   010B64  C511  F4F6         	movff	strlen@s,tblptrl
  1624   010B68  C512  F4F7         	movff	strlen@s+1,tblptrh
  1625   010B6C                     	if	0	;tblptru may be non-zero
  1626   010B6C                     	endif
  1627   010B6C                     	if	1	;Program memory is > 0xFFFF, there are 3 active tblptr bytes
  1628   010B6C  0E00               	movlw	low (__mediumconst shr (0+16))
  1629   010B6E  6EF8               	movwf	tblptru,c
  1630   010B70                     	endif
  1631   010B70  0008               	tblrd		*
  1632   010B72  50F5               	movf	tablat,w,c
  1633   010B74  0900               	iorlw	0
  1634   010B76  A4D8               	btfss	status,2,c
  1635   010B78  EFC0  F085         	goto	u381
  1636   010B7C  EFC2  F085         	goto	u380
  1637   010B80                     u381:
  1638   010B80  EFB0  F085         	goto	l1927
  1639   010B84                     u380:
  1640   010B84  5013               	movf	strlen@a^(0+1280),w,c
  1641   010B86  5C11               	subwf	strlen@s^(0+1280),w,c
  1642   010B88  6E11               	movwf	?_strlen^(0+1280),c
  1643   010B8A  5014               	movf	(strlen@a+1)^(0+1280),w,c
  1644   010B8C  5812               	subwfb	(strlen@s+1)^(0+1280),w,c
  1645   010B8E  6E12               	movwf	(?_strlen+1)^(0+1280),c
  1646   010B90  0012               	return		;funcret
  1647   010B92                     __end_of_strlen:
  1648                           	callstack 0
  1649                           
  1650 ;; *************** function _U1_NEWLINE *****************
  1651 ;; Defined at:
  1652 ;;		line 201 in file "LIB_UART.c"
  1653 ;; Parameters:    Size  Location     Type
  1654 ;;		None
  1655 ;; Auto vars:     Size  Location     Type
  1656 ;;		None
  1657 ;; Return value:  Size  Location     Type
  1658 ;;                  1    wreg      void 
  1659 ;; Registers used:
  1660 ;;		wreg, cstack
  1661 ;; Tracked objects:
  1662 ;;		On entry : 0/0
  1663 ;;		On exit  : 0/0
  1664 ;;		Unchanged: 0/0
  1665 ;; Data sizes:     COMRAM   BANK5   BANK6   BANK7   BANK8   BANK9  BANK10  BANK11  BANK12  BANK13  BANK14  BANK15  BANK1
      +6  BANK17  BANK18  BANK19  BANK20  BANK21  BANK22  BANK23  BANK24  BANK25  BANK26  BANK27  BANK28  BANK29  BANK30  BANK3
      +1  BANK32  BANK33  BANK34  BANK35  BANK36
  1666 ;;      Params:         0       0       0       0       0       0       0       0       0       0       0       0       
      +0       0       0       0       0       0       0       0       0       0       0       0       0       0       0       
      +0       0       0       0       0       0
  1667 ;;      Locals:         0       0       0       0       0       0       0       0       0       0       0       0       
      +0       0       0       0       0       0       0       0       0       0       0       0       0       0       0       
      +0       0       0       0       0       0
  1668 ;;      Temps:          0       0       0       0       0       0       0       0       0       0       0       0       
      +0       0       0       0       0       0       0       0       0       0       0       0       0       0       0       
      +0       0       0       0       0       0
  1669 ;;      Totals:         0       0       0       0       0       0       0       0       0       0       0       0       
      +0       0       0       0       0       0       0       0       0       0       0       0       0       0       0       
      +0       0       0       0       0       0
  1670 ;;Total ram usage:        0 bytes
  1671 ;; Hardware stack levels used: 1
  1672 ;; Hardware stack levels required when called: 5
  1673 ;; This function calls:
  1674 ;;		_U1_BYTE_SEND
  1675 ;; This function is called by:
  1676 ;;		_vis_menu_P
  1677 ;; This function uses a non-reentrant model
  1678 ;;
  1679                           
  1680                           	psect	text4
  1681   010CD2                     __ptext4:
  1682                           	callstack 0
  1683   010CD2                     _U1_NEWLINE:
  1684                           	callstack 120
  1685   010CD2                     
  1686                           ;LIB_UART.c: 202:     U1_BYTE_SEND(0x0A);
  1687   010CD2  0E0A               	movlw	10
  1688   010CD4  EC51  F086         	call	_U1_BYTE_SEND
  1689                           
  1690                           ;LIB_UART.c: 203:     U1_BYTE_SEND(0x0D);
  1691   010CD8  0E0D               	movlw	13
  1692   010CDA  EC51  F086         	call	_U1_BYTE_SEND
  1693   010CDE  0012               	return		;funcret
  1694   010CE0                     __end_of_U1_NEWLINE:
  1695                           	callstack 0
  1696                           
  1697 ;; *************** function _U1_BYTE_SEND *****************
  1698 ;; Defined at:
  1699 ;;		line 41 in file "LIB_UART.c"
  1700 ;; Parameters:    Size  Location     Type
  1701 ;;  dato            1    wreg     unsigned char 
  1702 ;; Auto vars:     Size  Location     Type
  1703 ;;  dato            1   16[COMRAM] unsigned char 
  1704 ;; Return value:  Size  Location     Type
  1705 ;;                  1    wreg      void 
  1706 ;; Registers used:
  1707 ;;		wreg
  1708 ;; Tracked objects:
  1709 ;;		On entry : 0/0
  1710 ;;		On exit  : 0/0
  1711 ;;		Unchanged: 0/0
  1712 ;; Data sizes:     COMRAM   BANK5   BANK6   BANK7   BANK8   BANK9  BANK10  BANK11  BANK12  BANK13  BANK14  BANK15  BANK1
      +6  BANK17  BANK18  BANK19  BANK20  BANK21  BANK22  BANK23  BANK24  BANK25  BANK26  BANK27  BANK28  BANK29  BANK30  BANK3
      +1  BANK32  BANK33  BANK34  BANK35  BANK36
  1713 ;;      Params:         0       0       0       0       0       0       0       0       0       0       0       0       
      +0       0       0       0       0       0       0       0       0       0       0       0       0       0       0       
      +0       0       0       0       0       0
  1714 ;;      Locals:         1       0       0       0       0       0       0       0       0       0       0       0       
      +0       0       0       0       0       0       0       0       0       0       0       0       0       0       0       
      +0       0       0       0       0       0
  1715 ;;      Temps:          0       0       0       0       0       0       0       0       0       0       0       0       
      +0       0       0       0       0       0       0       0       0       0       0       0       0       0       0       
      +0       0       0       0       0       0
  1716 ;;      Totals:         1       0       0       0       0       0       0       0       0       0       0       0       
      +0       0       0       0       0       0       0       0       0       0       0       0       0       0       0       
      +0       0       0       0       0       0
  1717 ;;Total ram usage:        1 bytes
  1718 ;; Hardware stack levels used: 1
  1719 ;; Hardware stack levels required when called: 4
  1720 ;; This function calls:
  1721 ;;		Nothing
  1722 ;; This function is called by:
  1723 ;;		_U1_STRING_SEND
  1724 ;;		_U1_NEWLINE
  1725 ;;		_U1_VAR_CHAR
  1726 ;;		_U1_VAR_INT
  1727 ;; This function uses a non-reentrant model
  1728 ;;
  1729                           
  1730                           	psect	text5
  1731   010CA2                     __ptext5:
  1732                           	callstack 0
  1733   010CA2                     _U1_BYTE_SEND:
  1734                           	callstack 120
  1735                           
  1736                           ;incstack = 0
  1737                           ;U1_BYTE_SEND@dato stored from wreg
  1738   010CA2  6E11               	movwf	U1_BYTE_SEND@dato^(0+1280),c
  1739   010CA4                     
  1740                           ;LIB_UART.c: 42:     U1TXB = dato;
  1741   010CA4  C511  F2A3         	movff	U1_BYTE_SEND@dato,675	;volatile
  1742   010CA8                     l30:
  1743   010CA8  0102               	movlb	2	; () banked
  1744   010CAA  AFB2               	btfss	178,7,b	;volatile
  1745   010CAC  EF5A  F086         	goto	u41
  1746   010CB0  EF5C  F086         	goto	u40
  1747   010CB4                     u41:
  1748   010CB4  EF54  F086         	goto	l30
  1749   010CB8                     u40:
  1750   010CB8                     
  1751                           ; BSR set to: 2
  1752   010CB8  0012               	return		;funcret
  1753   010CBA                     __end_of_U1_BYTE_SEND:
  1754                           	callstack 0
  1755                           
  1756 ;; *************** function _configuro *****************
  1757 ;; Defined at:
  1758 ;;		line 16 in file "maincode02.c"
  1759 ;; Parameters:    Size  Location     Type
  1760 ;;		None
  1761 ;; Auto vars:     Size  Location     Type
  1762 ;;		None
  1763 ;; Return value:  Size  Location     Type
  1764 ;;                  1    wreg      void 
  1765 ;; Registers used:
  1766 ;;		wreg, status,2, status,0, cstack
  1767 ;; Tracked objects:
  1768 ;;		On entry : 0/0
  1769 ;;		On exit  : 0/0
  1770 ;;		Unchanged: 0/0
  1771 ;; Data sizes:     COMRAM   BANK5   BANK6   BANK7   BANK8   BANK9  BANK10  BANK11  BANK12  BANK13  BANK14  BANK15  BANK1
      +6  BANK17  BANK18  BANK19  BANK20  BANK21  BANK22  BANK23  BANK24  BANK25  BANK26  BANK27  BANK28  BANK29  BANK30  BANK3
      +1  BANK32  BANK33  BANK34  BANK35  BANK36
  1772 ;;      Params:         0       0       0       0       0       0       0       0       0       0       0       0       
      +0       0       0       0       0       0       0       0       0       0       0       0       0       0       0       
      +0       0       0       0       0       0
  1773 ;;      Locals:         0       0       0       0       0       0       0       0       0       0       0       0       
      +0       0       0       0       0       0       0       0       0       0       0       0       0       0       0       
      +0       0       0       0       0       0
  1774 ;;      Temps:          0       0       0       0       0       0       0       0       0       0       0       0       
      +0       0       0       0       0       0       0       0       0       0       0       0       0       0       0       
      +0       0       0       0       0       0
  1775 ;;      Totals:         0       0       0       0       0       0       0       0       0       0       0       0       
      +0       0       0       0       0       0       0       0       0       0       0       0       0       0       0       
      +0       0       0       0       0       0
  1776 ;;Total ram usage:        0 bytes
  1777 ;; Hardware stack levels used: 1
  1778 ;; Hardware stack levels required when called: 8
  1779 ;; This function calls:
  1780 ;;		_I2C_LCD_INIT
  1781 ;;		_U1_INIT
  1782 ;; This function is called by:
  1783 ;;		_main
  1784 ;; This function uses a non-reentrant model
  1785 ;;
  1786                           
  1787                           	psect	text6
  1788   010C00                     __ptext6:
  1789                           	callstack 0
  1790   010C00                     _configuro:
  1791                           	callstack 118
  1792   010C00                     
  1793                           ;maincode02.c: 18:     OSCCON1 = 0x60;
  1794   010C00  0E60               	movlw	96
  1795   010C02  0100               	movlb	0	; () banked
  1796   010C04  6FAD               	movwf	173,b	;volatile
  1797                           
  1798                           ;maincode02.c: 19:     OSCFRQ = 0x06;
  1799   010C06  0E06               	movlw	6
  1800   010C08  6FB1               	movwf	177,b	;volatile
  1801                           
  1802                           ;maincode02.c: 20:     OSCEN = 0x40;
  1803   010C0A  0E40               	movlw	64
  1804   010C0C  6FB3               	movwf	179,b	;volatile
  1805   010C0E                     
  1806                           ; BSR set to: 0
  1807                           ;maincode02.c: 22:     TRISEbits.TRISE0 = 0;
  1808   010C0E  90CA               	bcf	202,0,c	;volatile
  1809   010C10                     
  1810                           ; BSR set to: 0
  1811                           ;maincode02.c: 23:     ANSELEbits.ANSELE0 = 0;
  1812   010C10  0104               	movlb	4	; () banked
  1813   010C12  9120               	bcf	32,0,b	;volatile
  1814   010C14                     
  1815                           ; BSR set to: 4
  1816                           ;maincode02.c: 25:     U1_INIT(34);
  1817   010C14  0E00               	movlw	0
  1818   010C16  6E12               	movwf	(U1_INIT@velocidad+1)^(0+1280),c
  1819   010C18  0E22               	movlw	34
  1820   010C1A  6E11               	movwf	U1_INIT@velocidad^(0+1280),c
  1821   010C1C  EC3E  F086         	call	_U1_INIT	;wreg free
  1822   010C20                     
  1823                           ;maincode02.c: 27:     PIE4bits.U1RXIE = 1;
  1824   010C20  80A2               	bsf	162,0,c	;volatile
  1825   010C22                     
  1826                           ;maincode02.c: 28:     PIR4bits.U1RXIF = 0;
  1827   010C22  90B2               	bcf	178,0,c	;volatile
  1828   010C24                     
  1829                           ;maincode02.c: 29:     INTCON0bits.GIE = 1;
  1830   010C24  8ED6               	bsf	214,7,c	;volatile
  1831   010C26                     
  1832                           ;maincode02.c: 31:     I2C_LCD_INIT();
  1833   010C26  EC00  F080         	call	_I2C_LCD_INIT	;wreg free
  1834   010C2A  0012               	return		;funcret
  1835   010C2C                     __end_of_configuro:
  1836                           	callstack 0
  1837                           
  1838 ;; *************** function _U1_INIT *****************
  1839 ;; Defined at:
  1840 ;;		line 23 in file "LIB_UART.c"
  1841 ;; Parameters:    Size  Location     Type
  1842 ;;  velocidad       2   16[COMRAM] unsigned int 
  1843 ;; Auto vars:     Size  Location     Type
  1844 ;;		None
  1845 ;; Return value:  Size  Location     Type
  1846 ;;                  1    wreg      void 
  1847 ;; Registers used:
  1848 ;;		wreg, status,2
  1849 ;; Tracked objects:
  1850 ;;		On entry : 0/0
  1851 ;;		On exit  : 0/0
  1852 ;;		Unchanged: 0/0
  1853 ;; Data sizes:     COMRAM   BANK5   BANK6   BANK7   BANK8   BANK9  BANK10  BANK11  BANK12  BANK13  BANK14  BANK15  BANK1
      +6  BANK17  BANK18  BANK19  BANK20  BANK21  BANK22  BANK23  BANK24  BANK25  BANK26  BANK27  BANK28  BANK29  BANK30  BANK3
      +1  BANK32  BANK33  BANK34  BANK35  BANK36
  1854 ;;      Params:         2       0       0       0       0       0       0       0       0       0       0       0       
      +0       0       0       0       0       0       0       0       0       0       0       0       0       0       0       
      +0       0       0       0       0       0
  1855 ;;      Locals:         0       0       0       0       0       0       0       0       0       0       0       0       
      +0       0       0       0       0       0       0       0       0       0       0       0       0       0       0       
      +0       0       0       0       0       0
  1856 ;;      Temps:          0       0       0       0       0       0       0       0       0       0       0       0       
      +0       0       0       0       0       0       0       0       0       0       0       0       0       0       0       
      +0       0       0       0       0       0
  1857 ;;      Totals:         2       0       0       0       0       0       0       0       0       0       0       0       
      +0       0       0       0       0       0       0       0       0       0       0       0       0       0       0       
      +0       0       0       0       0       0
  1858 ;;Total ram usage:        2 bytes
  1859 ;; Hardware stack levels used: 1
  1860 ;; Hardware stack levels required when called: 4
  1861 ;; This function calls:
  1862 ;;		Nothing
  1863 ;; This function is called by:
  1864 ;;		_configuro
  1865 ;; This function uses a non-reentrant model
  1866 ;;
  1867                           
  1868                           	psect	text7
  1869   010C7C                     __ptext7:
  1870                           	callstack 0
  1871   010C7C                     _U1_INIT:
  1872                           	callstack 121
  1873   010C7C                     
  1874                           ;LIB_UART.c: 25:     U1BRGH = (velocidad >>8) & 0x00FF;
  1875   010C7C  5012               	movf	(U1_INIT@velocidad+1)^(0+1280),w,c
  1876   010C7E  0102               	movlb	2	; () banked
  1877   010C80  6FAF               	movwf	175,b	;volatile
  1878   010C82                     
  1879                           ; BSR set to: 2
  1880                           ;LIB_UART.c: 26:     U1BRGL = velocidad & 0x00FF;
  1881   010C82  C511  F2AE         	movff	U1_INIT@velocidad,686	;volatile
  1882                           
  1883                           ;LIB_UART.c: 27:     U1CON0 = 0x30;
  1884   010C86  0E30               	movlw	48
  1885   010C88  6FAB               	movwf	171,b	;volatile
  1886                           
  1887                           ;LIB_UART.c: 28:     U1CON1 = 0x80;
  1888   010C8A  0E80               	movlw	128
  1889   010C8C  6FAC               	movwf	172,b	;volatile
  1890                           
  1891                           ;LIB_UART.c: 29:     U1CON2 = 0x00;
  1892   010C8E  0E00               	movlw	0
  1893   010C90  6FAD               	movwf	173,b	;volatile
  1894                           
  1895                           ;LIB_UART.c: 30:     RF0PPS = 0x20;
  1896   010C92  0E20               	movlw	32
  1897   010C94  6F29               	movwf	41,b	;volatile
  1898                           
  1899                           ;LIB_UART.c: 31:     U1RXPPS = 0x29;
  1900   010C96  0E29               	movlw	41
  1901   010C98  6F72               	movwf	114,b	;volatile
  1902   010C9A                     
  1903                           ; BSR set to: 2
  1904                           ;LIB_UART.c: 32:     TRISFbits.TRISF1 = 1;
  1905   010C9A  82CB               	bsf	203,1,c	;volatile
  1906   010C9C                     
  1907                           ; BSR set to: 2
  1908                           ;LIB_UART.c: 33:     ANSELFbits.ANSELF1 = 0;
  1909   010C9C  0104               	movlb	4	; () banked
  1910   010C9E  9328               	bcf	40,1,b	;volatile
  1911   010CA0                     
  1912                           ; BSR set to: 4
  1913   010CA0  0012               	return		;funcret
  1914   010CA2                     __end_of_U1_INIT:
  1915                           	callstack 0
  1916                           
  1917 ;; *************** function _I2C_LCD_INIT *****************
  1918 ;; Defined at:
  1919 ;;		line 187 in file "I2C_LCD.c"
  1920 ;; Parameters:    Size  Location     Type
  1921 ;;		None
  1922 ;; Auto vars:     Size  Location     Type
  1923 ;;		None
  1924 ;; Return value:  Size  Location     Type
  1925 ;;                  1    wreg      void 
  1926 ;; Registers used:
  1927 ;;		wreg, status,2, status,0, cstack
  1928 ;; Tracked objects:
  1929 ;;		On entry : 0/0
  1930 ;;		On exit  : 0/0
  1931 ;;		Unchanged: 0/0
  1932 ;; Data sizes:     COMRAM   BANK5   BANK6   BANK7   BANK8   BANK9  BANK10  BANK11  BANK12  BANK13  BANK14  BANK15  BANK1
      +6  BANK17  BANK18  BANK19  BANK20  BANK21  BANK22  BANK23  BANK24  BANK25  BANK26  BANK27  BANK28  BANK29  BANK30  BANK3
      +1  BANK32  BANK33  BANK34  BANK35  BANK36
  1933 ;;      Params:         0       0       0       0       0       0       0       0       0       0       0       0       
      +0       0       0       0       0       0       0       0       0       0       0       0       0       0       0       
      +0       0       0       0       0       0
  1934 ;;      Locals:         0       0       0       0       0       0       0       0       0       0       0       0       
      +0       0       0       0       0       0       0       0       0       0       0       0       0       0       0       
      +0       0       0       0       0       0
  1935 ;;      Temps:          2       0       0       0       0       0       0       0       0       0       0       0       
      +0       0       0       0       0       0       0       0       0       0       0       0       0       0       0       
      +0       0       0       0       0       0
  1936 ;;      Totals:         2       0       0       0       0       0       0       0       0       0       0       0       
      +0       0       0       0       0       0       0       0       0       0       0       0       0       0       0       
      +0       0       0       0       0       0
  1937 ;;Total ram usage:        2 bytes
  1938 ;; Hardware stack levels used: 1
  1939 ;; Hardware stack levels required when called: 7
  1940 ;; This function calls:
  1941 ;;		_I2C1_INIT
  1942 ;;		_I2C1_WRITESINGLEBYTE
  1943 ;;		_I2C_BORRAR_LCD
  1944 ;;		_I2C_CURSOR_HOME
  1945 ;;		_I2C_CURSOR_ONOFF
  1946 ;; This function is called by:
  1947 ;;		_configuro
  1948 ;; This function uses a non-reentrant model
  1949 ;;
  1950                           
  1951                           	psect	text8
  1952   010000                     __ptext8:
  1953                           	callstack 0
  1954   010000                     _I2C_LCD_INIT:
  1955                           	callstack 118
  1956   010000                     
  1957                           ;I2C_LCD.c: 188:     I2C1_INIT();
  1958   010000  EC43  F085         	call	_I2C1_INIT	;wreg free
  1959   010004                     
  1960                           ;I2C_LCD.c: 189:     _delay((unsigned long)((15)*(32000000UL/4000.0)));
  1961   010004  0E9C               	movlw	156
  1962   010006  6E18               	movwf	??_I2C_LCD_INIT^(0+1280),c
  1963   010008  0ED7               	movlw	215
  1964   01000A                     u677:
  1965   01000A  2EE8               	decfsz	wreg,f,c
  1966   01000C  D7FE               	bra	u677
  1967   01000E  2E18               	decfsz	??_I2C_LCD_INIT^(0+1280),f,c
  1968   010010  D7FC               	bra	u677
  1969   010012  0000               	nop	
  1970   010014                     
  1971                           ;I2C_LCD.c: 191:     I2C1_WRITESINGLEBYTE(I2C_LCD_ADDR,0x00);
  1972   010014  0E00               	movlw	0
  1973   010016  6E11               	movwf	I2C1_WRITESINGLEBYTE@dato^(0+1280),c
  1974   010018  501E               	movf	_I2C_LCD_ADDR^(0+1280),w,c
  1975   01001A  EC68  F085         	call	_I2C1_WRITESINGLEBYTE
  1976   01001E                     
  1977                           ;I2C_LCD.c: 192:     _delay((unsigned long)((1000)*(32000000UL/4000.0)));
  1978   01001E  0E29               	movlw	41
  1979   010020  6E19               	movwf	(??_I2C_LCD_INIT+1)^(0+1280),c
  1980   010022  0E96               	movlw	150
  1981   010024  6E18               	movwf	??_I2C_LCD_INIT^(0+1280),c
  1982   010026  0E7F               	movlw	127
  1983   010028                     u687:
  1984   010028  2EE8               	decfsz	wreg,f,c
  1985   01002A  D7FE               	bra	u687
  1986   01002C  2E18               	decfsz	??_I2C_LCD_INIT^(0+1280),f,c
  1987   01002E  D7FC               	bra	u687
  1988   010030  2E19               	decfsz	(??_I2C_LCD_INIT+1)^(0+1280),f,c
  1989   010032  D7FA               	bra	u687
  1990   010034  0000               	nop	
  1991   010036                     
  1992                           ;I2C_LCD.c: 195:     I2C1_WRITESINGLEBYTE(I2C_LCD_ADDR,0x30);
  1993   010036  0E30               	movlw	48
  1994   010038  6E11               	movwf	I2C1_WRITESINGLEBYTE@dato^(0+1280),c
  1995   01003A  501E               	movf	_I2C_LCD_ADDR^(0+1280),w,c
  1996   01003C  EC68  F085         	call	_I2C1_WRITESINGLEBYTE
  1997   010040                     
  1998                           ;I2C_LCD.c: 196:     I2C1_WRITESINGLEBYTE(I2C_LCD_ADDR,0x30);
  1999   010040  0E30               	movlw	48
  2000   010042  6E11               	movwf	I2C1_WRITESINGLEBYTE@dato^(0+1280),c
  2001   010044  501E               	movf	_I2C_LCD_ADDR^(0+1280),w,c
  2002   010046  EC68  F085         	call	_I2C1_WRITESINGLEBYTE
  2003   01004A                     
  2004                           ;I2C_LCD.c: 197:     _delay((unsigned long)((20)*(32000000UL/4000000.0)));
  2005   01004A  0E35               	movlw	53
  2006   01004C                     u697:
  2007   01004C  2EE8               	decfsz	wreg,f,c
  2008   01004E  D7FE               	bra	u697
  2009   010050  0000               	nop	
  2010   010052                     
  2011                           ;I2C_LCD.c: 198:     I2C1_WRITESINGLEBYTE(I2C_LCD_ADDR,0x34);
  2012   010052  0E34               	movlw	52
  2013   010054  6E11               	movwf	I2C1_WRITESINGLEBYTE@dato^(0+1280),c
  2014   010056  501E               	movf	_I2C_LCD_ADDR^(0+1280),w,c
  2015   010058  EC68  F085         	call	_I2C1_WRITESINGLEBYTE
  2016   01005C                     
  2017                           ;I2C_LCD.c: 199:     _delay((unsigned long)((20)*(32000000UL/4000000.0)));
  2018   01005C  0E35               	movlw	53
  2019   01005E                     u707:
  2020   01005E  2EE8               	decfsz	wreg,f,c
  2021   010060  D7FE               	bra	u707
  2022   010062  0000               	nop	
  2023   010064                     
  2024                           ;I2C_LCD.c: 200:     I2C1_WRITESINGLEBYTE(I2C_LCD_ADDR,0x30);
  2025   010064  0E30               	movlw	48
  2026   010066  6E11               	movwf	I2C1_WRITESINGLEBYTE@dato^(0+1280),c
  2027   010068  501E               	movf	_I2C_LCD_ADDR^(0+1280),w,c
  2028   01006A  EC68  F085         	call	_I2C1_WRITESINGLEBYTE
  2029   01006E                     
  2030                           ;I2C_LCD.c: 201:     _delay((unsigned long)((5)*(32000000UL/4000.0)));
  2031   01006E  0E34               	movlw	52
  2032   010070  6E18               	movwf	??_I2C_LCD_INIT^(0+1280),c
  2033   010072  0EF2               	movlw	242
  2034   010074                     u717:
  2035   010074  2EE8               	decfsz	wreg,f,c
  2036   010076  D7FE               	bra	u717
  2037   010078  2E18               	decfsz	??_I2C_LCD_INIT^(0+1280),f,c
  2038   01007A  D7FC               	bra	u717
  2039   01007C                     
  2040                           ;I2C_LCD.c: 203:     I2C1_WRITESINGLEBYTE(I2C_LCD_ADDR,0x30);
  2041   01007C  0E30               	movlw	48
  2042   01007E  6E11               	movwf	I2C1_WRITESINGLEBYTE@dato^(0+1280),c
  2043   010080  501E               	movf	_I2C_LCD_ADDR^(0+1280),w,c
  2044   010082  EC68  F085         	call	_I2C1_WRITESINGLEBYTE
  2045   010086                     
  2046                           ;I2C_LCD.c: 204:     _delay((unsigned long)((20)*(32000000UL/4000000.0)));
  2047   010086  0E35               	movlw	53
  2048   010088                     u727:
  2049   010088  2EE8               	decfsz	wreg,f,c
  2050   01008A  D7FE               	bra	u727
  2051   01008C  0000               	nop	
  2052   01008E                     
  2053                           ;I2C_LCD.c: 205:     I2C1_WRITESINGLEBYTE(I2C_LCD_ADDR,0x34);
  2054   01008E  0E34               	movlw	52
  2055   010090  6E11               	movwf	I2C1_WRITESINGLEBYTE@dato^(0+1280),c
  2056   010092  501E               	movf	_I2C_LCD_ADDR^(0+1280),w,c
  2057   010094  EC68  F085         	call	_I2C1_WRITESINGLEBYTE
  2058   010098                     
  2059                           ;I2C_LCD.c: 206:     _delay((unsigned long)((20)*(32000000UL/4000000.0)));
  2060   010098  0E35               	movlw	53
  2061   01009A                     u737:
  2062   01009A  2EE8               	decfsz	wreg,f,c
  2063   01009C  D7FE               	bra	u737
  2064   01009E  0000               	nop	
  2065   0100A0                     
  2066                           ;I2C_LCD.c: 207:     I2C1_WRITESINGLEBYTE(I2C_LCD_ADDR,0x30);
  2067   0100A0  0E30               	movlw	48
  2068   0100A2  6E11               	movwf	I2C1_WRITESINGLEBYTE@dato^(0+1280),c
  2069   0100A4  501E               	movf	_I2C_LCD_ADDR^(0+1280),w,c
  2070   0100A6  EC68  F085         	call	_I2C1_WRITESINGLEBYTE
  2071   0100AA                     
  2072                           ;I2C_LCD.c: 209:     _delay((unsigned long)((5)*(32000000UL/4000.0)));
  2073   0100AA  0E34               	movlw	52
  2074   0100AC  6E18               	movwf	??_I2C_LCD_INIT^(0+1280),c
  2075   0100AE  0EF2               	movlw	242
  2076   0100B0                     u747:
  2077   0100B0  2EE8               	decfsz	wreg,f,c
  2078   0100B2  D7FE               	bra	u747
  2079   0100B4  2E18               	decfsz	??_I2C_LCD_INIT^(0+1280),f,c
  2080   0100B6  D7FC               	bra	u747
  2081   0100B8                     
  2082                           ;I2C_LCD.c: 211:     I2C1_WRITESINGLEBYTE(I2C_LCD_ADDR,0x30);
  2083   0100B8  0E30               	movlw	48
  2084   0100BA  6E11               	movwf	I2C1_WRITESINGLEBYTE@dato^(0+1280),c
  2085   0100BC  501E               	movf	_I2C_LCD_ADDR^(0+1280),w,c
  2086   0100BE  EC68  F085         	call	_I2C1_WRITESINGLEBYTE
  2087   0100C2                     
  2088                           ;I2C_LCD.c: 212:     _delay((unsigned long)((20)*(32000000UL/4000000.0)));
  2089   0100C2  0E35               	movlw	53
  2090   0100C4                     u757:
  2091   0100C4  2EE8               	decfsz	wreg,f,c
  2092   0100C6  D7FE               	bra	u757
  2093   0100C8  0000               	nop	
  2094   0100CA                     
  2095                           ;I2C_LCD.c: 213:     I2C1_WRITESINGLEBYTE(I2C_LCD_ADDR,0x34);
  2096   0100CA  0E34               	movlw	52
  2097   0100CC  6E11               	movwf	I2C1_WRITESINGLEBYTE@dato^(0+1280),c
  2098   0100CE  501E               	movf	_I2C_LCD_ADDR^(0+1280),w,c
  2099   0100D0  EC68  F085         	call	_I2C1_WRITESINGLEBYTE
  2100   0100D4                     
  2101                           ;I2C_LCD.c: 214:     _delay((unsigned long)((20)*(32000000UL/4000000.0)));
  2102   0100D4  0E35               	movlw	53
  2103   0100D6                     u767:
  2104   0100D6  2EE8               	decfsz	wreg,f,c
  2105   0100D8  D7FE               	bra	u767
  2106   0100DA  0000               	nop	
  2107   0100DC                     
  2108                           ;I2C_LCD.c: 215:     I2C1_WRITESINGLEBYTE(I2C_LCD_ADDR,0x30);
  2109   0100DC  0E30               	movlw	48
  2110   0100DE  6E11               	movwf	I2C1_WRITESINGLEBYTE@dato^(0+1280),c
  2111   0100E0  501E               	movf	_I2C_LCD_ADDR^(0+1280),w,c
  2112   0100E2  EC68  F085         	call	_I2C1_WRITESINGLEBYTE
  2113   0100E6                     
  2114                           ;I2C_LCD.c: 217:     _delay((unsigned long)((250)*(32000000UL/4000000.0)));
  2115   0100E6  0E03               	movlw	3
  2116   0100E8  6E18               	movwf	??_I2C_LCD_INIT^(0+1280),c
  2117   0100EA  0E98               	movlw	152
  2118   0100EC                     u777:
  2119   0100EC  2EE8               	decfsz	wreg,f,c
  2120   0100EE  D7FE               	bra	u777
  2121   0100F0  2E18               	decfsz	??_I2C_LCD_INIT^(0+1280),f,c
  2122   0100F2  D7FC               	bra	u777
  2123   0100F4                     
  2124                           ;I2C_LCD.c: 219:     I2C1_WRITESINGLEBYTE(I2C_LCD_ADDR,0x20);
  2125   0100F4  0E20               	movlw	32
  2126   0100F6  6E11               	movwf	I2C1_WRITESINGLEBYTE@dato^(0+1280),c
  2127   0100F8  501E               	movf	_I2C_LCD_ADDR^(0+1280),w,c
  2128   0100FA  EC68  F085         	call	_I2C1_WRITESINGLEBYTE
  2129   0100FE                     
  2130                           ;I2C_LCD.c: 220:     _delay((unsigned long)((20)*(32000000UL/4000000.0)));
  2131   0100FE  0E35               	movlw	53
  2132   010100                     u787:
  2133   010100  2EE8               	decfsz	wreg,f,c
  2134   010102  D7FE               	bra	u787
  2135   010104  0000               	nop	
  2136   010106                     
  2137                           ;I2C_LCD.c: 221:     I2C1_WRITESINGLEBYTE(I2C_LCD_ADDR,0x24);
  2138   010106  0E24               	movlw	36
  2139   010108  6E11               	movwf	I2C1_WRITESINGLEBYTE@dato^(0+1280),c
  2140   01010A  501E               	movf	_I2C_LCD_ADDR^(0+1280),w,c
  2141   01010C  EC68  F085         	call	_I2C1_WRITESINGLEBYTE
  2142   010110                     
  2143                           ;I2C_LCD.c: 222:     _delay((unsigned long)((20)*(32000000UL/4000000.0)));
  2144   010110  0E35               	movlw	53
  2145   010112                     u797:
  2146   010112  2EE8               	decfsz	wreg,f,c
  2147   010114  D7FE               	bra	u797
  2148   010116  0000               	nop	
  2149   010118                     
  2150                           ;I2C_LCD.c: 223:     I2C1_WRITESINGLEBYTE(I2C_LCD_ADDR,0x20);
  2151   010118  0E20               	movlw	32
  2152   01011A  6E11               	movwf	I2C1_WRITESINGLEBYTE@dato^(0+1280),c
  2153   01011C  501E               	movf	_I2C_LCD_ADDR^(0+1280),w,c
  2154   01011E  EC68  F085         	call	_I2C1_WRITESINGLEBYTE
  2155   010122                     
  2156                           ;I2C_LCD.c: 225:     _delay((unsigned long)((75)*(32000000UL/4000000.0)));
  2157   010122  0EC8               	movlw	200
  2158   010124                     u807:
  2159   010124  2EE8               	decfsz	wreg,f,c
  2160   010126  D7FE               	bra	u807
  2161   010128                     
  2162                           ;I2C_LCD.c: 227:     I2C1_WRITESINGLEBYTE(I2C_LCD_ADDR,0x20);
  2163   010128  0E20               	movlw	32
  2164   01012A  6E11               	movwf	I2C1_WRITESINGLEBYTE@dato^(0+1280),c
  2165   01012C  501E               	movf	_I2C_LCD_ADDR^(0+1280),w,c
  2166   01012E  EC68  F085         	call	_I2C1_WRITESINGLEBYTE
  2167   010132                     
  2168                           ;I2C_LCD.c: 228:     _delay((unsigned long)((20)*(32000000UL/4000000.0)));
  2169   010132  0E35               	movlw	53
  2170   010134                     u817:
  2171   010134  2EE8               	decfsz	wreg,f,c
  2172   010136  D7FE               	bra	u817
  2173   010138  0000               	nop	
  2174   01013A                     
  2175                           ;I2C_LCD.c: 229:     I2C1_WRITESINGLEBYTE(I2C_LCD_ADDR,0x24);
  2176   01013A  0E24               	movlw	36
  2177   01013C  6E11               	movwf	I2C1_WRITESINGLEBYTE@dato^(0+1280),c
  2178   01013E  501E               	movf	_I2C_LCD_ADDR^(0+1280),w,c
  2179   010140  EC68  F085         	call	_I2C1_WRITESINGLEBYTE
  2180   010144                     
  2181                           ;I2C_LCD.c: 230:     _delay((unsigned long)((20)*(32000000UL/4000000.0)));
  2182   010144  0E35               	movlw	53
  2183   010146                     u827:
  2184   010146  2EE8               	decfsz	wreg,f,c
  2185   010148  D7FE               	bra	u827
  2186   01014A  0000               	nop	
  2187   01014C                     
  2188                           ;I2C_LCD.c: 231:     I2C1_WRITESINGLEBYTE(I2C_LCD_ADDR,0x20);
  2189   01014C  0E20               	movlw	32
  2190   01014E  6E11               	movwf	I2C1_WRITESINGLEBYTE@dato^(0+1280),c
  2191   010150  501E               	movf	_I2C_LCD_ADDR^(0+1280),w,c
  2192   010152  EC68  F085         	call	_I2C1_WRITESINGLEBYTE
  2193   010156                     
  2194                           ;I2C_LCD.c: 233:     _delay((unsigned long)((75)*(32000000UL/4000000.0)));
  2195   010156  0EC8               	movlw	200
  2196   010158                     u837:
  2197   010158  2EE8               	decfsz	wreg,f,c
  2198   01015A  D7FE               	bra	u837
  2199   01015C                     
  2200                           ;I2C_LCD.c: 235:     I2C1_WRITESINGLEBYTE(I2C_LCD_ADDR,0x80);
  2201   01015C  0E80               	movlw	128
  2202   01015E  6E11               	movwf	I2C1_WRITESINGLEBYTE@dato^(0+1280),c
  2203   010160  501E               	movf	_I2C_LCD_ADDR^(0+1280),w,c
  2204   010162  EC68  F085         	call	_I2C1_WRITESINGLEBYTE
  2205   010166                     
  2206                           ;I2C_LCD.c: 236:     _delay((unsigned long)((20)*(32000000UL/4000000.0)));
  2207   010166  0E35               	movlw	53
  2208   010168                     u847:
  2209   010168  2EE8               	decfsz	wreg,f,c
  2210   01016A  D7FE               	bra	u847
  2211   01016C  0000               	nop	
  2212   01016E                     
  2213                           ;I2C_LCD.c: 237:     I2C1_WRITESINGLEBYTE(I2C_LCD_ADDR,0x84);
  2214   01016E  0E84               	movlw	132
  2215   010170  6E11               	movwf	I2C1_WRITESINGLEBYTE@dato^(0+1280),c
  2216   010172  501E               	movf	_I2C_LCD_ADDR^(0+1280),w,c
  2217   010174  EC68  F085         	call	_I2C1_WRITESINGLEBYTE
  2218   010178                     
  2219                           ;I2C_LCD.c: 238:     _delay((unsigned long)((20)*(32000000UL/4000000.0)));
  2220   010178  0E35               	movlw	53
  2221   01017A                     u857:
  2222   01017A  2EE8               	decfsz	wreg,f,c
  2223   01017C  D7FE               	bra	u857
  2224   01017E  0000               	nop	
  2225   010180                     
  2226                           ;I2C_LCD.c: 239:     I2C1_WRITESINGLEBYTE(I2C_LCD_ADDR,0x80);
  2227   010180  0E80               	movlw	128
  2228   010182  6E11               	movwf	I2C1_WRITESINGLEBYTE@dato^(0+1280),c
  2229   010184  501E               	movf	_I2C_LCD_ADDR^(0+1280),w,c
  2230   010186  EC68  F085         	call	_I2C1_WRITESINGLEBYTE
  2231   01018A                     
  2232                           ;I2C_LCD.c: 241:     _delay((unsigned long)((75)*(32000000UL/4000000.0)));
  2233   01018A  0EC8               	movlw	200
  2234   01018C                     u867:
  2235   01018C  2EE8               	decfsz	wreg,f,c
  2236   01018E  D7FE               	bra	u867
  2237   010190                     
  2238                           ;I2C_LCD.c: 243:     I2C1_WRITESINGLEBYTE(I2C_LCD_ADDR,0x00);
  2239   010190  0E00               	movlw	0
  2240   010192  6E11               	movwf	I2C1_WRITESINGLEBYTE@dato^(0+1280),c
  2241   010194  501E               	movf	_I2C_LCD_ADDR^(0+1280),w,c
  2242   010196  EC68  F085         	call	_I2C1_WRITESINGLEBYTE
  2243   01019A                     
  2244                           ;I2C_LCD.c: 244:     _delay((unsigned long)((20)*(32000000UL/4000000.0)));
  2245   01019A  0E35               	movlw	53
  2246   01019C                     u877:
  2247   01019C  2EE8               	decfsz	wreg,f,c
  2248   01019E  D7FE               	bra	u877
  2249   0101A0  0000               	nop	
  2250   0101A2                     
  2251                           ;I2C_LCD.c: 245:     I2C1_WRITESINGLEBYTE(I2C_LCD_ADDR,0x04);
  2252   0101A2  0E04               	movlw	4
  2253   0101A4  6E11               	movwf	I2C1_WRITESINGLEBYTE@dato^(0+1280),c
  2254   0101A6  501E               	movf	_I2C_LCD_ADDR^(0+1280),w,c
  2255   0101A8  EC68  F085         	call	_I2C1_WRITESINGLEBYTE
  2256   0101AC                     
  2257                           ;I2C_LCD.c: 246:     _delay((unsigned long)((20)*(32000000UL/4000000.0)));
  2258   0101AC  0E35               	movlw	53
  2259   0101AE                     u887:
  2260   0101AE  2EE8               	decfsz	wreg,f,c
  2261   0101B0  D7FE               	bra	u887
  2262   0101B2  0000               	nop	
  2263   0101B4                     
  2264                           ;I2C_LCD.c: 247:     I2C1_WRITESINGLEBYTE(I2C_LCD_ADDR,0x00);
  2265   0101B4  0E00               	movlw	0
  2266   0101B6  6E11               	movwf	I2C1_WRITESINGLEBYTE@dato^(0+1280),c
  2267   0101B8  501E               	movf	_I2C_LCD_ADDR^(0+1280),w,c
  2268   0101BA  EC68  F085         	call	_I2C1_WRITESINGLEBYTE
  2269   0101BE                     
  2270                           ;I2C_LCD.c: 249:      _delay((unsigned long)((75)*(32000000UL/4000000.0)));
  2271   0101BE  0EC8               	movlw	200
  2272   0101C0                     u897:
  2273   0101C0  2EE8               	decfsz	wreg,f,c
  2274   0101C2  D7FE               	bra	u897
  2275   0101C4                     
  2276                           ;I2C_LCD.c: 251:     I2C1_WRITESINGLEBYTE(I2C_LCD_ADDR,0xC0);
  2277   0101C4  0EC0               	movlw	192
  2278   0101C6  6E11               	movwf	I2C1_WRITESINGLEBYTE@dato^(0+1280),c
  2279   0101C8  501E               	movf	_I2C_LCD_ADDR^(0+1280),w,c
  2280   0101CA  EC68  F085         	call	_I2C1_WRITESINGLEBYTE
  2281   0101CE                     
  2282                           ;I2C_LCD.c: 252:     _delay((unsigned long)((20)*(32000000UL/4000000.0)));
  2283   0101CE  0E35               	movlw	53
  2284   0101D0                     u907:
  2285   0101D0  2EE8               	decfsz	wreg,f,c
  2286   0101D2  D7FE               	bra	u907
  2287   0101D4  0000               	nop	
  2288   0101D6                     
  2289                           ;I2C_LCD.c: 253:     I2C1_WRITESINGLEBYTE(I2C_LCD_ADDR,0xC4);
  2290   0101D6  0EC4               	movlw	196
  2291   0101D8  6E11               	movwf	I2C1_WRITESINGLEBYTE@dato^(0+1280),c
  2292   0101DA  501E               	movf	_I2C_LCD_ADDR^(0+1280),w,c
  2293   0101DC  EC68  F085         	call	_I2C1_WRITESINGLEBYTE
  2294   0101E0                     
  2295                           ;I2C_LCD.c: 254:     _delay((unsigned long)((20)*(32000000UL/4000000.0)));
  2296   0101E0  0E35               	movlw	53
  2297   0101E2                     u917:
  2298   0101E2  2EE8               	decfsz	wreg,f,c
  2299   0101E4  D7FE               	bra	u917
  2300   0101E6  0000               	nop	
  2301   0101E8                     
  2302                           ;I2C_LCD.c: 255:     I2C1_WRITESINGLEBYTE(I2C_LCD_ADDR,0xC0);
  2303   0101E8  0EC0               	movlw	192
  2304   0101EA  6E11               	movwf	I2C1_WRITESINGLEBYTE@dato^(0+1280),c
  2305   0101EC  501E               	movf	_I2C_LCD_ADDR^(0+1280),w,c
  2306   0101EE  EC68  F085         	call	_I2C1_WRITESINGLEBYTE
  2307   0101F2                     
  2308                           ;I2C_LCD.c: 257:      _delay((unsigned long)((75)*(32000000UL/4000000.0)));
  2309   0101F2  0EC8               	movlw	200
  2310   0101F4                     u927:
  2311   0101F4  2EE8               	decfsz	wreg,f,c
  2312   0101F6  D7FE               	bra	u927
  2313   0101F8                     
  2314                           ;I2C_LCD.c: 259:     I2C1_WRITESINGLEBYTE(I2C_LCD_ADDR,0x00);
  2315   0101F8  0E00               	movlw	0
  2316   0101FA  6E11               	movwf	I2C1_WRITESINGLEBYTE@dato^(0+1280),c
  2317   0101FC  501E               	movf	_I2C_LCD_ADDR^(0+1280),w,c
  2318   0101FE  EC68  F085         	call	_I2C1_WRITESINGLEBYTE
  2319   010202                     
  2320                           ;I2C_LCD.c: 260:     _delay((unsigned long)((20)*(32000000UL/4000000.0)));
  2321   010202  0E35               	movlw	53
  2322   010204                     u937:
  2323   010204  2EE8               	decfsz	wreg,f,c
  2324   010206  D7FE               	bra	u937
  2325   010208  0000               	nop	
  2326   01020A                     
  2327                           ;I2C_LCD.c: 261:     I2C1_WRITESINGLEBYTE(I2C_LCD_ADDR,0x04);
  2328   01020A  0E04               	movlw	4
  2329   01020C  6E11               	movwf	I2C1_WRITESINGLEBYTE@dato^(0+1280),c
  2330   01020E  501E               	movf	_I2C_LCD_ADDR^(0+1280),w,c
  2331   010210  EC68  F085         	call	_I2C1_WRITESINGLEBYTE
  2332   010214                     
  2333                           ;I2C_LCD.c: 262:     _delay((unsigned long)((20)*(32000000UL/4000000.0)));
  2334   010214  0E35               	movlw	53
  2335   010216                     u947:
  2336   010216  2EE8               	decfsz	wreg,f,c
  2337   010218  D7FE               	bra	u947
  2338   01021A  0000               	nop	
  2339   01021C                     
  2340                           ;I2C_LCD.c: 263:     I2C1_WRITESINGLEBYTE(I2C_LCD_ADDR,0x00);
  2341   01021C  0E00               	movlw	0
  2342   01021E  6E11               	movwf	I2C1_WRITESINGLEBYTE@dato^(0+1280),c
  2343   010220  501E               	movf	_I2C_LCD_ADDR^(0+1280),w,c
  2344   010222  EC68  F085         	call	_I2C1_WRITESINGLEBYTE
  2345   010226                     
  2346                           ;I2C_LCD.c: 265:      _delay((unsigned long)((75)*(32000000UL/4000000.0)));
  2347   010226  0EC8               	movlw	200
  2348   010228                     u957:
  2349   010228  2EE8               	decfsz	wreg,f,c
  2350   01022A  D7FE               	bra	u957
  2351   01022C                     
  2352                           ;I2C_LCD.c: 267:     I2C1_WRITESINGLEBYTE(I2C_LCD_ADDR,0x10);
  2353   01022C  0E10               	movlw	16
  2354   01022E  6E11               	movwf	I2C1_WRITESINGLEBYTE@dato^(0+1280),c
  2355   010230  501E               	movf	_I2C_LCD_ADDR^(0+1280),w,c
  2356   010232  EC68  F085         	call	_I2C1_WRITESINGLEBYTE
  2357   010236                     
  2358                           ;I2C_LCD.c: 268:     _delay((unsigned long)((20)*(32000000UL/4000000.0)));
  2359   010236  0E35               	movlw	53
  2360   010238                     u967:
  2361   010238  2EE8               	decfsz	wreg,f,c
  2362   01023A  D7FE               	bra	u967
  2363   01023C  0000               	nop	
  2364   01023E                     
  2365                           ;I2C_LCD.c: 269:     I2C1_WRITESINGLEBYTE(I2C_LCD_ADDR,0x14);
  2366   01023E  0E14               	movlw	20
  2367   010240  6E11               	movwf	I2C1_WRITESINGLEBYTE@dato^(0+1280),c
  2368   010242  501E               	movf	_I2C_LCD_ADDR^(0+1280),w,c
  2369   010244  EC68  F085         	call	_I2C1_WRITESINGLEBYTE
  2370   010248                     
  2371                           ;I2C_LCD.c: 270:     _delay((unsigned long)((20)*(32000000UL/4000000.0)));
  2372   010248  0E35               	movlw	53
  2373   01024A                     u977:
  2374   01024A  2EE8               	decfsz	wreg,f,c
  2375   01024C  D7FE               	bra	u977
  2376   01024E  0000               	nop	
  2377   010250                     
  2378                           ;I2C_LCD.c: 271:     I2C1_WRITESINGLEBYTE(I2C_LCD_ADDR,0x10);
  2379   010250  0E10               	movlw	16
  2380   010252  6E11               	movwf	I2C1_WRITESINGLEBYTE@dato^(0+1280),c
  2381   010254  501E               	movf	_I2C_LCD_ADDR^(0+1280),w,c
  2382   010256  EC68  F085         	call	_I2C1_WRITESINGLEBYTE
  2383   01025A                     
  2384                           ;I2C_LCD.c: 273:      _delay((unsigned long)((2)*(32000000UL/4000.0)));
  2385   01025A  0E15               	movlw	21
  2386   01025C  6E18               	movwf	??_I2C_LCD_INIT^(0+1280),c
  2387   01025E  0EC6               	movlw	198
  2388   010260                     u987:
  2389   010260  2EE8               	decfsz	wreg,f,c
  2390   010262  D7FE               	bra	u987
  2391   010264  2E18               	decfsz	??_I2C_LCD_INIT^(0+1280),f,c
  2392   010266  D7FC               	bra	u987
  2393   010268  D000               	nop2	
  2394   01026A                     
  2395                           ;I2C_LCD.c: 275:     I2C1_WRITESINGLEBYTE(I2C_LCD_ADDR,0x00);
  2396   01026A  0E00               	movlw	0
  2397   01026C  6E11               	movwf	I2C1_WRITESINGLEBYTE@dato^(0+1280),c
  2398   01026E  501E               	movf	_I2C_LCD_ADDR^(0+1280),w,c
  2399   010270  EC68  F085         	call	_I2C1_WRITESINGLEBYTE
  2400   010274                     
  2401                           ;I2C_LCD.c: 276:     _delay((unsigned long)((02)*(32000000UL/4000000.0)));
  2402   010274  0E05               	movlw	5
  2403   010276                     u997:
  2404   010276  2EE8               	decfsz	wreg,f,c
  2405   010278  D7FE               	bra	u997
  2406   01027A  0000               	nop	
  2407   01027C                     
  2408                           ;I2C_LCD.c: 277:     I2C1_WRITESINGLEBYTE(I2C_LCD_ADDR,0x04);
  2409   01027C  0E04               	movlw	4
  2410   01027E  6E11               	movwf	I2C1_WRITESINGLEBYTE@dato^(0+1280),c
  2411   010280  501E               	movf	_I2C_LCD_ADDR^(0+1280),w,c
  2412   010282  EC68  F085         	call	_I2C1_WRITESINGLEBYTE
  2413   010286                     
  2414                           ;I2C_LCD.c: 278:     _delay((unsigned long)((20)*(32000000UL/4000000.0)));
  2415   010286  0E35               	movlw	53
  2416   010288                     u1007:
  2417   010288  2EE8               	decfsz	wreg,f,c
  2418   01028A  D7FE               	bra	u1007
  2419   01028C  0000               	nop	
  2420   01028E                     
  2421                           ;I2C_LCD.c: 279:     I2C1_WRITESINGLEBYTE(I2C_LCD_ADDR,0x00);
  2422   01028E  0E00               	movlw	0
  2423   010290  6E11               	movwf	I2C1_WRITESINGLEBYTE@dato^(0+1280),c
  2424   010292  501E               	movf	_I2C_LCD_ADDR^(0+1280),w,c
  2425   010294  EC68  F085         	call	_I2C1_WRITESINGLEBYTE
  2426   010298                     
  2427                           ;I2C_LCD.c: 281:      _delay((unsigned long)((75)*(32000000UL/4000000.0)));
  2428   010298  0EC8               	movlw	200
  2429   01029A                     u1017:
  2430   01029A  2EE8               	decfsz	wreg,f,c
  2431   01029C  D7FE               	bra	u1017
  2432   01029E                     
  2433                           ;I2C_LCD.c: 283:     I2C1_WRITESINGLEBYTE(I2C_LCD_ADDR,0x60);
  2434   01029E  0E60               	movlw	96
  2435   0102A0  6E11               	movwf	I2C1_WRITESINGLEBYTE@dato^(0+1280),c
  2436   0102A2  501E               	movf	_I2C_LCD_ADDR^(0+1280),w,c
  2437   0102A4  EC68  F085         	call	_I2C1_WRITESINGLEBYTE
  2438   0102A8                     
  2439                           ;I2C_LCD.c: 284:     _delay((unsigned long)((02)*(32000000UL/4000000.0)));
  2440   0102A8  0E05               	movlw	5
  2441   0102AA                     u1027:
  2442   0102AA  2EE8               	decfsz	wreg,f,c
  2443   0102AC  D7FE               	bra	u1027
  2444   0102AE  0000               	nop	
  2445   0102B0                     
  2446                           ;I2C_LCD.c: 285:     I2C1_WRITESINGLEBYTE(I2C_LCD_ADDR,0x64);
  2447   0102B0  0E64               	movlw	100
  2448   0102B2  6E11               	movwf	I2C1_WRITESINGLEBYTE@dato^(0+1280),c
  2449   0102B4  501E               	movf	_I2C_LCD_ADDR^(0+1280),w,c
  2450   0102B6  EC68  F085         	call	_I2C1_WRITESINGLEBYTE
  2451   0102BA                     
  2452                           ;I2C_LCD.c: 286:     _delay((unsigned long)((20)*(32000000UL/4000000.0)));
  2453   0102BA  0E35               	movlw	53
  2454   0102BC                     u1037:
  2455   0102BC  2EE8               	decfsz	wreg,f,c
  2456   0102BE  D7FE               	bra	u1037
  2457   0102C0  0000               	nop	
  2458   0102C2                     
  2459                           ;I2C_LCD.c: 287:     I2C1_WRITESINGLEBYTE(I2C_LCD_ADDR,0x60);
  2460   0102C2  0E60               	movlw	96
  2461   0102C4  6E11               	movwf	I2C1_WRITESINGLEBYTE@dato^(0+1280),c
  2462   0102C6  501E               	movf	_I2C_LCD_ADDR^(0+1280),w,c
  2463   0102C8  EC68  F085         	call	_I2C1_WRITESINGLEBYTE
  2464   0102CC                     
  2465                           ;I2C_LCD.c: 289:      _delay((unsigned long)((75)*(32000000UL/4000000.0)));
  2466   0102CC  0EC8               	movlw	200
  2467   0102CE                     u1047:
  2468   0102CE  2EE8               	decfsz	wreg,f,c
  2469   0102D0  D7FE               	bra	u1047
  2470   0102D2                     
  2471                           ;I2C_LCD.c: 291:     I2C1_WRITESINGLEBYTE(I2C_LCD_ADDR,0x00);
  2472   0102D2  0E00               	movlw	0
  2473   0102D4  6E11               	movwf	I2C1_WRITESINGLEBYTE@dato^(0+1280),c
  2474   0102D6  501E               	movf	_I2C_LCD_ADDR^(0+1280),w,c
  2475   0102D8  EC68  F085         	call	_I2C1_WRITESINGLEBYTE
  2476   0102DC                     
  2477                           ;I2C_LCD.c: 292:     _delay((unsigned long)((20)*(32000000UL/4000000.0)));
  2478   0102DC  0E35               	movlw	53
  2479   0102DE                     u1057:
  2480   0102DE  2EE8               	decfsz	wreg,f,c
  2481   0102E0  D7FE               	bra	u1057
  2482   0102E2  0000               	nop	
  2483   0102E4                     
  2484                           ;I2C_LCD.c: 293:     I2C1_WRITESINGLEBYTE(I2C_LCD_ADDR,0x04);
  2485   0102E4  0E04               	movlw	4
  2486   0102E6  6E11               	movwf	I2C1_WRITESINGLEBYTE@dato^(0+1280),c
  2487   0102E8  501E               	movf	_I2C_LCD_ADDR^(0+1280),w,c
  2488   0102EA  EC68  F085         	call	_I2C1_WRITESINGLEBYTE
  2489   0102EE                     
  2490                           ;I2C_LCD.c: 294:     _delay((unsigned long)((20)*(32000000UL/4000000.0)));
  2491   0102EE  0E35               	movlw	53
  2492   0102F0                     u1067:
  2493   0102F0  2EE8               	decfsz	wreg,f,c
  2494   0102F2  D7FE               	bra	u1067
  2495   0102F4  0000               	nop	
  2496   0102F6                     
  2497                           ;I2C_LCD.c: 295:     I2C1_WRITESINGLEBYTE(I2C_LCD_ADDR,0x00);
  2498   0102F6  0E00               	movlw	0
  2499   0102F8  6E11               	movwf	I2C1_WRITESINGLEBYTE@dato^(0+1280),c
  2500   0102FA  501E               	movf	_I2C_LCD_ADDR^(0+1280),w,c
  2501   0102FC  EC68  F085         	call	_I2C1_WRITESINGLEBYTE
  2502   010300                     
  2503                           ;I2C_LCD.c: 297:     _delay((unsigned long)((75)*(32000000UL/4000000.0)));
  2504   010300  0EC8               	movlw	200
  2505   010302                     u1077:
  2506   010302  2EE8               	decfsz	wreg,f,c
  2507   010304  D7FE               	bra	u1077
  2508   010306                     
  2509                           ;I2C_LCD.c: 299:     I2C1_WRITESINGLEBYTE(I2C_LCD_ADDR,0x20);
  2510   010306  0E20               	movlw	32
  2511   010308  6E11               	movwf	I2C1_WRITESINGLEBYTE@dato^(0+1280),c
  2512   01030A  501E               	movf	_I2C_LCD_ADDR^(0+1280),w,c
  2513   01030C  EC68  F085         	call	_I2C1_WRITESINGLEBYTE
  2514   010310                     
  2515                           ;I2C_LCD.c: 300:     _delay((unsigned long)((20)*(32000000UL/4000000.0)));
  2516   010310  0E35               	movlw	53
  2517   010312                     u1087:
  2518   010312  2EE8               	decfsz	wreg,f,c
  2519   010314  D7FE               	bra	u1087
  2520   010316  0000               	nop	
  2521   010318                     
  2522                           ;I2C_LCD.c: 301:     I2C1_WRITESINGLEBYTE(I2C_LCD_ADDR,0x24);
  2523   010318  0E24               	movlw	36
  2524   01031A  6E11               	movwf	I2C1_WRITESINGLEBYTE@dato^(0+1280),c
  2525   01031C  501E               	movf	_I2C_LCD_ADDR^(0+1280),w,c
  2526   01031E  EC68  F085         	call	_I2C1_WRITESINGLEBYTE
  2527   010322                     
  2528                           ;I2C_LCD.c: 302:     _delay((unsigned long)((20)*(32000000UL/4000000.0)));
  2529   010322  0E35               	movlw	53
  2530   010324                     u1097:
  2531   010324  2EE8               	decfsz	wreg,f,c
  2532   010326  D7FE               	bra	u1097
  2533   010328  0000               	nop	
  2534   01032A                     
  2535                           ;I2C_LCD.c: 303:     I2C1_WRITESINGLEBYTE(I2C_LCD_ADDR,0x20);
  2536   01032A  0E20               	movlw	32
  2537   01032C  6E11               	movwf	I2C1_WRITESINGLEBYTE@dato^(0+1280),c
  2538   01032E  501E               	movf	_I2C_LCD_ADDR^(0+1280),w,c
  2539   010330  EC68  F085         	call	_I2C1_WRITESINGLEBYTE
  2540   010334                     
  2541                           ;I2C_LCD.c: 305:     _delay((unsigned long)((15)*(32000000UL/4000.0)));
  2542   010334  0E9C               	movlw	156
  2543   010336  6E18               	movwf	??_I2C_LCD_INIT^(0+1280),c
  2544   010338  0ED7               	movlw	215
  2545   01033A                     u1107:
  2546   01033A  2EE8               	decfsz	wreg,f,c
  2547   01033C  D7FE               	bra	u1107
  2548   01033E  2E18               	decfsz	??_I2C_LCD_INIT^(0+1280),f,c
  2549   010340  D7FC               	bra	u1107
  2550   010342  0000               	nop	
  2551   010344                     
  2552                           ;I2C_LCD.c: 306:     I2C_BORRAR_LCD();
  2553   010344  EC7B  F086         	call	_I2C_BORRAR_LCD	;wreg free
  2554   010348                     
  2555                           ;I2C_LCD.c: 307:     I2C_CURSOR_HOME();
  2556   010348  EC77  F086         	call	_I2C_CURSOR_HOME	;wreg free
  2557   01034C                     
  2558                           ;I2C_LCD.c: 308:     I2C_CURSOR_ONOFF(1);
  2559   01034C  0E01               	movlw	1
  2560   01034E  ECE8  F085         	call	_I2C_CURSOR_ONOFF
  2561   010352  0012               	return		;funcret
  2562   010354                     __end_of_I2C_LCD_INIT:
  2563                           	callstack 0
  2564                           
  2565 ;; *************** function _I2C_CURSOR_ONOFF *****************
  2566 ;; Defined at:
  2567 ;;		line 116 in file "I2C_LCD.c"
  2568 ;; Parameters:    Size  Location     Type
  2569 ;;  estado          1    wreg     unsigned char 
  2570 ;; Auto vars:     Size  Location     Type
  2571 ;;  estado          1   22[COMRAM] unsigned char 
  2572 ;; Return value:  Size  Location     Type
  2573 ;;                  1    wreg      void 
  2574 ;; Registers used:
  2575 ;;		wreg, status,2, status,0, cstack
  2576 ;; Tracked objects:
  2577 ;;		On entry : 0/0
  2578 ;;		On exit  : 0/0
  2579 ;;		Unchanged: 0/0
  2580 ;; Data sizes:     COMRAM   BANK5   BANK6   BANK7   BANK8   BANK9  BANK10  BANK11  BANK12  BANK13  BANK14  BANK15  BANK1
      +6  BANK17  BANK18  BANK19  BANK20  BANK21  BANK22  BANK23  BANK24  BANK25  BANK26  BANK27  BANK28  BANK29  BANK30  BANK3
      +1  BANK32  BANK33  BANK34  BANK35  BANK36
  2581 ;;      Params:         0       0       0       0       0       0       0       0       0       0       0       0       
      +0       0       0       0       0       0       0       0       0       0       0       0       0       0       0       
      +0       0       0       0       0       0
  2582 ;;      Locals:         1       0       0       0       0       0       0       0       0       0       0       0       
      +0       0       0       0       0       0       0       0       0       0       0       0       0       0       0       
      +0       0       0       0       0       0
  2583 ;;      Temps:          0       0       0       0       0       0       0       0       0       0       0       0       
      +0       0       0       0       0       0       0       0       0       0       0       0       0       0       0       
      +0       0       0       0       0       0
  2584 ;;      Totals:         1       0       0       0       0       0       0       0       0       0       0       0       
      +0       0       0       0       0       0       0       0       0       0       0       0       0       0       0       
      +0       0       0       0       0       0
  2585 ;;Total ram usage:        1 bytes
  2586 ;; Hardware stack levels used: 1
  2587 ;; Hardware stack levels required when called: 6
  2588 ;; This function calls:
  2589 ;;		_I2C_ENVIA_LCD_CMD
  2590 ;; This function is called by:
  2591 ;;		_I2C_LCD_INIT
  2592 ;; This function uses a non-reentrant model
  2593 ;;
  2594                           
  2595                           	psect	text9
  2596   010BD0                     __ptext9:
  2597                           	callstack 0
  2598   010BD0                     _I2C_CURSOR_ONOFF:
  2599                           	callstack 118
  2600                           
  2601                           ;incstack = 0
  2602                           ;I2C_CURSOR_ONOFF@estado stored from wreg
  2603   010BD0  6E17               	movwf	I2C_CURSOR_ONOFF@estado^(0+1280),c
  2604   010BD2                     
  2605                           ;I2C_LCD.c: 117:  if(estado == 0) I2C_ENVIA_LCD_CMD(0x0E);
  2606   010BD2  5017               	movf	I2C_CURSOR_ONOFF@estado^(0+1280),w,c
  2607   010BD4  A4D8               	btfss	status,2,c
  2608   010BD6  EFEF  F085         	goto	u391
  2609   010BDA  EFF1  F085         	goto	u390
  2610   010BDE                     u391:
  2611   010BDE  EFF4  F085         	goto	l1943
  2612   010BE2                     u390:
  2613   010BE2  0E0E               	movlw	14
  2614   010BE4  EC66  F084         	call	_I2C_ENVIA_LCD_CMD
  2615   010BE8                     l1943:
  2616                           
  2617                           ;I2C_LCD.c: 118:  if(estado == 1) I2C_ENVIA_LCD_CMD(0x0C);
  2618   010BE8  0417               	decf	I2C_CURSOR_ONOFF@estado^(0+1280),w,c
  2619   010BEA  A4D8               	btfss	status,2,c
  2620   010BEC  EFFA  F085         	goto	u401
  2621   010BF0  EFFC  F085         	goto	u400
  2622   010BF4                     u401:
  2623   010BF4  EFFF  F085         	goto	l264
  2624   010BF8                     u400:
  2625   010BF8  0E0C               	movlw	12
  2626   010BFA  EC66  F084         	call	_I2C_ENVIA_LCD_CMD
  2627   010BFE                     l264:
  2628   010BFE  0012               	return		;funcret
  2629   010C00                     __end_of_I2C_CURSOR_ONOFF:
  2630                           	callstack 0
  2631                           
  2632 ;; *************** function _I2C_CURSOR_HOME *****************
  2633 ;; Defined at:
  2634 ;;		line 96 in file "I2C_LCD.c"
  2635 ;; Parameters:    Size  Location     Type
  2636 ;;		None
  2637 ;; Auto vars:     Size  Location     Type
  2638 ;;		None
  2639 ;; Return value:  Size  Location     Type
  2640 ;;                  1    wreg      void 
  2641 ;; Registers used:
  2642 ;;		wreg, status,2, status,0, cstack
  2643 ;; Tracked objects:
  2644 ;;		On entry : 0/0
  2645 ;;		On exit  : 0/0
  2646 ;;		Unchanged: 0/0
  2647 ;; Data sizes:     COMRAM   BANK5   BANK6   BANK7   BANK8   BANK9  BANK10  BANK11  BANK12  BANK13  BANK14  BANK15  BANK1
      +6  BANK17  BANK18  BANK19  BANK20  BANK21  BANK22  BANK23  BANK24  BANK25  BANK26  BANK27  BANK28  BANK29  BANK30  BANK3
      +1  BANK32  BANK33  BANK34  BANK35  BANK36
  2648 ;;      Params:         0       0       0       0       0       0       0       0       0       0       0       0       
      +0       0       0       0       0       0       0       0       0       0       0       0       0       0       0       
      +0       0       0       0       0       0
  2649 ;;      Locals:         0       0       0       0       0       0       0       0       0       0       0       0       
      +0       0       0       0       0       0       0       0       0       0       0       0       0       0       0       
      +0       0       0       0       0       0
  2650 ;;      Temps:          0       0       0       0       0       0       0       0       0       0       0       0       
      +0       0       0       0       0       0       0       0       0       0       0       0       0       0       0       
      +0       0       0       0       0       0
  2651 ;;      Totals:         0       0       0       0       0       0       0       0       0       0       0       0       
      +0       0       0       0       0       0       0       0       0       0       0       0       0       0       0       
      +0       0       0       0       0       0
  2652 ;;Total ram usage:        0 bytes
  2653 ;; Hardware stack levels used: 1
  2654 ;; Hardware stack levels required when called: 6
  2655 ;; This function calls:
  2656 ;;		_I2C_ENVIA_LCD_CMD
  2657 ;; This function is called by:
  2658 ;;		_I2C_LCD_INIT
  2659 ;; This function uses a non-reentrant model
  2660 ;;
  2661                           
  2662                           	psect	text10
  2663   010CEE                     __ptext10:
  2664                           	callstack 0
  2665   010CEE                     _I2C_CURSOR_HOME:
  2666                           	callstack 118
  2667   010CEE                     
  2668                           ;I2C_LCD.c: 97:  I2C_ENVIA_LCD_CMD(0x02);
  2669   010CEE  0E02               	movlw	2
  2670   010CF0  EC66  F084         	call	_I2C_ENVIA_LCD_CMD
  2671   010CF4  0012               	return		;funcret
  2672   010CF6                     __end_of_I2C_CURSOR_HOME:
  2673                           	callstack 0
  2674                           
  2675 ;; *************** function _I2C_BORRAR_LCD *****************
  2676 ;; Defined at:
  2677 ;;		line 155 in file "I2C_LCD.c"
  2678 ;; Parameters:    Size  Location     Type
  2679 ;;		None
  2680 ;; Auto vars:     Size  Location     Type
  2681 ;;		None
  2682 ;; Return value:  Size  Location     Type
  2683 ;;                  1    wreg      void 
  2684 ;; Registers used:
  2685 ;;		wreg, status,2, status,0, cstack
  2686 ;; Tracked objects:
  2687 ;;		On entry : 0/0
  2688 ;;		On exit  : 0/0
  2689 ;;		Unchanged: 0/0
  2690 ;; Data sizes:     COMRAM   BANK5   BANK6   BANK7   BANK8   BANK9  BANK10  BANK11  BANK12  BANK13  BANK14  BANK15  BANK1
      +6  BANK17  BANK18  BANK19  BANK20  BANK21  BANK22  BANK23  BANK24  BANK25  BANK26  BANK27  BANK28  BANK29  BANK30  BANK3
      +1  BANK32  BANK33  BANK34  BANK35  BANK36
  2691 ;;      Params:         0       0       0       0       0       0       0       0       0       0       0       0       
      +0       0       0       0       0       0       0       0       0       0       0       0       0       0       0       
      +0       0       0       0       0       0
  2692 ;;      Locals:         0       0       0       0       0       0       0       0       0       0       0       0       
      +0       0       0       0       0       0       0       0       0       0       0       0       0       0       0       
      +0       0       0       0       0       0
  2693 ;;      Temps:          0       0       0       0       0       0       0       0       0       0       0       0       
      +0       0       0       0       0       0       0       0       0       0       0       0       0       0       0       
      +0       0       0       0       0       0
  2694 ;;      Totals:         0       0       0       0       0       0       0       0       0       0       0       0       
      +0       0       0       0       0       0       0       0       0       0       0       0       0       0       0       
      +0       0       0       0       0       0
  2695 ;;Total ram usage:        0 bytes
  2696 ;; Hardware stack levels used: 1
  2697 ;; Hardware stack levels required when called: 6
  2698 ;; This function calls:
  2699 ;;		_I2C_ENVIA_LCD_CMD
  2700 ;; This function is called by:
  2701 ;;		_I2C_LCD_INIT
  2702 ;; This function uses a non-reentrant model
  2703 ;;
  2704                           
  2705                           	psect	text11
  2706   010CF6                     __ptext11:
  2707                           	callstack 0
  2708   010CF6                     _I2C_BORRAR_LCD:
  2709                           	callstack 118
  2710   010CF6                     
  2711                           ;I2C_LCD.c: 156:  I2C_ENVIA_LCD_CMD(0x01);
  2712   010CF6  0E01               	movlw	1
  2713   010CF8  EC66  F084         	call	_I2C_ENVIA_LCD_CMD
  2714   010CFC  0012               	return		;funcret
  2715   010CFE                     __end_of_I2C_BORRAR_LCD:
  2716                           	callstack 0
  2717                           
  2718 ;; *************** function _I2C_ENVIA_LCD_CMD *****************
  2719 ;; Defined at:
  2720 ;;		line 159 in file "I2C_LCD.c"
  2721 ;; Parameters:    Size  Location     Type
  2722 ;;  command         1    wreg     unsigned char 
  2723 ;; Auto vars:     Size  Location     Type
  2724 ;;  command         1   19[COMRAM] unsigned char 
  2725 ;;  lownibble       1   21[COMRAM] unsigned char 
  2726 ;;  highnibble      1   20[COMRAM] unsigned char 
  2727 ;; Return value:  Size  Location     Type
  2728 ;;                  1    wreg      void 
  2729 ;; Registers used:
  2730 ;;		wreg, status,2, status,0, cstack
  2731 ;; Tracked objects:
  2732 ;;		On entry : 0/0
  2733 ;;		On exit  : 0/0
  2734 ;;		Unchanged: 0/0
  2735 ;; Data sizes:     COMRAM   BANK5   BANK6   BANK7   BANK8   BANK9  BANK10  BANK11  BANK12  BANK13  BANK14  BANK15  BANK1
      +6  BANK17  BANK18  BANK19  BANK20  BANK21  BANK22  BANK23  BANK24  BANK25  BANK26  BANK27  BANK28  BANK29  BANK30  BANK3
      +1  BANK32  BANK33  BANK34  BANK35  BANK36
  2736 ;;      Params:         0       0       0       0       0       0       0       0       0       0       0       0       
      +0       0       0       0       0       0       0       0       0       0       0       0       0       0       0       
      +0       0       0       0       0       0
  2737 ;;      Locals:         3       0       0       0       0       0       0       0       0       0       0       0       
      +0       0       0       0       0       0       0       0       0       0       0       0       0       0       0       
      +0       0       0       0       0       0
  2738 ;;      Temps:          1       0       0       0       0       0       0       0       0       0       0       0       
      +0       0       0       0       0       0       0       0       0       0       0       0       0       0       0       
      +0       0       0       0       0       0
  2739 ;;      Totals:         4       0       0       0       0       0       0       0       0       0       0       0       
      +0       0       0       0       0       0       0       0       0       0       0       0       0       0       0       
      +0       0       0       0       0       0
  2740 ;;Total ram usage:        4 bytes
  2741 ;; Hardware stack levels used: 1
  2742 ;; Hardware stack levels required when called: 5
  2743 ;; This function calls:
  2744 ;;		_I2C1_WRITESINGLEBYTE
  2745 ;; This function is called by:
  2746 ;;		_I2C_CURSOR_HOME
  2747 ;;		_I2C_CURSOR_ONOFF
  2748 ;;		_I2C_BORRAR_LCD
  2749 ;;		_I2C_BLINK_CURSOR
  2750 ;;		_I2C_DISPLAY_ONOFF
  2751 ;;		_I2C_CURSOR_SHIFTLEFT
  2752 ;;		_I2C_CURSOR_SHIFTRIGHT
  2753 ;;		_I2C_DISPLAY_SHIFTLEFT
  2754 ;;		_I2C_DISPLAY_SHIFTRIGHT
  2755 ;;		_I2C_GENERACARACTER
  2756 ;; This function uses a non-reentrant model
  2757 ;;
  2758                           
  2759                           	psect	text12
  2760   0108CC                     __ptext12:
  2761                           	callstack 0
  2762   0108CC                     _I2C_ENVIA_LCD_CMD:
  2763                           	callstack 118
  2764                           
  2765                           ;incstack = 0
  2766                           ;I2C_ENVIA_LCD_CMD@command stored from wreg
  2767   0108CC  6E14               	movwf	I2C_ENVIA_LCD_CMD@command^(0+1280),c
  2768   0108CE                     
  2769                           ;I2C_LCD.c: 160:     unsigned char highnibble;;I2C_LCD.c: 161:     unsigned char lownibb
      +                          le;;I2C_LCD.c: 163:     highnibble = (command & 0xF0) | 0x08;
  2770   0108CE  5014               	movf	I2C_ENVIA_LCD_CMD@command^(0+1280),w,c
  2771   0108D0  0BF0               	andlw	240
  2772   0108D2  0908               	iorlw	8
  2773   0108D4  6E15               	movwf	I2C_ENVIA_LCD_CMD@highnibble^(0+1280),c
  2774                           
  2775                           ;I2C_LCD.c: 164:     lownibble = (unsigned char)(((command & 0x0F)<<4)| 0x08);
  2776   0108D6  C514  F513         	movff	I2C_ENVIA_LCD_CMD@command,??_I2C_ENVIA_LCD_CMD
  2777   0108DA  0E0F               	movlw	15
  2778   0108DC  1613               	andwf	??_I2C_ENVIA_LCD_CMD^(0+1280),f,c
  2779   0108DE  3813               	swapf	??_I2C_ENVIA_LCD_CMD^(0+1280),w,c
  2780   0108E0  0BF0               	andlw	240
  2781   0108E2  0908               	iorlw	8
  2782   0108E4  6E16               	movwf	I2C_ENVIA_LCD_CMD@lownibble^(0+1280),c
  2783   0108E6                     
  2784                           ;I2C_LCD.c: 166:     I2C1_WRITESINGLEBYTE(I2C_LCD_ADDR,(highnibble | 0x04));
  2785   0108E6  5015               	movf	I2C_ENVIA_LCD_CMD@highnibble^(0+1280),w,c
  2786   0108E8  0904               	iorlw	4
  2787   0108EA  6E11               	movwf	I2C1_WRITESINGLEBYTE@dato^(0+1280),c
  2788   0108EC  501E               	movf	_I2C_LCD_ADDR^(0+1280),w,c
  2789   0108EE  EC68  F085         	call	_I2C1_WRITESINGLEBYTE
  2790   0108F2                     
  2791                           ;I2C_LCD.c: 167:     _delay((unsigned long)((20)*(32000000UL/4000000.0)));
  2792   0108F2  0E35               	movlw	53
  2793   0108F4                     u1117:
  2794   0108F4  2EE8               	decfsz	wreg,f,c
  2795   0108F6  D7FE               	bra	u1117
  2796   0108F8  0000               	nop	
  2797   0108FA                     
  2798                           ;I2C_LCD.c: 168:     I2C1_WRITESINGLEBYTE(I2C_LCD_ADDR,highnibble);
  2799   0108FA  C515  F511         	movff	I2C_ENVIA_LCD_CMD@highnibble,I2C1_WRITESINGLEBYTE@dato
  2800   0108FE  501E               	movf	_I2C_LCD_ADDR^(0+1280),w,c
  2801   010900  EC68  F085         	call	_I2C1_WRITESINGLEBYTE
  2802   010904                     
  2803                           ;I2C_LCD.c: 169:     _delay((unsigned long)((20)*(32000000UL/4000000.0)));
  2804   010904  0E35               	movlw	53
  2805   010906                     u1127:
  2806   010906  2EE8               	decfsz	wreg,f,c
  2807   010908  D7FE               	bra	u1127
  2808   01090A  0000               	nop	
  2809   01090C                     
  2810                           ;I2C_LCD.c: 171:     I2C1_WRITESINGLEBYTE(I2C_LCD_ADDR,(lownibble | 0x04));
  2811   01090C  5016               	movf	I2C_ENVIA_LCD_CMD@lownibble^(0+1280),w,c
  2812   01090E  0904               	iorlw	4
  2813   010910  6E11               	movwf	I2C1_WRITESINGLEBYTE@dato^(0+1280),c
  2814   010912  501E               	movf	_I2C_LCD_ADDR^(0+1280),w,c
  2815   010914  EC68  F085         	call	_I2C1_WRITESINGLEBYTE
  2816   010918                     
  2817                           ;I2C_LCD.c: 172:     _delay((unsigned long)((20)*(32000000UL/4000000.0)));
  2818   010918  0E35               	movlw	53
  2819   01091A                     u1137:
  2820   01091A  2EE8               	decfsz	wreg,f,c
  2821   01091C  D7FE               	bra	u1137
  2822   01091E  0000               	nop	
  2823   010920                     
  2824                           ;I2C_LCD.c: 173:     I2C1_WRITESINGLEBYTE(I2C_LCD_ADDR,lownibble);
  2825   010920  C516  F511         	movff	I2C_ENVIA_LCD_CMD@lownibble,I2C1_WRITESINGLEBYTE@dato
  2826   010924  501E               	movf	_I2C_LCD_ADDR^(0+1280),w,c
  2827   010926  EC68  F085         	call	_I2C1_WRITESINGLEBYTE
  2828   01092A                     
  2829                           ;I2C_LCD.c: 174:     _delay((unsigned long)((20)*(32000000UL/4000000.0)));
  2830   01092A  0E35               	movlw	53
  2831   01092C                     u1147:
  2832   01092C  2EE8               	decfsz	wreg,f,c
  2833   01092E  D7FE               	bra	u1147
  2834   010930  0000               	nop	
  2835   010932  0012               	return		;funcret
  2836   010934                     __end_of_I2C_ENVIA_LCD_CMD:
  2837                           	callstack 0
  2838                           
  2839 ;; *************** function _I2C1_WRITESINGLEBYTE *****************
  2840 ;; Defined at:
  2841 ;;		line 60 in file "I2C_LCD.c"
  2842 ;; Parameters:    Size  Location     Type
  2843 ;;  direccion       1    wreg     unsigned char 
  2844 ;;  dato            1   16[COMRAM] unsigned char 
  2845 ;; Auto vars:     Size  Location     Type
  2846 ;;  direccion       1   17[COMRAM] unsigned char 
  2847 ;; Return value:  Size  Location     Type
  2848 ;;                  1    wreg      void 
  2849 ;; Registers used:
  2850 ;;		wreg, status,2, status,0
  2851 ;; Tracked objects:
  2852 ;;		On entry : 0/0
  2853 ;;		On exit  : 0/0
  2854 ;;		Unchanged: 0/0
  2855 ;; Data sizes:     COMRAM   BANK5   BANK6   BANK7   BANK8   BANK9  BANK10  BANK11  BANK12  BANK13  BANK14  BANK15  BANK1
      +6  BANK17  BANK18  BANK19  BANK20  BANK21  BANK22  BANK23  BANK24  BANK25  BANK26  BANK27  BANK28  BANK29  BANK30  BANK3
      +1  BANK32  BANK33  BANK34  BANK35  BANK36
  2856 ;;      Params:         1       0       0       0       0       0       0       0       0       0       0       0       
      +0       0       0       0       0       0       0       0       0       0       0       0       0       0       0       
      +0       0       0       0       0       0
  2857 ;;      Locals:         1       0       0       0       0       0       0       0       0       0       0       0       
      +0       0       0       0       0       0       0       0       0       0       0       0       0       0       0       
      +0       0       0       0       0       0
  2858 ;;      Temps:          0       0       0       0       0       0       0       0       0       0       0       0       
      +0       0       0       0       0       0       0       0       0       0       0       0       0       0       0       
      +0       0       0       0       0       0
  2859 ;;      Totals:         2       0       0       0       0       0       0       0       0       0       0       0       
      +0       0       0       0       0       0       0       0       0       0       0       0       0       0       0       
      +0       0       0       0       0       0
  2860 ;;Total ram usage:        2 bytes
  2861 ;; Hardware stack levels used: 1
  2862 ;; Hardware stack levels required when called: 4
  2863 ;; This function calls:
  2864 ;;		Nothing
  2865 ;; This function is called by:
  2866 ;;		_I2C_ENVIA_LCD_CMD
  2867 ;;		_I2C_LCD_INIT
  2868 ;; This function uses a non-reentrant model
  2869 ;;
  2870                           
  2871                           	psect	text13
  2872   010AD0                     __ptext13:
  2873                           	callstack 0
  2874   010AD0                     _I2C1_WRITESINGLEBYTE:
  2875                           	callstack 118
  2876                           
  2877                           ;incstack = 0
  2878                           ;I2C1_WRITESINGLEBYTE@direccion stored from wreg
  2879   010AD0  6E12               	movwf	I2C1_WRITESINGLEBYTE@direccion^(0+1280),c
  2880   010AD2                     
  2881                           ;I2C_LCD.c: 61:     I2C1CNT = 1;
  2882   010AD2  0E01               	movlw	1
  2883   010AD4  0102               	movlb	2	; () banked
  2884   010AD6  6F8D               	movwf	141,b	;volatile
  2885   010AD8                     
  2886                           ; BSR set to: 2
  2887                           ;I2C_LCD.c: 62:     I2C1ADB1 = (direccion << 1) & 0xFE;
  2888   010AD8  5012               	movf	I2C1_WRITESINGLEBYTE@direccion^(0+1280),w,c
  2889   010ADA  2412               	addwf	I2C1_WRITESINGLEBYTE@direccion^(0+1280),w,c
  2890   010ADC  0BFE               	andlw	254
  2891   010ADE  6F8F               	movwf	143,b	;volatile
  2892   010AE0                     
  2893                           ; BSR set to: 2
  2894                           ;I2C_LCD.c: 63:     I2C1TXB = dato;
  2895   010AE0  C511  F28C         	movff	I2C1_WRITESINGLEBYTE@dato,652	;volatile
  2896   010AE4                     
  2897                           ; BSR set to: 2
  2898                           ;I2C_LCD.c: 64:     I2C1CON0bits.S = 1;
  2899   010AE4  8B94               	bsf	148,5,b	;volatile
  2900   010AE6                     l215:
  2901                           
  2902                           ; BSR set to: 2
  2903   010AE6  AB99               	btfss	153,5,b	;volatile
  2904   010AE8  EF78  F085         	goto	u351
  2905   010AEC  EF7A  F085         	goto	u350
  2906   010AF0                     u351:
  2907   010AF0  EF73  F085         	goto	l215
  2908   010AF4                     u350:
  2909   010AF4                     l218:
  2910                           
  2911                           ; BSR set to: 2
  2912   010AF4  BB95               	btfsc	149,5,b	;volatile
  2913   010AF6  EF7F  F085         	goto	u361
  2914   010AFA  EF81  F085         	goto	u360
  2915   010AFE                     u361:
  2916   010AFE  EF7A  F085         	goto	l218
  2917   010B02                     u360:
  2918   010B02                     l221:
  2919                           
  2920                           ; BSR set to: 2
  2921   010B02  A59A               	btfss	154,2,b	;volatile
  2922   010B04  EF86  F085         	goto	u371
  2923   010B08  EF88  F085         	goto	u370
  2924   010B0C                     u371:
  2925   010B0C  EF81  F085         	goto	l221
  2926   010B10                     u370:
  2927   010B10                     
  2928                           ; BSR set to: 2
  2929   010B10  0012               	return		;funcret
  2930   010B12                     __end_of_I2C1_WRITESINGLEBYTE:
  2931                           	callstack 0
  2932                           
  2933 ;; *************** function _I2C1_INIT *****************
  2934 ;; Defined at:
  2935 ;;		line 34 in file "I2C_LCD.c"
  2936 ;; Parameters:    Size  Location     Type
  2937 ;;		None
  2938 ;; Auto vars:     Size  Location     Type
  2939 ;;		None
  2940 ;; Return value:  Size  Location     Type
  2941 ;;                  1    wreg      void 
  2942 ;; Registers used:
  2943 ;;		wreg, status,2
  2944 ;; Tracked objects:
  2945 ;;		On entry : 0/0
  2946 ;;		On exit  : 0/0
  2947 ;;		Unchanged: 0/0
  2948 ;; Data sizes:     COMRAM   BANK5   BANK6   BANK7   BANK8   BANK9  BANK10  BANK11  BANK12  BANK13  BANK14  BANK15  BANK1
      +6  BANK17  BANK18  BANK19  BANK20  BANK21  BANK22  BANK23  BANK24  BANK25  BANK26  BANK27  BANK28  BANK29  BANK30  BANK3
      +1  BANK32  BANK33  BANK34  BANK35  BANK36
  2949 ;;      Params:         0       0       0       0       0       0       0       0       0       0       0       0       
      +0       0       0       0       0       0       0       0       0       0       0       0       0       0       0       
      +0       0       0       0       0       0
  2950 ;;      Locals:         0       0       0       0       0       0       0       0       0       0       0       0       
      +0       0       0       0       0       0       0       0       0       0       0       0       0       0       0       
      +0       0       0       0       0       0
  2951 ;;      Temps:          0       0       0       0       0       0       0       0       0       0       0       0       
      +0       0       0       0       0       0       0       0       0       0       0       0       0       0       0       
      +0       0       0       0       0       0
  2952 ;;      Totals:         0       0       0       0       0       0       0       0       0       0       0       0       
      +0       0       0       0       0       0       0       0       0       0       0       0       0       0       0       
      +0       0       0       0       0       0
  2953 ;;Total ram usage:        0 bytes
  2954 ;; Hardware stack levels used: 1
  2955 ;; Hardware stack levels required when called: 4
  2956 ;; This function calls:
  2957 ;;		Nothing
  2958 ;; This function is called by:
  2959 ;;		_I2C_LCD_INIT
  2960 ;; This function uses a non-reentrant model
  2961 ;;
  2962                           
  2963                           	psect	text14
  2964   010A86                     __ptext14:
  2965                           	callstack 0
  2966   010A86                     _I2C1_INIT:
  2967                           	callstack 120
  2968   010A86                     
  2969                           ;I2C_LCD.c: 36:     TRISCbits.TRISC3 = 0;
  2970   010A86  96C8               	bcf	200,3,c	;volatile
  2971                           
  2972                           ;I2C_LCD.c: 37:     TRISCbits.TRISC4 = 0;
  2973   010A88  98C8               	bcf	200,4,c	;volatile
  2974                           
  2975                           ;I2C_LCD.c: 38:     ANSELCbits.ANSELC3 = 0;
  2976   010A8A  0104               	movlb	4	; () banked
  2977   010A8C  9710               	bcf	16,3,b	;volatile
  2978                           
  2979                           ;I2C_LCD.c: 39:     ANSELCbits.ANSELC4 = 0;
  2980   010A8E  9910               	bcf	16,4,b	;volatile
  2981                           
  2982                           ;I2C_LCD.c: 40:     ODCONCbits.ODCC3 = 1;
  2983   010A90  8712               	bsf	18,3,b	;volatile
  2984                           
  2985                           ;I2C_LCD.c: 41:     ODCONCbits.ODCC4 = 1;
  2986   010A92  8912               	bsf	18,4,b	;volatile
  2987   010A94                     
  2988                           ; BSR set to: 4
  2989                           ;I2C_LCD.c: 43:     RC3PPS = 0x37;
  2990   010A94  0E37               	movlw	55
  2991   010A96  0102               	movlb	2	; () banked
  2992   010A98  6F14               	movwf	20,b	;volatile
  2993                           
  2994                           ;I2C_LCD.c: 44:     RC4PPS = 0x38;
  2995   010A9A  0E38               	movlw	56
  2996   010A9C  6F15               	movwf	21,b	;volatile
  2997                           
  2998                           ;I2C_LCD.c: 46:     RC3I2Cbits.PU = 2;
  2999   010A9E  5187               	movf	135,w,b	;volatile
  3000   010AA0  0BCF               	andlw	-49
  3001   010AA2  0920               	iorlw	32
  3002   010AA4  6F87               	movwf	135,b	;volatile
  3003                           
  3004                           ;I2C_LCD.c: 47:     RC3I2Cbits.TH = 1;
  3005   010AA6  5187               	movf	135,w,b	;volatile
  3006   010AA8  0BFC               	andlw	-4
  3007   010AAA  0901               	iorlw	1
  3008   010AAC  6F87               	movwf	135,b	;volatile
  3009                           
  3010                           ;I2C_LCD.c: 48:     RC4I2Cbits.PU = 2;
  3011   010AAE  5186               	movf	134,w,b	;volatile
  3012   010AB0  0BCF               	andlw	-49
  3013   010AB2  0920               	iorlw	32
  3014   010AB4  6F86               	movwf	134,b	;volatile
  3015                           
  3016                           ;I2C_LCD.c: 49:     RC4I2Cbits.TH = 1;
  3017   010AB6  5186               	movf	134,w,b	;volatile
  3018   010AB8  0BFC               	andlw	-4
  3019   010ABA  0901               	iorlw	1
  3020   010ABC  6F86               	movwf	134,b	;volatile
  3021   010ABE                     
  3022                           ; BSR set to: 2
  3023                           ;I2C_LCD.c: 50:     I2C1CON0bits.EN = 1;
  3024   010ABE  8F94               	bsf	148,7,b	;volatile
  3025                           
  3026                           ;I2C_LCD.c: 51:     I2C1CLKbits.CLK = 3;
  3027   010AC0  0E03               	movlw	3
  3028   010AC2  6F9C               	movwf	156,b	;volatile
  3029                           
  3030                           ;I2C_LCD.c: 52:     I2C1CON0bits.MODE = 0x4;
  3031   010AC4  5194               	movf	148,w,b	;volatile
  3032   010AC6  0BF8               	andlw	-8
  3033   010AC8  0904               	iorlw	4
  3034   010ACA  6F94               	movwf	148,b	;volatile
  3035   010ACC                     
  3036                           ; BSR set to: 2
  3037                           ;I2C_LCD.c: 53:     I2C1CON2bits.ABD = 0;
  3038   010ACC  9996               	bcf	150,4,b	;volatile
  3039   010ACE                     
  3040                           ; BSR set to: 2
  3041   010ACE  0012               	return		;funcret
  3042   010AD0                     __end_of_I2C1_INIT:
  3043                           	callstack 0
  3044                           
  3045 ;; *************** function _U1RX_ISR *****************
  3046 ;; Defined at:
  3047 ;;		line 109 in file "maincode02.c"
  3048 ;; Parameters:    Size  Location     Type
  3049 ;;		None
  3050 ;; Auto vars:     Size  Location     Type
  3051 ;;		None
  3052 ;; Return value:  Size  Location     Type
  3053 ;;                  1    wreg      void 
  3054 ;; Registers used:
  3055 ;;		wreg, status,2, status,0, tblptrl, tblptrh, tblptru, cstack
  3056 ;; Tracked objects:
  3057 ;;		On entry : 0/0
  3058 ;;		On exit  : 0/0
  3059 ;;		Unchanged: 0/0
  3060 ;; Data sizes:     COMRAM   BANK5   BANK6   BANK7   BANK8   BANK9  BANK10  BANK11  BANK12  BANK13  BANK14  BANK15  BANK1
      +6  BANK17  BANK18  BANK19  BANK20  BANK21  BANK22  BANK23  BANK24  BANK25  BANK26  BANK27  BANK28  BANK29  BANK30  BANK3
      +1  BANK32  BANK33  BANK34  BANK35  BANK36
  3061 ;;      Params:         0       0       0       0       0       0       0       0       0       0       0       0       
      +0       0       0       0       0       0       0       0       0       0       0       0       0       0       0       
      +0       0       0       0       0       0
  3062 ;;      Locals:         0       0       0       0       0       0       0       0       0       0       0       0       
      +0       0       0       0       0       0       0       0       0       0       0       0       0       0       0       
      +0       0       0       0       0       0
  3063 ;;      Temps:          4       0       0       0       0       0       0       0       0       0       0       0       
      +0       0       0       0       0       0       0       0       0       0       0       0       0       0       0       
      +0       0       0       0       0       0
  3064 ;;      Totals:         4       0       0       0       0       0       0       0       0       0       0       0       
      +0       0       0       0       0       0       0       0       0       0       0       0       0       0       0       
      +0       0       0       0       0       0
  3065 ;;Total ram usage:        4 bytes
  3066 ;; Hardware stack levels used: 1
  3067 ;; Hardware stack levels required when called: 3
  3068 ;; This function calls:
  3069 ;;		_I2C_ESCRIBE_MENSAJE2
  3070 ;;		_I2C_POS_CURSOR
  3071 ;;		_vis_menu_LCD
  3072 ;;		i2_I2C_BORRAR_LCD
  3073 ;;		i2_U1_NEWLINE
  3074 ;;		i2_U1_STRING_SEND
  3075 ;;		i2_vis_menu_P
  3076 ;; This function is called by:
  3077 ;;		Interrupt level 2
  3078 ;; This function uses a non-reentrant model
  3079 ;;
  3080                           
  3081                           	psect	text15
  3082   010354                     __ptext15:
  3083                           	callstack 0
  3084   010354                     _U1RX_ISR:
  3085                           	callstack 118
  3086                           
  3087                           ; BSR set to: 2
  3088                           ;incstack = 0
  3089   010354  C4F6 F50D          	movff	tblptrl,??_U1RX_ISR
  3090   010358  C4F7 F50E          	movff	tblptrh,??_U1RX_ISR+1
  3091   01035C  C4F8 F50F          	movff	tblptru,??_U1RX_ISR+2
  3092   010360  C4F5 F510          	movff	tablat,??_U1RX_ISR+3
  3093   010364                     
  3094                           ;maincode02.c: 110:     PIR4bits.U1RXIF = 0;
  3095   010364  90B2               	bcf	178,0,c	;volatile
  3096   010366                     
  3097                           ;maincode02.c: 111:     if(menu_activo == 0){
  3098   010366  501D               	movf	_menu_activo^(0+1280),w,c
  3099   010368  A4D8               	btfss	status,2,c
  3100   01036A  EFB9  F081         	goto	i2u53_41
  3101   01036E  EFBB  F081         	goto	i2u53_40
  3102   010372                     i2u53_41:
  3103   010372  EFF7  F081         	goto	i2l2433
  3104   010376                     i2u53_40:
  3105   010376  EFE3  F081         	goto	i2l2431
  3106   01037A                     i2l143:
  3107                           
  3108                           ; BSR set to: 2
  3109                           ;maincode02.c: 114:                 LATEbits.LATE0 = 1;
  3110   01037A  80C2               	bsf	194,0,c	;volatile
  3111   01037C                     
  3112                           ; BSR set to: 2
  3113                           ;maincode02.c: 115:                 U1_STRING_SEND("LED encendido!");
  3114   01037C  0EC6               	movlw	low STR_30
  3115   01037E  6E05               	movwf	i2U1_STRING_SEND@cadena^(0+1280),c
  3116   010380  0EFF               	movlw	high STR_30
  3117   010382  6E06               	movwf	(i2U1_STRING_SEND@cadena+1)^(0+1280),c
  3118   010384  ECF5  F084         	call	i2_U1_STRING_SEND	;wreg free
  3119   010388                     i2l2415:
  3120                           
  3121                           ;maincode02.c: 116:                 U1_NEWLINE();
  3122   010388  EC70  F086         	call	i2_U1_NEWLINE	;wreg free
  3123                           
  3124                           ;maincode02.c: 117:                 break;
  3125   01038C  EF5F  F082         	goto	i2l159
  3126   010390                     i2l145:
  3127                           
  3128                           ; BSR set to: 2
  3129                           ;maincode02.c: 119:                 LATEbits.LATE0 = 0;
  3130   010390  90C2               	bcf	194,0,c	;volatile
  3131   010392                     
  3132                           ; BSR set to: 2
  3133                           ;maincode02.c: 120:                 U1_STRING_SEND("LED apagado!");
  3134   010392  0ED5               	movlw	low STR_31
  3135   010394  6E05               	movwf	i2U1_STRING_SEND@cadena^(0+1280),c
  3136   010396  0EFF               	movlw	high STR_31
  3137   010398  6E06               	movwf	(i2U1_STRING_SEND@cadena+1)^(0+1280),c
  3138   01039A  ECF5  F084         	call	i2_U1_STRING_SEND	;wreg free
  3139   01039E  EFC4  F081         	goto	i2l2415
  3140   0103A2                     i2l2421:
  3141                           
  3142                           ; BSR set to: 2
  3143                           ;maincode02.c: 124:                 vis_menu_P();
  3144   0103A2  EC01  F083         	call	i2_vis_menu_P	;wreg free
  3145                           
  3146                           ;maincode02.c: 125:                 break;
  3147   0103A6  EF5F  F082         	goto	i2l159
  3148   0103AA                     i2l2423:
  3149                           
  3150                           ; BSR set to: 2
  3151                           ;maincode02.c: 127:                 vis_menu_LCD();
  3152   0103AA  EC9A  F083         	call	_vis_menu_LCD	;wreg free
  3153   0103AE                     
  3154                           ;maincode02.c: 128:                 menu_activo = 1;
  3155   0103AE  0E01               	movlw	1
  3156   0103B0  6E1D               	movwf	_menu_activo^(0+1280),c
  3157                           
  3158                           ;maincode02.c: 129:                 break;
  3159   0103B2  EF5F  F082         	goto	i2l159
  3160   0103B6                     i2l2427:
  3161                           
  3162                           ; BSR set to: 2
  3163                           ;maincode02.c: 131:                 U1_STRING_SEND("Opcion invalidad, intente de nuevo")
      +                          ;
  3164   0103B6  0E23               	movlw	low STR_32
  3165   0103B8  6E05               	movwf	i2U1_STRING_SEND@cadena^(0+1280),c
  3166   0103BA  0EFD               	movlw	high STR_32
  3167   0103BC  6E06               	movwf	(i2U1_STRING_SEND@cadena+1)^(0+1280),c
  3168   0103BE  ECF5  F084         	call	i2_U1_STRING_SEND	;wreg free
  3169   0103C2  EFC4  F081         	goto	i2l2415
  3170   0103C6                     i2l2431:
  3171   0103C6  0102               	movlb	2	; () banked
  3172   0103C8  51A1               	movf	161,w,b	;volatile
  3173                           
  3174                           ; Switch size 1, requested type "simple"
  3175                           ; Number of cases is 4, Range of values is 49 to 112
  3176                           ; switch strategies available:
  3177                           ; Name         Instructions Cycles
  3178                           ; simple_byte           13     7 (average)
  3179                           ;	Chosen strategy is simple_byte
  3180   0103CA  0A31               	xorlw	49	; case 49
  3181   0103CC  B4D8               	btfsc	status,2,c
  3182   0103CE  EFBD  F081         	goto	i2l143
  3183   0103D2  0A03               	xorlw	3	; case 50
  3184   0103D4  B4D8               	btfsc	status,2,c
  3185   0103D6  EFC8  F081         	goto	i2l145
  3186   0103DA  0A5F               	xorlw	95	; case 109
  3187   0103DC  B4D8               	btfsc	status,2,c
  3188   0103DE  EFD1  F081         	goto	i2l2421
  3189   0103E2  0A1D               	xorlw	29	; case 112
  3190   0103E4  B4D8               	btfsc	status,2,c
  3191   0103E6  EFD5  F081         	goto	i2l2423
  3192   0103EA  EFDB  F081         	goto	i2l2427
  3193   0103EE                     i2l2433:
  3194   0103EE  041D               	decf	_menu_activo^(0+1280),w,c
  3195   0103F0  A4D8               	btfss	status,2,c
  3196   0103F2  EFFD  F081         	goto	i2u54_41
  3197   0103F6  EFFF  F081         	goto	i2u54_40
  3198   0103FA                     i2u54_41:
  3199   0103FA  EF5F  F082         	goto	i2l159
  3200   0103FE                     i2u54_40:
  3201   0103FE  EF47  F082         	goto	i2l2469
  3202   010402                     i2l2437:
  3203                           
  3204                           ; BSR set to: 2
  3205                           ;maincode02.c: 138:                 I2C_BORRAR_LCD();
  3206   010402  EC7F  F086         	call	i2_I2C_BORRAR_LCD	;wreg free
  3207   010406                     
  3208                           ;maincode02.c: 139:                 U1_STRING_SEND("LCD borrado");
  3209   010406  0EE2               	movlw	low STR_33
  3210   010408  6E05               	movwf	i2U1_STRING_SEND@cadena^(0+1280),c
  3211   01040A  0EFF               	movlw	high STR_33
  3212   01040C  6E06               	movwf	(i2U1_STRING_SEND@cadena+1)^(0+1280),c
  3213   01040E  ECF5  F084         	call	i2_U1_STRING_SEND	;wreg free
  3214   010412  EFC4  F081         	goto	i2l2415
  3215   010416                     i2l2443:
  3216                           
  3217                           ; BSR set to: 2
  3218                           ;maincode02.c: 143:                 U1_STRING_SEND("Imprimiendo mensaje en primera linea
      +                          ");
  3219   010416  0EFE               	movlw	low STR_34
  3220   010418  6E05               	movwf	i2U1_STRING_SEND@cadena^(0+1280),c
  3221   01041A  0EFC               	movlw	high STR_34
  3222   01041C  6E06               	movwf	(i2U1_STRING_SEND@cadena+1)^(0+1280),c
  3223   01041E  ECF5  F084         	call	i2_U1_STRING_SEND	;wreg free
  3224   010422                     
  3225                           ;maincode02.c: 144:                 U1_NEWLINE();
  3226   010422  EC70  F086         	call	i2_U1_NEWLINE	;wreg free
  3227   010426                     
  3228                           ;maincode02.c: 145:                 I2C_POS_CURSOR(1,0);
  3229   010426  0E00               	movlw	0
  3230   010428  6E07               	movwf	I2C_POS_CURSOR@columna^(0+1280),c
  3231   01042A  0E01               	movlw	1
  3232   01042C  ECEB  F083         	call	_I2C_POS_CURSOR
  3233   010430                     
  3234                           ;maincode02.c: 146:                 I2C_ESCRIBE_MENSAJE2("Primera");
  3235   010430  0EF6               	movlw	low STR_35
  3236   010432  6E07               	movwf	I2C_ESCRIBE_MENSAJE2@cadena^(0+1280),c
  3237   010434  0EFF               	movlw	high STR_35
  3238   010436  6E08               	movwf	(I2C_ESCRIBE_MENSAJE2@cadena+1)^(0+1280),c
  3239   010438  EC1C  F085         	call	_I2C_ESCRIBE_MENSAJE2	;wreg free
  3240                           
  3241                           ;maincode02.c: 147:                 break;
  3242   01043C  EF5F  F082         	goto	i2l159
  3243   010440                     i2l2451:
  3244                           
  3245                           ; BSR set to: 2
  3246                           ;maincode02.c: 149:                 U1_STRING_SEND("Imprimiendo mensaje en segunda linea
      +                          ");
  3247   010440  0ED9               	movlw	low STR_36
  3248   010442  6E05               	movwf	i2U1_STRING_SEND@cadena^(0+1280),c
  3249   010444  0EFC               	movlw	high STR_36
  3250   010446  6E06               	movwf	(i2U1_STRING_SEND@cadena+1)^(0+1280),c
  3251   010448  ECF5  F084         	call	i2_U1_STRING_SEND	;wreg free
  3252   01044C                     
  3253                           ;maincode02.c: 150:                 U1_NEWLINE();
  3254   01044C  EC70  F086         	call	i2_U1_NEWLINE	;wreg free
  3255   010450                     
  3256                           ;maincode02.c: 151:                 I2C_POS_CURSOR(2,0);
  3257   010450  0E00               	movlw	0
  3258   010452  6E07               	movwf	I2C_POS_CURSOR@columna^(0+1280),c
  3259   010454  0E02               	movlw	2
  3260   010456  ECEB  F083         	call	_I2C_POS_CURSOR
  3261   01045A                     
  3262                           ;maincode02.c: 152:                 I2C_ESCRIBE_MENSAJE2("Segunda");
  3263   01045A  0EEE               	movlw	low STR_37
  3264   01045C  6E07               	movwf	I2C_ESCRIBE_MENSAJE2@cadena^(0+1280),c
  3265   01045E  0EFF               	movlw	high STR_37
  3266   010460  6E08               	movwf	(I2C_ESCRIBE_MENSAJE2@cadena+1)^(0+1280),c
  3267   010462  EC1C  F085         	call	_I2C_ESCRIBE_MENSAJE2	;wreg free
  3268                           
  3269                           ;maincode02.c: 153:                 break;
  3270   010466  EF5F  F082         	goto	i2l159
  3271   01046A                     i2l2459:
  3272                           
  3273                           ; BSR set to: 2
  3274                           ;maincode02.c: 155:                 vis_menu_P();
  3275   01046A  EC01  F083         	call	i2_vis_menu_P	;wreg free
  3276   01046E                     
  3277                           ;maincode02.c: 156:                 menu_activo = 0;
  3278   01046E  0E00               	movlw	0
  3279   010470  6E1D               	movwf	_menu_activo^(0+1280),c
  3280                           
  3281                           ;maincode02.c: 157:                 break;
  3282   010472  EF5F  F082         	goto	i2l159
  3283   010476                     i2l2463:
  3284                           
  3285                           ; BSR set to: 2
  3286                           ;maincode02.c: 159:                 vis_menu_LCD();
  3287   010476  EC9A  F083         	call	_vis_menu_LCD	;wreg free
  3288                           
  3289                           ;maincode02.c: 160:                 break;
  3290   01047A  EF5F  F082         	goto	i2l159
  3291   01047E                     i2l2465:
  3292                           
  3293                           ; BSR set to: 2
  3294                           ;maincode02.c: 162:                 U1_STRING_SEND("Opcion invalidad, intente de nuevo")
      +                          ;
  3295   01047E  0E23               	movlw	low STR_32
  3296   010480  6E05               	movwf	i2U1_STRING_SEND@cadena^(0+1280),c
  3297   010482  0EFD               	movlw	high STR_32
  3298   010484  6E06               	movwf	(i2U1_STRING_SEND@cadena+1)^(0+1280),c
  3299   010486  ECF5  F084         	call	i2_U1_STRING_SEND	;wreg free
  3300   01048A  EFC4  F081         	goto	i2l2415
  3301   01048E                     i2l2469:
  3302   01048E  0102               	movlb	2	; () banked
  3303   010490  51A1               	movf	161,w,b	;volatile
  3304                           
  3305                           ; Switch size 1, requested type "simple"
  3306                           ; Number of cases is 5, Range of values is 99 to 120
  3307                           ; switch strategies available:
  3308                           ; Name         Instructions Cycles
  3309                           ; simple_byte           16     9 (average)
  3310                           ;	Chosen strategy is simple_byte
  3311   010492  0A63               	xorlw	99	; case 99
  3312   010494  B4D8               	btfsc	status,2,c
  3313   010496  EF01  F082         	goto	i2l2437
  3314   01049A  0A0E               	xorlw	14	; case 109
  3315   01049C  B4D8               	btfsc	status,2,c
  3316   01049E  EF3B  F082         	goto	i2l2463
  3317   0104A2  0A1D               	xorlw	29	; case 112
  3318   0104A4  B4D8               	btfsc	status,2,c
  3319   0104A6  EF0B  F082         	goto	i2l2443
  3320   0104AA  0A03               	xorlw	3	; case 115
  3321   0104AC  B4D8               	btfsc	status,2,c
  3322   0104AE  EF20  F082         	goto	i2l2451
  3323   0104B2  0A0B               	xorlw	11	; case 120
  3324   0104B4  B4D8               	btfsc	status,2,c
  3325   0104B6  EF35  F082         	goto	i2l2459
  3326   0104BA  EF3F  F082         	goto	i2l2465
  3327   0104BE                     i2l159:
  3328   0104BE  C510  F4F5         	movff	??_U1RX_ISR+3,tablat
  3329   0104C2  C50F  F4F8         	movff	??_U1RX_ISR+2,tblptru
  3330   0104C6  C50E  F4F7         	movff	??_U1RX_ISR+1,tblptrh
  3331   0104CA  C50D  F4F6         	movff	??_U1RX_ISR,tblptrl
  3332   0104CE  0011               	retfie		f
  3333   0104D0                     __end_of_U1RX_ISR:
  3334                           	callstack 0
  3335                           
  3336 ;; *************** function i2_vis_menu_P *****************
  3337 ;; Defined at:
  3338 ;;		line 34 in file "maincode02.c"
  3339 ;; Parameters:    Size  Location     Type
  3340 ;;		None
  3341 ;; Auto vars:     Size  Location     Type
  3342 ;;		None
  3343 ;; Return value:  Size  Location     Type
  3344 ;;                  1    wreg      void 
  3345 ;; Registers used:
  3346 ;;		wreg, status,2, status,0, tblptrl, tblptrh, tblptru, cstack
  3347 ;; Tracked objects:
  3348 ;;		On entry : 0/0
  3349 ;;		On exit  : 0/0
  3350 ;;		Unchanged: 0/0
  3351 ;; Data sizes:     COMRAM   BANK5   BANK6   BANK7   BANK8   BANK9  BANK10  BANK11  BANK12  BANK13  BANK14  BANK15  BANK1
      +6  BANK17  BANK18  BANK19  BANK20  BANK21  BANK22  BANK23  BANK24  BANK25  BANK26  BANK27  BANK28  BANK29  BANK30  BANK3
      +1  BANK32  BANK33  BANK34  BANK35  BANK36
  3352 ;;      Params:         0       0       0       0       0       0       0       0       0       0       0       0       
      +0       0       0       0       0       0       0       0       0       0       0       0       0       0       0       
      +0       0       0       0       0       0
  3353 ;;      Locals:         0       0       0       0       0       0       0       0       0       0       0       0       
      +0       0       0       0       0       0       0       0       0       0       0       0       0       0       0       
      +0       0       0       0       0       0
  3354 ;;      Temps:          0       0       0       0       0       0       0       0       0       0       0       0       
      +0       0       0       0       0       0       0       0       0       0       0       0       0       0       0       
      +0       0       0       0       0       0
  3355 ;;      Totals:         0       0       0       0       0       0       0       0       0       0       0       0       
      +0       0       0       0       0       0       0       0       0       0       0       0       0       0       0       
      +0       0       0       0       0       0
  3356 ;;Total ram usage:        0 bytes
  3357 ;; Hardware stack levels used: 1
  3358 ;; Hardware stack levels required when called: 2
  3359 ;; This function calls:
  3360 ;;		i2_U1_NEWLINE
  3361 ;;		i2_U1_STRING_SEND
  3362 ;; This function is called by:
  3363 ;;		_U1RX_ISR
  3364 ;; This function uses a non-reentrant model
  3365 ;;
  3366                           
  3367                           	psect	text16
  3368   010602                     __ptext16:
  3369                           	callstack 0
  3370   010602                     i2_vis_menu_P:
  3371                           	callstack 118
  3372   010602                     
  3373                           ;maincode02.c: 35:     U1_STRING_SEND("*******************************");
  3374   010602  0E66               	movlw	low STR_1
  3375   010604  6E05               	movwf	i2U1_STRING_SEND@cadena^(0+1280),c
  3376   010606  0EFF               	movlw	high STR_1
  3377   010608  6E06               	movwf	(i2U1_STRING_SEND@cadena+1)^(0+1280),c
  3378   01060A  ECF5  F084         	call	i2_U1_STRING_SEND	;wreg free
  3379   01060E                     
  3380                           ;maincode02.c: 36:     U1_NEWLINE();
  3381   01060E  EC70  F086         	call	i2_U1_NEWLINE	;wreg free
  3382   010612                     
  3383                           ;maincode02.c: 37:     U1_STRING_SEND("*                             *");
  3384   010612  0E46               	movlw	low STR_2
  3385   010614  6E05               	movwf	i2U1_STRING_SEND@cadena^(0+1280),c
  3386   010616  0EFD               	movlw	high STR_2
  3387   010618  6E06               	movwf	(i2U1_STRING_SEND@cadena+1)^(0+1280),c
  3388   01061A  ECF5  F084         	call	i2_U1_STRING_SEND	;wreg free
  3389                           
  3390                           ;maincode02.c: 38:     U1_NEWLINE();
  3391   01061E  EC70  F086         	call	i2_U1_NEWLINE	;wreg free
  3392   010622                     
  3393                           ;maincode02.c: 39:     U1_STRING_SEND("* Bienvenidos a la aplicacion *");
  3394   010622  0E46               	movlw	low STR_3
  3395   010624  6E05               	movwf	i2U1_STRING_SEND@cadena^(0+1280),c
  3396   010626  0EFF               	movlw	high STR_3
  3397   010628  6E06               	movwf	(i2U1_STRING_SEND@cadena+1)^(0+1280),c
  3398   01062A  ECF5  F084         	call	i2_U1_STRING_SEND	;wreg free
  3399   01062E                     
  3400                           ;maincode02.c: 40:     U1_NEWLINE();
  3401   01062E  EC70  F086         	call	i2_U1_NEWLINE	;wreg free
  3402                           
  3403                           ;maincode02.c: 41:     U1_STRING_SEND("* Desarrollado por Kalun Lau  *");
  3404   010632  0E26               	movlw	low STR_4
  3405   010634  6E05               	movwf	i2U1_STRING_SEND@cadena^(0+1280),c
  3406   010636  0EFF               	movlw	high STR_4
  3407   010638  6E06               	movwf	(i2U1_STRING_SEND@cadena+1)^(0+1280),c
  3408   01063A  ECF5  F084         	call	i2_U1_STRING_SEND	;wreg free
  3409   01063E                     
  3410                           ;maincode02.c: 42:     U1_NEWLINE();
  3411   01063E  EC70  F086         	call	i2_U1_NEWLINE	;wreg free
  3412   010642                     
  3413                           ;maincode02.c: 43:     U1_STRING_SEND("*                             *");
  3414   010642  0E46               	movlw	low STR_2
  3415   010644  6E05               	movwf	i2U1_STRING_SEND@cadena^(0+1280),c
  3416   010646  0EFD               	movlw	high STR_2
  3417   010648  6E06               	movwf	(i2U1_STRING_SEND@cadena+1)^(0+1280),c
  3418   01064A  ECF5  F084         	call	i2_U1_STRING_SEND	;wreg free
  3419                           
  3420                           ;maincode02.c: 44:     U1_NEWLINE();
  3421   01064E  EC70  F086         	call	i2_U1_NEWLINE	;wreg free
  3422   010652                     
  3423                           ;maincode02.c: 45:     U1_STRING_SEND("*      .--.                   *");
  3424   010652  0E66               	movlw	low STR_6
  3425   010654  6E05               	movwf	i2U1_STRING_SEND@cadena^(0+1280),c
  3426   010656  0EFD               	movlw	high STR_6
  3427   010658  6E06               	movwf	(i2U1_STRING_SEND@cadena+1)^(0+1280),c
  3428   01065A  ECF5  F084         	call	i2_U1_STRING_SEND	;wreg free
  3429   01065E                     
  3430                           ;maincode02.c: 46:     U1_NEWLINE();
  3431   01065E  EC70  F086         	call	i2_U1_NEWLINE	;wreg free
  3432                           
  3433                           ;maincode02.c: 47:     U1_STRING_SEND("*      |__| .-------.         *");
  3434   010662  0E06               	movlw	low STR_7
  3435   010664  6E05               	movwf	i2U1_STRING_SEND@cadena^(0+1280),c
  3436   010666  0EFE               	movlw	high STR_7
  3437   010668  6E06               	movwf	(i2U1_STRING_SEND@cadena+1)^(0+1280),c
  3438   01066A  ECF5  F084         	call	i2_U1_STRING_SEND	;wreg free
  3439   01066E                     
  3440                           ;maincode02.c: 48:     U1_NEWLINE();
  3441   01066E  EC70  F086         	call	i2_U1_NEWLINE	;wreg free
  3442   010672                     
  3443                           ;maincode02.c: 49:     U1_STRING_SEND("*      |=.| |.-----.|         *");
  3444   010672  0E46               	movlw	low STR_8
  3445   010674  6E05               	movwf	i2U1_STRING_SEND@cadena^(0+1280),c
  3446   010676  0EFE               	movlw	high STR_8
  3447   010678  6E06               	movwf	(i2U1_STRING_SEND@cadena+1)^(0+1280),c
  3448   01067A  ECF5  F084         	call	i2_U1_STRING_SEND	;wreg free
  3449                           
  3450                           ;maincode02.c: 50:     U1_NEWLINE();
  3451   01067E  EC70  F086         	call	i2_U1_NEWLINE	;wreg free
  3452   010682                     
  3453                           ;maincode02.c: 51:     U1_STRING_SEND("*      |--| || KCK ||         *");
  3454   010682  0E66               	movlw	low STR_9
  3455   010684  6E05               	movwf	i2U1_STRING_SEND@cadena^(0+1280),c
  3456   010686  0EFE               	movlw	high STR_9
  3457   010688  6E06               	movwf	(i2U1_STRING_SEND@cadena+1)^(0+1280),c
  3458   01068A  ECF5  F084         	call	i2_U1_STRING_SEND	;wreg free
  3459   01068E                     
  3460                           ;maincode02.c: 52:     U1_NEWLINE();
  3461   01068E  EC70  F086         	call	i2_U1_NEWLINE	;wreg free
  3462                           
  3463                           ;maincode02.c: 53:     U1_STRING_SEND("*      |  | |'-----'|         *");
  3464   010692  0E26               	movlw	low STR_10
  3465   010694  6E05               	movwf	i2U1_STRING_SEND@cadena^(0+1280),c
  3466   010696  0EFE               	movlw	high STR_10
  3467   010698  6E06               	movwf	(i2U1_STRING_SEND@cadena+1)^(0+1280),c
  3468   01069A  ECF5  F084         	call	i2_U1_STRING_SEND	;wreg free
  3469   01069E                     
  3470                           ;maincode02.c: 54:     U1_NEWLINE();
  3471   01069E  EC70  F086         	call	i2_U1_NEWLINE	;wreg free
  3472   0106A2                     
  3473                           ;maincode02.c: 55:     U1_STRING_SEND("*      |__|~')_____('         *");
  3474   0106A2  0EE6               	movlw	low STR_11
  3475   0106A4  6E05               	movwf	i2U1_STRING_SEND@cadena^(0+1280),c
  3476   0106A6  0EFD               	movlw	high STR_11
  3477   0106A8  6E06               	movwf	(i2U1_STRING_SEND@cadena+1)^(0+1280),c
  3478   0106AA  ECF5  F084         	call	i2_U1_STRING_SEND	;wreg free
  3479                           
  3480                           ;maincode02.c: 56:     U1_NEWLINE();
  3481   0106AE  EC70  F086         	call	i2_U1_NEWLINE	;wreg free
  3482   0106B2                     
  3483                           ;maincode02.c: 57:     U1_STRING_SEND("*                             *");
  3484   0106B2  0E46               	movlw	low STR_2
  3485   0106B4  6E05               	movwf	i2U1_STRING_SEND@cadena^(0+1280),c
  3486   0106B6  0EFD               	movlw	high STR_2
  3487   0106B8  6E06               	movwf	(i2U1_STRING_SEND@cadena+1)^(0+1280),c
  3488   0106BA  ECF5  F084         	call	i2_U1_STRING_SEND	;wreg free
  3489   0106BE                     
  3490                           ;maincode02.c: 58:     U1_NEWLINE();
  3491   0106BE  EC70  F086         	call	i2_U1_NEWLINE	;wreg free
  3492                           
  3493                           ;maincode02.c: 59:     U1_STRING_SEND("* Elija opcion:               *");
  3494   0106C2  0EA6               	movlw	low STR_13
  3495   0106C4  6E05               	movwf	i2U1_STRING_SEND@cadena^(0+1280),c
  3496   0106C6  0EFD               	movlw	high STR_13
  3497   0106C8  6E06               	movwf	(i2U1_STRING_SEND@cadena+1)^(0+1280),c
  3498   0106CA  ECF5  F084         	call	i2_U1_STRING_SEND	;wreg free
  3499   0106CE                     
  3500                           ;maincode02.c: 60:     U1_NEWLINE();
  3501   0106CE  EC70  F086         	call	i2_U1_NEWLINE	;wreg free
  3502   0106D2                     
  3503                           ;maincode02.c: 61:     U1_STRING_SEND("* (1) Enciende el LED en RE0  *");
  3504   0106D2  0E06               	movlw	low STR_14
  3505   0106D4  6E05               	movwf	i2U1_STRING_SEND@cadena^(0+1280),c
  3506   0106D6  0EFF               	movlw	high STR_14
  3507   0106D8  6E06               	movwf	(i2U1_STRING_SEND@cadena+1)^(0+1280),c
  3508   0106DA  ECF5  F084         	call	i2_U1_STRING_SEND	;wreg free
  3509                           
  3510                           ;maincode02.c: 62:     U1_NEWLINE();
  3511   0106DE  EC70  F086         	call	i2_U1_NEWLINE	;wreg free
  3512   0106E2                     
  3513                           ;maincode02.c: 63:     U1_STRING_SEND("* (2) Apaga el LED en RE0     *");
  3514   0106E2  0EC6               	movlw	low STR_15
  3515   0106E4  6E05               	movwf	i2U1_STRING_SEND@cadena^(0+1280),c
  3516   0106E6  0EFE               	movlw	high STR_15
  3517   0106E8  6E06               	movwf	(i2U1_STRING_SEND@cadena+1)^(0+1280),c
  3518   0106EA  ECF5  F084         	call	i2_U1_STRING_SEND	;wreg free
  3519   0106EE                     
  3520                           ;maincode02.c: 64:     U1_NEWLINE();
  3521   0106EE  EC70  F086         	call	i2_U1_NEWLINE	;wreg free
  3522                           
  3523                           ;maincode02.c: 65:     U1_STRING_SEND("* (p) Controlar el LCD        *");
  3524   0106F2  0E86               	movlw	low STR_16
  3525   0106F4  6E05               	movwf	i2U1_STRING_SEND@cadena^(0+1280),c
  3526   0106F6  0EFE               	movlw	high STR_16
  3527   0106F8  6E06               	movwf	(i2U1_STRING_SEND@cadena+1)^(0+1280),c
  3528   0106FA  ECF5  F084         	call	i2_U1_STRING_SEND	;wreg free
  3529   0106FE                     
  3530                           ;maincode02.c: 66:     U1_NEWLINE();
  3531   0106FE  EC70  F086         	call	i2_U1_NEWLINE	;wreg free
  3532   010702                     
  3533                           ;maincode02.c: 67:     U1_STRING_SEND("* (m) Visualiza el menu       *");
  3534   010702  0EA6               	movlw	low STR_17
  3535   010704  6E05               	movwf	i2U1_STRING_SEND@cadena^(0+1280),c
  3536   010706  0EFE               	movlw	high STR_17
  3537   010708  6E06               	movwf	(i2U1_STRING_SEND@cadena+1)^(0+1280),c
  3538   01070A  ECF5  F084         	call	i2_U1_STRING_SEND	;wreg free
  3539                           
  3540                           ;maincode02.c: 68:     U1_NEWLINE();
  3541   01070E  EC70  F086         	call	i2_U1_NEWLINE	;wreg free
  3542   010712                     
  3543                           ;maincode02.c: 69:     U1_STRING_SEND("*                             *");
  3544   010712  0E46               	movlw	low STR_2
  3545   010714  6E05               	movwf	i2U1_STRING_SEND@cadena^(0+1280),c
  3546   010716  0EFD               	movlw	high STR_2
  3547   010718  6E06               	movwf	(i2U1_STRING_SEND@cadena+1)^(0+1280),c
  3548   01071A  ECF5  F084         	call	i2_U1_STRING_SEND	;wreg free
  3549   01071E                     
  3550                           ;maincode02.c: 70:     U1_NEWLINE();
  3551   01071E  EC70  F086         	call	i2_U1_NEWLINE	;wreg free
  3552                           
  3553                           ;maincode02.c: 71:     U1_STRING_SEND("*******************************");
  3554   010722  0E66               	movlw	low STR_1
  3555   010724  6E05               	movwf	i2U1_STRING_SEND@cadena^(0+1280),c
  3556   010726  0EFF               	movlw	high STR_1
  3557   010728  6E06               	movwf	(i2U1_STRING_SEND@cadena+1)^(0+1280),c
  3558   01072A  ECF5  F084         	call	i2_U1_STRING_SEND	;wreg free
  3559   01072E                     
  3560                           ;maincode02.c: 72:     U1_NEWLINE();
  3561   01072E  EC70  F086         	call	i2_U1_NEWLINE	;wreg free
  3562   010732  0012               	return		;funcret
  3563   010734                     __end_ofi2_vis_menu_P:
  3564                           	callstack 0
  3565                           
  3566 ;; *************** function i2_I2C_BORRAR_LCD *****************
  3567 ;; Defined at:
  3568 ;;		line 155 in file "I2C_LCD.c"
  3569 ;; Parameters:    Size  Location     Type
  3570 ;;		None
  3571 ;; Auto vars:     Size  Location     Type
  3572 ;;		None
  3573 ;; Return value:  Size  Location     Type
  3574 ;;                  1    wreg      void 
  3575 ;; Registers used:
  3576 ;;		wreg, status,2, status,0, cstack
  3577 ;; Tracked objects:
  3578 ;;		On entry : 0/0
  3579 ;;		On exit  : 0/0
  3580 ;;		Unchanged: 0/0
  3581 ;; Data sizes:     COMRAM   BANK5   BANK6   BANK7   BANK8   BANK9  BANK10  BANK11  BANK12  BANK13  BANK14  BANK15  BANK1
      +6  BANK17  BANK18  BANK19  BANK20  BANK21  BANK22  BANK23  BANK24  BANK25  BANK26  BANK27  BANK28  BANK29  BANK30  BANK3
      +1  BANK32  BANK33  BANK34  BANK35  BANK36
  3582 ;;      Params:         0       0       0       0       0       0       0       0       0       0       0       0       
      +0       0       0       0       0       0       0       0       0       0       0       0       0       0       0       
      +0       0       0       0       0       0
  3583 ;;      Locals:         0       0       0       0       0       0       0       0       0       0       0       0       
      +0       0       0       0       0       0       0       0       0       0       0       0       0       0       0       
      +0       0       0       0       0       0
  3584 ;;      Temps:          0       0       0       0       0       0       0       0       0       0       0       0       
      +0       0       0       0       0       0       0       0       0       0       0       0       0       0       0       
      +0       0       0       0       0       0
  3585 ;;      Totals:         0       0       0       0       0       0       0       0       0       0       0       0       
      +0       0       0       0       0       0       0       0       0       0       0       0       0       0       0       
      +0       0       0       0       0       0
  3586 ;;Total ram usage:        0 bytes
  3587 ;; Hardware stack levels used: 1
  3588 ;; Hardware stack levels required when called: 2
  3589 ;; This function calls:
  3590 ;;		i2_I2C_ENVIA_LCD_CMD
  3591 ;; This function is called by:
  3592 ;;		_U1RX_ISR
  3593 ;; This function uses a non-reentrant model
  3594 ;;
  3595                           
  3596                           	psect	text17
  3597   010CFE                     __ptext17:
  3598                           	callstack 0
  3599   010CFE                     i2_I2C_BORRAR_LCD:
  3600                           	callstack 118
  3601   010CFE                     
  3602                           ;I2C_LCD.c: 156:  I2C_ENVIA_LCD_CMD(0x01);
  3603   010CFE  0E01               	movlw	1
  3604   010D00  EC9A  F084         	call	i2_I2C_ENVIA_LCD_CMD
  3605   010D04  0012               	return		;funcret
  3606   010D06                     __end_ofi2_I2C_BORRAR_LCD:
  3607                           	callstack 0
  3608                           
  3609 ;; *************** function _vis_menu_LCD *****************
  3610 ;; Defined at:
  3611 ;;		line 75 in file "maincode02.c"
  3612 ;; Parameters:    Size  Location     Type
  3613 ;;		None
  3614 ;; Auto vars:     Size  Location     Type
  3615 ;;		None
  3616 ;; Return value:  Size  Location     Type
  3617 ;;                  1    wreg      void 
  3618 ;; Registers used:
  3619 ;;		wreg, status,2, status,0, tblptrl, tblptrh, tblptru, cstack
  3620 ;; Tracked objects:
  3621 ;;		On entry : 0/0
  3622 ;;		On exit  : 0/0
  3623 ;;		Unchanged: 0/0
  3624 ;; Data sizes:     COMRAM   BANK5   BANK6   BANK7   BANK8   BANK9  BANK10  BANK11  BANK12  BANK13  BANK14  BANK15  BANK1
      +6  BANK17  BANK18  BANK19  BANK20  BANK21  BANK22  BANK23  BANK24  BANK25  BANK26  BANK27  BANK28  BANK29  BANK30  BANK3
      +1  BANK32  BANK33  BANK34  BANK35  BANK36
  3625 ;;      Params:         0       0       0       0       0       0       0       0       0       0       0       0       
      +0       0       0       0       0       0       0       0       0       0       0       0       0       0       0       
      +0       0       0       0       0       0
  3626 ;;      Locals:         0       0       0       0       0       0       0       0       0       0       0       0       
      +0       0       0       0       0       0       0       0       0       0       0       0       0       0       0       
      +0       0       0       0       0       0
  3627 ;;      Temps:          0       0       0       0       0       0       0       0       0       0       0       0       
      +0       0       0       0       0       0       0       0       0       0       0       0       0       0       0       
      +0       0       0       0       0       0
  3628 ;;      Totals:         0       0       0       0       0       0       0       0       0       0       0       0       
      +0       0       0       0       0       0       0       0       0       0       0       0       0       0       0       
      +0       0       0       0       0       0
  3629 ;;Total ram usage:        0 bytes
  3630 ;; Hardware stack levels used: 1
  3631 ;; Hardware stack levels required when called: 2
  3632 ;; This function calls:
  3633 ;;		i2_U1_NEWLINE
  3634 ;;		i2_U1_STRING_SEND
  3635 ;; This function is called by:
  3636 ;;		_U1RX_ISR
  3637 ;; This function uses a non-reentrant model
  3638 ;;
  3639                           
  3640                           	psect	text18
  3641   010734                     __ptext18:
  3642                           	callstack 0
  3643   010734                     _vis_menu_LCD:
  3644                           	callstack 118
  3645   010734                     
  3646                           ;maincode02.c: 76:     U1_STRING_SEND("*******************************");
  3647   010734  0E66               	movlw	low STR_1
  3648   010736  6E05               	movwf	i2U1_STRING_SEND@cadena^(0+1280),c
  3649   010738  0EFF               	movlw	high STR_1
  3650   01073A  6E06               	movwf	(i2U1_STRING_SEND@cadena+1)^(0+1280),c
  3651   01073C  ECF5  F084         	call	i2_U1_STRING_SEND	;wreg free
  3652   010740                     
  3653                           ;maincode02.c: 77:     U1_NEWLINE();
  3654   010740  EC70  F086         	call	i2_U1_NEWLINE	;wreg free
  3655   010744                     
  3656                           ;maincode02.c: 78:     U1_STRING_SEND("*                             *");
  3657   010744  0E46               	movlw	low STR_2
  3658   010746  6E05               	movwf	i2U1_STRING_SEND@cadena^(0+1280),c
  3659   010748  0EFD               	movlw	high STR_2
  3660   01074A  6E06               	movwf	(i2U1_STRING_SEND@cadena+1)^(0+1280),c
  3661   01074C  ECF5  F084         	call	i2_U1_STRING_SEND	;wreg free
  3662                           
  3663                           ;maincode02.c: 79:     U1_NEWLINE();
  3664   010750  EC70  F086         	call	i2_U1_NEWLINE	;wreg free
  3665   010754                     
  3666                           ;maincode02.c: 80:     U1_STRING_SEND("* Menu del LCD:               *");
  3667   010754  0E86               	movlw	low STR_22
  3668   010756  6E05               	movwf	i2U1_STRING_SEND@cadena^(0+1280),c
  3669   010758  0EFD               	movlw	high STR_22
  3670   01075A  6E06               	movwf	(i2U1_STRING_SEND@cadena+1)^(0+1280),c
  3671   01075C  ECF5  F084         	call	i2_U1_STRING_SEND	;wreg free
  3672   010760                     
  3673                           ;maincode02.c: 81:     U1_NEWLINE();
  3674   010760  EC70  F086         	call	i2_U1_NEWLINE	;wreg free
  3675                           
  3676                           ;maincode02.c: 82:     U1_STRING_SEND("* (c) Limpiar el LCD          *");
  3677   010764  0EC6               	movlw	low STR_23
  3678   010766  6E05               	movwf	i2U1_STRING_SEND@cadena^(0+1280),c
  3679   010768  0EFD               	movlw	high STR_23
  3680   01076A  6E06               	movwf	(i2U1_STRING_SEND@cadena+1)^(0+1280),c
  3681   01076C  ECF5  F084         	call	i2_U1_STRING_SEND	;wreg free
  3682   010770                     
  3683                           ;maincode02.c: 83:     U1_NEWLINE();
  3684   010770  EC70  F086         	call	i2_U1_NEWLINE	;wreg free
  3685   010774                     
  3686                           ;maincode02.c: 84:     U1_STRING_SEND("* (p) Escribe en primera linea*");
  3687   010774  0EA6               	movlw	low STR_24
  3688   010776  6E05               	movwf	i2U1_STRING_SEND@cadena^(0+1280),c
  3689   010778  0EFF               	movlw	high STR_24
  3690   01077A  6E06               	movwf	(i2U1_STRING_SEND@cadena+1)^(0+1280),c
  3691   01077C  ECF5  F084         	call	i2_U1_STRING_SEND	;wreg free
  3692                           
  3693                           ;maincode02.c: 85:     U1_NEWLINE();
  3694   010780  EC70  F086         	call	i2_U1_NEWLINE	;wreg free
  3695   010784                     
  3696                           ;maincode02.c: 86:     U1_STRING_SEND("* (s) Escribe en segunda linea*");
  3697   010784  0E86               	movlw	low STR_25
  3698   010786  6E05               	movwf	i2U1_STRING_SEND@cadena^(0+1280),c
  3699   010788  0EFF               	movlw	high STR_25
  3700   01078A  6E06               	movwf	(i2U1_STRING_SEND@cadena+1)^(0+1280),c
  3701   01078C  ECF5  F084         	call	i2_U1_STRING_SEND	;wreg free
  3702   010790                     
  3703                           ;maincode02.c: 87:     U1_NEWLINE();
  3704   010790  EC70  F086         	call	i2_U1_NEWLINE	;wreg free
  3705                           
  3706                           ;maincode02.c: 88:     U1_STRING_SEND("* (m) Visualiza el menu       *");
  3707   010794  0EA6               	movlw	low STR_17
  3708   010796  6E05               	movwf	i2U1_STRING_SEND@cadena^(0+1280),c
  3709   010798  0EFE               	movlw	high STR_17
  3710   01079A  6E06               	movwf	(i2U1_STRING_SEND@cadena+1)^(0+1280),c
  3711   01079C  ECF5  F084         	call	i2_U1_STRING_SEND	;wreg free
  3712   0107A0                     
  3713                           ;maincode02.c: 89:     U1_NEWLINE();
  3714   0107A0  EC70  F086         	call	i2_U1_NEWLINE	;wreg free
  3715   0107A4                     
  3716                           ;maincode02.c: 90:     U1_STRING_SEND("* (x) Retorna al menu princ.  *");
  3717   0107A4  0EE6               	movlw	low STR_27
  3718   0107A6  6E05               	movwf	i2U1_STRING_SEND@cadena^(0+1280),c
  3719   0107A8  0EFE               	movlw	high STR_27
  3720   0107AA  6E06               	movwf	(i2U1_STRING_SEND@cadena+1)^(0+1280),c
  3721   0107AC  ECF5  F084         	call	i2_U1_STRING_SEND	;wreg free
  3722                           
  3723                           ;maincode02.c: 91:     U1_NEWLINE();
  3724   0107B0  EC70  F086         	call	i2_U1_NEWLINE	;wreg free
  3725   0107B4                     
  3726                           ;maincode02.c: 92:     U1_STRING_SEND("*                             *");
  3727   0107B4  0E46               	movlw	low STR_2
  3728   0107B6  6E05               	movwf	i2U1_STRING_SEND@cadena^(0+1280),c
  3729   0107B8  0EFD               	movlw	high STR_2
  3730   0107BA  6E06               	movwf	(i2U1_STRING_SEND@cadena+1)^(0+1280),c
  3731   0107BC  ECF5  F084         	call	i2_U1_STRING_SEND	;wreg free
  3732   0107C0                     
  3733                           ;maincode02.c: 93:     U1_NEWLINE();
  3734   0107C0  EC70  F086         	call	i2_U1_NEWLINE	;wreg free
  3735                           
  3736                           ;maincode02.c: 94:     U1_STRING_SEND("*******************************");
  3737   0107C4  0E66               	movlw	low STR_1
  3738   0107C6  6E05               	movwf	i2U1_STRING_SEND@cadena^(0+1280),c
  3739   0107C8  0EFF               	movlw	high STR_1
  3740   0107CA  6E06               	movwf	(i2U1_STRING_SEND@cadena+1)^(0+1280),c
  3741   0107CC  ECF5  F084         	call	i2_U1_STRING_SEND	;wreg free
  3742   0107D0                     
  3743                           ;maincode02.c: 95:     U1_NEWLINE();
  3744   0107D0  EC70  F086         	call	i2_U1_NEWLINE	;wreg free
  3745   0107D4  0012               	return		;funcret
  3746   0107D6                     __end_of_vis_menu_LCD:
  3747                           	callstack 0
  3748                           
  3749 ;; *************** function i2_U1_STRING_SEND *****************
  3750 ;; Defined at:
  3751 ;;		line 47 in file "LIB_UART.c"
  3752 ;; Parameters:    Size  Location     Type
  3753 ;;  cadena          2    4[COMRAM] PTR const unsigned char 
  3754 ;;		 -> STR_38(35), STR_36(37), STR_34(37), STR_33(12), 
  3755 ;;		 -> STR_32(35), STR_31(13), STR_30(15), STR_29(32), 
  3756 ;;		 -> STR_28(32), STR_27(32), STR_26(32), STR_25(32), 
  3757 ;;		 -> STR_24(32), STR_23(32), STR_22(32), STR_21(32), 
  3758 ;;		 -> STR_20(32), STR_19(32), STR_18(32), STR_17(32), 
  3759 ;;		 -> STR_16(32), STR_15(32), STR_14(32), STR_13(32), 
  3760 ;;		 -> STR_12(32), STR_11(32), STR_10(32), STR_9(32), 
  3761 ;;		 -> STR_8(32), STR_7(32), STR_6(32), STR_5(32), 
  3762 ;;		 -> STR_4(32), STR_3(32), STR_2(32), STR_1(32), 
  3763 ;; Auto vars:     Size  Location     Type
  3764 ;;  i               1    9[COMRAM] unsigned char 
  3765 ;;  tam             1    8[COMRAM] unsigned char 
  3766 ;; Return value:  Size  Location     Type
  3767 ;;                  1    wreg      void 
  3768 ;; Registers used:
  3769 ;;		wreg, status,2, status,0, tblptrl, tblptrh, tblptru, cstack
  3770 ;; Tracked objects:
  3771 ;;		On entry : 0/0
  3772 ;;		On exit  : 0/0
  3773 ;;		Unchanged: 0/0
  3774 ;; Data sizes:     COMRAM   BANK5   BANK6   BANK7   BANK8   BANK9  BANK10  BANK11  BANK12  BANK13  BANK14  BANK15  BANK1
      +6  BANK17  BANK18  BANK19  BANK20  BANK21  BANK22  BANK23  BANK24  BANK25  BANK26  BANK27  BANK28  BANK29  BANK30  BANK3
      +1  BANK32  BANK33  BANK34  BANK35  BANK36
  3775 ;;      Params:         2       0       0       0       0       0       0       0       0       0       0       0       
      +0       0       0       0       0       0       0       0       0       0       0       0       0       0       0       
      +0       0       0       0       0       0
  3776 ;;      Locals:         2       0       0       0       0       0       0       0       0       0       0       0       
      +0       0       0       0       0       0       0       0       0       0       0       0       0       0       0       
      +0       0       0       0       0       0
  3777 ;;      Temps:          2       0       0       0       0       0       0       0       0       0       0       0       
      +0       0       0       0       0       0       0       0       0       0       0       0       0       0       0       
      +0       0       0       0       0       0
  3778 ;;      Totals:         6       0       0       0       0       0       0       0       0       0       0       0       
      +0       0       0       0       0       0       0       0       0       0       0       0       0       0       0       
      +0       0       0       0       0       0
  3779 ;;Total ram usage:        6 bytes
  3780 ;; Hardware stack levels used: 1
  3781 ;; Hardware stack levels required when called: 1
  3782 ;; This function calls:
  3783 ;;		i2_U1_BYTE_SEND
  3784 ;;		i2_strlen
  3785 ;; This function is called by:
  3786 ;;		_vis_menu_LCD
  3787 ;;		_U1RX_ISR
  3788 ;;		i2_vis_menu_P
  3789 ;; This function uses a non-reentrant model
  3790 ;;
  3791                           
  3792                           	psect	text19
  3793   0109EA                     __ptext19:
  3794                           	callstack 0
  3795   0109EA                     i2_U1_STRING_SEND:
  3796                           	callstack 118
  3797   0109EA                     
  3798                           ;LIB_UART.c: 47: void U1_STRING_SEND(const char *cadena);LIB_UART.c: 48: {;LIB_UART.c: 4
      +                          9:     unsigned char tam;;LIB_UART.c: 50:     tam = strlen(cadena);
  3799   0109EA  C505  F501         	movff	i2U1_STRING_SEND@cadena,i2strlen@s
  3800   0109EE  C506  F502         	movff	i2U1_STRING_SEND@cadena+1,i2strlen@s+1
  3801   0109F2  ECC9  F085         	call	i2_strlen	;wreg free
  3802   0109F6  5001               	movf	?i2_strlen^(0+1280),w,c
  3803   0109F8  6E09               	movwf	i2U1_STRING_SEND@tam^(0+1280),c
  3804   0109FA                     
  3805                           ;LIB_UART.c: 52:  for(i = 0; i<tam; i++)
  3806   0109FA  0E00               	movlw	0
  3807   0109FC  6E0A               	movwf	i2U1_STRING_SEND@i^(0+1280),c
  3808   0109FE  EF12  F085         	goto	i2l2199
  3809   010A02                     i2l2195:
  3810                           
  3811                           ;LIB_UART.c: 53:  {;LIB_UART.c: 54:   U1_BYTE_SEND(cadena[i]);
  3812   010A02  500A               	movf	i2U1_STRING_SEND@i^(0+1280),w,c
  3813   010A04  2405               	addwf	i2U1_STRING_SEND@cadena^(0+1280),w,c
  3814   010A06  6E07               	movwf	??i2_U1_STRING_SEND^(0+1280),c
  3815   010A08  0E00               	movlw	0
  3816   010A0A  2006               	addwfc	(i2U1_STRING_SEND@cadena+1)^(0+1280),w,c
  3817   010A0C  6E08               	movwf	(??i2_U1_STRING_SEND+1)^(0+1280),c
  3818   010A0E  C507  F4F6         	movff	??i2_U1_STRING_SEND,tblptrl
  3819   010A12  C508  F4F7         	movff	??i2_U1_STRING_SEND+1,tblptrh
  3820   010A16                     	if	0	;tblptru may be non-zero
  3821   010A16                     	endif
  3822   010A16                     	if	1	;Program memory is > 0xFFFF, there are 3 active tblptr bytes
  3823   010A16  0E00               	movlw	low (__mediumconst shr (0+16))
  3824   010A18  6EF8               	movwf	tblptru,c
  3825   010A1A                     	endif
  3826   010A1A  0008               	tblrd		*
  3827   010A1C  50F5               	movf	tablat,w,c
  3828   010A1E  EC5D  F086         	call	i2_U1_BYTE_SEND
  3829   010A22                     
  3830                           ;LIB_UART.c: 55:  }
  3831   010A22  2A0A               	incf	i2U1_STRING_SEND@i^(0+1280),f,c
  3832   010A24                     i2l2199:
  3833   010A24  5009               	movf	i2U1_STRING_SEND@tam^(0+1280),w,c
  3834   010A26  5C0A               	subwf	i2U1_STRING_SEND@i^(0+1280),w,c
  3835   010A28  A0D8               	btfss	status,0,c
  3836   010A2A  EF19  F085         	goto	i2u47_41
  3837   010A2E  EF1B  F085         	goto	i2u47_40
  3838   010A32                     i2u47_41:
  3839   010A32  EF01  F085         	goto	i2l2195
  3840   010A36                     i2u47_40:
  3841   010A36  0012               	return		;funcret
  3842   010A38                     __end_ofi2_U1_STRING_SEND:
  3843                           	callstack 0
  3844                           
  3845 ;; *************** function i2_U1_NEWLINE *****************
  3846 ;; Defined at:
  3847 ;;		line 201 in file "LIB_UART.c"
  3848 ;; Parameters:    Size  Location     Type
  3849 ;;		None
  3850 ;; Auto vars:     Size  Location     Type
  3851 ;;		None
  3852 ;; Return value:  Size  Location     Type
  3853 ;;                  1    wreg      void 
  3854 ;; Registers used:
  3855 ;;		wreg, cstack
  3856 ;; Tracked objects:
  3857 ;;		On entry : 0/0
  3858 ;;		On exit  : 0/0
  3859 ;;		Unchanged: 0/0
  3860 ;; Data sizes:     COMRAM   BANK5   BANK6   BANK7   BANK8   BANK9  BANK10  BANK11  BANK12  BANK13  BANK14  BANK15  BANK1
      +6  BANK17  BANK18  BANK19  BANK20  BANK21  BANK22  BANK23  BANK24  BANK25  BANK26  BANK27  BANK28  BANK29  BANK30  BANK3
      +1  BANK32  BANK33  BANK34  BANK35  BANK36
  3861 ;;      Params:         0       0       0       0       0       0       0       0       0       0       0       0       
      +0       0       0       0       0       0       0       0       0       0       0       0       0       0       0       
      +0       0       0       0       0       0
  3862 ;;      Locals:         0       0       0       0       0       0       0       0       0       0       0       0       
      +0       0       0       0       0       0       0       0       0       0       0       0       0       0       0       
      +0       0       0       0       0       0
  3863 ;;      Temps:          0       0       0       0       0       0       0       0       0       0       0       0       
      +0       0       0       0       0       0       0       0       0       0       0       0       0       0       0       
      +0       0       0       0       0       0
  3864 ;;      Totals:         0       0       0       0       0       0       0       0       0       0       0       0       
      +0       0       0       0       0       0       0       0       0       0       0       0       0       0       0       
      +0       0       0       0       0       0
  3865 ;;Total ram usage:        0 bytes
  3866 ;; Hardware stack levels used: 1
  3867 ;; Hardware stack levels required when called: 1
  3868 ;; This function calls:
  3869 ;;		i2_U1_BYTE_SEND
  3870 ;; This function is called by:
  3871 ;;		_vis_menu_LCD
  3872 ;;		_U1RX_ISR
  3873 ;;		i2_vis_menu_P
  3874 ;; This function uses a non-reentrant model
  3875 ;;
  3876                           
  3877                           	psect	text20
  3878   010CE0                     __ptext20:
  3879                           	callstack 0
  3880   010CE0                     i2_U1_NEWLINE:
  3881                           	callstack 118
  3882   010CE0                     
  3883                           ;LIB_UART.c: 202:     U1_BYTE_SEND(0x0A);
  3884   010CE0  0E0A               	movlw	10
  3885   010CE2  EC5D  F086         	call	i2_U1_BYTE_SEND
  3886                           
  3887                           ;LIB_UART.c: 203:     U1_BYTE_SEND(0x0D);
  3888   010CE6  0E0D               	movlw	13
  3889   010CE8  EC5D  F086         	call	i2_U1_BYTE_SEND
  3890   010CEC  0012               	return		;funcret
  3891   010CEE                     __end_ofi2_U1_NEWLINE:
  3892                           	callstack 0
  3893                           
  3894 ;; *************** function i2_U1_BYTE_SEND *****************
  3895 ;; Defined at:
  3896 ;;		line 41 in file "LIB_UART.c"
  3897 ;; Parameters:    Size  Location     Type
  3898 ;;  dato            1    wreg     unsigned char 
  3899 ;; Auto vars:     Size  Location     Type
  3900 ;;  dato            1    0[COMRAM] unsigned char 
  3901 ;; Return value:  Size  Location     Type
  3902 ;;                  1    wreg      void 
  3903 ;; Registers used:
  3904 ;;		wreg
  3905 ;; Tracked objects:
  3906 ;;		On entry : 0/0
  3907 ;;		On exit  : 0/0
  3908 ;;		Unchanged: 0/0
  3909 ;; Data sizes:     COMRAM   BANK5   BANK6   BANK7   BANK8   BANK9  BANK10  BANK11  BANK12  BANK13  BANK14  BANK15  BANK1
      +6  BANK17  BANK18  BANK19  BANK20  BANK21  BANK22  BANK23  BANK24  BANK25  BANK26  BANK27  BANK28  BANK29  BANK30  BANK3
      +1  BANK32  BANK33  BANK34  BANK35  BANK36
  3910 ;;      Params:         0       0       0       0       0       0       0       0       0       0       0       0       
      +0       0       0       0       0       0       0       0       0       0       0       0       0       0       0       
      +0       0       0       0       0       0
  3911 ;;      Locals:         1       0       0       0       0       0       0       0       0       0       0       0       
      +0       0       0       0       0       0       0       0       0       0       0       0       0       0       0       
      +0       0       0       0       0       0
  3912 ;;      Temps:          0       0       0       0       0       0       0       0       0       0       0       0       
      +0       0       0       0       0       0       0       0       0       0       0       0       0       0       0       
      +0       0       0       0       0       0
  3913 ;;      Totals:         1       0       0       0       0       0       0       0       0       0       0       0       
      +0       0       0       0       0       0       0       0       0       0       0       0       0       0       0       
      +0       0       0       0       0       0
  3914 ;;Total ram usage:        1 bytes
  3915 ;; Hardware stack levels used: 1
  3916 ;; This function calls:
  3917 ;;		Nothing
  3918 ;; This function is called by:
  3919 ;;		i2_U1_STRING_SEND
  3920 ;;		i2_U1_NEWLINE
  3921 ;; This function uses a non-reentrant model
  3922 ;;
  3923                           
  3924                           	psect	text21
  3925   010CBA                     __ptext21:
  3926                           	callstack 0
  3927   010CBA                     i2_U1_BYTE_SEND:
  3928                           	callstack 118
  3929                           
  3930                           ;incstack = 0
  3931                           ;i2U1_BYTE_SEND@dato stored from wreg
  3932   010CBA  6E01               	movwf	i2U1_BYTE_SEND@dato^(0+1280),c
  3933   010CBC                     
  3934                           ;LIB_UART.c: 42:     U1TXB = dato;
  3935   010CBC  C501  F2A3         	movff	i2U1_BYTE_SEND@dato,675	;volatile
  3936   010CC0                     i2l30:
  3937   010CC0  0102               	movlb	2	; () banked
  3938   010CC2  AFB2               	btfss	178,7,b	;volatile
  3939   010CC4  EF66  F086         	goto	i2u41_41
  3940   010CC8  EF68  F086         	goto	i2u41_40
  3941   010CCC                     i2u41_41:
  3942   010CCC  EF60  F086         	goto	i2l30
  3943   010CD0                     i2u41_40:
  3944   010CD0                     
  3945                           ; BSR set to: 2
  3946   010CD0  0012               	return		;funcret
  3947   010CD2                     __end_ofi2_U1_BYTE_SEND:
  3948                           	callstack 0
  3949                           
  3950 ;; *************** function _I2C_POS_CURSOR *****************
  3951 ;; Defined at:
  3952 ;;		line 70 in file "I2C_LCD.c"
  3953 ;; Parameters:    Size  Location     Type
  3954 ;;  fila            1    wreg     unsigned char 
  3955 ;;  columna         1    6[COMRAM] unsigned char 
  3956 ;; Auto vars:     Size  Location     Type
  3957 ;;  fila            1    8[COMRAM] unsigned char 
  3958 ;; Return value:  Size  Location     Type
  3959 ;;                  1    wreg      void 
  3960 ;; Registers used:
  3961 ;;		wreg, status,2, status,0, cstack
  3962 ;; Tracked objects:
  3963 ;;		On entry : 0/0
  3964 ;;		On exit  : 0/0
  3965 ;;		Unchanged: 0/0
  3966 ;; Data sizes:     COMRAM   BANK5   BANK6   BANK7   BANK8   BANK9  BANK10  BANK11  BANK12  BANK13  BANK14  BANK15  BANK1
      +6  BANK17  BANK18  BANK19  BANK20  BANK21  BANK22  BANK23  BANK24  BANK25  BANK26  BANK27  BANK28  BANK29  BANK30  BANK3
      +1  BANK32  BANK33  BANK34  BANK35  BANK36
  3967 ;;      Params:         1       0       0       0       0       0       0       0       0       0       0       0       
      +0       0       0       0       0       0       0       0       0       0       0       0       0       0       0       
      +0       0       0       0       0       0
  3968 ;;      Locals:         1       0       0       0       0       0       0       0       0       0       0       0       
      +0       0       0       0       0       0       0       0       0       0       0       0       0       0       0       
      +0       0       0       0       0       0
  3969 ;;      Temps:          1       0       0       0       0       0       0       0       0       0       0       0       
      +0       0       0       0       0       0       0       0       0       0       0       0       0       0       0       
      +0       0       0       0       0       0
  3970 ;;      Totals:         3       0       0       0       0       0       0       0       0       0       0       0       
      +0       0       0       0       0       0       0       0       0       0       0       0       0       0       0       
      +0       0       0       0       0       0
  3971 ;;Total ram usage:        3 bytes
  3972 ;; Hardware stack levels used: 1
  3973 ;; Hardware stack levels required when called: 2
  3974 ;; This function calls:
  3975 ;;		i2_I2C_ENVIA_LCD_CMD
  3976 ;; This function is called by:
  3977 ;;		_U1RX_ISR
  3978 ;; This function uses a non-reentrant model
  3979 ;;
  3980                           
  3981                           	psect	text22
  3982   0107D6                     __ptext22:
  3983                           	callstack 0
  3984   0107D6                     _I2C_POS_CURSOR:
  3985                           	callstack 118
  3986                           
  3987                           ; BSR set to: 2
  3988                           ;incstack = 0
  3989                           ;I2C_POS_CURSOR@fila stored from wreg
  3990   0107D6  6E09               	movwf	I2C_POS_CURSOR@fila^(0+1280),c
  3991   0107D8                     
  3992                           ;I2C_LCD.c: 71:  if(fila == 1){
  3993   0107D8  0409               	decf	I2C_POS_CURSOR@fila^(0+1280),w,c
  3994   0107DA  A4D8               	btfss	status,2,c
  3995   0107DC  EFF2  F083         	goto	i2u48_41
  3996   0107E0  EFF4  F083         	goto	i2u48_40
  3997   0107E4                     i2u48_41:
  3998   0107E4  EFFA  F083         	goto	i2l2321
  3999   0107E8                     i2u48_40:
  4000   0107E8                     
  4001                           ;I2C_LCD.c: 72:   I2C_ENVIA_LCD_CMD(0x80+columna);
  4002   0107E8  5007               	movf	I2C_POS_CURSOR@columna^(0+1280),w,c
  4003   0107EA  0F80               	addlw	128
  4004   0107EC  EC9A  F084         	call	i2_I2C_ENVIA_LCD_CMD
  4005                           
  4006                           ;I2C_LCD.c: 73:  }
  4007   0107F0  EF27  F084         	goto	i2l2333
  4008   0107F4                     i2l2321:
  4009   0107F4  0E02               	movlw	2
  4010   0107F6  1809               	xorwf	I2C_POS_CURSOR@fila^(0+1280),w,c
  4011   0107F8  A4D8               	btfss	status,2,c
  4012   0107FA  EF01  F084         	goto	i2u49_41
  4013   0107FE  EF03  F084         	goto	i2u49_40
  4014   010802                     i2u49_41:
  4015   010802  EF09  F084         	goto	i2l2325
  4016   010806                     i2u49_40:
  4017   010806                     
  4018                           ;I2C_LCD.c: 75:   I2C_ENVIA_LCD_CMD(0xC0+columna);
  4019   010806  5007               	movf	I2C_POS_CURSOR@columna^(0+1280),w,c
  4020   010808  0FC0               	addlw	192
  4021   01080A  EC9A  F084         	call	i2_I2C_ENVIA_LCD_CMD
  4022                           
  4023                           ;I2C_LCD.c: 76:  }
  4024   01080E  EF27  F084         	goto	i2l2333
  4025   010812                     i2l2325:
  4026   010812  0E03               	movlw	3
  4027   010814  1809               	xorwf	I2C_POS_CURSOR@fila^(0+1280),w,c
  4028   010816  A4D8               	btfss	status,2,c
  4029   010818  EF10  F084         	goto	i2u50_41
  4030   01081C  EF12  F084         	goto	i2u50_40
  4031   010820                     i2u50_41:
  4032   010820  EF18  F084         	goto	i2l2329
  4033   010824                     i2u50_40:
  4034   010824                     
  4035                           ;I2C_LCD.c: 78:   I2C_ENVIA_LCD_CMD(0x94+columna);
  4036   010824  5007               	movf	I2C_POS_CURSOR@columna^(0+1280),w,c
  4037   010826  0F94               	addlw	148
  4038   010828  EC9A  F084         	call	i2_I2C_ENVIA_LCD_CMD
  4039                           
  4040                           ;I2C_LCD.c: 79:  }
  4041   01082C  EF27  F084         	goto	i2l2333
  4042   010830                     i2l2329:
  4043   010830  0E04               	movlw	4
  4044   010832  1809               	xorwf	I2C_POS_CURSOR@fila^(0+1280),w,c
  4045   010834  A4D8               	btfss	status,2,c
  4046   010836  EF1F  F084         	goto	i2u51_41
  4047   01083A  EF21  F084         	goto	i2u51_40
  4048   01083E                     i2u51_41:
  4049   01083E  EF27  F084         	goto	i2l230
  4050   010842                     i2u51_40:
  4051   010842                     
  4052                           ;I2C_LCD.c: 81:   I2C_ENVIA_LCD_CMD(0xD4+columna);
  4053   010842  5007               	movf	I2C_POS_CURSOR@columna^(0+1280),w,c
  4054   010844  0FD4               	addlw	212
  4055   010846  EC9A  F084         	call	i2_I2C_ENVIA_LCD_CMD
  4056   01084A  EF27  F084         	goto	i2l2333
  4057   01084E                     i2l230:
  4058   01084E                     i2l2333:
  4059                           
  4060                           ;I2C_LCD.c: 83:  _delay((unsigned long)((1)*(32000000UL/4000.0)));
  4061   01084E  0E0B               	movlw	11
  4062   010850  6E08               	movwf	??_I2C_POS_CURSOR^(0+1280),c
  4063   010852  0E62               	movlw	98
  4064   010854                     i2u115_47:
  4065   010854  2EE8               	decfsz	wreg,f,c
  4066   010856  D7FE               	bra	i2u115_47
  4067   010858  2E08               	decfsz	??_I2C_POS_CURSOR^(0+1280),f,c
  4068   01085A  D7FC               	bra	i2u115_47
  4069   01085C  D000               	nop2	
  4070   01085E  0012               	return		;funcret
  4071   010860                     __end_of_I2C_POS_CURSOR:
  4072                           	callstack 0
  4073                           
  4074 ;; *************** function i2_I2C_ENVIA_LCD_CMD *****************
  4075 ;; Defined at:
  4076 ;;		line 159 in file "I2C_LCD.c"
  4077 ;; Parameters:    Size  Location     Type
  4078 ;;  command         1    wreg     unsigned char 
  4079 ;; Auto vars:     Size  Location     Type
  4080 ;;  command         1    3[COMRAM] unsigned char 
  4081 ;;  lownibble       1    5[COMRAM] unsigned char 
  4082 ;;  highnibble      1    4[COMRAM] unsigned char 
  4083 ;; Return value:  Size  Location     Type
  4084 ;;                  1    wreg      void 
  4085 ;; Registers used:
  4086 ;;		wreg, status,2, status,0, cstack
  4087 ;; Tracked objects:
  4088 ;;		On entry : 0/0
  4089 ;;		On exit  : 0/0
  4090 ;;		Unchanged: 0/0
  4091 ;; Data sizes:     COMRAM   BANK5   BANK6   BANK7   BANK8   BANK9  BANK10  BANK11  BANK12  BANK13  BANK14  BANK15  BANK1
      +6  BANK17  BANK18  BANK19  BANK20  BANK21  BANK22  BANK23  BANK24  BANK25  BANK26  BANK27  BANK28  BANK29  BANK30  BANK3
      +1  BANK32  BANK33  BANK34  BANK35  BANK36
  4092 ;;      Params:         0       0       0       0       0       0       0       0       0       0       0       0       
      +0       0       0       0       0       0       0       0       0       0       0       0       0       0       0       
      +0       0       0       0       0       0
  4093 ;;      Locals:         3       0       0       0       0       0       0       0       0       0       0       0       
      +0       0       0       0       0       0       0       0       0       0       0       0       0       0       0       
      +0       0       0       0       0       0
  4094 ;;      Temps:          1       0       0       0       0       0       0       0       0       0       0       0       
      +0       0       0       0       0       0       0       0       0       0       0       0       0       0       0       
      +0       0       0       0       0       0
  4095 ;;      Totals:         4       0       0       0       0       0       0       0       0       0       0       0       
      +0       0       0       0       0       0       0       0       0       0       0       0       0       0       0       
      +0       0       0       0       0       0
  4096 ;;Total ram usage:        4 bytes
  4097 ;; Hardware stack levels used: 1
  4098 ;; Hardware stack levels required when called: 1
  4099 ;; This function calls:
  4100 ;;		i2_I2C1_WRITESINGLEBYTE
  4101 ;; This function is called by:
  4102 ;;		_I2C_POS_CURSOR
  4103 ;;		i2_I2C_BORRAR_LCD
  4104 ;; This function uses a non-reentrant model
  4105 ;;
  4106                           
  4107                           	psect	text23
  4108   010934                     __ptext23:
  4109                           	callstack 0
  4110   010934                     i2_I2C_ENVIA_LCD_CMD:
  4111                           	callstack 118
  4112                           
  4113                           ;incstack = 0
  4114                           ;i2I2C_ENVIA_LCD_CMD@command stored from wreg
  4115   010934  6E04               	movwf	i2I2C_ENVIA_LCD_CMD@command^(0+1280),c
  4116   010936                     
  4117                           ;I2C_LCD.c: 160:     unsigned char highnibble;;I2C_LCD.c: 161:     unsigned char lownibb
      +                          le;;I2C_LCD.c: 163:     highnibble = (command & 0xF0) | 0x08;
  4118   010936  5004               	movf	i2I2C_ENVIA_LCD_CMD@command^(0+1280),w,c
  4119   010938  0BF0               	andlw	240
  4120   01093A  0908               	iorlw	8
  4121   01093C  6E05               	movwf	i2I2C_ENVIA_LCD_CMD@highnibble^(0+1280),c
  4122                           
  4123                           ;I2C_LCD.c: 164:     lownibble = (unsigned char)(((command & 0x0F)<<4)| 0x08);
  4124   01093E  C504  F503         	movff	i2I2C_ENVIA_LCD_CMD@command,??i2_I2C_ENVIA_LCD_CMD
  4125   010942  0E0F               	movlw	15
  4126   010944  1603               	andwf	??i2_I2C_ENVIA_LCD_CMD^(0+1280),f,c
  4127   010946  3803               	swapf	??i2_I2C_ENVIA_LCD_CMD^(0+1280),w,c
  4128   010948  0BF0               	andlw	240
  4129   01094A  0908               	iorlw	8
  4130   01094C  6E06               	movwf	i2I2C_ENVIA_LCD_CMD@lownibble^(0+1280),c
  4131   01094E                     
  4132                           ;I2C_LCD.c: 166:     I2C1_WRITESINGLEBYTE(I2C_LCD_ADDR,(highnibble | 0x04));
  4133   01094E  5005               	movf	i2I2C_ENVIA_LCD_CMD@highnibble^(0+1280),w,c
  4134   010950  0904               	iorlw	4
  4135   010952  6E01               	movwf	i2I2C1_WRITESINGLEBYTE@dato^(0+1280),c
  4136   010954  501E               	movf	_I2C_LCD_ADDR^(0+1280),w,c
  4137   010956  EC89  F085         	call	i2_I2C1_WRITESINGLEBYTE
  4138   01095A                     
  4139                           ;I2C_LCD.c: 167:     _delay((unsigned long)((20)*(32000000UL/4000000.0)));
  4140   01095A  0E35               	movlw	53
  4141   01095C                     i2u116_47:
  4142   01095C  2EE8               	decfsz	wreg,f,c
  4143   01095E  D7FE               	bra	i2u116_47
  4144   010960  0000               	nop	
  4145   010962                     
  4146                           ;I2C_LCD.c: 168:     I2C1_WRITESINGLEBYTE(I2C_LCD_ADDR,highnibble);
  4147   010962  C505  F501         	movff	i2I2C_ENVIA_LCD_CMD@highnibble,i2I2C1_WRITESINGLEBYTE@dato
  4148   010966  501E               	movf	_I2C_LCD_ADDR^(0+1280),w,c
  4149   010968  EC89  F085         	call	i2_I2C1_WRITESINGLEBYTE
  4150   01096C                     
  4151                           ;I2C_LCD.c: 169:     _delay((unsigned long)((20)*(32000000UL/4000000.0)));
  4152   01096C  0E35               	movlw	53
  4153   01096E                     i2u117_47:
  4154   01096E  2EE8               	decfsz	wreg,f,c
  4155   010970  D7FE               	bra	i2u117_47
  4156   010972  0000               	nop	
  4157   010974                     
  4158                           ;I2C_LCD.c: 171:     I2C1_WRITESINGLEBYTE(I2C_LCD_ADDR,(lownibble | 0x04));
  4159   010974  5006               	movf	i2I2C_ENVIA_LCD_CMD@lownibble^(0+1280),w,c
  4160   010976  0904               	iorlw	4
  4161   010978  6E01               	movwf	i2I2C1_WRITESINGLEBYTE@dato^(0+1280),c
  4162   01097A  501E               	movf	_I2C_LCD_ADDR^(0+1280),w,c
  4163   01097C  EC89  F085         	call	i2_I2C1_WRITESINGLEBYTE
  4164   010980                     
  4165                           ;I2C_LCD.c: 172:     _delay((unsigned long)((20)*(32000000UL/4000000.0)));
  4166   010980  0E35               	movlw	53
  4167   010982                     i2u118_47:
  4168   010982  2EE8               	decfsz	wreg,f,c
  4169   010984  D7FE               	bra	i2u118_47
  4170   010986  0000               	nop	
  4171   010988                     
  4172                           ;I2C_LCD.c: 173:     I2C1_WRITESINGLEBYTE(I2C_LCD_ADDR,lownibble);
  4173   010988  C506  F501         	movff	i2I2C_ENVIA_LCD_CMD@lownibble,i2I2C1_WRITESINGLEBYTE@dato
  4174   01098C  501E               	movf	_I2C_LCD_ADDR^(0+1280),w,c
  4175   01098E  EC89  F085         	call	i2_I2C1_WRITESINGLEBYTE
  4176   010992                     
  4177                           ;I2C_LCD.c: 174:     _delay((unsigned long)((20)*(32000000UL/4000000.0)));
  4178   010992  0E35               	movlw	53
  4179   010994                     i2u119_47:
  4180   010994  2EE8               	decfsz	wreg,f,c
  4181   010996  D7FE               	bra	i2u119_47
  4182   010998  0000               	nop	
  4183   01099A  0012               	return		;funcret
  4184   01099C                     __end_ofi2_I2C_ENVIA_LCD_CMD:
  4185                           	callstack 0
  4186                           
  4187 ;; *************** function _I2C_ESCRIBE_MENSAJE2 *****************
  4188 ;; Defined at:
  4189 ;;		line 128 in file "I2C_LCD.c"
  4190 ;; Parameters:    Size  Location     Type
  4191 ;;  cadena          2    6[COMRAM] PTR const unsigned char 
  4192 ;;		 -> STR_37(8), STR_35(8), 
  4193 ;; Auto vars:     Size  Location     Type
  4194 ;;  i               1   11[COMRAM] unsigned char 
  4195 ;;  tam             1   10[COMRAM] unsigned char 
  4196 ;; Return value:  Size  Location     Type
  4197 ;;                  1    wreg      void 
  4198 ;; Registers used:
  4199 ;;		wreg, status,2, status,0, tblptrl, tblptrh, tblptru, cstack
  4200 ;; Tracked objects:
  4201 ;;		On entry : 0/0
  4202 ;;		On exit  : 0/0
  4203 ;;		Unchanged: 0/0
  4204 ;; Data sizes:     COMRAM   BANK5   BANK6   BANK7   BANK8   BANK9  BANK10  BANK11  BANK12  BANK13  BANK14  BANK15  BANK1
      +6  BANK17  BANK18  BANK19  BANK20  BANK21  BANK22  BANK23  BANK24  BANK25  BANK26  BANK27  BANK28  BANK29  BANK30  BANK3
      +1  BANK32  BANK33  BANK34  BANK35  BANK36
  4205 ;;      Params:         2       0       0       0       0       0       0       0       0       0       0       0       
      +0       0       0       0       0       0       0       0       0       0       0       0       0       0       0       
      +0       0       0       0       0       0
  4206 ;;      Locals:         2       0       0       0       0       0       0       0       0       0       0       0       
      +0       0       0       0       0       0       0       0       0       0       0       0       0       0       0       
      +0       0       0       0       0       0
  4207 ;;      Temps:          2       0       0       0       0       0       0       0       0       0       0       0       
      +0       0       0       0       0       0       0       0       0       0       0       0       0       0       0       
      +0       0       0       0       0       0
  4208 ;;      Totals:         6       0       0       0       0       0       0       0       0       0       0       0       
      +0       0       0       0       0       0       0       0       0       0       0       0       0       0       0       
      +0       0       0       0       0       0
  4209 ;;Total ram usage:        6 bytes
  4210 ;; Hardware stack levels used: 1
  4211 ;; Hardware stack levels required when called: 2
  4212 ;; This function calls:
  4213 ;;		_I2C_ENVIA_LCD_DATA
  4214 ;;		i2_strlen
  4215 ;; This function is called by:
  4216 ;;		_U1RX_ISR
  4217 ;; This function uses a non-reentrant model
  4218 ;;
  4219                           
  4220                           	psect	text24
  4221   010A38                     __ptext24:
  4222                           	callstack 0
  4223   010A38                     _I2C_ESCRIBE_MENSAJE2:
  4224                           	callstack 118
  4225   010A38                     
  4226                           ;I2C_LCD.c: 129:     unsigned char tam;;I2C_LCD.c: 130:     tam = strlen(cadena);
  4227   010A38  C507  F501         	movff	I2C_ESCRIBE_MENSAJE2@cadena,i2strlen@s
  4228   010A3C  C508  F502         	movff	I2C_ESCRIBE_MENSAJE2@cadena+1,i2strlen@s+1
  4229   010A40  ECC9  F085         	call	i2_strlen	;wreg free
  4230   010A44  5001               	movf	?i2_strlen^(0+1280),w,c
  4231   010A46  6E0B               	movwf	I2C_ESCRIBE_MENSAJE2@tam^(0+1280),c
  4232   010A48                     
  4233                           ;I2C_LCD.c: 132:  for(i = 0; i<tam; i++) {
  4234   010A48  0E00               	movlw	0
  4235   010A4A  6E0C               	movwf	I2C_ESCRIBE_MENSAJE2@i^(0+1280),c
  4236   010A4C  EF39  F085         	goto	i2l2345
  4237   010A50                     i2l2341:
  4238                           
  4239                           ;I2C_LCD.c: 133:   I2C_ENVIA_LCD_DATA(cadena[i]);
  4240   010A50  500C               	movf	I2C_ESCRIBE_MENSAJE2@i^(0+1280),w,c
  4241   010A52  2407               	addwf	I2C_ESCRIBE_MENSAJE2@cadena^(0+1280),w,c
  4242   010A54  6E09               	movwf	??_I2C_ESCRIBE_MENSAJE2^(0+1280),c
  4243   010A56  0E00               	movlw	0
  4244   010A58  2008               	addwfc	(I2C_ESCRIBE_MENSAJE2@cadena+1)^(0+1280),w,c
  4245   010A5A  6E0A               	movwf	(??_I2C_ESCRIBE_MENSAJE2+1)^(0+1280),c
  4246   010A5C  C509  F4F6         	movff	??_I2C_ESCRIBE_MENSAJE2,tblptrl
  4247   010A60  C50A  F4F7         	movff	??_I2C_ESCRIBE_MENSAJE2+1,tblptrh
  4248   010A64                     	if	0	;tblptru may be non-zero
  4249   010A64                     	endif
  4250   010A64                     	if	1	;Program memory is > 0xFFFF, there are 3 active tblptr bytes
  4251   010A64  0E00               	movlw	low (__mediumconst shr (0+16))
  4252   010A66  6EF8               	movwf	tblptru,c
  4253   010A68                     	endif
  4254   010A68  0008               	tblrd		*
  4255   010A6A  50F5               	movf	tablat,w,c
  4256   010A6C  EC30  F084         	call	_I2C_ENVIA_LCD_DATA
  4257   010A70                     
  4258                           ;I2C_LCD.c: 134:  }
  4259   010A70  2A0C               	incf	I2C_ESCRIBE_MENSAJE2@i^(0+1280),f,c
  4260   010A72                     i2l2345:
  4261   010A72  500B               	movf	I2C_ESCRIBE_MENSAJE2@tam^(0+1280),w,c
  4262   010A74  5C0C               	subwf	I2C_ESCRIBE_MENSAJE2@i^(0+1280),w,c
  4263   010A76  A0D8               	btfss	status,0,c
  4264   010A78  EF40  F085         	goto	i2u52_41
  4265   010A7C  EF42  F085         	goto	i2u52_40
  4266   010A80                     i2u52_41:
  4267   010A80  EF28  F085         	goto	i2l2341
  4268   010A84                     i2u52_40:
  4269   010A84  0012               	return		;funcret
  4270   010A86                     __end_of_I2C_ESCRIBE_MENSAJE2:
  4271                           	callstack 0
  4272                           
  4273 ;; *************** function i2_strlen *****************
  4274 ;; Defined at:
  4275 ;;		line 5 in file "C:\Program Files\Microchip\xc8\v2.46\pic\sources\c99\common\strlen.c"
  4276 ;; Parameters:    Size  Location     Type
  4277 ;;  s               2    0[COMRAM] PTR const unsigned char 
  4278 ;;		 -> STR_38(35), STR_37(8), STR_36(37), STR_35(8), 
  4279 ;;		 -> STR_34(37), STR_33(12), STR_32(35), STR_31(13), 
  4280 ;;		 -> STR_30(15), STR_29(32), STR_28(32), STR_27(32), 
  4281 ;;		 -> STR_26(32), STR_25(32), STR_24(32), STR_23(32), 
  4282 ;;		 -> STR_22(32), STR_21(32), STR_20(32), STR_19(32), 
  4283 ;;		 -> STR_18(32), STR_17(32), STR_16(32), STR_15(32), 
  4284 ;;		 -> STR_14(32), STR_13(32), STR_12(32), STR_11(32), 
  4285 ;;		 -> STR_10(32), STR_9(32), STR_8(32), STR_7(32), 
  4286 ;;		 -> STR_6(32), STR_5(32), STR_4(32), STR_3(32), 
  4287 ;;		 -> STR_2(32), STR_1(32), 
  4288 ;; Auto vars:     Size  Location     Type
  4289 ;;  a               2    2[COMRAM] PTR const unsigned char 
  4290 ;;		 -> STR_38(35), STR_37(8), STR_36(37), STR_35(8), 
  4291 ;;		 -> STR_34(37), STR_33(12), STR_32(35), STR_31(13), 
  4292 ;;		 -> STR_30(15), STR_29(32), STR_28(32), STR_27(32), 
  4293 ;;		 -> STR_26(32), STR_25(32), STR_24(32), STR_23(32), 
  4294 ;;		 -> STR_22(32), STR_21(32), STR_20(32), STR_19(32), 
  4295 ;;		 -> STR_18(32), STR_17(32), STR_16(32), STR_15(32), 
  4296 ;;		 -> STR_14(32), STR_13(32), STR_12(32), STR_11(32), 
  4297 ;;		 -> STR_10(32), STR_9(32), STR_8(32), STR_7(32), 
  4298 ;;		 -> STR_6(32), STR_5(32), STR_4(32), STR_3(32), 
  4299 ;;		 -> STR_2(32), STR_1(32), 
  4300 ;; Return value:  Size  Location     Type
  4301 ;;                  2    0[COMRAM] unsigned int 
  4302 ;; Registers used:
  4303 ;;		wreg, status,2, status,0, tblptrl, tblptrh, tblptru
  4304 ;; Tracked objects:
  4305 ;;		On entry : 0/0
  4306 ;;		On exit  : 0/0
  4307 ;;		Unchanged: 0/0
  4308 ;; Data sizes:     COMRAM   BANK5   BANK6   BANK7   BANK8   BANK9  BANK10  BANK11  BANK12  BANK13  BANK14  BANK15  BANK1
      +6  BANK17  BANK18  BANK19  BANK20  BANK21  BANK22  BANK23  BANK24  BANK25  BANK26  BANK27  BANK28  BANK29  BANK30  BANK3
      +1  BANK32  BANK33  BANK34  BANK35  BANK36
  4309 ;;      Params:         2       0       0       0       0       0       0       0       0       0       0       0       
      +0       0       0       0       0       0       0       0       0       0       0       0       0       0       0       
      +0       0       0       0       0       0
  4310 ;;      Locals:         2       0       0       0       0       0       0       0       0       0       0       0       
      +0       0       0       0       0       0       0       0       0       0       0       0       0       0       0       
      +0       0       0       0       0       0
  4311 ;;      Temps:          0       0       0       0       0       0       0       0       0       0       0       0       
      +0       0       0       0       0       0       0       0       0       0       0       0       0       0       0       
      +0       0       0       0       0       0
  4312 ;;      Totals:         4       0       0       0       0       0       0       0       0       0       0       0       
      +0       0       0       0       0       0       0       0       0       0       0       0       0       0       0       
      +0       0       0       0       0       0
  4313 ;;Total ram usage:        4 bytes
  4314 ;; Hardware stack levels used: 1
  4315 ;; This function calls:
  4316 ;;		Nothing
  4317 ;; This function is called by:
  4318 ;;		_I2C_ESCRIBE_MENSAJE2
  4319 ;;		i2_U1_STRING_SEND
  4320 ;; This function uses a non-reentrant model
  4321 ;;
  4322                           
  4323                           	psect	text25
  4324   010B92                     __ptext25:
  4325                           	callstack 0
  4326   010B92                     i2_strlen:
  4327                           	callstack 118
  4328   010B92  C501  F503         	movff	i2strlen@s,i2strlen@a
  4329   010B96  C502  F504         	movff	i2strlen@s+1,i2strlen@a+1
  4330   010B9A  EFD1  F085         	goto	i2l1961
  4331   010B9E                     i2l1959:
  4332   010B9E  4A01               	infsnz	i2strlen@s^(0+1280),f,c
  4333   010BA0  2A02               	incf	(i2strlen@s+1)^(0+1280),f,c
  4334   010BA2                     i2l1961:
  4335   010BA2  C501  F4F6         	movff	i2strlen@s,tblptrl
  4336   010BA6  C502  F4F7         	movff	i2strlen@s+1,tblptrh
  4337   010BAA                     	if	0	;tblptru may be non-zero
  4338   010BAA                     	endif
  4339   010BAA                     	if	1	;Program memory is > 0xFFFF, there are 3 active tblptr bytes
  4340   010BAA  0E00               	movlw	low (__mediumconst shr (0+16))
  4341   010BAC  6EF8               	movwf	tblptru,c
  4342   010BAE                     	endif
  4343   010BAE  0008               	tblrd		*
  4344   010BB0  50F5               	movf	tablat,w,c
  4345   010BB2  0900               	iorlw	0
  4346   010BB4  A4D8               	btfss	status,2,c
  4347   010BB6  EFDF  F085         	goto	i2u45_41
  4348   010BBA  EFE1  F085         	goto	i2u45_40
  4349   010BBE                     i2u45_41:
  4350   010BBE  EFCF  F085         	goto	i2l1959
  4351   010BC2                     i2u45_40:
  4352   010BC2  5003               	movf	i2strlen@a^(0+1280),w,c
  4353   010BC4  5C01               	subwf	i2strlen@s^(0+1280),w,c
  4354   010BC6  6E01               	movwf	?i2_strlen^(0+1280),c
  4355   010BC8  5004               	movf	(i2strlen@a+1)^(0+1280),w,c
  4356   010BCA  5802               	subwfb	(i2strlen@s+1)^(0+1280),w,c
  4357   010BCC  6E02               	movwf	(?i2_strlen+1)^(0+1280),c
  4358   010BCE  0012               	return		;funcret
  4359   010BD0                     __end_ofi2_strlen:
  4360                           	callstack 0
  4361                           
  4362 ;; *************** function _I2C_ENVIA_LCD_DATA *****************
  4363 ;; Defined at:
  4364 ;;		line 137 in file "I2C_LCD.c"
  4365 ;; Parameters:    Size  Location     Type
  4366 ;;  data            1    wreg     unsigned char 
  4367 ;; Auto vars:     Size  Location     Type
  4368 ;;  data            1    3[COMRAM] unsigned char 
  4369 ;;  lownibble       1    5[COMRAM] unsigned char 
  4370 ;;  highnibble      1    4[COMRAM] unsigned char 
  4371 ;; Return value:  Size  Location     Type
  4372 ;;                  1    wreg      void 
  4373 ;; Registers used:
  4374 ;;		wreg, status,2, status,0, cstack
  4375 ;; Tracked objects:
  4376 ;;		On entry : 0/0
  4377 ;;		On exit  : 0/0
  4378 ;;		Unchanged: 0/0
  4379 ;; Data sizes:     COMRAM   BANK5   BANK6   BANK7   BANK8   BANK9  BANK10  BANK11  BANK12  BANK13  BANK14  BANK15  BANK1
      +6  BANK17  BANK18  BANK19  BANK20  BANK21  BANK22  BANK23  BANK24  BANK25  BANK26  BANK27  BANK28  BANK29  BANK30  BANK3
      +1  BANK32  BANK33  BANK34  BANK35  BANK36
  4380 ;;      Params:         0       0       0       0       0       0       0       0       0       0       0       0       
      +0       0       0       0       0       0       0       0       0       0       0       0       0       0       0       
      +0       0       0       0       0       0
  4381 ;;      Locals:         3       0       0       0       0       0       0       0       0       0       0       0       
      +0       0       0       0       0       0       0       0       0       0       0       0       0       0       0       
      +0       0       0       0       0       0
  4382 ;;      Temps:          1       0       0       0       0       0       0       0       0       0       0       0       
      +0       0       0       0       0       0       0       0       0       0       0       0       0       0       0       
      +0       0       0       0       0       0
  4383 ;;      Totals:         4       0       0       0       0       0       0       0       0       0       0       0       
      +0       0       0       0       0       0       0       0       0       0       0       0       0       0       0       
      +0       0       0       0       0       0
  4384 ;;Total ram usage:        4 bytes
  4385 ;; Hardware stack levels used: 1
  4386 ;; Hardware stack levels required when called: 1
  4387 ;; This function calls:
  4388 ;;		i2_I2C1_WRITESINGLEBYTE
  4389 ;; This function is called by:
  4390 ;;		_I2C_ESCRIBE_MENSAJE2
  4391 ;;		_I2C_ESCRIBE_MENSAJE
  4392 ;;		_I2C_GENERACARACTER
  4393 ;;		_I2C_LCD_ESCRIBE_VAR_CHAR
  4394 ;;		_I2C_LCD_ESCRIBE_VAR_INT
  4395 ;;		_I2C_LCD_CHAR_GRADO
  4396 ;;		_I2C_LCD_VARCHAR_BITS
  4397 ;;		_I2C_LCD_VARCHAR_HEX
  4398 ;; This function uses a non-reentrant model
  4399 ;;
  4400                           
  4401                           	psect	text26
  4402   010860                     __ptext26:
  4403                           	callstack 0
  4404   010860                     _I2C_ENVIA_LCD_DATA:
  4405                           	callstack 118
  4406                           
  4407                           ;incstack = 0
  4408                           ;I2C_ENVIA_LCD_DATA@data stored from wreg
  4409   010860  6E04               	movwf	I2C_ENVIA_LCD_DATA@data^(0+1280),c
  4410   010862                     
  4411                           ;I2C_LCD.c: 138:     unsigned char highnibble;;I2C_LCD.c: 139:     unsigned char lownibb
      +                          le;;I2C_LCD.c: 141:     highnibble = (data & 0xF0) | 0x08;
  4412   010862  5004               	movf	I2C_ENVIA_LCD_DATA@data^(0+1280),w,c
  4413   010864  0BF0               	andlw	240
  4414   010866  0908               	iorlw	8
  4415   010868  6E05               	movwf	I2C_ENVIA_LCD_DATA@highnibble^(0+1280),c
  4416                           
  4417                           ;I2C_LCD.c: 142:     lownibble = (unsigned char)(((data & 0x0F)<<4)| 0x08);
  4418   01086A  C504  F503         	movff	I2C_ENVIA_LCD_DATA@data,??_I2C_ENVIA_LCD_DATA
  4419   01086E  0E0F               	movlw	15
  4420   010870  1603               	andwf	??_I2C_ENVIA_LCD_DATA^(0+1280),f,c
  4421   010872  3803               	swapf	??_I2C_ENVIA_LCD_DATA^(0+1280),w,c
  4422   010874  0BF0               	andlw	240
  4423   010876  0908               	iorlw	8
  4424   010878  6E06               	movwf	I2C_ENVIA_LCD_DATA@lownibble^(0+1280),c
  4425   01087A                     
  4426                           ;I2C_LCD.c: 144:     I2C1_WRITESINGLEBYTE(I2C_LCD_ADDR,(highnibble | 0x04 | 0x01));
  4427   01087A  5005               	movf	I2C_ENVIA_LCD_DATA@highnibble^(0+1280),w,c
  4428   01087C  0905               	iorlw	5
  4429   01087E  6E01               	movwf	i2I2C1_WRITESINGLEBYTE@dato^(0+1280),c
  4430   010880  501E               	movf	_I2C_LCD_ADDR^(0+1280),w,c
  4431   010882  EC89  F085         	call	i2_I2C1_WRITESINGLEBYTE
  4432   010886                     
  4433                           ;I2C_LCD.c: 145:     _delay((unsigned long)((20)*(32000000UL/4000000.0)));
  4434   010886  0E35               	movlw	53
  4435   010888                     i2u120_47:
  4436   010888  2EE8               	decfsz	wreg,f,c
  4437   01088A  D7FE               	bra	i2u120_47
  4438   01088C  0000               	nop	
  4439   01088E                     
  4440                           ;I2C_LCD.c: 146:     I2C1_WRITESINGLEBYTE(I2C_LCD_ADDR,(highnibble | 0x01));
  4441   01088E  5005               	movf	I2C_ENVIA_LCD_DATA@highnibble^(0+1280),w,c
  4442   010890  0901               	iorlw	1
  4443   010892  6E01               	movwf	i2I2C1_WRITESINGLEBYTE@dato^(0+1280),c
  4444   010894  501E               	movf	_I2C_LCD_ADDR^(0+1280),w,c
  4445   010896  EC89  F085         	call	i2_I2C1_WRITESINGLEBYTE
  4446   01089A                     
  4447                           ;I2C_LCD.c: 147:     _delay((unsigned long)((20)*(32000000UL/4000000.0)));
  4448   01089A  0E35               	movlw	53
  4449   01089C                     i2u121_47:
  4450   01089C  2EE8               	decfsz	wreg,f,c
  4451   01089E  D7FE               	bra	i2u121_47
  4452   0108A0  0000               	nop	
  4453   0108A2                     
  4454                           ;I2C_LCD.c: 149:     I2C1_WRITESINGLEBYTE(I2C_LCD_ADDR,(lownibble | 0x04 | 0x01));
  4455   0108A2  5006               	movf	I2C_ENVIA_LCD_DATA@lownibble^(0+1280),w,c
  4456   0108A4  0905               	iorlw	5
  4457   0108A6  6E01               	movwf	i2I2C1_WRITESINGLEBYTE@dato^(0+1280),c
  4458   0108A8  501E               	movf	_I2C_LCD_ADDR^(0+1280),w,c
  4459   0108AA  EC89  F085         	call	i2_I2C1_WRITESINGLEBYTE
  4460   0108AE                     
  4461                           ;I2C_LCD.c: 150:     _delay((unsigned long)((20)*(32000000UL/4000000.0)));
  4462   0108AE  0E35               	movlw	53
  4463   0108B0                     i2u122_47:
  4464   0108B0  2EE8               	decfsz	wreg,f,c
  4465   0108B2  D7FE               	bra	i2u122_47
  4466   0108B4  0000               	nop	
  4467   0108B6                     
  4468                           ;I2C_LCD.c: 151:     I2C1_WRITESINGLEBYTE(I2C_LCD_ADDR,(lownibble | 0x01));
  4469   0108B6  5006               	movf	I2C_ENVIA_LCD_DATA@lownibble^(0+1280),w,c
  4470   0108B8  0901               	iorlw	1
  4471   0108BA  6E01               	movwf	i2I2C1_WRITESINGLEBYTE@dato^(0+1280),c
  4472   0108BC  501E               	movf	_I2C_LCD_ADDR^(0+1280),w,c
  4473   0108BE  EC89  F085         	call	i2_I2C1_WRITESINGLEBYTE
  4474   0108C2                     
  4475                           ;I2C_LCD.c: 152:     _delay((unsigned long)((20)*(32000000UL/4000000.0)));
  4476   0108C2  0E35               	movlw	53
  4477   0108C4                     i2u123_47:
  4478   0108C4  2EE8               	decfsz	wreg,f,c
  4479   0108C6  D7FE               	bra	i2u123_47
  4480   0108C8  0000               	nop	
  4481   0108CA  0012               	return		;funcret
  4482   0108CC                     __end_of_I2C_ENVIA_LCD_DATA:
  4483                           	callstack 0
  4484                           
  4485 ;; *************** function i2_I2C1_WRITESINGLEBYTE *****************
  4486 ;; Defined at:
  4487 ;;		line 60 in file "I2C_LCD.c"
  4488 ;; Parameters:    Size  Location     Type
  4489 ;;  direccion       1    wreg     unsigned char 
  4490 ;;  dato            1    0[COMRAM] unsigned char 
  4491 ;; Auto vars:     Size  Location     Type
  4492 ;;  direccion       1    1[COMRAM] unsigned char 
  4493 ;; Return value:  Size  Location     Type
  4494 ;;                  1    wreg      void 
  4495 ;; Registers used:
  4496 ;;		wreg, status,2, status,0
  4497 ;; Tracked objects:
  4498 ;;		On entry : 0/0
  4499 ;;		On exit  : 0/0
  4500 ;;		Unchanged: 0/0
  4501 ;; Data sizes:     COMRAM   BANK5   BANK6   BANK7   BANK8   BANK9  BANK10  BANK11  BANK12  BANK13  BANK14  BANK15  BANK1
      +6  BANK17  BANK18  BANK19  BANK20  BANK21  BANK22  BANK23  BANK24  BANK25  BANK26  BANK27  BANK28  BANK29  BANK30  BANK3
      +1  BANK32  BANK33  BANK34  BANK35  BANK36
  4502 ;;      Params:         1       0       0       0       0       0       0       0       0       0       0       0       
      +0       0       0       0       0       0       0       0       0       0       0       0       0       0       0       
      +0       0       0       0       0       0
  4503 ;;      Locals:         1       0       0       0       0       0       0       0       0       0       0       0       
      +0       0       0       0       0       0       0       0       0       0       0       0       0       0       0       
      +0       0       0       0       0       0
  4504 ;;      Temps:          0       0       0       0       0       0       0       0       0       0       0       0       
      +0       0       0       0       0       0       0       0       0       0       0       0       0       0       0       
      +0       0       0       0       0       0
  4505 ;;      Totals:         2       0       0       0       0       0       0       0       0       0       0       0       
      +0       0       0       0       0       0       0       0       0       0       0       0       0       0       0       
      +0       0       0       0       0       0
  4506 ;;Total ram usage:        2 bytes
  4507 ;; Hardware stack levels used: 1
  4508 ;; This function calls:
  4509 ;;		Nothing
  4510 ;; This function is called by:
  4511 ;;		_I2C_ENVIA_LCD_DATA
  4512 ;;		i2_I2C_ENVIA_LCD_CMD
  4513 ;; This function uses a non-reentrant model
  4514 ;;
  4515                           
  4516                           	psect	text27
  4517   010B12                     __ptext27:
  4518                           	callstack 0
  4519   010B12                     i2_I2C1_WRITESINGLEBYTE:
  4520                           	callstack 118
  4521                           
  4522                           ;incstack = 0
  4523                           ;i2I2C1_WRITESINGLEBYTE@direccion stored from wreg
  4524   010B12  6E02               	movwf	i2I2C1_WRITESINGLEBYTE@direccion^(0+1280),c
  4525   010B14                     
  4526                           ;I2C_LCD.c: 61:     I2C1CNT = 1;
  4527   010B14  0E01               	movlw	1
  4528   010B16  0102               	movlb	2	; () banked
  4529   010B18  6F8D               	movwf	141,b	;volatile
  4530   010B1A                     
  4531                           ; BSR set to: 2
  4532                           ;I2C_LCD.c: 62:     I2C1ADB1 = (direccion << 1) & 0xFE;
  4533   010B1A  5002               	movf	i2I2C1_WRITESINGLEBYTE@direccion^(0+1280),w,c
  4534   010B1C  2402               	addwf	i2I2C1_WRITESINGLEBYTE@direccion^(0+1280),w,c
  4535   010B1E  0BFE               	andlw	254
  4536   010B20  6F8F               	movwf	143,b	;volatile
  4537   010B22                     
  4538                           ; BSR set to: 2
  4539                           ;I2C_LCD.c: 63:     I2C1TXB = dato;
  4540   010B22  C501  F28C         	movff	i2I2C1_WRITESINGLEBYTE@dato,652	;volatile
  4541   010B26                     
  4542                           ; BSR set to: 2
  4543                           ;I2C_LCD.c: 64:     I2C1CON0bits.S = 1;
  4544   010B26  8B94               	bsf	148,5,b	;volatile
  4545   010B28                     i2l215:
  4546                           
  4547                           ; BSR set to: 2
  4548   010B28  AB99               	btfss	153,5,b	;volatile
  4549   010B2A  EF99  F085         	goto	i2u42_41
  4550   010B2E  EF9B  F085         	goto	i2u42_40
  4551   010B32                     i2u42_41:
  4552   010B32  EF94  F085         	goto	i2l215
  4553   010B36                     i2u42_40:
  4554   010B36                     i2l218:
  4555                           
  4556                           ; BSR set to: 2
  4557   010B36  BB95               	btfsc	149,5,b	;volatile
  4558   010B38  EFA0  F085         	goto	i2u43_41
  4559   010B3C  EFA2  F085         	goto	i2u43_40
  4560   010B40                     i2u43_41:
  4561   010B40  EF9B  F085         	goto	i2l218
  4562   010B44                     i2u43_40:
  4563   010B44                     i2l221:
  4564                           
  4565                           ; BSR set to: 2
  4566   010B44  A59A               	btfss	154,2,b	;volatile
  4567   010B46  EFA7  F085         	goto	i2u44_41
  4568   010B4A  EFA9  F085         	goto	i2u44_40
  4569   010B4E                     i2u44_41:
  4570   010B4E  EFA2  F085         	goto	i2l221
  4571   010B52                     i2u44_40:
  4572   010B52                     
  4573                           ; BSR set to: 2
  4574   010B52  0012               	return		;funcret
  4575   010B54                     __end_ofi2_I2C1_WRITESINGLEBYTE:
  4576                           	callstack 0
  4577                           
  4578 ;; *************** function _default_ISR *****************
  4579 ;; Defined at:
  4580 ;;		line 169 in file "maincode02.c"
  4581 ;; Parameters:    Size  Location     Type
  4582 ;;		None
  4583 ;; Auto vars:     Size  Location     Type
  4584 ;;		None
  4585 ;; Return value:  Size  Location     Type
  4586 ;;                  1    wreg      void 
  4587 ;; Registers used:
  4588 ;;		None
  4589 ;; Tracked objects:
  4590 ;;		On entry : 0/0
  4591 ;;		On exit  : 0/0
  4592 ;;		Unchanged: 0/0
  4593 ;; Data sizes:     COMRAM   BANK5   BANK6   BANK7   BANK8   BANK9  BANK10  BANK11  BANK12  BANK13  BANK14  BANK15  BANK1
      +6  BANK17  BANK18  BANK19  BANK20  BANK21  BANK22  BANK23  BANK24  BANK25  BANK26  BANK27  BANK28  BANK29  BANK30  BANK3
      +1  BANK32  BANK33  BANK34  BANK35  BANK36
  4594 ;;      Params:         0       0       0       0       0       0       0       0       0       0       0       0       
      +0       0       0       0       0       0       0       0       0       0       0       0       0       0       0       
      +0       0       0       0       0       0
  4595 ;;      Locals:         0       0       0       0       0       0       0       0       0       0       0       0       
      +0       0       0       0       0       0       0       0       0       0       0       0       0       0       0       
      +0       0       0       0       0       0
  4596 ;;      Temps:          0       0       0       0       0       0       0       0       0       0       0       0       
      +0       0       0       0       0       0       0       0       0       0       0       0       0       0       0       
      +0       0       0       0       0       0
  4597 ;;      Totals:         0       0       0       0       0       0       0       0       0       0       0       0       
      +0       0       0       0       0       0       0       0       0       0       0       0       0       0       0       
      +0       0       0       0       0       0
  4598 ;;Total ram usage:        0 bytes
  4599 ;; Hardware stack levels used: 1
  4600 ;; This function calls:
  4601 ;;		Nothing
  4602 ;; This function is called by:
  4603 ;;		Interrupt level 2
  4604 ;; This function uses a non-reentrant model
  4605 ;;
  4606                           
  4607                           	psect	text28
  4608   010D08                     __ptext28:
  4609                           	callstack 0
  4610   010D08                     _default_ISR:
  4611                           	callstack 121
  4612   010D08  0011               	retfie		f
  4613   010D0A                     __end_of_default_ISR:
  4614                           	callstack 0
  4615                           
  4616                           ;
  4617                           ; H/W Interrupt Vector Table @ 0x8
  4618                           ;
  4619                           
  4620                           	psect	ivt0x8
  4621   000008                     __pivt0x8:
  4622                           	callstack 0
  4623   000008                     ivt0x8_base:
  4624                           	callstack 0
  4625                           
  4626                           ; Vector 0 : SWINT
  4627   000008  4342               	dw	_default_ISR shr (0+2)
  4628                           
  4629                           ; Vector 1 : HLVD
  4630   00000A  4342               	dw	_default_ISR shr (0+2)
  4631                           
  4632                           ; Vector 2 : OSF
  4633   00000C  4342               	dw	_default_ISR shr (0+2)
  4634                           
  4635                           ; Vector 3 : CSW
  4636   00000E  4342               	dw	_default_ISR shr (0+2)
  4637                           
  4638                           ; Vector 4 : Undefined
  4639   000010  0040               	dw	ivt0x8_undefint shr (0+2)
  4640                           
  4641                           ; Vector 5 : CLC1
  4642   000012  4342               	dw	_default_ISR shr (0+2)
  4643                           
  4644                           ; Vector 6 : Undefined
  4645   000014  0040               	dw	ivt0x8_undefint shr (0+2)
  4646                           
  4647                           ; Vector 7 : IOC
  4648   000016  4342               	dw	_default_ISR shr (0+2)
  4649                           
  4650                           ; Vector 8 : INT0
  4651   000018  4342               	dw	_default_ISR shr (0+2)
  4652                           
  4653                           ; Vector 9 : ZCD
  4654   00001A  4342               	dw	_default_ISR shr (0+2)
  4655                           
  4656                           ; Vector 10 : AD
  4657   00001C  4342               	dw	_default_ISR shr (0+2)
  4658                           
  4659                           ; Vector 11 : ACT
  4660   00001E  4342               	dw	_default_ISR shr (0+2)
  4661                           
  4662                           ; Vector 12 : CMP1
  4663   000020  4342               	dw	_default_ISR shr (0+2)
  4664                           
  4665                           ; Vector 13 : SMT1
  4666   000022  4342               	dw	_default_ISR shr (0+2)
  4667                           
  4668                           ; Vector 14 : SMT1PRA
  4669   000024  4342               	dw	_default_ISR shr (0+2)
  4670                           
  4671                           ; Vector 15 : SMT1PRW
  4672   000026  4342               	dw	_default_ISR shr (0+2)
  4673                           
  4674                           ; Vector 16 : ADT
  4675   000028  4342               	dw	_default_ISR shr (0+2)
  4676                           
  4677                           ; Vector 17 : Undefined
  4678   00002A  0040               	dw	ivt0x8_undefint shr (0+2)
  4679                           
  4680                           ; Vector 18 : Undefined
  4681   00002C  0040               	dw	ivt0x8_undefint shr (0+2)
  4682                           
  4683                           ; Vector 19 : Undefined
  4684   00002E  0040               	dw	ivt0x8_undefint shr (0+2)
  4685                           
  4686                           ; Vector 20 : DMA1SCNT
  4687   000030  4342               	dw	_default_ISR shr (0+2)
  4688                           
  4689                           ; Vector 21 : DMA1DCNT
  4690   000032  4342               	dw	_default_ISR shr (0+2)
  4691                           
  4692                           ; Vector 22 : DMA1OR
  4693   000034  4342               	dw	_default_ISR shr (0+2)
  4694                           
  4695                           ; Vector 23 : DMA1A
  4696   000036  4342               	dw	_default_ISR shr (0+2)
  4697                           
  4698                           ; Vector 24 : SPI1RX
  4699   000038  4342               	dw	_default_ISR shr (0+2)
  4700                           
  4701                           ; Vector 25 : SPI1TX
  4702   00003A  4342               	dw	_default_ISR shr (0+2)
  4703                           
  4704                           ; Vector 26 : SPI1
  4705   00003C  4342               	dw	_default_ISR shr (0+2)
  4706                           
  4707                           ; Vector 27 : TMR2
  4708   00003E  4342               	dw	_default_ISR shr (0+2)
  4709                           
  4710                           ; Vector 28 : TMR1
  4711   000040  4342               	dw	_default_ISR shr (0+2)
  4712                           
  4713                           ; Vector 29 : TMR1G
  4714   000042  4342               	dw	_default_ISR shr (0+2)
  4715                           
  4716                           ; Vector 30 : CCP1
  4717   000044  4342               	dw	_default_ISR shr (0+2)
  4718                           
  4719                           ; Vector 31 : TMR0
  4720   000046  4342               	dw	_default_ISR shr (0+2)
  4721                           
  4722                           ; Vector 32 : U1RX
  4723   000048  40D5               	dw	_U1RX_ISR shr (0+2)
  4724                           
  4725                           ; Vector 33 : U1TX
  4726   00004A  4342               	dw	_default_ISR shr (0+2)
  4727                           
  4728                           ; Vector 34 : U1E
  4729   00004C  4342               	dw	_default_ISR shr (0+2)
  4730                           
  4731                           ; Vector 35 : U1
  4732   00004E  4342               	dw	_default_ISR shr (0+2)
  4733                           
  4734                           ; Vector 36 : Undefined
  4735   000050  0040               	dw	ivt0x8_undefint shr (0+2)
  4736                           
  4737                           ; Vector 37 : Undefined
  4738   000052  0040               	dw	ivt0x8_undefint shr (0+2)
  4739                           
  4740                           ; Vector 38 : PWM1PR
  4741   000054  4342               	dw	_default_ISR shr (0+2)
  4742                           
  4743                           ; Vector 39 : PWM1
  4744   000056  4342               	dw	_default_ISR shr (0+2)
  4745                           
  4746                           ; Vector 40 : SPI2RX
  4747   000058  4342               	dw	_default_ISR shr (0+2)
  4748                           
  4749                           ; Vector 41 : SPI2TX
  4750   00005A  4342               	dw	_default_ISR shr (0+2)
  4751                           
  4752                           ; Vector 42 : SPI2
  4753   00005C  4342               	dw	_default_ISR shr (0+2)
  4754                           
  4755                           ; Vector 43 : Undefined
  4756   00005E  0040               	dw	ivt0x8_undefint shr (0+2)
  4757                           
  4758                           ; Vector 44 : TMR3
  4759   000060  4342               	dw	_default_ISR shr (0+2)
  4760                           
  4761                           ; Vector 45 : TMR3G
  4762   000062  4342               	dw	_default_ISR shr (0+2)
  4763                           
  4764                           ; Vector 46 : PWM2PR
  4765   000064  4342               	dw	_default_ISR shr (0+2)
  4766                           
  4767                           ; Vector 47 : PWM2
  4768   000066  4342               	dw	_default_ISR shr (0+2)
  4769                           
  4770                           ; Vector 48 : INT1
  4771   000068  4342               	dw	_default_ISR shr (0+2)
  4772                           
  4773                           ; Vector 49 : CLC2
  4774   00006A  4342               	dw	_default_ISR shr (0+2)
  4775                           
  4776                           ; Vector 50 : CWG1
  4777   00006C  4342               	dw	_default_ISR shr (0+2)
  4778                           
  4779                           ; Vector 51 : NCO1
  4780   00006E  4342               	dw	_default_ISR shr (0+2)
  4781                           
  4782                           ; Vector 52 : DMA2SCNT
  4783   000070  4342               	dw	_default_ISR shr (0+2)
  4784                           
  4785                           ; Vector 53 : DMA2DCNT
  4786   000072  4342               	dw	_default_ISR shr (0+2)
  4787                           
  4788                           ; Vector 54 : DMA2OR
  4789   000074  4342               	dw	_default_ISR shr (0+2)
  4790                           
  4791                           ; Vector 55 : DMA2A
  4792   000076  4342               	dw	_default_ISR shr (0+2)
  4793                           
  4794                           ; Vector 56 : I2C1RX
  4795   000078  4342               	dw	_default_ISR shr (0+2)
  4796                           
  4797                           ; Vector 57 : I2C1TX
  4798   00007A  4342               	dw	_default_ISR shr (0+2)
  4799                           
  4800                           ; Vector 58 : I2C1
  4801   00007C  4342               	dw	_default_ISR shr (0+2)
  4802                           
  4803                           ; Vector 59 : I2C1E
  4804   00007E  4342               	dw	_default_ISR shr (0+2)
  4805                           
  4806                           ; Vector 60 : Undefined
  4807   000080  0040               	dw	ivt0x8_undefint shr (0+2)
  4808                           
  4809                           ; Vector 61 : CLC3
  4810   000082  4342               	dw	_default_ISR shr (0+2)
  4811                           
  4812                           ; Vector 62 : PWM3PR
  4813   000084  4342               	dw	_default_ISR shr (0+2)
  4814                           
  4815                           ; Vector 63 : PWM3
  4816   000086  4342               	dw	_default_ISR shr (0+2)
  4817                           
  4818                           ; Vector 64 : U2RX
  4819   000088  4342               	dw	_default_ISR shr (0+2)
  4820                           
  4821                           ; Vector 65 : U2TX
  4822   00008A  4342               	dw	_default_ISR shr (0+2)
  4823                           
  4824                           ; Vector 66 : U2E
  4825   00008C  4342               	dw	_default_ISR shr (0+2)
  4826                           
  4827                           ; Vector 67 : U2
  4828   00008E  4342               	dw	_default_ISR shr (0+2)
  4829                           
  4830                           ; Vector 68 : TMR5
  4831   000090  4342               	dw	_default_ISR shr (0+2)
  4832                           
  4833                           ; Vector 69 : TMR5G
  4834   000092  4342               	dw	_default_ISR shr (0+2)
  4835                           
  4836                           ; Vector 70 : CCP2
  4837   000094  4342               	dw	_default_ISR shr (0+2)
  4838                           
  4839                           ; Vector 71 : SCAN
  4840   000096  4342               	dw	_default_ISR shr (0+2)
  4841                           
  4842                           ; Vector 72 : U3RX
  4843   000098  4342               	dw	_default_ISR shr (0+2)
  4844                           
  4845                           ; Vector 73 : U3TX
  4846   00009A  4342               	dw	_default_ISR shr (0+2)
  4847                           
  4848                           ; Vector 74 : U3E
  4849   00009C  4342               	dw	_default_ISR shr (0+2)
  4850                           
  4851                           ; Vector 75 : U3
  4852   00009E  4342               	dw	_default_ISR shr (0+2)
  4853                           
  4854                           ; Vector 76 : Undefined
  4855   0000A0  0040               	dw	ivt0x8_undefint shr (0+2)
  4856                           
  4857                           ; Vector 77 : CLC4
  4858   0000A2  4342               	dw	_default_ISR shr (0+2)
  4859                           
  4860                           ; Vector 78 : Undefined
  4861   0000A4  0040               	dw	ivt0x8_undefint shr (0+2)
  4862                           
  4863                           ; Vector 79 : Undefined
  4864   0000A6  0040               	dw	ivt0x8_undefint shr (0+2)
  4865                           
  4866                           ; Vector 80 : INT2
  4867   0000A8  4342               	dw	_default_ISR shr (0+2)
  4868                           
  4869                           ; Vector 81 : CLC5
  4870   0000AA  4342               	dw	_default_ISR shr (0+2)
  4871                           
  4872                           ; Vector 82 : CWG2
  4873   0000AC  4342               	dw	_default_ISR shr (0+2)
  4874                           
  4875                           ; Vector 83 : NCO2
  4876   0000AE  4342               	dw	_default_ISR shr (0+2)
  4877                           
  4878                           ; Vector 84 : DMA3SCNT
  4879   0000B0  4342               	dw	_default_ISR shr (0+2)
  4880                           
  4881                           ; Vector 85 : DMA3DCNT
  4882   0000B2  4342               	dw	_default_ISR shr (0+2)
  4883                           
  4884                           ; Vector 86 : DMA3OR
  4885   0000B4  4342               	dw	_default_ISR shr (0+2)
  4886                           
  4887                           ; Vector 87 : DMA3A
  4888   0000B6  4342               	dw	_default_ISR shr (0+2)
  4889                           
  4890                           ; Vector 88 : CCP3
  4891   0000B8  4342               	dw	_default_ISR shr (0+2)
  4892                           
  4893                           ; Vector 89 : CLC6
  4894   0000BA  4342               	dw	_default_ISR shr (0+2)
  4895                           
  4896                           ; Vector 90 : CWG3
  4897   0000BC  4342               	dw	_default_ISR shr (0+2)
  4898                           
  4899                           ; Vector 91 : TMR4
  4900   0000BE  4342               	dw	_default_ISR shr (0+2)
  4901                           
  4902                           ; Vector 92 : DMA4SCNT
  4903   0000C0  4342               	dw	_default_ISR shr (0+2)
  4904                           
  4905                           ; Vector 93 : DMA4DCNT
  4906   0000C2  4342               	dw	_default_ISR shr (0+2)
  4907                           
  4908                           ; Vector 94 : DMA4OR
  4909   0000C4  4342               	dw	_default_ISR shr (0+2)
  4910                           
  4911                           ; Vector 95 : DMA4A
  4912   0000C6  4342               	dw	_default_ISR shr (0+2)
  4913                           
  4914                           ; Vector 96 : U4RX
  4915   0000C8  4342               	dw	_default_ISR shr (0+2)
  4916                           
  4917                           ; Vector 97 : U4TX
  4918   0000CA  4342               	dw	_default_ISR shr (0+2)
  4919                           
  4920                           ; Vector 98 : U4E
  4921   0000CC  4342               	dw	_default_ISR shr (0+2)
  4922                           
  4923                           ; Vector 99 : U4
  4924   0000CE  4342               	dw	_default_ISR shr (0+2)
  4925                           
  4926                           ; Vector 100 : DMA5SCNT
  4927   0000D0  4342               	dw	_default_ISR shr (0+2)
  4928                           
  4929                           ; Vector 101 : DMA5DCNT
  4930   0000D2  4342               	dw	_default_ISR shr (0+2)
  4931                           
  4932                           ; Vector 102 : DMA5OR
  4933   0000D4  4342               	dw	_default_ISR shr (0+2)
  4934                           
  4935                           ; Vector 103 : DMA5A
  4936   0000D6  4342               	dw	_default_ISR shr (0+2)
  4937                           
  4938                           ; Vector 104 : U5RX
  4939   0000D8  4342               	dw	_default_ISR shr (0+2)
  4940                           
  4941                           ; Vector 105 : U5TX
  4942   0000DA  4342               	dw	_default_ISR shr (0+2)
  4943                           
  4944                           ; Vector 106 : U5E
  4945   0000DC  4342               	dw	_default_ISR shr (0+2)
  4946                           
  4947                           ; Vector 107 : U5
  4948   0000DE  4342               	dw	_default_ISR shr (0+2)
  4949                           
  4950                           ; Vector 108 : DMA6SCNT
  4951   0000E0  4342               	dw	_default_ISR shr (0+2)
  4952                           
  4953                           ; Vector 109 : DMA6DCNT
  4954   0000E2  4342               	dw	_default_ISR shr (0+2)
  4955                           
  4956                           ; Vector 110 : DMA6OR
  4957   0000E4  4342               	dw	_default_ISR shr (0+2)
  4958                           
  4959                           ; Vector 111 : DMA6A
  4960   0000E6  4342               	dw	_default_ISR shr (0+2)
  4961                           
  4962                           ; Vector 112 : Undefined
  4963   0000E8  0040               	dw	ivt0x8_undefint shr (0+2)
  4964                           
  4965                           ; Vector 113 : CLC7
  4966   0000EA  4342               	dw	_default_ISR shr (0+2)
  4967                           
  4968                           ; Vector 114 : CMP2
  4969   0000EC  4342               	dw	_default_ISR shr (0+2)
  4970                           
  4971                           ; Vector 115 : NCO3
  4972   0000EE  4342               	dw	_default_ISR shr (0+2)
  4973                           
  4974                           ; Vector 116 : Undefined
  4975   0000F0  0040               	dw	ivt0x8_undefint shr (0+2)
  4976                           
  4977                           ; Vector 117 : Undefined
  4978   0000F2  0040               	dw	ivt0x8_undefint shr (0+2)
  4979                           
  4980                           ; Vector 118 : Undefined
  4981   0000F4  0040               	dw	ivt0x8_undefint shr (0+2)
  4982                           
  4983                           ; Vector 119 : Undefined
  4984   0000F6  0040               	dw	ivt0x8_undefint shr (0+2)
  4985                           
  4986                           ; Vector 120 : NVM
  4987   0000F8  4342               	dw	_default_ISR shr (0+2)
  4988                           
  4989                           ; Vector 121 : CLC8
  4990   0000FA  4342               	dw	_default_ISR shr (0+2)
  4991                           
  4992                           ; Vector 122 : CRC
  4993   0000FC  4342               	dw	_default_ISR shr (0+2)
  4994                           
  4995                           ; Vector 123 : TMR6
  4996   0000FE  4342               	dw	_default_ISR shr (0+2)
  4997   000100                     ivt0x8_undefint:
  4998                           	callstack 0
  4999   000100  00FF               	reset	
  5000                           
  5001                           	psect	rparam
  5002   000000                     
  5003                           	psect	config
  5004                           
  5005                           ;Config register CONFIG1 @ 0x300000
  5006                           ;	External Oscillator Selection
  5007                           ;	FEXTOSC = OFF, Oscillator not enabled
  5008                           ;	Reset Oscillator Selection
  5009                           ;	RSTOSC = EXTOSC, EXTOSC operating per FEXTOSC bits (device manufacturing default)
  5010   300000                     	org	3145728
  5011   300000  FC                 	db	252
  5012                           
  5013                           ;Config register CONFIG2 @ 0x300001
  5014                           ;	Clock out Enable bit
  5015                           ;	CLKOUTEN = OFF, CLKOUT function is disabled
  5016                           ;	PRLOCKED One-Way Set Enable bit
  5017                           ;	PR1WAY = ON, PRLOCKED bit can be cleared and set only once
  5018                           ;	Clock Switch Enable bit
  5019                           ;	CSWEN = ON, Writing to NOSC and NDIV is allowed
  5020                           ;	Fail-Safe Clock Monitor Enable bit
  5021                           ;	FCMEN = ON, Fail-Safe Clock Monitor enabled
  5022   300001                     	org	3145729
  5023   300001  FF                 	db	255
  5024                           
  5025                           ;Config register CONFIG3 @ 0x300002
  5026                           ;	MCLR Enable bit
  5027                           ;	MCLRE = EXTMCLR, If LVP = 0, MCLR pin is MCLR; If LVP = 1, RE3 pin function is MCLR
  5028                           ;	Power-up timer selection bits
  5029                           ;	PWRTS = PWRT_64, PWRT set at 64ms
  5030                           ;	Multi-vector enable bit
  5031                           ;	MVECEN = ON, Multi-vector enabled, Vector table used for interrupts
  5032                           ;	IVTLOCK bit One-way set enable bit
  5033                           ;	IVT1WAY = ON, IVTLOCKED bit can be cleared and set only once
  5034                           ;	Low Power BOR Enable bit
  5035                           ;	LPBOREN = OFF, Low-Power BOR disabled
  5036                           ;	Brown-out Reset Enable bits
  5037                           ;	BOREN = OFF, Brown-out Reset disabled
  5038   300002                     	org	3145730
  5039   300002  3D                 	db	61
  5040                           
  5041                           ;Config register CONFIG4 @ 0x300003
  5042                           ;	Brown-out Reset Voltage Selection bits
  5043                           ;	BORV = VBOR_1P9, Brown-out Reset Voltage (VBOR) set to 1.9V
  5044                           ;	ZCD Disable bit
  5045                           ;	ZCD = OFF, ZCD module is disabled. ZCD can be enabled by setting the ZCDSEN bit of ZCD
      +                          CON
  5046                           ;	PPSLOCK bit One-Way Set Enable bit
  5047                           ;	PPS1WAY = ON, PPSLOCKED bit can be cleared and set only once; PPS registers remain loc
      +                          ked after one clear/set cycle
  5048                           ;	Stack Full/Underflow Reset Enable bit
  5049                           ;	STVREN = ON, Stack full/underflow will cause Reset
  5050                           ;	Low Voltage Programming Enable bit
  5051                           ;	LVP = OFF, HV on MCLR/VPP must be used for programming
  5052                           ;	Extended Instruction Set Enable bit
  5053                           ;	XINST = OFF, Extended Instruction Set and Indexed Addressing Mode disabled
  5054   300003                     	org	3145731
  5055   300003  DF                 	db	223
  5056                           
  5057                           ;Config register CONFIG5 @ 0x300004
  5058                           ;	WDT Period selection bits
  5059                           ;	WDTCPS = WDTCPS_31, Divider ratio 1:65536; software control of WDTPS
  5060                           ;	WDT operating mode
  5061                           ;	WDTE = OFF, WDT Disabled; SWDTEN is ignored
  5062   300004                     	org	3145732
  5063   300004  9F                 	db	159
  5064                           
  5065                           ;Config register CONFIG6 @ 0x300005
  5066                           ;	WDT Window Select bits
  5067                           ;	WDTCWS = WDTCWS_7, window always open (100%); software control; keyed access not requi
      +                          red
  5068                           ;	WDT input clock selector
  5069                           ;	WDTCCS = SC, Software Control
  5070   300005                     	org	3145733
  5071   300005  FF                 	db	255
  5072                           
  5073                           ;Config register CONFIG7 @ 0x300006
  5074                           ;	Boot Block Size selection bits
  5075                           ;	BBSIZE = BBSIZE_512, Boot Block size is 512 words
  5076                           ;	Boot Block enable bit
  5077                           ;	BBEN = OFF, Boot block disabled
  5078                           ;	Storage Area Flash enable bit
  5079                           ;	SAFEN = OFF, SAF disabled
  5080                           ;	Background Debugger
  5081                           ;	DEBUG = OFF, Background Debugger disabled
  5082   300006                     	org	3145734
  5083   300006  FF                 	db	255
  5084                           
  5085                           ;Config register CONFIG8 @ 0x300007
  5086                           ;	Boot Block Write Protection bit
  5087                           ;	WRTB = OFF, Boot Block not Write protected
  5088                           ;	Configuration Register Write Protection bit
  5089                           ;	WRTC = OFF, Configuration registers not Write protected
  5090                           ;	Data EEPROM Write Protection bit
  5091                           ;	WRTD = OFF, Data EEPROM not Write protected
  5092                           ;	SAF Write protection bit
  5093                           ;	WRTSAF = OFF, SAF not Write Protected
  5094                           ;	Application Block write protection bit
  5095                           ;	WRTAPP = OFF, Application Block not write protected
  5096   300007                     	org	3145735
  5097   300007  FF                 	db	255
  5098                           
  5099                           ;Config register CONFIG10 @ 0x300009
  5100                           ;	PFM and Data EEPROM Code Protection bit
  5101                           ;	CP = OFF, PFM and Data EEPROM code protection disabled
  5102   300009                     	org	3145737
  5103   300009  FF                 	db	255
  5104                           tosu	equ	0x4FF
  5105                           tosh	equ	0x4FE
  5106                           tosl	equ	0x4FD
  5107                           stkptr	equ	0x4FC
  5108                           pclatu	equ	0x4FB
  5109                           pclath	equ	0x4FA
  5110                           pcl	equ	0x4F9
  5111                           tblptru	equ	0x4F8
  5112                           tblptrh	equ	0x4F7
  5113                           tblptrl	equ	0x4F6
  5114                           tablat	equ	0x4F5
  5115                           prodh	equ	0x4F4
  5116                           prodl	equ	0x4F3
  5117                           indf0	equ	0x4EF
  5118                           postinc0	equ	0x4EE
  5119                           postdec0	equ	0x4ED
  5120                           preinc0	equ	0x4EC
  5121                           plusw0	equ	0x4EB
  5122                           fsr0h	equ	0x4EA
  5123                           fsr0l	equ	0x4E9
  5124                           wreg	equ	0x4E8
  5125                           indf1	equ	0x4E7
  5126                           postinc1	equ	0x4E6
  5127                           postdec1	equ	0x4E5
  5128                           preinc1	equ	0x4E4
  5129                           plusw1	equ	0x4E3
  5130                           fsr1h	equ	0x4E2
  5131                           fsr1l	equ	0x4E1
  5132                           bsr	equ	0x4E0
  5133                           indf2	equ	0x4DF
  5134                           postinc2	equ	0x4DE
  5135                           postdec2	equ	0x4DD
  5136                           preinc2	equ	0x4DC
  5137                           plusw2	equ	0x4DB
  5138                           fsr2h	equ	0x4DA
  5139                           fsr2l	equ	0x4D9
  5140                           status	equ	0x4D8

Data Sizes:
    Strings     805
    Constant    0
    Data        1
    BSS         1
    Persistent  0
    Stack       0

Auto Spaces:
    Space          Size  Autos    Used
    COMRAM           95     28      30
    BANK5           160      0       0
    BANK6           256      0       0
    BANK7           256      0       0
    BANK8           256      0       0
    BANK9           256      0       0
    BANK10          256      0       0
    BANK11          256      0       0
    BANK12          256      0       0
    BANK13          256      0       0
    BANK14          256      0       0
    BANK15          256      0       0
    BANK16          256      0       0
    BANK17          256      0       0
    BANK18          256      0       0
    BANK19          256      0       0
    BANK20          256      0       0
    BANK21          256      0       0
    BANK22          256      0       0
    BANK23          256      0       0
    BANK24          256      0       0
    BANK25          256      0       0
    BANK26          256      0       0
    BANK27          256      0       0
    BANK28          256      0       0
    BANK29          256      0       0
    BANK30          256      0       0
    BANK31          256      0       0
    BANK32          256      0       0
    BANK33          256      0       0
    BANK34          256      0       0
    BANK35          256      0       0
    BANK36          256      0       0

Pointer List with Targets:

    I2C_ESCRIBE_MENSAJE2@cadena	PTR const unsigned char  size(2) Largest target is 8
		 -> STR_35(CODE[8]), STR_37(CODE[8]), 

    strlen@a	PTR const unsigned char  size(2) Largest target is 37
		 -> STR_1(CODE[32]), STR_10(CODE[32]), STR_11(CODE[32]), STR_12(CODE[32]), 
		 -> STR_13(CODE[32]), STR_14(CODE[32]), STR_15(CODE[32]), STR_16(CODE[32]), 
		 -> STR_17(CODE[32]), STR_18(CODE[32]), STR_19(CODE[32]), STR_2(CODE[32]), 
		 -> STR_20(CODE[32]), STR_21(CODE[32]), STR_22(CODE[32]), STR_23(CODE[32]), 
		 -> STR_24(CODE[32]), STR_25(CODE[32]), STR_26(CODE[32]), STR_27(CODE[32]), 
		 -> STR_28(CODE[32]), STR_29(CODE[32]), STR_3(CODE[32]), STR_30(CODE[15]), 
		 -> STR_31(CODE[13]), STR_32(CODE[35]), STR_33(CODE[12]), STR_34(CODE[37]), 
		 -> STR_35(CODE[8]), STR_36(CODE[37]), STR_37(CODE[8]), STR_38(CODE[35]), 
		 -> STR_4(CODE[32]), STR_5(CODE[32]), STR_6(CODE[32]), STR_7(CODE[32]), 
		 -> STR_8(CODE[32]), STR_9(CODE[32]), 

    strlen@s	PTR const unsigned char  size(2) Largest target is 37
		 -> STR_1(CODE[32]), STR_10(CODE[32]), STR_11(CODE[32]), STR_12(CODE[32]), 
		 -> STR_13(CODE[32]), STR_14(CODE[32]), STR_15(CODE[32]), STR_16(CODE[32]), 
		 -> STR_17(CODE[32]), STR_18(CODE[32]), STR_19(CODE[32]), STR_2(CODE[32]), 
		 -> STR_20(CODE[32]), STR_21(CODE[32]), STR_22(CODE[32]), STR_23(CODE[32]), 
		 -> STR_24(CODE[32]), STR_25(CODE[32]), STR_26(CODE[32]), STR_27(CODE[32]), 
		 -> STR_28(CODE[32]), STR_29(CODE[32]), STR_3(CODE[32]), STR_30(CODE[15]), 
		 -> STR_31(CODE[13]), STR_32(CODE[35]), STR_33(CODE[12]), STR_34(CODE[37]), 
		 -> STR_35(CODE[8]), STR_36(CODE[37]), STR_37(CODE[8]), STR_38(CODE[35]), 
		 -> STR_4(CODE[32]), STR_5(CODE[32]), STR_6(CODE[32]), STR_7(CODE[32]), 
		 -> STR_8(CODE[32]), STR_9(CODE[32]), 

    U1_STRING_SEND@cadena	PTR const unsigned char  size(2) Largest target is 37
		 -> STR_1(CODE[32]), STR_10(CODE[32]), STR_11(CODE[32]), STR_12(CODE[32]), 
		 -> STR_13(CODE[32]), STR_14(CODE[32]), STR_15(CODE[32]), STR_16(CODE[32]), 
		 -> STR_17(CODE[32]), STR_18(CODE[32]), STR_19(CODE[32]), STR_2(CODE[32]), 
		 -> STR_20(CODE[32]), STR_21(CODE[32]), STR_22(CODE[32]), STR_23(CODE[32]), 
		 -> STR_24(CODE[32]), STR_25(CODE[32]), STR_26(CODE[32]), STR_27(CODE[32]), 
		 -> STR_28(CODE[32]), STR_29(CODE[32]), STR_3(CODE[32]), STR_30(CODE[15]), 
		 -> STR_31(CODE[13]), STR_32(CODE[35]), STR_33(CODE[12]), STR_34(CODE[37]), 
		 -> STR_36(CODE[37]), STR_38(CODE[35]), STR_4(CODE[32]), STR_5(CODE[32]), 
		 -> STR_6(CODE[32]), STR_7(CODE[32]), STR_8(CODE[32]), STR_9(CODE[32]), 


Critical Paths under _main in COMRAM

    _vis_menu_P->_U1_STRING_SEND
    _U1_STRING_SEND->_strlen
    _U1_NEWLINE->_U1_BYTE_SEND
    _configuro->_I2C_LCD_INIT
    _I2C_LCD_INIT->_I2C_CURSOR_ONOFF
    _I2C_CURSOR_ONOFF->_I2C_ENVIA_LCD_CMD
    _I2C_CURSOR_HOME->_I2C_ENVIA_LCD_CMD
    _I2C_BORRAR_LCD->_I2C_ENVIA_LCD_CMD
    _I2C_ENVIA_LCD_CMD->_I2C1_WRITESINGLEBYTE

Critical Paths under _U1RX_ISR in COMRAM

    _U1RX_ISR->_I2C_ESCRIBE_MENSAJE2
    i2_vis_menu_P->i2_U1_STRING_SEND
    i2_I2C_BORRAR_LCD->i2_I2C_ENVIA_LCD_CMD
    _vis_menu_LCD->i2_U1_STRING_SEND
    i2_U1_STRING_SEND->i2_strlen
    i2_U1_NEWLINE->i2_U1_BYTE_SEND
    _I2C_POS_CURSOR->i2_I2C_ENVIA_LCD_CMD
    i2_I2C_ENVIA_LCD_CMD->i2_I2C1_WRITESINGLEBYTE
    _I2C_ESCRIBE_MENSAJE2->_I2C_ENVIA_LCD_DATA
    _I2C_ENVIA_LCD_DATA->i2_I2C1_WRITESINGLEBYTE

Critical Paths under _default_ISR in COMRAM

    None.

Critical Paths under _main in BANK5

    None.

Critical Paths under _U1RX_ISR in BANK5

    None.

Critical Paths under _default_ISR in BANK5

    None.

Critical Paths under _main in BANK6

    None.

Critical Paths under _U1RX_ISR in BANK6

    None.

Critical Paths under _default_ISR in BANK6

    None.

Critical Paths under _main in BANK7

    None.

Critical Paths under _U1RX_ISR in BANK7

    None.

Critical Paths under _default_ISR in BANK7

    None.

Critical Paths under _main in BANK8

    None.

Critical Paths under _U1RX_ISR in BANK8

    None.

Critical Paths under _default_ISR in BANK8

    None.

Critical Paths under _main in BANK9

    None.

Critical Paths under _U1RX_ISR in BANK9

    None.

Critical Paths under _default_ISR in BANK9

    None.

Critical Paths under _main in BANK10

    None.

Critical Paths under _U1RX_ISR in BANK10

    None.

Critical Paths under _default_ISR in BANK10

    None.

Critical Paths under _main in BANK11

    None.

Critical Paths under _U1RX_ISR in BANK11

    None.

Critical Paths under _default_ISR in BANK11

    None.

Critical Paths under _main in BANK12

    None.

Critical Paths under _U1RX_ISR in BANK12

    None.

Critical Paths under _default_ISR in BANK12

    None.

Critical Paths under _main in BANK13

    None.

Critical Paths under _U1RX_ISR in BANK13

    None.

Critical Paths under _default_ISR in BANK13

    None.

Critical Paths under _main in BANK14

    None.

Critical Paths under _U1RX_ISR in BANK14

    None.

Critical Paths under _default_ISR in BANK14

    None.

Critical Paths under _main in BANK15

    None.

Critical Paths under _U1RX_ISR in BANK15

    None.

Critical Paths under _default_ISR in BANK15

    None.

Critical Paths under _main in BANK16

    None.

Critical Paths under _U1RX_ISR in BANK16

    None.

Critical Paths under _default_ISR in BANK16

    None.

Critical Paths under _main in BANK17

    None.

Critical Paths under _U1RX_ISR in BANK17

    None.

Critical Paths under _default_ISR in BANK17

    None.

Critical Paths under _main in BANK18

    None.

Critical Paths under _U1RX_ISR in BANK18

    None.

Critical Paths under _default_ISR in BANK18

    None.

Critical Paths under _main in BANK19

    None.

Critical Paths under _U1RX_ISR in BANK19

    None.

Critical Paths under _default_ISR in BANK19

    None.

Critical Paths under _main in BANK20

    None.

Critical Paths under _U1RX_ISR in BANK20

    None.

Critical Paths under _default_ISR in BANK20

    None.

Critical Paths under _main in BANK21

    None.

Critical Paths under _U1RX_ISR in BANK21

    None.

Critical Paths under _default_ISR in BANK21

    None.

Critical Paths under _main in BANK22

    None.

Critical Paths under _U1RX_ISR in BANK22

    None.

Critical Paths under _default_ISR in BANK22

    None.

Critical Paths under _main in BANK23

    None.

Critical Paths under _U1RX_ISR in BANK23

    None.

Critical Paths under _default_ISR in BANK23

    None.

Critical Paths under _main in BANK24

    None.

Critical Paths under _U1RX_ISR in BANK24

    None.

Critical Paths under _default_ISR in BANK24

    None.

Critical Paths under _main in BANK25

    None.

Critical Paths under _U1RX_ISR in BANK25

    None.

Critical Paths under _default_ISR in BANK25

    None.

Critical Paths under _main in BANK26

    None.

Critical Paths under _U1RX_ISR in BANK26

    None.

Critical Paths under _default_ISR in BANK26

    None.

Critical Paths under _main in BANK27

    None.

Critical Paths under _U1RX_ISR in BANK27

    None.

Critical Paths under _default_ISR in BANK27

    None.

Critical Paths under _main in BANK28

    None.

Critical Paths under _U1RX_ISR in BANK28

    None.

Critical Paths under _default_ISR in BANK28

    None.

Critical Paths under _main in BANK29

    None.

Critical Paths under _U1RX_ISR in BANK29

    None.

Critical Paths under _default_ISR in BANK29

    None.

Critical Paths under _main in BANK30

    None.

Critical Paths under _U1RX_ISR in BANK30

    None.

Critical Paths under _default_ISR in BANK30

    None.

Critical Paths under _main in BANK31

    None.

Critical Paths under _U1RX_ISR in BANK31

    None.

Critical Paths under _default_ISR in BANK31

    None.

Critical Paths under _main in BANK32

    None.

Critical Paths under _U1RX_ISR in BANK32

    None.

Critical Paths under _default_ISR in BANK32

    None.

Critical Paths under _main in BANK33

    None.

Critical Paths under _U1RX_ISR in BANK33

    None.

Critical Paths under _default_ISR in BANK33

    None.

Critical Paths under _main in BANK34

    None.

Critical Paths under _U1RX_ISR in BANK34

    None.

Critical Paths under _default_ISR in BANK34

    None.

Critical Paths under _main in BANK35

    None.

Critical Paths under _U1RX_ISR in BANK35

    None.

Critical Paths under _default_ISR in BANK35

    None.

Critical Paths under _main in BANK36

    None.

Critical Paths under _U1RX_ISR in BANK36

    None.

Critical Paths under _default_ISR in BANK36

    None.

Call Graph Tables:

 ---------------------------------------------------------------------------------
 (Depth) Function   	        Calls       Base Space   Used Autos Params    Refs
 ---------------------------------------------------------------------------------
 (0) _main                                                 2     2      0   18788
                                             26 COMRAM     2     2      0
                          _configuro
                         _vis_menu_P
 ---------------------------------------------------------------------------------
 (1) _vis_menu_P                                           0     0      0    2654
                         _U1_NEWLINE
                     _U1_STRING_SEND
 ---------------------------------------------------------------------------------
 (2) _U1_STRING_SEND                                       6     4      2    2639
                                             20 COMRAM     6     4      2
                       _U1_BYTE_SEND
                             _strlen
 ---------------------------------------------------------------------------------
 (3) _strlen                                               4     2      2     216
                                             16 COMRAM     4     2      2
 ---------------------------------------------------------------------------------
 (2) _U1_NEWLINE                                           0     0      0      15
                       _U1_BYTE_SEND
 ---------------------------------------------------------------------------------
 (3) _U1_BYTE_SEND                                         1     1      0      15
                                             16 COMRAM     1     1      0
 ---------------------------------------------------------------------------------
 (1) _configuro                                            0     0      0   16134
                       _I2C_LCD_INIT
                            _U1_INIT
 ---------------------------------------------------------------------------------
 (2) _U1_INIT                                              2     0      2     120
                                             16 COMRAM     2     0      2
 ---------------------------------------------------------------------------------
 (2) _I2C_LCD_INIT                                         2     2      0   16014
                                             23 COMRAM     2     2      0
                          _I2C1_INIT
               _I2C1_WRITESINGLEBYTE
                     _I2C_BORRAR_LCD
                    _I2C_CURSOR_HOME
                   _I2C_CURSOR_ONOFF
 ---------------------------------------------------------------------------------
 (3) _I2C_CURSOR_ONOFF                                     1     1      0    4070
                                             22 COMRAM     1     1      0
                  _I2C_ENVIA_LCD_CMD
 ---------------------------------------------------------------------------------
 (3) _I2C_CURSOR_HOME                                      0     0      0    4026
                  _I2C_ENVIA_LCD_CMD
 ---------------------------------------------------------------------------------
 (3) _I2C_BORRAR_LCD                                       0     0      0    4026
                  _I2C_ENVIA_LCD_CMD
 ---------------------------------------------------------------------------------
 (4) _I2C_ENVIA_LCD_CMD                                    4     4      0    4026
                                             18 COMRAM     4     4      0
               _I2C1_WRITESINGLEBYTE
 ---------------------------------------------------------------------------------
 (5) _I2C1_WRITESINGLEBYTE                                 2     1      1    3892
                                             16 COMRAM     2     1      1
 ---------------------------------------------------------------------------------
 (3) _I2C1_INIT                                            0     0      0       0
 ---------------------------------------------------------------------------------
 Estimated maximum stack depth 5
 ---------------------------------------------------------------------------------
 (Depth) Function   	        Calls       Base Space   Used Autos Params    Refs
 ---------------------------------------------------------------------------------
 (6) _U1RX_ISR                                             4     4      0    5602
                                             12 COMRAM     4     4      0
               _I2C_ESCRIBE_MENSAJE2
                     _I2C_POS_CURSOR
                       _vis_menu_LCD
                   i2_I2C_BORRAR_LCD
                       i2_U1_NEWLINE
                   i2_U1_STRING_SEND
                       i2_vis_menu_P
 ---------------------------------------------------------------------------------
 (7) i2_vis_menu_P                                         0     0      0    1236
                       i2_U1_NEWLINE
                   i2_U1_STRING_SEND
 ---------------------------------------------------------------------------------
 (7) i2_I2C_BORRAR_LCD                                     0     0      0     386
                i2_I2C_ENVIA_LCD_CMD
 ---------------------------------------------------------------------------------
 (7) _vis_menu_LCD                                         0     0      0    1236
                       i2_U1_NEWLINE
                   i2_U1_STRING_SEND
 ---------------------------------------------------------------------------------
 (8) i2_U1_STRING_SEND                                     6     4      2    1214
                                              4 COMRAM     6     4      2
                     i2_U1_BYTE_SEND
                           i2_strlen
 ---------------------------------------------------------------------------------
 (8) i2_U1_NEWLINE                                         0     0      0      22
                     i2_U1_BYTE_SEND
 ---------------------------------------------------------------------------------
 (9) i2_U1_BYTE_SEND                                       1     1      0      22
                                              0 COMRAM     1     1      0
 ---------------------------------------------------------------------------------
 (7) _I2C_POS_CURSOR                                       3     2      1     714
                                              6 COMRAM     3     2      1
                i2_I2C_ENVIA_LCD_CMD
 ---------------------------------------------------------------------------------
 (8) i2_I2C_ENVIA_LCD_CMD                                  4     4      0     386
                                              2 COMRAM     4     4      0
             i2_I2C1_WRITESINGLEBYTE
 ---------------------------------------------------------------------------------
 (7) _I2C_ESCRIBE_MENSAJE2                                 6     4      2     794
                                              6 COMRAM     6     4      2
                 _I2C_ENVIA_LCD_DATA
                           i2_strlen
 ---------------------------------------------------------------------------------
 (9) i2_strlen                                             4     2      2     142
                                              0 COMRAM     4     2      2
 ---------------------------------------------------------------------------------
 (8) _I2C_ENVIA_LCD_DATA                                   4     4      0     386
                                              2 COMRAM     4     4      0
             i2_I2C1_WRITESINGLEBYTE
 ---------------------------------------------------------------------------------
 (9) i2_I2C1_WRITESINGLEBYTE                               2     1      1     252
                                              0 COMRAM     2     1      1
 ---------------------------------------------------------------------------------
 Estimated maximum stack depth 9
 ---------------------------------------------------------------------------------
 (Depth) Function   	        Calls       Base Space   Used Autos Params    Refs
 ---------------------------------------------------------------------------------
 (6) _default_ISR                                          0     0      0       0
 ---------------------------------------------------------------------------------
 Estimated maximum stack depth 6
 ---------------------------------------------------------------------------------

 Call Graph Graphs:

 _main (ROOT)
   _configuro
     _I2C_LCD_INIT
       _I2C1_INIT
       _I2C1_WRITESINGLEBYTE
       _I2C_BORRAR_LCD
         _I2C_ENVIA_LCD_CMD
           _I2C1_WRITESINGLEBYTE
       _I2C_CURSOR_HOME
         _I2C_ENVIA_LCD_CMD
       _I2C_CURSOR_ONOFF
         _I2C_ENVIA_LCD_CMD
     _U1_INIT
   _vis_menu_P
     _U1_NEWLINE
       _U1_BYTE_SEND
     _U1_STRING_SEND
       _U1_BYTE_SEND
       _strlen

 _U1RX_ISR (ROOT)
   _I2C_ESCRIBE_MENSAJE2
     _I2C_ENVIA_LCD_DATA
       i2_I2C1_WRITESINGLEBYTE
     i2_strlen
   _I2C_POS_CURSOR
     i2_I2C_ENVIA_LCD_CMD
       i2_I2C1_WRITESINGLEBYTE
   _vis_menu_LCD
     i2_U1_NEWLINE
       i2_U1_BYTE_SEND
     i2_U1_STRING_SEND
       i2_U1_BYTE_SEND
       i2_strlen
   i2_I2C_BORRAR_LCD
     i2_I2C_ENVIA_LCD_CMD
   i2_U1_NEWLINE
   i2_U1_STRING_SEND
   i2_vis_menu_P
     i2_U1_NEWLINE
     i2_U1_STRING_SEND

 _default_ISR (ROOT)

 Address spaces:
Name               Size   Autos  Total    Cost      Usage
BIGRAM            1FFF      0       0      69        0.0%
EEDATA             400      0       0       0        0.0%
BITBIGSFRlllhhh    160      0       0      93        0.0%
BITBIGSFRhllhll    15D      0       0      80        0.0%
BITBIGSFR_1        100      0       0      68        0.0%
BITBANK36          100      0       0      66        0.0%
BANK36             100      0       0      67        0.0%
BITBANK35          100      0       0      64        0.0%
BANK35             100      0       0      65        0.0%
BITBANK34          100      0       0      62        0.0%
BANK34             100      0       0      63        0.0%
BITBANK33          100      0       0      60        0.0%
BANK33             100      0       0      61        0.0%
BITBANK32          100      0       0      58        0.0%
BANK32             100      0       0      59        0.0%
BITBANK31          100      0       0      56        0.0%
BANK31             100      0       0      57        0.0%
BITBANK30          100      0       0      54        0.0%
BANK30             100      0       0      55        0.0%
BITBANK29          100      0       0      52        0.0%
BANK29             100      0       0      53        0.0%
BITBANK28          100      0       0      50        0.0%
BANK28             100      0       0      51        0.0%
BITBANK27          100      0       0      48        0.0%
BANK27             100      0       0      49        0.0%
BITBANK26          100      0       0      46        0.0%
BANK26             100      0       0      47        0.0%
BITBANK25          100      0       0      44        0.0%
BANK25             100      0       0      45        0.0%
BITBANK24          100      0       0      42        0.0%
BANK24             100      0       0      43        0.0%
BITBANK23          100      0       0      40        0.0%
BANK23             100      0       0      41        0.0%
BITBANK22          100      0       0      38        0.0%
BANK22             100      0       0      39        0.0%
BITBANK21          100      0       0      36        0.0%
BANK21             100      0       0      37        0.0%
BITBANK20          100      0       0      34        0.0%
BANK20             100      0       0      35        0.0%
BITBANK19          100      0       0      32        0.0%
BANK19             100      0       0      33        0.0%
BITBANK18          100      0       0      30        0.0%
BANK18             100      0       0      31        0.0%
BITBANK17          100      0       0      28        0.0%
BANK17             100      0       0      29        0.0%
BITBANK16          100      0       0      26        0.0%
BANK16             100      0       0      27        0.0%
BITBANK15          100      0       0      24        0.0%
BANK15             100      0       0      25        0.0%
BITBANK14          100      0       0      22        0.0%
BANK14             100      0       0      23        0.0%
BITBANK13          100      0       0      20        0.0%
BANK13             100      0       0      21        0.0%
BITBANK12          100      0       0      18        0.0%
BANK12             100      0       0      19        0.0%
BITBANK11          100      0       0      16        0.0%
BANK11             100      0       0      17        0.0%
BITBANK10          100      0       0      14        0.0%
BANK10             100      0       0      15        0.0%
BITBANK9           100      0       0      12        0.0%
BANK9              100      0       0      13        0.0%
BITBANK8           100      0       0      10        0.0%
BANK8              100      0       0      11        0.0%
BITBANK7           100      0       0       8        0.0%
BANK7              100      0       0       9        0.0%
BITBANK6           100      0       0       6        0.0%
BANK6              100      0       0       7        0.0%
BITBIGSFRllll       AD      0       0      96        0.0%
BITBANK5            A0      0       0       4        0.0%
BANK5               A0      0       0       5        0.0%
BITBIGSFRhlhl       79      0       0      76        0.0%
BITCOMRAM           5F      0       0       0        0.0%
COMRAM              5F     1C      1E       1       31.6%
BITBIGSFRllhl       48      0       0      91        0.0%
BITBIGSFRhhh        29      0       0      70        0.0%
BITBIGSFRlllhhh     13      0       0      92        0.0%
BITBIGSFRllhhll     13      0       0      90        0.0%
BITBIGSFRhlhhhl      F      0       0      74        0.0%
BITBIGSFRhlhhl       F      0       0      75        0.0%
BITBIGSFRhllhlh      D      0       0      78        0.0%
BITBIGSFRhhl         A      0       0      71        0.0%
BITBIGSFRhllhh       7      0       0      77        0.0%
BITBIGSFRllhhh       7      0       0      82        0.0%
BITBIGSFRhlhhhh      5      0       0      73        0.0%
BITBIGSFRllhhll      4      0       0      87        0.0%
BITBIGSFRllhhll      4      0       0      84        0.0%
BITBIGSFRllhhll      4      0       0      89        0.0%
BITBIGSFRlllhl       3      0       0      95        0.0%
BITBIGSFRllhhll      2      0       0      86        0.0%
BITBIGSFRhlll        2      0       0      81        0.0%
BITBIGSFRllhhll      1      0       0      85        0.0%
BITBIGSFRllhhll      1      0       0      88        0.0%
BITBIGSFRhllhlh      1      0       0      79        0.0%
BITBIGSFRhlhhhh      1      0       0      72        0.0%
BITBIGSFRllhhlh      1      0       0      83        0.0%
BITBIGSFRlllhhl      1      0       0      94        0.0%
BIGSFR_1             0      0       0     200        0.0%
BIGSFR               0      0       0     200        0.0%
BITSFR_6             0      0       0     200        0.0%
SFR_6                0      0       0     200        0.0%
BITSFR_5             0      0       0     200        0.0%
SFR_5                0      0       0     200        0.0%
BITSFR_4             0      0       0     200        0.0%
SFR_4                0      0       0     200        0.0%
BITSFR_3             0      0       0     200        0.0%
SFR_3                0      0       0     200        0.0%
BITSFR_2             0      0       0     200        0.0%
SFR_2                0      0       0     200        0.0%
BITSFR_1             0      0       0     200        0.0%
SFR_1                0      0       0     200        0.0%
BITSFR               0      0       0     200        0.0%
SFR                  0      0       0     200        0.0%
STACK                0      0       0       2        0.0%
NULL                 0      0       0       0        0.0%
ABS                  0      0      1E      97        0.0%
DATA                 0      0      1E       3        0.0%
CODE                 0      0       0       0        0.0%


Microchip Technology PIC18 Macro Assembler V2.46 build 20240104201356 
Symbol Table                                                                                   Mon Nov 11 11:44:55 2024

                             l30 0CA8                               l33 0CB8                               l27 0CA0  
                             l39 09E8                               l81 0CDE                               u40 0CB8  
                             u41 0CB4                              l122 0C2A                              l221 0B02  
                            l125 0600                              l133 0C74                              l134 0C74  
                            l215 0AE6                              l224 0B10                              l209 0ACE  
                            l218 0AF4                              l247 0CF4                              l264 0BFE  
                            l282 0CFC                              l285 0932                              l293 0352  
                            u400 0BF8                              u401 0BF4                              u350 0AF4  
                            u351 0AF0                              u360 0B02                              u361 0AFE  
                            u370 0B10                              u371 0B0C                              u380 0B84  
                            u460 09E8                              u381 0B80                              u461 09E4  
                            u390 0BE2                              u391 0BDE                              u707 005E  
                            u717 0074                              u807 0124                              u727 0088  
                            u817 0134                              u737 009A                              u907 01D0  
                            u827 0146                              u747 00B0                              u667 0C62  
                            u917 01E2                              u837 0158                              u757 00C4  
                            u677 000A                              u927 01F4                              u847 0168  
                            u767 00D6                              u687 0028                              u937 0204  
                            u857 017A                              u777 00EC                              u697 004C  
                            u947 0216                              u867 018C                              u787 0100  
                            u957 0228                              u877 019C                              u797 0112  
                            u967 0238                              u887 01AE                              u977 024A  
                            u897 01C0                              u987 0260                              u997 0276  
                   _vis_menu_LCD 0734                              wreg 04E8                     _I2C_LCD_ADDR 051E  
                    ?_U1_NEWLINE 0501                     _I2C_LCD_INIT 0000                _I2C_ENVIA_LCD_CMD 08CC  
                           l2001 0052                  __end_of_U1_INIT 0CA2                             l1033 0B90  
                           l2011 0086                             l2003 005C                             l2101 021C  
                           l2021 00B8                             l2013 008E                             l2005 0064  
                           l1061 0CA4                             l1133 0CD2                             l2111 0248  
                           l2103 0226                             l2031 00E6                             l2023 00C2  
                           l2015 0098                             l2007 006E                             l1081 0ACC  
                           l2121 027C                             l2113 0250                             l2105 022C  
                           l2041 0118                             l2033 00F4                             l2025 00CA  
                           l2017 00A0                             l2009 007C                             l1075 0A86  
                           l2131 02A8                             l2123 0286                             l2115 025A  
                           l2107 0236                             l2051 0144                             l2043 0122  
                           l2035 00FE                             l2027 00D4                             l2019 00AA  
                           l1077 0A94                             l2141 02D2                             l2133 02B0  
                           l2125 028E                             l2117 026A                             l2109 023E  
                           l2061 016E                             l2053 014C                             l2045 0128  
                           l2037 0106                             l2029 00DC                             l2221 0C00  
                           l1079 0ABE                             l2151 0300                             l2143 02DC  
                           l2135 02BA                             l2127 0298                             l2119 0274  
                           l2071 019A                             l2063 0178                             l2055 0156  
                           l2047 0132                             l2039 0110                             l2231 0C22  
                           l2223 0C0E                             l2161 032A                             l2153 0306  
                           l2145 02E4                             l2137 02C2                             l2129 029E  
                           l2081 01C4                             l2073 01A2                             l2065 0180  
                           l2057 015C                             l2049 013A                             l2233 0C24  
                           l2225 0C10                             l2241 04E0                             l2401 0C54  
                           l2163 0334                             l2155 0310                             l2147 02EE  
                           l2139 02CC                             l2091 01F2                             l2083 01CE  
                           l2075 01AC                             l2067 018A                             l2059 0166  
                           l2235 0C26                             l2227 0C14                             l2251 0520  
                           l2243 04F0                             l2403 0C58                             l2165 0344  
                           l2157 0318                             l2149 02F6                             l2093 01F8  
                           l2085 01D6                             l2077 01B4                             l2069 0190  
                           l2229 0C20                             l2261 055C                             l2253 052C  
                           l2245 04FC                             l2237 04D0                             l2405 0C70  
                           l2167 0348                             l2159 0322                             l2095 0202  
                           l2087 01E0                             l2079 01BE                             l2271 059C  
                           l2263 056C                             l2255 053C                             l2247 050C  
                           l2239 04DC                             l2169 034C                             l2097 020A  
                           l2089 01E8                             l2281 05D0                             l2273 05A0  
                           l2265 0570                             l2257 0540                             l2249 0510  
                           l2099 0214                             l2283 05E0                             l2275 05B0  
                           l2267 0580                             l2259 0550                             l1901 0AD8  
                           l2285 05EC                             l2277 05BC                             l2269 058C  
                           l1903 0AE0                             l1911 08F2                             l2287 05FC  
                           l2279 05CC                             l1905 0AE4                             l1921 0920  
                           l1913 08FA                             l1923 092A                             l1915 0904  
                           l1907 08CE                             l1931 0B84                             l1917 090C  
                           l1909 08E6                             l1941 0BE2                             l1925 0B54  
                           l1919 0918                             l1935 0CF6                             l1943 0BE8  
                           l1927 0B60                             l1937 0CEE                             l1945 0BF8  
                           l1929 0B64                             l1939 0BD2                             l1971 0C9A  
                           l1973 0C9C                             l1981 09B4                             l1991 0014  
                           l1967 0C7C                             l1983 09D4                             l1975 099C  
                           l1993 001E                             l1969 0C82                             l1985 09D6  
                           l1977 09AC                             l1899 0AD2                             l1995 0036  
                           l1987 0000                             l1979 09AC                             l1997 0040  
                           l1989 0004                             l1999 004A                             STR_1 FF66  
                           STR_2 FD46                             STR_3 FF46                             STR_4 FF26  
                           STR_5 FD46                             STR_6 FD66                             STR_7 FE06  
                           STR_8 FE46                             STR_9 FE66                             u1007 0288  
                           u1017 029A                             u1107 033A                             u1027 02AA  
                           u1117 08F4                             u1037 02BC                             u1127 0906  
                           u1047 02CE                             u1137 091A                             u1057 02DE  
                           u1147 092C                             u1067 02F0                             u1077 0302  
                           u1087 0312                             u1097 0324                             i2l30 0CC0  
                           i2l33 0CD0                             i2l39 0A36                             i2l81 0CEC  
             ?_I2C_ENVIA_LCD_CMD 0501         I2C_ENVIA_LCD_CMD@command 0514                             _main 0C54  
              ??_I2C_CURSOR_HOME 0517                             start 0102              ??_I2C_ENVIA_LCD_CMD 0513  
                   ___param_bank 0000             __end_ofi2_vis_menu_P 0734               _I2C_ENVIA_LCD_DATA 0860  
              __end_of_I2C1_INIT 0AD0                 __end_of_U1RX_ISR 04D0                            ?_main 0501  
                          STR_10 FE26                            STR_11 FDE6                            STR_12 FD46  
                          STR_20 FF66                            STR_21 FD46                            STR_13 FDA6  
                          STR_30 FFC6                            STR_14 FF06                            STR_22 FD86  
                          STR_31 FFD5                            STR_15 FEC6                            STR_23 FDC6  
                          STR_24 FFA6                            STR_16 FE86                            STR_32 FD23  
                          STR_33 FFE2                            STR_25 FF86                            STR_17 FEA6  
                          STR_18 FD46                            STR_26 FEA6                            STR_34 FCFE  
                          STR_19 FF66                            STR_35 FFF6                            STR_27 FEE6  
                          STR_28 FD46                            STR_36 FCD9                            STR_29 FF66  
                          STR_37 FFEE                            STR_38 FD23                            _U1RXB 02A1  
                          _U1TXB 02A3                            i2l221 0B44                            i2l125 0732  
                          i2l230 084E                            i2l215 0B28                            i2l143 037A  
                          i2l224 0B52                            i2l128 07D4                            i2l145 0390  
                          i2l218 0B36                            i2l234 085E                            i2l164 0D08  
                          i2l159 04BE                            i2l282 0D04                            i2l276 0A84  
                          i2l285 099A                            i2l279 08CA                            _OSCEN 00B3  
            ?_I2C_ENVIA_LCD_DATA 0501        __end_of_I2C_ENVIA_LCD_CMD 0934         ??i2_I2C1_WRITESINGLEBYTE 0502  
                 _I2C_BORRAR_LCD 0CF6                ?_I2C_CURSOR_ONOFF 0501                            tablat 04F5  
                  ?_U1_BYTE_SEND 0501                            status 04D8               ??_I2C_CURSOR_ONOFF 0517  
         I2C_CURSOR_ONOFF@estado 0517             ??_I2C_ENVIA_LCD_DATA 0503                 __end_ofi2_strlen 0BD0  
                __initialization 0C2C                     __end_of_main 0C7C               i2U1_BYTE_SEND@dato 0501  
        I2C_ESCRIBE_MENSAJE2@tam 050B                           ??_main 051B      __end_ofi2_I2C_ENVIA_LCD_CMD 099C  
                  __activetblptr 0003                        ??_U1_INIT 0513           __end_of_I2C_BORRAR_LCD 0CFE  
               ??i2_U1_BYTE_SEND 0501                   ??_U1_BYTE_SEND 0511                           _U1CON0 02AB  
                         _U1CON1 02AC                           _U1CON2 02AD                           _U1BRGH 02AF  
                         _U1BRGL 02AE                           _RC3PPS 0214                           _RC4PPS 0215  
                         _RF0PPS 0229                           i2l1033 0BCE                           i2l2201 0CE0  
                         i2l2211 096C                           i2l2203 0936                           i2l2213 0974  
                         i2l2205 094E                           i2l2301 0774                           i2l2215 0980  
                         i2l2207 095A                           i2l2311 07B4                           i2l2303 0784  
                         i2l2217 0988                           i2l2209 0962                           i2l2321 07F4  
                         i2l2313 07C0                           i2l2305 0790                           i2l2171 0862  
                         i2l2219 0992                           i2l2331 0842                           i2l2323 0806  
                         i2l2315 07D0                           i2l2307 07A0                           i2l2181 08A2  
                         i2l2173 087A                           i2l2341 0A50                           i2l2325 0812  
                         i2l2333 084E                           i2l2317 07D8                           i2l2309 07A4  
                         i2l2421 03A2                           i2l2413 037C                           i2l2183 08AE  
                         i2l2175 0886                           i2l2343 0A70                           i2l2335 0A38  
                         i2l2327 0824                           i2l2319 07E8                           i2l2191 09FA  
                         i2l2351 0612                           i2l2423 03AA                           i2l2415 0388  
                         i2l2431 03C6                           i2l2407 0364                           i2l2185 08B6  
                         i2l2177 088E                           i2l2345 0A72                           i2l2337 0A48  
                         i2l2329 0830                           i2l2193 09FA                           i2l2361 0652  
                         i2l2353 0622                           i2l2425 03AE                           i2l2417 0392  
                         i2l2433 03EE                           i2l2409 0366                           i2l2187 08C2  
                         i2l2179 089A                           i2l2339 0A48                           i2l2195 0A02  
                         i2l2291 0740                           i2l2371 068E                           i2l2363 065E  
                         i2l2355 062E                           i2l2347 0602                           i2l2451 0440  
                         i2l2443 0416                           i2l2427 03B6                           i2l2197 0A22  
                         i2l2189 09EA                           i2l2293 0744                           i2l2381 06CE  
                         i2l2373 069E                           i2l2365 066E                           i2l2357 063E  
                         i2l2349 060E                           i2l2461 046E                           i2l2453 044C  
                         i2l2445 0422                           i2l2437 0402                           i2l2199 0A24  
                         i2l2295 0754                           i2l2391 0702                           i2l2383 06D2  
                         i2l2375 06A2                           i2l2367 0672                           i2l2359 0642  
                         i2l2463 0476                           i2l2455 0450                           i2l2447 0426  
                         i2l2439 0406                           i2l2297 0760                           i2l2289 0734  
                         i2l2393 0712                           i2l2385 06E2                           i2l2377 06B2  
                         i2l2369 0682                           i2l2465 047E                           i2l2457 045A  
                         i2l2449 0430                           i2l2299 0770                           i2l2395 071E  
                         i2l2387 06EE                           i2l2379 06BE                           i2l2459 046A  
                         i2l2397 072E                           i2l2389 06FE                           i2l2469 048E  
                         i2l1951 0B1A                           i2l2399 0CFE                           i2l1953 0B22  
                         i2l1961 0BA2                           i2l1955 0B26                           i2l1963 0BC2  
                         i2l1947 0CBC                           i2l1949 0B14                           i2l1957 0B92  
                         i2l1959 0B9E         __end_ofi2_I2C_BORRAR_LCD 0D06                           _OSCFRQ 00B1  
  I2C1_WRITESINGLEBYTE@direccion 0512  i2I2C1_WRITESINGLEBYTE@direccion 0502                           isa$std 0001  
                         _strlen 0B54                     __pdataCOMRAM 051E                     __mediumconst FCD8  
                  ?i2_U1_NEWLINE 0501                           tblptrh 04F7                           tblptrl 04F6  
                         tblptru 04F8                  ?_I2C_BORRAR_LCD 0501                   _I2C_POS_CURSOR 07D6  
              U1_STRING_SEND@tam 0519                       __accesstop 0560          __end_of__initialization 0C4E  
                      ?_U1RX_ISR 0501                    ___rparam_used 0001                   __pcstackCOMRAM 0501  
                 ivt0x8_undefint 0100            I2C_ESCRIBE_MENSAJE2@i 050C                   ??i2_U1_NEWLINE 0502  
                   ??_U1_NEWLINE 0512                  _I2C_CURSOR_HOME 0CEE           __end_of_I2C_POS_CURSOR 0860  
                      ?i2_strlen 0501                     i2_vis_menu_P 0602                  U1_STRING_SEND@i 051A  
                     ??_U1RX_ISR 050D                          IVTBASEH 045E                          IVTBASEL 045D  
                        IVTBASEU 045F           i2_I2C1_WRITESINGLEBYTE 0B12                          _I2C1CNT 028D  
             __end_of_U1_NEWLINE 0CE0                          _I2C1TXB 028C             __end_of_U1_BYTE_SEND 0CBA  
    I2C_ENVIA_LCD_DATA@lownibble 0506     i2I2C_ENVIA_LCD_CMD@lownibble 0506                          ?_strlen 0511  
                      _I2C1_INIT 0A86                          _U1RXPPS 0272                          _U1_INIT 0C7C  
                        _OSCCON1 00AD     __end_of_I2C_ESCRIBE_MENSAJE2 0A86                          i2u41_40 0CD0  
                        i2u41_41 0CCC                          i2u42_40 0B36                          i2u50_40 0824  
                        i2u42_41 0B32                          i2u50_41 0820                          i2u43_40 0B44  
                        i2u51_40 0842                          i2u43_41 0B40                          i2u51_41 083E  
                        i2u44_40 0B52                          i2u52_40 0A84                          i2u44_41 0B4E  
                        i2u52_41 0A80                          i2u45_40 0BC2                          i2u53_40 0376  
                        i2u45_41 0BBE                          i2u53_41 0372                          i2u54_40 03FE  
                        i2u54_41 03FA                          i2u47_40 0A36                          i2u47_41 0A32  
                        i2u48_40 07E8                          i2u48_41 07E4                          i2u49_40 0806  
                        i2u49_41 0802                       ??i2_strlen 0503                  ?_I2C_POS_CURSOR 0507  
     I2C_ESCRIBE_MENSAJE2@cadena 0507                 i2_U1_STRING_SEND 09EA                          __Hparam 0000  
                        __Lparam 0000                __end_of_configuro 0C2C                          __pcinit 0C2C  
                        __ramtop 2500                          __ptext0 0C54                          __ptext1 04D0  
                        __ptext2 099C                          __ptext3 0B54                          __ptext4 0CD2  
                        __ptext5 0CA2                          __ptext6 0C00                          __ptext7 0C7C  
                        __ptext8 0000                          __ptext9 0BD0          __end_of_I2C_CURSOR_HOME 0CF6  
                    _I2C1CLKbits 029C                       ?_I2C1_INIT 0501       I2C_ENVIA_LCD_CMD@lownibble 0516  
                  ??_default_ISR 0511                      _I2C1PIRbits 029A             end_of_initialization 0C4E  
              ?i2_I2C_BORRAR_LCD 0501               ??i2_I2C_BORRAR_LCD 0507             __end_ofi2_U1_NEWLINE 0CEE  
             I2C_POS_CURSOR@fila 0509                          strlen@a 0513                          strlen@s 0511  
               ??_I2C_BORRAR_LCD 0517                        _TRISCbits 04C8                        _TRISEbits 04CA  
                      _TRISFbits 04CB                       _vis_menu_P 04D0              __end_of_default_ISR 0D0A  
           _I2C_ESCRIBE_MENSAJE2 0A38                    __pidataCOMRAM 0D0A                 ?_I2C_CURSOR_HOME 0501  
                 _U1_STRING_SEND 099C                      ??_I2C1_INIT 0511                    ?_vis_menu_LCD 0501  
                 __end_of_strlen 0B92              start_initialization 0C2C                    ?_I2C_LCD_INIT 0501  
     i2I2C1_WRITESINGLEBYTE@dato 0501     __end_of_I2C1_WRITESINGLEBYTE 0B12                       ivt0x8_base 0008  
                      i2strlen@a 0503                        i2strlen@s 0501                     _U1_BYTE_SEND 0CA2  
         i2U1_STRING_SEND@cadena 0505          ?i2_I2C1_WRITESINGLEBYTE 0501            ?_I2C_ESCRIBE_MENSAJE2 0507  
   I2C_ENVIA_LCD_DATA@highnibble 0505                 _I2C_CURSOR_ONOFF 0BD0    i2I2C_ENVIA_LCD_CMD@highnibble 0505  
         __end_of_U1_STRING_SEND 09EA                         ??_strlen 0513                 ??_I2C_POS_CURSOR 0508  
                 ??_vis_menu_LCD 050B                   ??_I2C_LCD_INIT 0518                         ?_U1_INIT 0511  
                    __pbssCOMRAM 051D         __end_ofi2_U1_STRING_SEND 0A38                      _default_ISR 0D08  
                    ?_vis_menu_P 0501   __end_ofi2_I2C1_WRITESINGLEBYTE 0B54                    __pmediumconst FCD8  
                       _I2C1ADB1 028F                  ?_U1_STRING_SEND 0515                        _configuro 0C00  
                   i2_U1_NEWLINE 0CE0                      _U1ERRIRbits 02B2                         _LATEbits 04C2  
                       _U1RX_ISR 0354                         _PIE4bits 04A2           ??_I2C_ESCRIBE_MENSAJE2 0509  
                       i2u120_47 0888                         i2u121_47 089C                         i2u122_47 08B0  
                       i2u123_47 08C4                         i2u115_47 0854                         i2u116_47 095C  
                       i2u117_47 096E                         i2u118_47 0982                         i2u119_47 0994  
                  _I2C1STAT1bits 0299                         _PIR4bits 04B2              i2_I2C_ENVIA_LCD_CMD 0934  
           _I2C1_WRITESINGLEBYTE 0AD0           I2C_ENVIA_LCD_DATA@data 0504                       ?_configuro 0501  
    I2C_ENVIA_LCD_CMD@highnibble 0515             ?i2_I2C_ENVIA_LCD_CMD 0501                         i2_strlen 0B92  
                    _INTCON0bits 04D6       i2I2C_ENVIA_LCD_CMD@command 0504       __end_of_I2C_ENVIA_LCD_DATA 08CC  
          I2C_POS_CURSOR@columna 0507                   i2_U1_BYTE_SEND 0CBA             __end_of_vis_menu_LCD 07D6  
                       __Hrparam 0000             __end_of_I2C_LCD_INIT 0354                 U1_BYTE_SEND@dato 0511  
                       __Lrparam 0000            ?_I2C1_WRITESINGLEBYTE 0511                       _ANSELCbits 0410  
                     _ANSELEbits 0420                       _ANSELFbits 0428                     _I2C1CON0bits 0294  
                   _I2C1CON1bits 0295                     _I2C1CON2bits 0296                         __pivt0x8 0008  
          ??i2_I2C_ENVIA_LCD_CMD 0503         I2C1_WRITESINGLEBYTE@dato 0511                      _menu_activo 051D  
                       __ptext10 0CEE                         __ptext11 0CF6                         __ptext20 0CE0  
                       __ptext12 08CC                         __ptext21 0CBA                         __ptext13 0AD0  
                       __ptext22 07D6                         __ptext14 0A86                         __ptext23 0934  
                       __ptext15 0354                         __ptext24 0A38                         __ptext16 0602  
                       __ptext25 0B92                         __ptext17 0CFE                         __ptext26 0860  
                       __ptext18 0734                         __ptext27 0B12                         __ptext19 09EA  
                       __ptext28 0D08                    ?i2_vis_menu_P 0501                       _RC3I2Cbits 0287  
       __end_of_I2C_CURSOR_ONOFF 0C00                       _RC4I2Cbits 0286           __end_ofi2_U1_BYTE_SEND 0CD2  
                       isa$xinst 0000                       _ODCONCbits 0412                      ??_configuro 051A  
                     _U1_NEWLINE 0CD2                ?i2_U1_STRING_SEND 0505                 U1_INIT@velocidad 0511  
                   ?_default_ISR 0501                   ??i2_vis_menu_P 050B                     ??_vis_menu_P 051B  
             ??i2_U1_STRING_SEND 0507                         intlevel2 0000                  ?i2_U1_BYTE_SEND 0501  
         ??_I2C1_WRITESINGLEBYTE 0512                 ??_U1_STRING_SEND 0517                 i2_I2C_BORRAR_LCD 0CFE  
             __end_of_vis_menu_P 0602              i2U1_STRING_SEND@tam 0509             U1_STRING_SEND@cadena 0515  
              i2U1_STRING_SEND@i 050A  
